
Vision.elf:     file format elf32-littlenios2
Vision.elf
architecture: nios2:r1, flags 0x00000112:
EXEC_P, HAS_SYMS, D_PAGED
start address 0x00020238

Program Header:
    LOAD off    0x00001000 vaddr 0x00020000 paddr 0x00020000 align 2**12
         filesz 0x00000020 memsz 0x00000020 flags r-x
    LOAD off    0x00001020 vaddr 0x00020020 paddr 0x00020020 align 2**12
         filesz 0x00013ff4 memsz 0x00013ff4 flags r-x
    LOAD off    0x00015014 vaddr 0x00034014 paddr 0x00036464 align 2**12
         filesz 0x00002450 memsz 0x00002450 flags rw-
    LOAD off    0x000178b4 vaddr 0x000388b4 paddr 0x000388b4 align 2**12
         filesz 0x00000000 memsz 0x00000158 flags rw-

Sections:
Idx Name          Size      VMA       LMA       File off  Algn
  0 .entry        00000020  00020000  00020000  00001000  2**5
                  CONTENTS, ALLOC, LOAD, READONLY, CODE
  1 .exceptions   00000218  00020020  00020020  00001020  2**2
                  CONTENTS, ALLOC, LOAD, READONLY, CODE
  2 .text         00013160  00020238  00020238  00001238  2**2
                  CONTENTS, ALLOC, LOAD, READONLY, CODE
  3 .rodata       00000c7c  00033398  00033398  00014398  2**2
                  CONTENTS, ALLOC, LOAD, READONLY, DATA
  4 .rwdata       00002450  00034014  00036464  00015014  2**2
                  CONTENTS, ALLOC, LOAD, DATA, SMALL_DATA
  5 .bss          00000158  000388b4  000388b4  000178b4  2**2
                  ALLOC, SMALL_DATA
  6 .onchip_memory2_0 00000000  00038a0c  00038a0c  00017464  2**0
                  CONTENTS
  7 .comment      0000002c  00000000  00000000  00017464  2**0
                  CONTENTS, READONLY
  8 .debug_aranges 000013d8  00000000  00000000  00017490  2**3
                  CONTENTS, READONLY, DEBUGGING
  9 .debug_info   0005f027  00000000  00000000  00018868  2**0
                  CONTENTS, READONLY, DEBUGGING
 10 .debug_abbrev 00013664  00000000  00000000  0007788f  2**0
                  CONTENTS, READONLY, DEBUGGING
 11 .debug_line   0001eb00  00000000  00000000  0008aef3  2**0
                  CONTENTS, READONLY, DEBUGGING
 12 .debug_frame  00003020  00000000  00000000  000a99f4  2**2
                  CONTENTS, READONLY, DEBUGGING
 13 .debug_str    00004c89  00000000  00000000  000aca14  2**0
                  CONTENTS, READONLY, DEBUGGING
 14 .debug_loc    0001e8e2  00000000  00000000  000b169d  2**0
                  CONTENTS, READONLY, DEBUGGING
 15 .debug_alt_sim_info 00000060  00000000  00000000  000cff80  2**2
                  CONTENTS, READONLY, DEBUGGING
 16 .debug_ranges 00001f98  00000000  00000000  000cffe0  2**3
                  CONTENTS, READONLY, DEBUGGING
 17 .thread_model 00000003  00000000  00000000  000d6030  2**0
                  CONTENTS, READONLY
 18 .cpu          0000000a  00000000  00000000  000d6033  2**0
                  CONTENTS, READONLY
 19 .qsys         00000001  00000000  00000000  000d603d  2**0
                  CONTENTS, READONLY
 20 .simulation_enabled 00000001  00000000  00000000  000d603e  2**0
                  CONTENTS, READONLY
 21 .sysid_hash   00000004  00000000  00000000  000d603f  2**0
                  CONTENTS, READONLY
 22 .sysid_base   00000004  00000000  00000000  000d6043  2**0
                  CONTENTS, READONLY
 23 .sysid_time   00000004  00000000  00000000  000d6047  2**0
                  CONTENTS, READONLY
 24 .stderr_dev   00000009  00000000  00000000  000d604b  2**0
                  CONTENTS, READONLY
 25 .stdin_dev    00000009  00000000  00000000  000d6054  2**0
                  CONTENTS, READONLY
 26 .stdout_dev   00000009  00000000  00000000  000d605d  2**0
                  CONTENTS, READONLY
 27 .sopc_system_name 00000004  00000000  00000000  000d6066  2**0
                  CONTENTS, READONLY
 28 .quartus_project_dir 00000039  00000000  00000000  000d606a  2**0
                  CONTENTS, READONLY
 29 .jdi          0000492f  00000000  00000000  000d60a3  2**0
                  CONTENTS, READONLY
SYMBOL TABLE:
00020000 l    d  .entry	00000000 .entry
00020020 l    d  .exceptions	00000000 .exceptions
00020238 l    d  .text	00000000 .text
00033398 l    d  .rodata	00000000 .rodata
00034014 l    d  .rwdata	00000000 .rwdata
000388b4 l    d  .bss	00000000 .bss
00038a0c l    d  .onchip_memory2_0	00000000 .onchip_memory2_0
00000000 l    d  .comment	00000000 .comment
00000000 l    d  .debug_aranges	00000000 .debug_aranges
00000000 l    d  .debug_info	00000000 .debug_info
00000000 l    d  .debug_abbrev	00000000 .debug_abbrev
00000000 l    d  .debug_line	00000000 .debug_line
00000000 l    d  .debug_frame	00000000 .debug_frame
00000000 l    d  .debug_str	00000000 .debug_str
00000000 l    d  .debug_loc	00000000 .debug_loc
00000000 l    d  .debug_alt_sim_info	00000000 .debug_alt_sim_info
00000000 l    d  .debug_ranges	00000000 .debug_ranges
00000000 l    df *ABS*	00000000 C:/Users/Emre/Documents/projectnios2/DE10_LITE_D8M_VIP_16/software/Vision_bsp/obj/HAL/src/crt0.o
00020280 l       .text	00000000 alt_after_alt_main
00000000 l    df *ABS*	00000000 alt_irq_handler.c
00000000 l    df *ABS*	00000000 alt_instruction_exception_entry.c
00000000 l    df *ABS*	00000000 I2C_core.c
00000000 l    df *ABS*	00000000 auto_focus.c
00000000 l    df *ABS*	00000000 main.c
00000000 l    df *ABS*	00000000 mipi_bridge_config.c
00034014 l     O .rwdata	00000034 MipiBridgeReg
00000000 l    df *ABS*	00000000 mipi_camera_config.c
00034048 l     O .rwdata	00000774 MipiCameraReg
00000000 l    df *ABS*	00000000 queue.c
00000000 l    df *ABS*	00000000 lib2-divmod.c
00000000 l    df *ABS*	00000000 fopen.c
00000000 l    df *ABS*	00000000 fseek.c
00000000 l    df *ABS*	00000000 fseeko.c
00000000 l    df *ABS*	00000000 fstatr.c
00000000 l    df *ABS*	00000000 fwrite.c
00000000 l    df *ABS*	00000000 getchar.c
00000000 l    df *ABS*	00000000 impure.c
000347bc l     O .rwdata	00000424 impure_data
00000000 l    df *ABS*	00000000 int_errno.c
00000000 l    df *ABS*	00000000 makebuf.c
00000000 l    df *ABS*	00000000 malloc.c
00000000 l    df *ABS*	00000000 mallocr.c
00000000 l    df *ABS*	00000000 memset.c
00000000 l    df *ABS*	00000000 openr.c
00000000 l    df *ABS*	00000000 printf.c
00000000 l    df *ABS*	00000000 putchar.c
00000000 l    df *ABS*	00000000 puts.c
00000000 l    df *ABS*	00000000 refill.c
00023df8 l     F .text	0000001c lflush
00000000 l    df *ABS*	00000000 sbrkr.c
00000000 l    df *ABS*	00000000 stdio.c
00000000 l    df *ABS*	00000000 strlen.c
00000000 l    df *ABS*	00000000 vfprintf.c
00026308 l     F .text	000000c0 __sbprintf
00033a18 l     O .rodata	00000010 blanks.5176
00033a08 l     O .rodata	00000010 zeroes.5177
00000000 l    df *ABS*	00000000 writer.c
00000000 l    df *ABS*	00000000 wsetup.c
00000000 l    df *ABS*	00000000 closer.c
00000000 l    df *ABS*	00000000 dtoa.c
000265e0 l     F .text	000001fc quorem
00000000 l    df *ABS*	00000000 fflush.c
00000000 l    df *ABS*	00000000 findfp.c
000281dc l     F .text	00000008 __fp_lock
000281f0 l     F .text	00000168 __sinit.part.0
00028358 l     F .text	00000008 __fp_unlock
00000000 l    df *ABS*	00000000 flags.c
00000000 l    df *ABS*	00000000 mallocr.c
00000000 l    df *ABS*	00000000 fvwrite.c
00000000 l    df *ABS*	00000000 fwalk.c
00000000 l    df *ABS*	00000000 getc.c
00000000 l    df *ABS*	00000000 isattyr.c
00000000 l    df *ABS*	00000000 localeconv.c
00000000 l    df *ABS*	00000000 lseekr.c
00000000 l    df *ABS*	00000000 memchr.c
00000000 l    df *ABS*	00000000 memcpy.c
00000000 l    df *ABS*	00000000 memmove.c
00000000 l    df *ABS*	00000000 mprec.c
00033ac4 l     O .rodata	0000000c p05.3991
00000000 l    df *ABS*	00000000 putc.c
00000000 l    df *ABS*	00000000 readr.c
00000000 l    df *ABS*	00000000 mallocr.c
00000000 l    df *ABS*	00000000 rget.c
00000000 l    df *ABS*	00000000 vfprintf.c
0002ad68 l     F .text	000000f4 __sprint_r.part.0
0002c194 l     F .text	000000c0 __sbprintf
00033bf8 l     O .rodata	00000010 blanks.5153
00033be8 l     O .rodata	00000010 zeroes.5154
00000000 l    df *ABS*	00000000 wbuf.c
00000000 l    df *ABS*	00000000 assert.c
00000000 l    df *ABS*	00000000 mallocr.c
00000000 l    df *ABS*	00000000 fclose.c
00000000 l    df *ABS*	00000000 fiprintf.c
00000000 l    df *ABS*	00000000 fputwc.c
00000000 l    df *ABS*	00000000 locale.c
00000000 l    df *ABS*	00000000 mbtowc_r.c
00000000 l    df *ABS*	00000000 strcmp.c
00000000 l    df *ABS*	00000000 vfiprintfr_1.c
00000000 l    df *ABS*	00000000 wcrtomb.c
00000000 l    df *ABS*	00000000 wctomb_r.c
00000000 l    df *ABS*	00000000 abort.c
00000000 l    df *ABS*	00000000 ctype_.c
00000000 l    df *ABS*	00000000 signal.c
0002cb2c l     F .text	0000004c _init_signal_r.part.0
00000000 l    df *ABS*	00000000 signalr.c
00000000 l    df *ABS*	00000000 libgcc2.c
00000000 l    df *ABS*	00000000 libgcc2.c
00000000 l    df *ABS*	00000000 adddf3.c
00000000 l    df *ABS*	00000000 divdf3.c
00000000 l    df *ABS*	00000000 eqdf2.c
00000000 l    df *ABS*	00000000 gedf2.c
00000000 l    df *ABS*	00000000 ledf2.c
00000000 l    df *ABS*	00000000 muldf3.c
00000000 l    df *ABS*	00000000 subdf3.c
00000000 l    df *ABS*	00000000 unorddf2.c
00000000 l    df *ABS*	00000000 fixdfsi.c
00000000 l    df *ABS*	00000000 floatsidf.c
00000000 l    df *ABS*	00000000 floatunsidf.c
00000000 l    df *ABS*	00000000 libgcc2.c
00000000 l    df *ABS*	00000000 libgcc2.c
00000000 l    df *ABS*	00000000 alt_close.c
0002ff58 l     F .text	0000003c alt_get_errno
00000000 l    df *ABS*	00000000 alt_dev.c
00030064 l     F .text	0000002c alt_dev_null_write
00000000 l    df *ABS*	00000000 alt_errno.c
00000000 l    df *ABS*	00000000 alt_exit.c
00000000 l    df *ABS*	00000000 alt_fcntl.c
000300c8 l     F .text	0000003c alt_get_errno
00000000 l    df *ABS*	00000000 alt_fstat.c
00030228 l     F .text	0000003c alt_get_errno
00000000 l    df *ABS*	00000000 alt_getpid.c
00000000 l    df *ABS*	00000000 alt_isatty.c
00030334 l     F .text	0000003c alt_get_errno
00000000 l    df *ABS*	00000000 alt_kill.c
00030414 l     F .text	0000003c alt_get_errno
00000000 l    df *ABS*	00000000 alt_load.c
0003057c l     F .text	00000068 alt_load_section
00000000 l    df *ABS*	00000000 alt_lseek.c
00030668 l     F .text	0000003c alt_get_errno
00000000 l    df *ABS*	00000000 alt_main.c
00000000 l    df *ABS*	00000000 alt_malloc_lock.c
00000000 l    df *ABS*	00000000 alt_open.c
0003083c l     F .text	0000003c alt_get_errno
00030878 l     F .text	000000b8 alt_file_locked
00000000 l    df *ABS*	00000000 alt_read.c
00030a84 l     F .text	0000003c alt_get_errno
00000000 l    df *ABS*	00000000 alt_release_fd.c
00000000 l    df *ABS*	00000000 alt_sbrk.c
00036454 l     O .rwdata	00000004 heap_end
00000000 l    df *ABS*	00000000 alt_tick.c
00000000 l    df *ABS*	00000000 alt_usleep.c
00000000 l    df *ABS*	00000000 alt_write.c
00030ea8 l     F .text	0000003c alt_get_errno
00000000 l    df *ABS*	00000000 alt_sys_init.c
00030fdc l     F .text	00000034 alt_dev_reg
000352fc l     O .rwdata	00001060 jtag_uart
0003635c l     O .rwdata	000000c4 uart_0
00000000 l    df *ABS*	00000000 altera_avalon_jtag_uart_fd.c
00000000 l    df *ABS*	00000000 altera_avalon_jtag_uart_init.c
000312f4 l     F .text	0000020c altera_avalon_jtag_uart_irq
00031500 l     F .text	000000a0 altera_avalon_jtag_uart_timeout
00000000 l    df *ABS*	00000000 altera_avalon_jtag_uart_ioctl.c
00000000 l    df *ABS*	00000000 altera_avalon_jtag_uart_read.c
00000000 l    df *ABS*	00000000 altera_avalon_jtag_uart_write.c
00000000 l    df *ABS*	00000000 altera_avalon_timer_sc.c
00031b44 l     F .text	0000007c alt_avalon_timer_sc_irq
00000000 l    df *ABS*	00000000 altera_avalon_uart_fd.c
00000000 l    df *ABS*	00000000 altera_avalon_uart_init.c
00031e00 l     F .text	0000009c altera_avalon_uart_irq
00031e9c l     F .text	000000e0 altera_avalon_uart_rxirq
00031f7c l     F .text	00000144 altera_avalon_uart_txirq
00000000 l    df *ABS*	00000000 altera_avalon_uart_read.c
00032114 l     F .text	0000003c alt_get_errno
00000000 l    df *ABS*	00000000 altera_avalon_uart_write.c
00032338 l     F .text	0000003c alt_get_errno
00000000 l    df *ABS*	00000000 alt_alarm_start.c
00000000 l    df *ABS*	00000000 alt_busy_sleep.c
00000000 l    df *ABS*	00000000 alt_dcache_flush_all.c
00000000 l    df *ABS*	00000000 alt_dev_llist_insert.c
00032800 l     F .text	0000003c alt_get_errno
00000000 l    df *ABS*	00000000 alt_do_ctors.c
00000000 l    df *ABS*	00000000 alt_do_dtors.c
00000000 l    df *ABS*	00000000 alt_find_dev.c
00000000 l    df *ABS*	00000000 alt_find_file.c
00000000 l    df *ABS*	00000000 alt_get_fd.c
00000000 l    df *ABS*	00000000 alt_icache_flush_all.c
00000000 l    df *ABS*	00000000 alt_iic.c
00000000 l    df *ABS*	00000000 alt_iic_isr_register.c
00000000 l    df *ABS*	00000000 alt_io_redirect.c
00032eb0 l     F .text	000000b0 alt_open_fd
00000000 l    df *ABS*	00000000 alt_irq_vars.c
00000000 l    df *ABS*	00000000 altera_nios2_gen2_irq.c
00000000 l    df *ABS*	00000000 alt_icache_flush.c
00000000 l    df *ABS*	00000000 atexit.c
00000000 l    df *ABS*	00000000 exit.c
00000000 l    df *ABS*	00000000 memcmp.c
00000000 l    df *ABS*	00000000 __atexit.c
00000000 l    df *ABS*	00000000 __call_atexit.c
000388e0 g     O .bss	00000004 alt_instruction_exception_handler
00023d04 g     F .text	00000018 putchar
0002a434 g     F .text	00000070 _mprec_log10
0002a510 g     F .text	00000060 __any_on
000290f8 g     F .text	00000058 _isatty_r
00033ad0 g     O .rodata	00000028 __mprec_tinytens
00030778 g     F .text	0000007c alt_main
00023d1c g     F .text	000000cc _puts_r
0003890c g     O .bss	00000100 alt_irq
00029170 g     F .text	00000064 _lseek_r
00021304 g     F .text	0000008c Focus_Released
000205d0 g     F .text	00000060 ACK_check
00036464 g       *ABS*	00000000 __flash_rwdata_start
00020544 g     F .text	0000008c ACK_single_check
00028520 g     F .text	000000b8 __sflags
0002eae0 g     F .text	00000080 .hidden __eqdf2
0002113c g     F .text	000001c8 Focus_Window
00021e48 g     F .text	00000070 OV8865_write_AF
00038a0c g       *ABS*	00000000 __alt_heap_start
000226f8 g     F .text	00000064 QUEUE_IsFull
0002cde0 g     F .text	00000060 _kill_r
00023cc4 g     F .text	00000038 printf
0002c9e4 g     F .text	0000006c _wcrtomb_r
0002cb8c g     F .text	00000084 _signal_r
00024114 g     F .text	0000005c __sseek
000284d8 g     F .text	00000010 __sinit
0002c254 g     F .text	00000148 __swbuf_r
0002c840 g     F .text	00000074 _setlocale_r
00028360 g     F .text	00000068 __sfmoreglue
00030818 g     F .text	00000024 __malloc_unlock
000293a8 g     F .text	0000012c memmove
00020630 g     F .text	00000204 OC_I2C_Write
000284c4 g     F .text	00000014 _cleanup
000294d4 g     F .text	000000a4 _Balloc
00021038 g     F .text	00000104 Focus_Init
0002eb60 g     F .text	000000f0 .hidden __gtdf2
00032fdc g     F .text	00000024 altera_nios2_gen2_irq_init
00020000 g     F .entry	0000001c __reset
00029150 g     F .text	00000008 __localeconv_l
00020020 g       *ABS*	00000000 __flash_exceptions_start
00022ff8 g     F .text	00000060 _fstat_r
00036428 g     O .rwdata	00000001 focus_scal
000388b4 g     O .bss	00000004 errno
0002ad58 g     F .text	00000010 __srget
0002408c g     F .text	00000008 __seofread
000388cc g     O .bss	00000004 alt_argv
0003e420 g       *ABS*	00000000 _gp
00030e78 g     F .text	00000030 usleep
00030314 g     F .text	00000020 getpid
0003517c g     O .rwdata	00000180 alt_fd_list
00028fec g     F .text	0000007c _getc_r
00029068 g     F .text	00000090 getc
00023cfc g     F .text	00000008 _putchar_r
000329ac g     F .text	00000090 alt_find_dev
000292a8 g     F .text	00000100 memcpy
00020384 g     F .text	0000013c oc_i2c_init_ex
000281e4 g     F .text	0000000c _cleanup_r
0002fdb8 g     F .text	000000bc .hidden __floatsidf
00032f60 g     F .text	0000007c alt_io_redirect
0002ec50 g     F .text	000000f0 .hidden __ltdf2
00033398 g       *ABS*	00000000 __DTOR_END__
00023de8 g     F .text	00000010 puts
00033090 g     F .text	00000098 alt_exception_cause_generated_bad_addr
0002a38c g     F .text	000000a8 __ratio
0002c178 g     F .text	0000001c __vfiprintf_internal
000226b8 g     F .text	00000040 QUEUE_IsEmpty
000316fc g     F .text	00000220 altera_avalon_jtag_uart_read
00023340 g     F .text	00000010 malloc
00023c94 g     F .text	00000030 _printf_r
00020000 g       *ABS*	00000000 __alt_mem_onchip_memory2_0
000229a0 g     F .text	00000064 .hidden __udivsi3
00030370 g     F .text	000000a4 isatty
0002cc10 g     F .text	000000c4 _raise_r
0002c3b4 g     F .text	00000064 __assert_func
00033b20 g     O .rodata	000000c8 __mprec_tens
00033000 g     F .text	00000090 alt_icache_flush
000388c0 g     O .bss	00000004 __malloc_top_pad
0002ce40 g     F .text	00000004 _getpid_r
00022878 g     F .text	00000034 QUEUE_Empty
00021f38 g     F .text	000000d0 OV8865_FOCUS_Move_to
00029158 g     F .text	0000000c _localeconv_r
00029920 g     F .text	00000054 __i2b
000289f0 g     F .text	000004bc __sfvwrite_r
000227ec g     F .text	0000008c QUEUE_Pop
0002ccd4 g     F .text	000000b8 __sigtramp_r
00023fe0 g     F .text	00000058 _sbrk_r
0002a71c g     F .text	00000064 _read_r
00036426 g     O .rwdata	00000002 focus_height
0003644c g     O .rwdata	00000004 alt_max_fd
0002c4e0 g     F .text	000000f8 _fclose_r
00021dd8 g     F .text	00000070 OV8865_write_cmos_sensor_8
000281b4 g     F .text	00000028 fflush
000388bc g     O .bss	00000004 __malloc_max_sbrked_mem
0002d908 g     F .text	00000978 .hidden __adddf3
0002a124 g     F .text	00000104 __b2d
0002d3d4 g     F .text	00000534 .hidden __umoddi3
000306a4 g     F .text	000000d4 lseek
0003642c g     O .rwdata	00000004 _global_impure_ptr
0002a780 g     F .text	00000564 _realloc_r
00038a0c g       *ABS*	00000000 __bss_end
00032dc8 g     F .text	000000e8 alt_iic_isr_register
00030d70 g     F .text	00000108 alt_tick
0002ce44 g     F .text	00000590 .hidden __udivdi3
0002c7a4 g     F .text	00000024 _fputwc_r
00033af8 g     O .rodata	00000028 __mprec_bigtens
000296d4 g     F .text	00000138 __s2b
0002cb14 g     F .text	00000018 abort
0002fe74 g     F .text	00000090 .hidden __floatunsidf
00036422 g     O .rwdata	00000002 video_h
00029e44 g     F .text	00000058 __mcmp
00031d54 g     F .text	000000ac altera_avalon_uart_init
000284f8 g     F .text	00000014 __fp_lock_all
00032d7c g     F .text	0000004c alt_ic_irq_enabled
00021390 g     F .text	000000b8 mipi_clear_error
00020ba0 g     F .text	00000214 OC_I2CL_Write
00030ccc g     F .text	000000a4 alt_alarm_stop
000388dc g     O .bss	00000004 alt_irq_active
00022b88 g     F .text	00000454 _fseeko_r
00020834 g     F .text	00000064 ACK_judge_for_read
000200fc g     F .exceptions	000000c8 alt_irq_handler
000220ec g     F .text	000000cc OV8865SetGain
00035154 g     O .rwdata	00000028 alt_dev_null
00020284 g     F .text	00000054 Write32_Data
000327b4 g     F .text	0000004c alt_dcache_flush_all
0002980c g     F .text	00000064 __hi0bits
0002fd38 g     F .text	00000080 .hidden __fixdfsi
00036429 g     O .rwdata	00000001 focus_scal_f
00036464 g       *ABS*	00000000 __ram_rwdata_end
00036444 g     O .rwdata	00000008 alt_dev_list
00030ee4 g     F .text	000000f8 write
0002a570 g     F .text	000000cc _putc_r
00034014 g       *ABS*	00000000 __ram_rodata_end
00030264 g     F .text	000000b0 fstat
00030450 g     F .text	0000012c kill
0002ec50 g     F .text	000000f0 .hidden __ledf2
00029ba4 g     F .text	00000118 __pow5mult
0002ae74 g     F .text	00001304 ___vfiprintf_internal_r
00022a04 g     F .text	0000005c .hidden __umodsi3
000214e0 g     F .text	00000178 mipi_show_error_info_more
00038a0c g       *ABS*	00000000 end
00022fdc g     F .text	0000001c fseeko
00032374 g     F .text	000001b4 altera_avalon_uart_write
00022b6c g     F .text	0000001c fseek
00031234 g     F .text	000000c0 altera_avalon_jtag_uart_init
000201c4 g     F .exceptions	00000074 alt_instruction_exception_entry
00033398 g       *ABS*	00000000 __CTOR_LIST__
00040000 g       *ABS*	00000000 __alt_stack_pointer
00031bc0 g     F .text	00000084 alt_avalon_timer_sc_init
00031ca4 g     F .text	00000060 altera_avalon_uart_write_fd
0002ff04 g     F .text	00000054 .hidden __clzsi2
00031d04 g     F .text	00000050 altera_avalon_uart_close_fd
0003191c g     F .text	00000228 altera_avalon_jtag_uart_write
000284e8 g     F .text	00000004 __sfp_lock_acquire
000291d4 g     F .text	000000d4 memchr
00024210 g     F .text	000020dc ___vfprintf_internal_r
000286f4 g     F .text	000002fc _free_r
00033d5c g     O .rodata	00000180 _ctype_b
0002c8b4 g     F .text	0000000c __locale_mb_cur_max
00033278 g     F .text	00000120 __call_exitprocs
0002ace4 g     F .text	00000074 __srget_r
00036434 g     O .rwdata	00000004 __malloc_sbrk_base
00020238 g     F .text	0000004c _start
000388d4 g     O .bss	00000004 _alt_tick_rate
00029cbc g     F .text	00000188 __lshift
0002275c g     F .text	00000090 QUEUE_Push
000388d8 g     O .bss	00000004 _alt_nticks
0002cd9c g     F .text	00000018 signal
00030ac0 g     F .text	000000fc read
0003104c g     F .text	00000084 alt_sys_init
00023c30 g     F .text	00000064 _open_r
000331e8 g     F .text	00000090 __register_exitproc
00021d74 g     F .text	00000064 OV8865_read_cmos_sensor_8
00029974 g     F .text	00000230 __multiply
000315a0 g     F .text	00000068 altera_avalon_jtag_uart_close
00021b84 g     F .text	00000070 MipiBridgeRegWrite
00034014 g       *ABS*	00000000 __ram_rwdata_start
00033398 g       *ABS*	00000000 __ram_rodata_start
000388e4 g     O .bss	00000028 __malloc_current_mallinfo
0002a228 g     F .text	00000164 __d2b
000310d0 g     F .text	00000060 altera_avalon_jtag_uart_read_fd
00032b44 g     F .text	000000a0 alt_get_fd
0003265c g     F .text	00000158 alt_busy_sleep
00026588 g     F .text	00000058 _close_r
00033170 g     F .text	00000078 memcmp
00031190 g     F .text	00000050 altera_avalon_jtag_uart_close_fd
00038a0c g       *ABS*	00000000 __alt_stack_base
000311e0 g     F .text	00000054 altera_avalon_jtag_uart_ioctl_fd
00023058 g     F .text	000000c4 _fwrite_r
0002642c g     F .text	0000015c __swsetup_r
0002032c g     F .text	00000058 oc_i2c_init
0002e280 g     F .text	00000860 .hidden __divdf3
000283c8 g     F .text	000000fc __sfp
0002a4a4 g     F .text	0000006c __copybits
00034be0 g     O .rwdata	00000408 __malloc_av_
000284f4 g     F .text	00000004 __sinit_lock_release
0002ed40 g     F .text	00000670 .hidden __muldf3
00024038 g     F .text	00000054 __sread
00032a3c g     F .text	00000108 alt_find_file
0003283c g     F .text	000000a8 alt_dev_llist_insert
000307f4 g     F .text	00000024 __malloc_lock
00030c14 g     F .text	000000b8 sbrk
00022434 g     F .text	000001e4 MipiCameraInit
00021b38 g     F .text	0000004c nSWAP16
00028154 g     F .text	00000060 _fflush_r
0002c42c g     F .text	000000b4 _calloc_r
00022618 g     F .text	0000006c QUEUE_New
00022b50 g     F .text	00000018 fopen
000388b4 g       *ABS*	00000000 __bss_start
00023b40 g     F .text	000000f0 memset
000216e0 g     F .text	00000458 main
000388d0 g     O .bss	00000004 alt_envp
000388b8 g     O .bss	00000004 __malloc_max_total_mem
00031130 g     F .text	00000060 altera_avalon_jtag_uart_write_fd
0002c39c g     F .text	00000018 __swbuf
00024170 g     F .text	00000008 __sclose
00040000 g       *ABS*	00000000 __alt_heap_limit
0002c5d8 g     F .text	00000010 fclose
00023158 g     F .text	00000010 getchar
000267dc g     F .text	00001750 _dtoa_r
00023360 g     F .text	000007e0 _malloc_r
0002cae4 g     F .text	00000030 __ascii_wctomb
00036450 g     O .rwdata	00000004 alt_errno
0002c5e8 g     F .text	00000020 _fiprintf_r
0002cdb4 g     F .text	0000001c _init_signal
00028eac g     F .text	00000098 _fwalk
0002c8d8 g     F .text	0000000c _mbtowc_r
0002a63c g     F .text	000000e0 putc
000228ac g     F .text	00000080 .hidden __divsi3
000204c0 g     F .text	00000084 oc_i2c_uninit
000285d8 g     F .text	0000011c _malloc_trim_r
00033398 g       *ABS*	00000000 __CTOR_END__
00022274 g     F .text	000001c0 MIPI_BIN_LEVEL
0002c928 g     F .text	000000b8 strcmp
00033398 g       *ABS*	00000000 __flash_rodata_start
00033398 g       *ABS*	00000000 __DTOR_LIST__
0002eae0 g     F .text	00000080 .hidden __nedf2
00031010 g     F .text	0000003c alt_irq_init
00030bbc g     F .text	00000058 alt_release_fd
00021c6c g     F .text	00000108 MipiBridgeInit
00033edc g     O .rodata	00000100 .hidden __clz_tab
000388c4 g     O .bss	00000004 _PathLocale
00033128 g     F .text	00000014 atexit
000263c8 g     F .text	00000064 _write_r
0002c8c0 g     F .text	00000018 setlocale
00036430 g     O .rwdata	00000004 _impure_ptr
000388c8 g     O .bss	00000004 alt_argc
00021bf4 g     F .text	00000078 MipiBridgeRegRead
00027f2c g     F .text	00000228 __sflush_r
00032948 g     F .text	00000064 _do_dtors
00022b68 g     F .text	00000004 _fseek_r
00036420 g     O .rwdata	00000002 video_w
00023e14 g     F .text	000001cc __srefill_r
00020020 g       .exceptions	00000000 alt_irq_entry
0002c8e4 g     F .text	00000044 __ascii_mbtowc
0002a0c8 g     F .text	0000005c __ulp
0002850c g     F .text	00000014 __fp_unlock_all
0003643c g     O .rwdata	00000008 alt_fs_list
000202d8 g     F .text	00000054 Read32_Data
00020898 g     F .text	000001d0 OC_I2C_Read
00020020 g       *ABS*	00000000 __ram_exceptions_start
00029164 g     F .text	0000000c localeconv
00023168 g     F .text	00000098 __swhatbuf_r
00032c18 g     F .text	00000050 alt_ic_isr_register
0002311c g     F .text	00000034 fwrite
00036464 g       *ABS*	00000000 _edata
00031c44 g     F .text	00000060 altera_avalon_uart_read_fd
00038a0c g       *ABS*	00000000 _end
00023150 g     F .text	00000008 _getchar_r
000221b8 g     F .text	000000bc OV8865ReadExposure
0002c640 g     F .text	00000164 __fputwc
00020238 g       *ABS*	00000000 __ram_exceptions_end
00031608 g     F .text	000000f4 altera_avalon_jtag_uart_ioctl
00032cf0 g     F .text	0000008c alt_ic_irq_disable
00024094 g     F .text	00000080 __swrite
00036438 g     O .rwdata	00000004 __malloc_trim_threshold
00020a68 g     F .text	00000138 OC_I2C_Read_Continue
0003313c g     F .text	00000034 exit
0002c608 g     F .text	00000038 fiprintf
0003642a g     O .rwdata	00000001 focus_th
0002c9e0 g     F .text	00000004 _vfiprintf_r
00028f44 g     F .text	000000a8 _fwalk_reent
00029e9c g     F .text	0000022c __mdiff
0002292c g     F .text	00000074 .hidden __modsi3
00040000 g       *ABS*	00000000 __alt_data_end
00020020 g     F .exceptions	00000000 alt_exception
000284ec g     F .text	00000004 __sfp_lock_release
00021448 g     F .text	00000098 mipi_show_error_info
00022684 g     F .text	00000034 QUEUE_Delete
00033c58 g     O .rodata	00000101 _ctype_
0002fce4 g     F .text	00000054 .hidden __unorddf2
000320c0 g     F .text	00000054 altera_avalon_uart_close
00020db4 g     F .text	00000284 OC_I2CL_Read
00022a60 g     F .text	000000f0 _fopen_r
00030090 g     F .text	00000038 _exit
00032528 g     F .text	00000134 alt_alarm_start
00023200 g     F .text	00000140 __smakebuf_r
00024178 g     F .text	00000098 strlen
0002cb78 g     F .text	00000014 _init_signal_r
00030930 g     F .text	00000154 open
0002eb60 g     F .text	000000f0 .hidden __gedf2
0002c418 g     F .text	00000014 __assert
0002ae5c g     F .text	00000018 __sprint_r
00032be4 g     F .text	00000034 alt_icache_flush_all
00022008 g     F .text	000000e4 OV8865SetExposure
00036460 g     O .rwdata	00000004 alt_priority_mask
00036424 g     O .rwdata	00000002 focus_width
00032c68 g     F .text	00000088 alt_ic_irq_enable
000262ec g     F .text	0000001c __vfprintf_internal
00032150 g     F .text	000001e8 altera_avalon_uart_read
0002cad8 g     F .text	0000000c _wctomb_r
00021658 g     F .text	00000088 MIPI_Init
0002f3b0 g     F .text	00000934 .hidden __subdf3
00030104 g     F .text	00000124 fcntl
00029870 g     F .text	000000b0 __lo0bits
00036458 g     O .rwdata	00000008 alt_alarm_list
000328e4 g     F .text	00000064 _do_ctors
0002cdd0 g     F .text	00000010 __sigtramp
0002ca50 g     F .text	00000088 wcrtomb
0002ff94 g     F .text	000000d0 close
00034fe8 g     O .rwdata	0000016c __global_locale
00021eb8 g     F .text	00000080 OV8865_read_AF
000305e4 g     F .text	00000084 alt_load
0002c7c8 g     F .text	00000078 fputwc
0002cd8c g     F .text	00000010 raise
00023350 g     F .text	00000010 free
000284f0 g     F .text	00000004 __sinit_lock_acquire
0002959c g     F .text	00000138 __multadd
00029578 g     F .text	00000024 _Bfree



Disassembly of section .entry:

00020000 <__reset>:
#if NIOS2_ICACHE_SIZE > 0 && defined(ALT_ALLOW_CODE_AT_RESET) && (!defined(ALT_SIM_OPTIMIZE) || defined(NIOS2_ECC_PRESENT))
    /* Assume the instruction cache size is always a power of two. */
#if NIOS2_ICACHE_SIZE > 0x8000
    movhi r2, %hi(NIOS2_ICACHE_SIZE)
#else
    movui r2, NIOS2_ICACHE_SIZE
   20000:	00840014 	movui	r2,4096
#endif

0:
    initi r2
   20004:	1001483a 	initi	r2
    addi r2, r2, -NIOS2_ICACHE_LINE_SIZE
   20008:	10bff804 	addi	r2,r2,-32
    bgt r2, zero, 0b
   2000c:	00bffd16 	blt	zero,r2,20004 <__reset+0x4>
 * Jump to the _start entry point in the .text section if reset code
 * is allowed or if optimizing for RTL simulation.
 */
#if defined(ALT_ALLOW_CODE_AT_RESET) || defined(ALT_SIM_OPTIMIZE)
    /* Jump to the _start entry point in the .text section. */
    movhi r1, %hi(_start)
   20010:	004000b4 	movhi	at,2
    ori r1, r1, %lo(_start)
   20014:	08408e14 	ori	at,at,568
    jmp r1
   20018:	0800683a 	jmp	at
   2001c:	00000000 	call	0 <__alt_mem_onchip_memory2_0-0x20000>

Disassembly of section .exceptions:

00020020 <alt_exception>:

#else /* ALT_EXCEPTION_STACK disabled */
        /* 
         * Reserve space on normal stack for registers about to be pushed.
         */
        addi  sp, sp, -76
   20020:	deffed04 	addi	sp,sp,-76
         * documentation for details).
         *
         * Leave a gap in the stack frame at 4(sp) for the muldiv handler to
         * store zero into.
         */
        stw   ra,  0(sp)
   20024:	dfc00015 	stw	ra,0(sp)
        stw   r1,   8(sp)
   20028:	d8400215 	stw	at,8(sp)
        stw   r2,  12(sp)
   2002c:	d8800315 	stw	r2,12(sp)
        stw   r3,  16(sp)
   20030:	d8c00415 	stw	r3,16(sp)
        stw   r4,  20(sp)
   20034:	d9000515 	stw	r4,20(sp)
        stw   r5,  24(sp)
   20038:	d9400615 	stw	r5,24(sp)
        stw   r6,  28(sp)
   2003c:	d9800715 	stw	r6,28(sp)
        stw   r7,  32(sp)
   20040:	d9c00815 	stw	r7,32(sp)
        rdctl r5, estatus   /* Read early to avoid usage stall */
   20044:	000b307a 	rdctl	r5,estatus
        stw   r8,  36(sp)
   20048:	da000915 	stw	r8,36(sp)
        stw   r9,  40(sp)
   2004c:	da400a15 	stw	r9,40(sp)
        stw   r10, 44(sp)
   20050:	da800b15 	stw	r10,44(sp)
        stw   r11, 48(sp)
   20054:	dac00c15 	stw	r11,48(sp)
        stw   r12, 52(sp)
   20058:	db000d15 	stw	r12,52(sp)
        stw   r13, 56(sp)
   2005c:	db400e15 	stw	r13,56(sp)
        stw   r14, 60(sp)
   20060:	db800f15 	stw	r14,60(sp)
        stw   r15, 64(sp)
   20064:	dbc01015 	stw	r15,64(sp)
        /*
         * ea-4 contains the address of the instruction being executed
         * when the exception occured. For interrupt exceptions, we will
         * will be re-issue the isntruction. Store it in 72(sp)
         */
        stw   r5,  68(sp)  /* estatus */
   20068:	d9401115 	stw	r5,68(sp)
        addi  r15, ea, -4  /* instruction that caused exception */
   2006c:	ebffff04 	addi	r15,ea,-4
        stw   r15,  72(sp)
   20070:	dbc01215 	stw	r15,72(sp)
#else
        /*
         * Test to see if the exception was a software exception or caused 
         * by an external interrupt, and vector accordingly.
         */
        rdctl r4, ipending
   20074:	0009313a 	rdctl	r4,ipending
        andi  r2, r5, 1
   20078:	2880004c 	andi	r2,r5,1
        beq   r2, zero, .Lnot_irq
   2007c:	10000326 	beq	r2,zero,2008c <alt_exception+0x6c>
        beq   r4, zero, .Lnot_irq
   20080:	20000226 	beq	r4,zero,2008c <alt_exception+0x6c>
        /*
         * Now that all necessary registers have been preserved, call 
         * alt_irq_handler() to process the interrupts.
         */

        call alt_irq_handler
   20084:	00200fc0 	call	200fc <alt_irq_handler>

        .section .exceptions.irqreturn, "xa"

        br    .Lexception_exit
   20088:	00000706 	br	200a8 <alt_exception+0x88>
         * upon completion, so we write ea (address of instruction *after*
         * the one where the exception occured) into 72(sp). The actual
         * instruction that caused the exception is written in r2, which these
         * handlers will utilize.
         */
        stw ea, 72(sp) /* EA is PC+4 so will skip over instruction causing exception */
   2008c:	df401215 	stw	ea,72(sp)
.Lunknown_16bit:
        addi.n r4, r4, 2 /* Need PC+2 to skip over instruction causing exception */
        stw r4, 72(sp)

#else /* CDX is not Enabled and all instructions are 32bits */
        ldw r2, -4(ea) /* Instruction value that caused exception */
   20090:	e8bfff17 	ldw	r2,-4(ea)
         * debugger is present) or go into an infinite loop since the
         * handling behavior is undefined; in that case we will not return here.
         */

        /* Load exception-causing address as first argument (r4) */
        addi   r4, ea, -4
   20094:	e93fff04 	addi	r4,ea,-4

        /* Call the instruction-exception entry */
        call   alt_instruction_exception_entry
   20098:	00201c40 	call	201c4 <alt_instruction_exception_entry>
         * instruction
         *
         * Return code was 0: Skip. The instruction after the exception is
         * already stored in 72(sp).
         */
        bne   r2, r0, .Lexception_exit
   2009c:	1000021e 	bne	r2,zero,200a8 <alt_exception+0x88>

        /*
         * Otherwise, modify 72(sp) to re-issue the instruction that caused the
         * exception.
         */
        addi  r15, ea, -4  /* instruction that caused exception */
   200a0:	ebffff04 	addi	r15,ea,-4
        stw   r15,  72(sp)
   200a4:	dbc01215 	stw	r15,72(sp)
        /* 
         * Restore the saved registers, so that all general purpose registers 
         * have been restored to their state at the time the interrupt occured.
         */

        ldw   r5,  68(sp)
   200a8:	d9401117 	ldw	r5,68(sp)
        ldw   ea,  72(sp)  /* This becomes the PC once eret is executed */
   200ac:	df401217 	ldw	ea,72(sp)
        ldw   ra,   0(sp)
   200b0:	dfc00017 	ldw	ra,0(sp)

        wrctl estatus, r5
   200b4:	2801707a 	wrctl	estatus,r5

        ldw   r1,   8(sp)
   200b8:	d8400217 	ldw	at,8(sp)
        ldw   r2,  12(sp)
   200bc:	d8800317 	ldw	r2,12(sp)
        ldw   r3,  16(sp)
   200c0:	d8c00417 	ldw	r3,16(sp)
        ldw   r4,  20(sp)
   200c4:	d9000517 	ldw	r4,20(sp)
        ldw   r5,  24(sp)
   200c8:	d9400617 	ldw	r5,24(sp)
        ldw   r6,  28(sp)
   200cc:	d9800717 	ldw	r6,28(sp)
        ldw   r7,  32(sp)
   200d0:	d9c00817 	ldw	r7,32(sp)

#if defined(ALT_EXCEPTION_STACK) && defined(ALT_STACK_CHECK)
        ldw   et, %gprel(alt_exception_old_stack_limit)(gp)
#endif

        ldw   r8,  36(sp)
   200d4:	da000917 	ldw	r8,36(sp)
        ldw   r9,  40(sp)
   200d8:	da400a17 	ldw	r9,40(sp)
        ldw   r10, 44(sp)
   200dc:	da800b17 	ldw	r10,44(sp)
        ldw   r11, 48(sp)
   200e0:	dac00c17 	ldw	r11,48(sp)
        ldw   r12, 52(sp)
   200e4:	db000d17 	ldw	r12,52(sp)
        ldw   r13, 56(sp)
   200e8:	db400e17 	ldw	r13,56(sp)
        ldw   r14, 60(sp)
   200ec:	db800f17 	ldw	r14,60(sp)
        ldw   r15, 64(sp)
   200f0:	dbc01017 	ldw	r15,64(sp)
        stw   et, %gprel(alt_stack_limit_value)(gp)
        stw   zero, %gprel(alt_exception_old_stack_limit)(gp)
#endif /* ALT_STACK_CHECK */
        ldw   sp,  76(sp)
#else /* ALT_EXCEPTION_STACK disabled */
        addi  sp, sp, 76
   200f4:	dec01304 	addi	sp,sp,76

        /*
         * Return to the interrupted instruction.
         */

        eret
   200f8:	ef80083a 	eret

000200fc <alt_irq_handler>:
 * instruction is present if the macro ALT_CI_INTERRUPT_VECTOR defined.
 */

void alt_irq_handler (void) __attribute__ ((section (".exceptions")));
void alt_irq_handler (void)
{
   200fc:	defff904 	addi	sp,sp,-28
   20100:	dfc00615 	stw	ra,24(sp)
   20104:	df000515 	stw	fp,20(sp)
   20108:	df000504 	addi	fp,sp,20
  
  /*
   * Notify the operating system that we are at interrupt level.
   */ 
  
  ALT_OS_INT_ENTER();
   2010c:	0001883a 	nop
#ifndef NIOS2_EIC_PRESENT
static ALT_INLINE alt_u32 ALT_ALWAYS_INLINE alt_irq_pending (void)
{
  alt_u32 active;

  NIOS2_READ_IPENDING (active);
   20110:	0005313a 	rdctl	r2,ipending
   20114:	e0bffc15 	stw	r2,-16(fp)

  return active;
   20118:	e0bffc17 	ldw	r2,-16(fp)
   * Consider the case where the high priority interupt is asserted during
   * the interrupt entry sequence for a lower priority interrupt to see why
   * this is the case.
   */

  active = alt_irq_pending ();
   2011c:	e0bfff15 	stw	r2,-4(fp)

  do
  {
    i = 0;
   20120:	e03ffd15 	stw	zero,-12(fp)
    mask = 1;
   20124:	00800044 	movi	r2,1
   20128:	e0bffe15 	stw	r2,-8(fp)
     * called to clear the interrupt condition.
     */

    do
    {
      if (active & mask)
   2012c:	e0ffff17 	ldw	r3,-4(fp)
   20130:	e0bffe17 	ldw	r2,-8(fp)
   20134:	1884703a 	and	r2,r3,r2
   20138:	10001126 	beq	r2,zero,20180 <alt_irq_handler+0x84>
      { 
#ifdef ALT_ENHANCED_INTERRUPT_API_PRESENT
        alt_irq[i].handler(alt_irq[i].context); 
   2013c:	e0bffd17 	ldw	r2,-12(fp)
   20140:	100690fa 	slli	r3,r2,3
   20144:	00800134 	movhi	r2,4
   20148:	1885883a 	add	r2,r3,r2
   2014c:	10e24317 	ldw	r3,-30452(r2)
   20150:	e0bffd17 	ldw	r2,-12(fp)
   20154:	100890fa 	slli	r4,r2,3
   20158:	00800134 	movhi	r2,4
   2015c:	2085883a 	add	r2,r4,r2
   20160:	10a24417 	ldw	r2,-30448(r2)
   20164:	1009883a 	mov	r4,r2
   20168:	183ee83a 	callr	r3
#else
        alt_irq[i].handler(alt_irq[i].context, i); 
#endif
        break;
   2016c:	0001883a 	nop
  NIOS2_READ_IPENDING (active);
   20170:	0005313a 	rdctl	r2,ipending
   20174:	e0bffb15 	stw	r2,-20(fp)
  return active;
   20178:	e0bffb17 	ldw	r2,-20(fp)
   2017c:	00000706 	br	2019c <alt_irq_handler+0xa0>
      }
      mask <<= 1;
   20180:	e0bffe17 	ldw	r2,-8(fp)
   20184:	1085883a 	add	r2,r2,r2
   20188:	e0bffe15 	stw	r2,-8(fp)
      i++;
   2018c:	e0bffd17 	ldw	r2,-12(fp)
   20190:	10800044 	addi	r2,r2,1
   20194:	e0bffd15 	stw	r2,-12(fp)
      if (active & mask)
   20198:	003fe406 	br	2012c <alt_irq_handler+0x30>

    } while (1);

    active = alt_irq_pending ();
   2019c:	e0bfff15 	stw	r2,-4(fp)
    
  } while (active);
   201a0:	e0bfff17 	ldw	r2,-4(fp)
   201a4:	103fde1e 	bne	r2,zero,20120 <alt_irq_handler+0x24>

  /*
   * Notify the operating system that interrupt processing is complete.
   */ 

  ALT_OS_INT_EXIT();
   201a8:	0001883a 	nop
}
   201ac:	0001883a 	nop
   201b0:	e037883a 	mov	sp,fp
   201b4:	dfc00117 	ldw	ra,4(sp)
   201b8:	df000017 	ldw	fp,0(sp)
   201bc:	dec00204 	addi	sp,sp,8
   201c0:	f800283a 	ret

000201c4 <alt_instruction_exception_entry>:
 * that handler if it has been registered. Absent a handler, it will
 * break break or hang as discussed below.
 */
int 
alt_instruction_exception_entry (alt_u32 exception_pc)
{
   201c4:	defffb04 	addi	sp,sp,-20
   201c8:	dfc00415 	stw	ra,16(sp)
   201cc:	df000315 	stw	fp,12(sp)
   201d0:	df000304 	addi	fp,sp,12
   201d4:	e13ffd15 	stw	r4,-12(fp)
 * NIOS2_EXCEPTION_CAUSE_NOT_PRESENT. Your handling routine should
 * check the validity of the cause argument before proceeding.
 */
#ifdef NIOS2_HAS_EXTRA_EXCEPTION_INFO
  /* Get exception cause & "badaddr" */
  NIOS2_READ_EXCEPTION(cause);
   201d8:	000531fa 	rdctl	r2,exception
   201dc:	e0bfff15 	stw	r2,-4(fp)
  cause = ( (cause & NIOS2_EXCEPTION_REG_CAUSE_MASK) >>
   201e0:	e0bfff17 	ldw	r2,-4(fp)
   201e4:	1004d0ba 	srli	r2,r2,2
   201e8:	108007cc 	andi	r2,r2,31
   201ec:	e0bfff15 	stw	r2,-4(fp)
              NIOS2_EXCEPTION_REG_CAUSE_OFST );

  NIOS2_READ_BADADDR(badaddr);
   201f0:	0005333a 	rdctl	r2,badaddr
   201f4:	e0bffe15 	stw	r2,-8(fp)
#else
  cause = NIOS2_EXCEPTION_CAUSE_NOT_PRESENT;
  badaddr = 0;
#endif /* NIOS2_HAS_EXTRA_EXCEPTION_INFO */

  if(alt_instruction_exception_handler) {
   201f8:	d0a93017 	ldw	r2,-23360(gp)
   201fc:	10000726 	beq	r2,zero,2021c <alt_instruction_exception_entry+0x58>
     * Call handler. Its return value indicates whether the exception-causing
     * instruction should be re-issued. The code that called us,
     * alt_eceptions_entry.S, will look at this value and adjust the ea
     * register as necessary
     */
    return alt_instruction_exception_handler(cause, exception_pc, badaddr);
   20200:	d0a93017 	ldw	r2,-23360(gp)
   20204:	e0ffff17 	ldw	r3,-4(fp)
   20208:	e1bffe17 	ldw	r6,-8(fp)
   2020c:	e17ffd17 	ldw	r5,-12(fp)
   20210:	1809883a 	mov	r4,r3
   20214:	103ee83a 	callr	r2
   20218:	00000206 	br	20224 <alt_instruction_exception_entry+0x60>
   *    (a peripheral which negates its interrupt output before its
   *    interrupt handler has been executed will cause spurious interrupts)
   */
  else {
#ifdef NIOS2_HAS_DEBUG_STUB
    NIOS2_BREAK();
   2021c:	003da03a 	break	0
      ;
#endif /* NIOS2_HAS_DEBUG_STUB */
  }

  /* We should not get here. Remove compiler warning. */
  return NIOS2_EXCEPTION_RETURN_REISSUE_INST;
   20220:	0005883a 	mov	r2,zero
}
   20224:	e037883a 	mov	sp,fp
   20228:	dfc00117 	ldw	ra,4(sp)
   2022c:	df000017 	ldw	fp,0(sp)
   20230:	dec00204 	addi	sp,sp,8
   20234:	f800283a 	ret

Disassembly of section .text:

00020238 <_start>:

    /* Assume the data cache size is always a power of two. */
#if NIOS2_DCACHE_SIZE > 0x8000
    movhi r2, %hi(NIOS2_DCACHE_SIZE)
#else
    movui r2, NIOS2_DCACHE_SIZE
   20238:	00820014 	movui	r2,2048
#endif

0:
    initd 0(r2)
   2023c:	10000033 	initd	0(r2)
#ifdef NIOS2_ECC_PRESENT
    addi r2, r2, -4
#else
    addi r2, r2, -NIOS2_DCACHE_LINE_SIZE
   20240:	10bff804 	addi	r2,r2,-32
#endif
    bgt r2, zero, 0b
   20244:	00bffd16 	blt	zero,r2,2023c <_start+0x4>

    /*
     * Now that the caches are initialized, set up the stack pointer and global pointer.
     * The values provided by the linker are assumed to be correctly aligned.
     */
    movhi sp, %hi(__alt_stack_pointer)
   20248:	06c00134 	movhi	sp,4
    ori sp, sp, %lo(__alt_stack_pointer)
   2024c:	dec00014 	ori	sp,sp,0
    movhi gp, %hi(_gp)
   20250:	068000f4 	movhi	gp,3
    ori gp, gp, %lo(_gp)
   20254:	d6b90814 	ori	gp,gp,58400
 */
#ifndef ALT_SIM_OPTIMIZE
    /* Log that the BSS is about to be cleared. */
    ALT_LOG_PUTS(alt_log_msg_bss)

    movhi r2, %hi(__bss_start)
   20258:	008000f4 	movhi	r2,3
    ori r2, r2, %lo(__bss_start)
   2025c:	10a22d14 	ori	r2,r2,34996

    movhi r3, %hi(__bss_end)
   20260:	00c000f4 	movhi	r3,3
    ori r3, r3, %lo(__bss_end)
   20264:	18e28314 	ori	r3,r3,35340

    beq r2, r3, 1f
   20268:	10c00326 	beq	r2,r3,20278 <_start+0x40>

0:
    stw zero, (r2)
   2026c:	10000015 	stw	zero,0(r2)
    addi r2, r2, 4
   20270:	10800104 	addi	r2,r2,4
    bltu r2, r3, 0b
   20274:	10fffd36 	bltu	r2,r3,2026c <_start+0x34>
     * section aren't defined until alt_load() has been called).
     */
    mov   et, zero
#endif

    call alt_load
   20278:	00305e40 	call	305e4 <alt_load>

    /* Log that alt_main is about to be called. */
    ALT_LOG_PUTS(alt_log_msg_alt_main)

    /* Call the C entry point. It should never return. */
    call alt_main
   2027c:	00307780 	call	30778 <alt_main>

00020280 <alt_after_alt_main>:

    /* Wait in infinite loop in case alt_main does return. */
alt_after_alt_main:
    br alt_after_alt_main
   20280:	003fff06 	br	20280 <alt_after_alt_main>

00020284 <Write32_Data>:
#define SLEEP_TIME 250  //us
#define ACK_SLEEP_TIME 250 //us
#define TRUE 1
#define FALSE 0

bool Write32_Data(alt_32 base_address, alt_32 offset_address, alt_32 Data){
   20284:	defffb04 	addi	sp,sp,-20
   20288:	df000415 	stw	fp,16(sp)
   2028c:	df000404 	addi	fp,sp,16
   20290:	e13ffe15 	stw	r4,-8(fp)
   20294:	e17ffd15 	stw	r5,-12(fp)
   20298:	e1bffc15 	stw	r6,-16(fp)
	bool bPass;
    IOWR(base_address, offset_address,Data);
   2029c:	e0bffd17 	ldw	r2,-12(fp)
   202a0:	100490ba 	slli	r2,r2,2
   202a4:	1007883a 	mov	r3,r2
   202a8:	e0bffe17 	ldw	r2,-8(fp)
   202ac:	1885883a 	add	r2,r3,r2
   202b0:	1007883a 	mov	r3,r2
   202b4:	e0bffc17 	ldw	r2,-16(fp)
   202b8:	18800035 	stwio	r2,0(r3)
    bPass=TRUE;
   202bc:	00800044 	movi	r2,1
   202c0:	e0bfff15 	stw	r2,-4(fp)
    return bPass;
   202c4:	e0bfff17 	ldw	r2,-4(fp)
}
   202c8:	e037883a 	mov	sp,fp
   202cc:	df000017 	ldw	fp,0(sp)
   202d0:	dec00104 	addi	sp,sp,4
   202d4:	f800283a 	ret

000202d8 <Read32_Data>:



bool  Read32_Data(alt_32 base_address, alt_32 offset_address, alt_32 *pData32){
   202d8:	defffb04 	addi	sp,sp,-20
   202dc:	df000415 	stw	fp,16(sp)
   202e0:	df000404 	addi	fp,sp,16
   202e4:	e13ffe15 	stw	r4,-8(fp)
   202e8:	e17ffd15 	stw	r5,-12(fp)
   202ec:	e1bffc15 	stw	r6,-16(fp)
	bool bPass;
	*pData32 =IORD(base_address ,offset_address  );
   202f0:	e0bffd17 	ldw	r2,-12(fp)
   202f4:	100490ba 	slli	r2,r2,2
   202f8:	1007883a 	mov	r3,r2
   202fc:	e0bffe17 	ldw	r2,-8(fp)
   20300:	1885883a 	add	r2,r3,r2
   20304:	10c00037 	ldwio	r3,0(r2)
   20308:	e0bffc17 	ldw	r2,-16(fp)
   2030c:	10c00015 	stw	r3,0(r2)
	bPass=TRUE;
   20310:	00800044 	movi	r2,1
   20314:	e0bfff15 	stw	r2,-4(fp)
    return bPass;
   20318:	e0bfff17 	ldw	r2,-4(fp)
}
   2031c:	e037883a 	mov	sp,fp
   20320:	df000017 	ldw	fp,0(sp)
   20324:	dec00104 	addi	sp,sp,4
   20328:	f800283a 	ret

0002032c <oc_i2c_init>:

bool oc_i2c_init(alt_32 i2c_base){
   2032c:	defffa04 	addi	sp,sp,-24
   20330:	dfc00515 	stw	ra,20(sp)
   20334:	df000415 	stw	fp,16(sp)
   20338:	df000404 	addi	fp,sp,16
   2033c:	e13ffc15 	stw	r4,-16(fp)
	bool bSuccess;
	const alt_32 ref_clk = 50*1000*1000; // 50MHz
   20340:	0080bef4 	movhi	r2,763
   20344:	10bc2004 	addi	r2,r2,-3968
   20348:	e0bfff15 	stw	r2,-4(fp)
	const alt_32 i2c_clk = 400*1000; // 400KHz
   2034c:	008001b4 	movhi	r2,6
   20350:	1086a004 	addi	r2,r2,6784
   20354:	e0bffe15 	stw	r2,-8(fp)

	bSuccess = oc_i2c_init_ex(i2c_base, ref_clk, i2c_clk);
   20358:	e1bffe17 	ldw	r6,-8(fp)
   2035c:	e17fff17 	ldw	r5,-4(fp)
   20360:	e13ffc17 	ldw	r4,-16(fp)
   20364:	00203840 	call	20384 <oc_i2c_init_ex>
   20368:	e0bffd15 	stw	r2,-12(fp)

	return bSuccess;
   2036c:	e0bffd17 	ldw	r2,-12(fp)
}
   20370:	e037883a 	mov	sp,fp
   20374:	dfc00117 	ldw	ra,4(sp)
   20378:	df000017 	ldw	fp,0(sp)
   2037c:	dec00204 	addi	sp,sp,8
   20380:	f800283a 	ret

00020384 <oc_i2c_init_ex>:

bool  oc_i2c_init_ex(alt_32 i2c_base, alt_32 ref_clk, alt_32 i2c_clk)
{
   20384:	defff604 	addi	sp,sp,-40
   20388:	dfc00915 	stw	ra,36(sp)
   2038c:	df000815 	stw	fp,32(sp)
   20390:	df000804 	addi	fp,sp,32
   20394:	e13ffa15 	stw	r4,-24(fp)
   20398:	e17ff915 	stw	r5,-28(fp)
   2039c:	e1bff815 	stw	r6,-32(fp)
	bool bSuccess=TRUE;
   203a0:	00800044 	movi	r2,1
   203a4:	e0bfff15 	stw	r2,-4(fp)
	alt_32 read_data;
	alt_32 prescale;
	alt_u8 prescale_high;
	alt_u8 prescale_low;
	const alt_u8 ControlValue = 0x80;
   203a8:	00bfe004 	movi	r2,-128
   203ac:	e0bffec5 	stb	r2,-5(fp)

    // I2c sysclock =50M hz
	// i2c scl max 400k
	//scl =sysclock/(prescale*5)
	prescale = (ref_clk/(5*i2c_clk))-1;
   203b0:	e0bff817 	ldw	r2,-32(fp)
   203b4:	10800164 	muli	r2,r2,5
   203b8:	100b883a 	mov	r5,r2
   203bc:	e13ff917 	ldw	r4,-28(fp)
   203c0:	00228ac0 	call	228ac <__divsi3>
   203c4:	10bfffc4 	addi	r2,r2,-1
   203c8:	e0bffd15 	stw	r2,-12(fp)
	prescale_low = prescale & 0xFF;
   203cc:	e0bffd17 	ldw	r2,-12(fp)
   203d0:	e0bffcc5 	stb	r2,-13(fp)
	prescale_high = (prescale >> 8) & 0xFF;
   203d4:	e0bffd17 	ldw	r2,-12(fp)
   203d8:	1005d23a 	srai	r2,r2,8
   203dc:	e0bffc85 	stb	r2,-14(fp)

   IOWR(i2c_base, 0, prescale_low);//write low byte of  prescale (reg 0)
   203e0:	e0bffa17 	ldw	r2,-24(fp)
   203e4:	e0fffcc3 	ldbu	r3,-13(fp)
   203e8:	10c00035 	stwio	r3,0(r2)
   IOWR(i2c_base, 1, prescale_high);//write high byte of prescale (reg 1)
   203ec:	e0bffa17 	ldw	r2,-24(fp)
   203f0:	10800104 	addi	r2,r2,4
   203f4:	1007883a 	mov	r3,r2
   203f8:	e0bffc83 	ldbu	r2,-14(fp)
   203fc:	18800035 	stwio	r2,0(r3)

   //enable the I2C core, but disable the IRQ
   IOWR( i2c_base, 2, ControlValue);
   20400:	e0bffa17 	ldw	r2,-24(fp)
   20404:	10800204 	addi	r2,r2,8
   20408:	1007883a 	mov	r3,r2
   2040c:	e0bffec3 	ldbu	r2,-5(fp)
   20410:	18800035 	stwio	r2,0(r3)


    // check prescale low byte
    if (bSuccess){
   20414:	e0bfff17 	ldw	r2,-4(fp)
   20418:	10000826 	beq	r2,zero,2043c <oc_i2c_init_ex+0xb8>
    	read_data =IORD(i2c_base, 0);
   2041c:	e0bffa17 	ldw	r2,-24(fp)
   20420:	10800037 	ldwio	r2,0(r2)
   20424:	e0bffb15 	stw	r2,-20(fp)
        if( (read_data & 0x00ff) != prescale_low ){
   20428:	e0bffb17 	ldw	r2,-20(fp)
   2042c:	10c03fcc 	andi	r3,r2,255
   20430:	e0bffcc3 	ldbu	r2,-13(fp)
   20434:	18800126 	beq	r3,r2,2043c <oc_i2c_init_ex+0xb8>
            bSuccess = FALSE;
   20438:	e03fff15 	stw	zero,-4(fp)
        }
    }

    // check prescale high byte
    if (bSuccess){
   2043c:	e0bfff17 	ldw	r2,-4(fp)
   20440:	10000926 	beq	r2,zero,20468 <oc_i2c_init_ex+0xe4>
    	read_data =IORD(i2c_base, 1);
   20444:	e0bffa17 	ldw	r2,-24(fp)
   20448:	10800104 	addi	r2,r2,4
   2044c:	10800037 	ldwio	r2,0(r2)
   20450:	e0bffb15 	stw	r2,-20(fp)
        if( (read_data & 0x00ff) != prescale_high ){
   20454:	e0bffb17 	ldw	r2,-20(fp)
   20458:	10c03fcc 	andi	r3,r2,255
   2045c:	e0bffc83 	ldbu	r2,-14(fp)
   20460:	18800126 	beq	r3,r2,20468 <oc_i2c_init_ex+0xe4>
            bSuccess = FALSE;
   20464:	e03fff15 	stw	zero,-4(fp)
        }
    }

    // check control
    if (bSuccess){
   20468:	e0bfff17 	ldw	r2,-4(fp)
   2046c:	10000926 	beq	r2,zero,20494 <oc_i2c_init_ex+0x110>
    	read_data =IORD(i2c_base, 2);
   20470:	e0bffa17 	ldw	r2,-24(fp)
   20474:	10800204 	addi	r2,r2,8
   20478:	10800037 	ldwio	r2,0(r2)
   2047c:	e0bffb15 	stw	r2,-20(fp)
        if( (read_data & 0x00ff) != ControlValue ){
   20480:	e0bffb17 	ldw	r2,-20(fp)
   20484:	10c03fcc 	andi	r3,r2,255
   20488:	e0bffec3 	ldbu	r2,-5(fp)
   2048c:	18800126 	beq	r3,r2,20494 <oc_i2c_init_ex+0x110>
            bSuccess = FALSE;
   20490:	e03fff15 	stw	zero,-4(fp)
        }
    }

   if (bSuccess){
   20494:	e0bfff17 	ldw	r2,-4(fp)
   20498:	1000031e 	bne	r2,zero,204a8 <oc_i2c_init_ex+0x124>
//       printf("\nI2C core is enabled! \r\n");
   }
   else
       printf("\nI2C core is not enabled successfully! \r\n");
   2049c:	010000f4 	movhi	r4,3
   204a0:	210ce604 	addi	r4,r4,13208
   204a4:	0023de80 	call	23de8 <puts>

   return bSuccess;
   204a8:	e0bfff17 	ldw	r2,-4(fp)

}
   204ac:	e037883a 	mov	sp,fp
   204b0:	dfc00117 	ldw	ra,4(sp)
   204b4:	df000017 	ldw	fp,0(sp)
   204b8:	dec00204 	addi	sp,sp,8
   204bc:	f800283a 	ret

000204c0 <oc_i2c_uninit>:

bool oc_i2c_uninit(alt_32 i2c_base)
{
   204c0:	defffa04 	addi	sp,sp,-24
   204c4:	dfc00515 	stw	ra,20(sp)
   204c8:	df000415 	stw	fp,16(sp)
   204cc:	df000404 	addi	fp,sp,16
   204d0:	e13ffc15 	stw	r4,-16(fp)
	bool bSuccess=TRUE;
   204d4:	00800044 	movi	r2,1
   204d8:	e0bfff15 	stw	r2,-4(fp)
	alt_32 read_data;
	const alt_u8 ControlValue = 0x00;
   204dc:	e03ffec5 	stb	zero,-5(fp)

    IOWR( i2c_base, 2, ControlValue);
   204e0:	e0bffc17 	ldw	r2,-16(fp)
   204e4:	10800204 	addi	r2,r2,8
   204e8:	1007883a 	mov	r3,r2
   204ec:	e0bffec3 	ldbu	r2,-5(fp)
   204f0:	18800035 	stwio	r2,0(r3)
   	read_data =IORD(i2c_base, 2);
   204f4:	e0bffc17 	ldw	r2,-16(fp)
   204f8:	10800204 	addi	r2,r2,8
   204fc:	10800037 	ldwio	r2,0(r2)
   20500:	e0bffd15 	stw	r2,-12(fp)
	if( (read_data & 0x00ff) != ControlValue ){
   20504:	e0bffd17 	ldw	r2,-12(fp)
   20508:	10c03fcc 	andi	r3,r2,255
   2050c:	e0bffec3 	ldbu	r2,-5(fp)
   20510:	18800126 	beq	r3,r2,20518 <oc_i2c_uninit+0x58>
            bSuccess = FALSE;
   20514:	e03fff15 	stw	zero,-4(fp)
    }

   if (bSuccess){
   20518:	e0bfff17 	ldw	r2,-4(fp)
   2051c:	1000031e 	bne	r2,zero,2052c <oc_i2c_uninit+0x6c>
//       printf("\I2C core  is disabled! \r\n");
   }
   else
       printf("\I2C core is failed to disable! \r\n");
   20520:	010000f4 	movhi	r4,3
   20524:	210cf104 	addi	r4,r4,13252
   20528:	0023de80 	call	23de8 <puts>

   return bSuccess;
   2052c:	e0bfff17 	ldw	r2,-4(fp)

}
   20530:	e037883a 	mov	sp,fp
   20534:	dfc00117 	ldw	ra,4(sp)
   20538:	df000017 	ldw	fp,0(sp)
   2053c:	dec00204 	addi	sp,sp,8
   20540:	f800283a 	ret

00020544 <ACK_single_check>:




bool  ACK_single_check(alt_32 i2c_base)
{
   20544:	defffb04 	addi	sp,sp,-20
   20548:	dfc00415 	stw	ra,16(sp)
   2054c:	df000315 	stw	fp,12(sp)
   20550:	df000304 	addi	fp,sp,12
   20554:	e13ffd15 	stw	r4,-12(fp)
	bool bSuccess=TRUE;
   20558:	00800044 	movi	r2,1
   2055c:	e0bfff15 	stw	r2,-4(fp)
	alt_32 read_data;

    usleep(ACK_SLEEP_TIME);
   20560:	01003e84 	movi	r4,250
   20564:	0030e780 	call	30e78 <usleep>
    read_data =IORD(i2c_base, 4);
   20568:	e0bffd17 	ldw	r2,-12(fp)
   2056c:	10800404 	addi	r2,r2,16
   20570:	10800037 	ldwio	r2,0(r2)
   20574:	e0bffe15 	stw	r2,-8(fp)
    if(read_data & 0x02)
   20578:	e0bffe17 	ldw	r2,-8(fp)
   2057c:	1080008c 	andi	r2,r2,2
   20580:	10000126 	beq	r2,zero,20588 <ACK_single_check+0x44>
            bSuccess = FALSE;
   20584:	e03fff15 	stw	zero,-4(fp)
     if (bSuccess){
   20588:	e0bfff17 	ldw	r2,-4(fp)
   2058c:	10000a26 	beq	r2,zero,205b8 <ACK_single_check+0x74>
            usleep(ACK_SLEEP_TIME);
   20590:	01003e84 	movi	r4,250
   20594:	0030e780 	call	30e78 <usleep>
            read_data =IORD(i2c_base, 4);
   20598:	e0bffd17 	ldw	r2,-12(fp)
   2059c:	10800404 	addi	r2,r2,16
   205a0:	10800037 	ldwio	r2,0(r2)
   205a4:	e0bffe15 	stw	r2,-8(fp)
                if(read_data & 0x80)
   205a8:	e0bffe17 	ldw	r2,-8(fp)
   205ac:	1080200c 	andi	r2,r2,128
   205b0:	10000126 	beq	r2,zero,205b8 <ACK_single_check+0x74>
                    bSuccess = FALSE;
   205b4:	e03fff15 	stw	zero,-4(fp)
     }
    return bSuccess;
   205b8:	e0bfff17 	ldw	r2,-4(fp)
}
   205bc:	e037883a 	mov	sp,fp
   205c0:	dfc00117 	ldw	ra,4(sp)
   205c4:	df000017 	ldw	fp,0(sp)
   205c8:	dec00204 	addi	sp,sp,8
   205cc:	f800283a 	ret

000205d0 <ACK_check>:


bool  ACK_check(alt_32 i2c_base){
   205d0:	defffb04 	addi	sp,sp,-20
   205d4:	dfc00415 	stw	ra,16(sp)
   205d8:	df000315 	stw	fp,12(sp)
   205dc:	df000304 	addi	fp,sp,12
   205e0:	e13ffd15 	stw	r4,-12(fp)
    bool bSuccess = FALSE;
   205e4:	e03fff15 	stw	zero,-4(fp)
    int i=0;
   205e8:	e03ffe15 	stw	zero,-8(fp)

    while(!bSuccess && i++ < 10){
   205ec:	00000306 	br	205fc <ACK_check+0x2c>
        bSuccess = ACK_single_check(i2c_base);
   205f0:	e13ffd17 	ldw	r4,-12(fp)
   205f4:	00205440 	call	20544 <ACK_single_check>
   205f8:	e0bfff15 	stw	r2,-4(fp)
    while(!bSuccess && i++ < 10){
   205fc:	e0bfff17 	ldw	r2,-4(fp)
   20600:	1000051e 	bne	r2,zero,20618 <ACK_check+0x48>
   20604:	e0bffe17 	ldw	r2,-8(fp)
   20608:	10c00044 	addi	r3,r2,1
   2060c:	e0fffe15 	stw	r3,-8(fp)
   20610:	10800290 	cmplti	r2,r2,10
   20614:	103ff61e 	bne	r2,zero,205f0 <ACK_check+0x20>
    }

    return bSuccess;
   20618:	e0bfff17 	ldw	r2,-4(fp)
}
   2061c:	e037883a 	mov	sp,fp
   20620:	dfc00117 	ldw	ra,4(sp)
   20624:	df000017 	ldw	fp,0(sp)
   20628:	dec00204 	addi	sp,sp,8
   2062c:	f800283a 	ret

00020630 <OC_I2C_Write>:

bool  OC_I2C_Write(alt_32 i2c_base,alt_u8 device_address,alt_u8 sub_address, alt_u8 *pData, int nWriteLength)
{
   20630:	defff904 	addi	sp,sp,-28
   20634:	dfc00615 	stw	ra,24(sp)
   20638:	df000515 	stw	fp,20(sp)
   2063c:	df000504 	addi	fp,sp,20
   20640:	e13ffe15 	stw	r4,-8(fp)
   20644:	2805883a 	mov	r2,r5
   20648:	3007883a 	mov	r3,r6
   2064c:	e1fffb15 	stw	r7,-20(fp)
   20650:	e0bffd05 	stb	r2,-12(fp)
   20654:	1805883a 	mov	r2,r3
   20658:	e0bffc05 	stb	r2,-16(fp)
    //DWORD reg_data = 0x0;
    int i;

   //set the tx reg audio chip dev address with write bit
   if (!Write32_Data( i2c_base, 3,device_address)){
   2065c:	e0bffd03 	ldbu	r2,-12(fp)
   20660:	100d883a 	mov	r6,r2
   20664:	014000c4 	movi	r5,3
   20668:	e13ffe17 	ldw	r4,-8(fp)
   2066c:	00202840 	call	20284 <Write32_Data>
   20670:	1000051e 	bne	r2,zero,20688 <OC_I2C_Write+0x58>
       printf("OC_I2C_Write error[0]\r\n");
   20674:	010000f4 	movhi	r4,3
   20678:	210cfa04 	addi	r4,r4,13288
   2067c:	0023de80 	call	23de8 <puts>
       return FALSE;
   20680:	0005883a 	mov	r2,zero
   20684:	00006606 	br	20820 <OC_I2C_Write+0x1f0>
   }
   //set STA and WR bits(bit7 and bit4)
   if (!Write32_Data( i2c_base, 4,0x90)){
   20688:	01802404 	movi	r6,144
   2068c:	01400104 	movi	r5,4
   20690:	e13ffe17 	ldw	r4,-8(fp)
   20694:	00202840 	call	20284 <Write32_Data>
   20698:	1000051e 	bne	r2,zero,206b0 <OC_I2C_Write+0x80>
       printf("OC_I2C_Write error[1]\r\n");
   2069c:	010000f4 	movhi	r4,3
   206a0:	210d0004 	addi	r4,r4,13312
   206a4:	0023de80 	call	23de8 <puts>
       return FALSE;
   206a8:	0005883a 	mov	r2,zero
   206ac:	00005c06 	br	20820 <OC_I2C_Write+0x1f0>
   }

   //wait TIP bit go to 0 to end Tx
    if(!ACK_check( i2c_base)){
   206b0:	e13ffe17 	ldw	r4,-8(fp)
   206b4:	00205d00 	call	205d0 <ACK_check>
   206b8:	1000051e 	bne	r2,zero,206d0 <OC_I2C_Write+0xa0>
        printf("OC_I2C_Write error[2]\r\n");
   206bc:	010000f4 	movhi	r4,3
   206c0:	210d0604 	addi	r4,r4,13336
   206c4:	0023de80 	call	23de8 <puts>
        return FALSE;
   206c8:	0005883a 	mov	r2,zero
   206cc:	00005406 	br	20820 <OC_I2C_Write+0x1f0>
    }
  // printf("\n receive ACK-device address! \n");

   //set the txr reg data with reg address + 1 data MSB
   if (!Write32_Data( i2c_base, 3,sub_address)){
   206d0:	e0bffc03 	ldbu	r2,-16(fp)
   206d4:	100d883a 	mov	r6,r2
   206d8:	014000c4 	movi	r5,3
   206dc:	e13ffe17 	ldw	r4,-8(fp)
   206e0:	00202840 	call	20284 <Write32_Data>
   206e4:	1000051e 	bne	r2,zero,206fc <OC_I2C_Write+0xcc>
       printf("OC_I2C_Write error[3]\r\n");
   206e8:	010000f4 	movhi	r4,3
   206ec:	210d0c04 	addi	r4,r4,13360
   206f0:	0023de80 	call	23de8 <puts>
       return FALSE;
   206f4:	0005883a 	mov	r2,zero
   206f8:	00004906 	br	20820 <OC_I2C_Write+0x1f0>
   }

   //set WR bits(bit4)
    if (!Write32_Data( i2c_base, 4,0x10)){
   206fc:	01800404 	movi	r6,16
   20700:	01400104 	movi	r5,4
   20704:	e13ffe17 	ldw	r4,-8(fp)
   20708:	00202840 	call	20284 <Write32_Data>
   2070c:	1000051e 	bne	r2,zero,20724 <OC_I2C_Write+0xf4>
        printf("OC_I2C_Write error[4]\r\n");
   20710:	010000f4 	movhi	r4,3
   20714:	210d1204 	addi	r4,r4,13384
   20718:	0023de80 	call	23de8 <puts>
        return FALSE;
   2071c:	0005883a 	mov	r2,zero
   20720:	00003f06 	br	20820 <OC_I2C_Write+0x1f0>
    }

   //wait TIP bit go to 0 to end Tx
    if(!ACK_check( i2c_base)){
   20724:	e13ffe17 	ldw	r4,-8(fp)
   20728:	00205d00 	call	205d0 <ACK_check>
   2072c:	1000051e 	bne	r2,zero,20744 <OC_I2C_Write+0x114>
        printf("OC_I2C_Write error[5]\r\n");
   20730:	010000f4 	movhi	r4,3
   20734:	210d1804 	addi	r4,r4,13408
   20738:	0023de80 	call	23de8 <puts>
        return FALSE;
   2073c:	0005883a 	mov	r2,zero
   20740:	00003706 	br	20820 <OC_I2C_Write+0x1f0>
    }
 //  printf("\n receive ACK-reg address! \n");

#if 1
        for( i=nWriteLength-1;i>=0;i--){
   20744:	e0800217 	ldw	r2,8(fp)
   20748:	10bfffc4 	addi	r2,r2,-1
   2074c:	e0bfff15 	stw	r2,-4(fp)
   20750:	00002406 	br	207e4 <OC_I2C_Write+0x1b4>
        //set the txr reg data with the data
          if (!Write32_Data( i2c_base, 3,*(pData+i))){
   20754:	e0bfff17 	ldw	r2,-4(fp)
   20758:	e0fffb17 	ldw	r3,-20(fp)
   2075c:	1885883a 	add	r2,r3,r2
   20760:	10800003 	ldbu	r2,0(r2)
   20764:	10803fcc 	andi	r2,r2,255
   20768:	100d883a 	mov	r6,r2
   2076c:	014000c4 	movi	r5,3
   20770:	e13ffe17 	ldw	r4,-8(fp)
   20774:	00202840 	call	20284 <Write32_Data>
   20778:	1000051e 	bne	r2,zero,20790 <OC_I2C_Write+0x160>
              printf("OC_I2C_Write error[6]\r\n");
   2077c:	010000f4 	movhi	r4,3
   20780:	210d1e04 	addi	r4,r4,13432
   20784:	0023de80 	call	23de8 <puts>
              return FALSE;
   20788:	0005883a 	mov	r2,zero
   2078c:	00002406 	br	20820 <OC_I2C_Write+0x1f0>
          }

        //set STO and WR bits(bit7 and bit4)
         if (!Write32_Data( i2c_base, 4,0x10)){
   20790:	01800404 	movi	r6,16
   20794:	01400104 	movi	r5,4
   20798:	e13ffe17 	ldw	r4,-8(fp)
   2079c:	00202840 	call	20284 <Write32_Data>
   207a0:	1000051e 	bne	r2,zero,207b8 <OC_I2C_Write+0x188>
             printf("OC_I2C_Write error[7]\r\n");
   207a4:	010000f4 	movhi	r4,3
   207a8:	210d2404 	addi	r4,r4,13456
   207ac:	0023de80 	call	23de8 <puts>
              return FALSE;
   207b0:	0005883a 	mov	r2,zero
   207b4:	00001a06 	br	20820 <OC_I2C_Write+0x1f0>
         }

         //wait TIP bit go to 0 to end Tx
          if(!ACK_check( i2c_base)){
   207b8:	e13ffe17 	ldw	r4,-8(fp)
   207bc:	00205d00 	call	205d0 <ACK_check>
   207c0:	1000051e 	bne	r2,zero,207d8 <OC_I2C_Write+0x1a8>
              printf("OC_I2C_Write error[8]\r\n");
   207c4:	010000f4 	movhi	r4,3
   207c8:	210d2a04 	addi	r4,r4,13480
   207cc:	0023de80 	call	23de8 <puts>
              return FALSE;
   207d0:	0005883a 	mov	r2,zero
   207d4:	00001206 	br	20820 <OC_I2C_Write+0x1f0>
        for( i=nWriteLength-1;i>=0;i--){
   207d8:	e0bfff17 	ldw	r2,-4(fp)
   207dc:	10bfffc4 	addi	r2,r2,-1
   207e0:	e0bfff15 	stw	r2,-4(fp)
   207e4:	e0bfff17 	ldw	r2,-4(fp)
   207e8:	103fda0e 	bge	r2,zero,20754 <OC_I2C_Write+0x124>
   //wait TIP bit go to 0 to end Tx
    if(!ACK_check( i2c_base))
        return false;
#endif

     if (!Write32_Data( i2c_base, 4,0x40)){
   207ec:	01801004 	movi	r6,64
   207f0:	01400104 	movi	r5,4
   207f4:	e13ffe17 	ldw	r4,-8(fp)
   207f8:	00202840 	call	20284 <Write32_Data>
   207fc:	1000051e 	bne	r2,zero,20814 <OC_I2C_Write+0x1e4>
         printf("OC_I2C_Write error[9]\r\n");
   20800:	010000f4 	movhi	r4,3
   20804:	210d3004 	addi	r4,r4,13504
   20808:	0023de80 	call	23de8 <puts>
         return FALSE;
   2080c:	0005883a 	mov	r2,zero
   20810:	00000306 	br	20820 <OC_I2C_Write+0x1f0>
     }
         //Sleep(10);
     //OS_msleep(1);
     usleep(SLEEP_TIME);
   20814:	01003e84 	movi	r4,250
   20818:	0030e780 	call	30e78 <usleep>

  // printf("\n receive ACK-data! \n");

     return TRUE;
   2081c:	00800044 	movi	r2,1

}
   20820:	e037883a 	mov	sp,fp
   20824:	dfc00117 	ldw	ra,4(sp)
   20828:	df000017 	ldw	fp,0(sp)
   2082c:	dec00204 	addi	sp,sp,8
   20830:	f800283a 	ret

00020834 <ACK_judge_for_read>:


bool ACK_judge_for_read(alt_32 i2c_base)
{
   20834:	defffb04 	addi	sp,sp,-20
   20838:	dfc00415 	stw	ra,16(sp)
   2083c:	df000315 	stw	fp,12(sp)
   20840:	df000304 	addi	fp,sp,12
   20844:	e13ffd15 	stw	r4,-12(fp)
	bool bSuccess;
    alt_32 this_data;

   // OS_msleep( SLEEP_TIME );
     usleep(ACK_SLEEP_TIME);
   20848:	01003e84 	movi	r4,250
   2084c:	0030e780 	call	30e78 <usleep>
    //   while(this_data & 0x02)
//   {
//      this_data =  Read32_Data ( hPCIe, i2c_base, 4);
//   }
    bSuccess =  Read32_Data ( i2c_base, 4, &this_data);
   20850:	e0bffe04 	addi	r2,fp,-8
   20854:	100d883a 	mov	r6,r2
   20858:	01400104 	movi	r5,4
   2085c:	e13ffd17 	ldw	r4,-12(fp)
   20860:	00202d80 	call	202d8 <Read32_Data>
   20864:	e0bfff15 	stw	r2,-4(fp)
    if (bSuccess){
   20868:	e0bfff17 	ldw	r2,-4(fp)
   2086c:	10000426 	beq	r2,zero,20880 <ACK_judge_for_read+0x4c>
        if(this_data & 0x02)
   20870:	e0bffe17 	ldw	r2,-8(fp)
   20874:	1080008c 	andi	r2,r2,2
   20878:	10000126 	beq	r2,zero,20880 <ACK_judge_for_read+0x4c>
            bSuccess = FALSE;
   2087c:	e03fff15 	stw	zero,-4(fp)
    }
   //wait the rx ACK signal 0-valid

    return bSuccess;
   20880:	e0bfff17 	ldw	r2,-4(fp)

}
   20884:	e037883a 	mov	sp,fp
   20888:	dfc00117 	ldw	ra,4(sp)
   2088c:	df000017 	ldw	fp,0(sp)
   20890:	dec00204 	addi	sp,sp,8
   20894:	f800283a 	ret

00020898 <OC_I2C_Read>:

bool  OC_I2C_Read(alt_32 i2c_base,alt_u8 device_address,alt_u8 sub_address, alt_u8 *pData8, int nReadLength){
   20898:	defff804 	addi	sp,sp,-32
   2089c:	dfc00715 	stw	ra,28(sp)
   208a0:	df000615 	stw	fp,24(sp)
   208a4:	df000604 	addi	fp,sp,24
   208a8:	e13ffd15 	stw	r4,-12(fp)
   208ac:	2805883a 	mov	r2,r5
   208b0:	3007883a 	mov	r3,r6
   208b4:	e1fffa15 	stw	r7,-24(fp)
   208b8:	e0bffc05 	stb	r2,-16(fp)
   208bc:	1805883a 	mov	r2,r3
   208c0:	e0bffb05 	stb	r2,-20(fp)
    //BYTE data = 0x0;
    alt_32 Data32;
    int i;

   //set the tx reg audio chip dev address with write bit
   IOWR( i2c_base, 3,device_address);
   208c4:	e0bffd17 	ldw	r2,-12(fp)
   208c8:	10800304 	addi	r2,r2,12
   208cc:	1007883a 	mov	r3,r2
   208d0:	e0bffc03 	ldbu	r2,-16(fp)
   208d4:	18800035 	stwio	r2,0(r3)
   //set STA and WR bits(bit7 and bit4)
   IOWR( i2c_base, 4,0x90);
   208d8:	e0bffd17 	ldw	r2,-12(fp)
   208dc:	10800404 	addi	r2,r2,16
   208e0:	1007883a 	mov	r3,r2
   208e4:	00802404 	movi	r2,144
   208e8:	18800035 	stwio	r2,0(r3)
   //wait TIP bit go to 0 to end Tx
   if (!ACK_check( i2c_base)){
   208ec:	e13ffd17 	ldw	r4,-12(fp)
   208f0:	00205d00 	call	205d0 <ACK_check>
   208f4:	1000051e 	bne	r2,zero,2090c <OC_I2C_Read+0x74>
       printf("OC_I2C_Read error[2]\r\n");
   208f8:	010000f4 	movhi	r4,3
   208fc:	210d3604 	addi	r4,r4,13528
   20900:	0023de80 	call	23de8 <puts>
       return FALSE;
   20904:	0005883a 	mov	r2,zero
   20908:	00005206 	br	20a54 <OC_I2C_Read+0x1bc>
   }
   IOWR(i2c_base, 3,sub_address);
   2090c:	e0bffd17 	ldw	r2,-12(fp)
   20910:	10800304 	addi	r2,r2,12
   20914:	1007883a 	mov	r3,r2
   20918:	e0bffb03 	ldbu	r2,-20(fp)
   2091c:	18800035 	stwio	r2,0(r3)

   //set WR bits(bit4)
   IOWR( i2c_base, 4,0x10);
   20920:	e0bffd17 	ldw	r2,-12(fp)
   20924:	10800404 	addi	r2,r2,16
   20928:	1007883a 	mov	r3,r2
   2092c:	00800404 	movi	r2,16
   20930:	18800035 	stwio	r2,0(r3)
   //wait TIP bit go to 0 to end Tx
    if (!ACK_check( i2c_base)){
   20934:	e13ffd17 	ldw	r4,-12(fp)
   20938:	00205d00 	call	205d0 <ACK_check>
   2093c:	1000051e 	bne	r2,zero,20954 <OC_I2C_Read+0xbc>
        printf("OC_I2C_Read error[5]\r\n");
   20940:	010000f4 	movhi	r4,3
   20944:	210d3c04 	addi	r4,r4,13552
   20948:	0023de80 	call	23de8 <puts>
        return FALSE;
   2094c:	0005883a 	mov	r2,zero
   20950:	00004006 	br	20a54 <OC_I2C_Read+0x1bc>
  // printf("\n read receive ACK-reg address! \n");

   //read
    //set the tx reg audio chip dev address with read bit 1

    IOWR(i2c_base, 3,device_address|0x01);
   20954:	e0bffd17 	ldw	r2,-12(fp)
   20958:	10800304 	addi	r2,r2,12
   2095c:	1007883a 	mov	r3,r2
   20960:	e0bffc03 	ldbu	r2,-16(fp)
   20964:	10800054 	ori	r2,r2,1
   20968:	10803fcc 	andi	r2,r2,255
   2096c:	18800035 	stwio	r2,0(r3)

   //set STA and WR bits(bit7 and bit4)
    IOWR( i2c_base, 4,0x90);
   20970:	e0bffd17 	ldw	r2,-12(fp)
   20974:	10800404 	addi	r2,r2,16
   20978:	1007883a 	mov	r3,r2
   2097c:	00802404 	movi	r2,144
   20980:	18800035 	stwio	r2,0(r3)

   //wait TIP bit go to 0 to end Tx
    if (!ACK_check( i2c_base)){
   20984:	e13ffd17 	ldw	r4,-12(fp)
   20988:	00205d00 	call	205d0 <ACK_check>
   2098c:	1000051e 	bne	r2,zero,209a4 <OC_I2C_Read+0x10c>
        printf("OC_I2C_Read error[8]\r\n");
   20990:	010000f4 	movhi	r4,3
   20994:	210d4204 	addi	r4,r4,13576
   20998:	0023de80 	call	23de8 <puts>
        return FALSE;
   2099c:	0005883a 	mov	r2,zero
   209a0:	00002c06 	br	20a54 <OC_I2C_Read+0x1bc>
    }

    for(i=0;i<nReadLength;i++){
   209a4:	e03fff15 	stw	zero,-4(fp)
   209a8:	00001f06 	br	20a28 <OC_I2C_Read+0x190>
  // printf("\n read receive ACK-device address(read)! \n");
   //set the RD and ACK bit(bit5 and bit3)
    	IOWR( i2c_base, 4,((i+1) == nReadLength)?0x28:0x20);
   209ac:	e0bffd17 	ldw	r2,-12(fp)
   209b0:	10800404 	addi	r2,r2,16
   209b4:	1009883a 	mov	r4,r2
   209b8:	e0bfff17 	ldw	r2,-4(fp)
   209bc:	10800044 	addi	r2,r2,1
   209c0:	e0c00217 	ldw	r3,8(fp)
   209c4:	1880021e 	bne	r3,r2,209d0 <OC_I2C_Read+0x138>
   209c8:	00800a04 	movi	r2,40
   209cc:	00000106 	br	209d4 <OC_I2C_Read+0x13c>
   209d0:	00800804 	movi	r2,32
   209d4:	20800035 	stwio	r2,0(r4)

        if (!ACK_judge_for_read( i2c_base)){
   209d8:	e13ffd17 	ldw	r4,-12(fp)
   209dc:	00208340 	call	20834 <ACK_judge_for_read>
   209e0:	1000051e 	bne	r2,zero,209f8 <OC_I2C_Read+0x160>
            printf("OC_I2C_Read error[10]\r\n");
   209e4:	010000f4 	movhi	r4,3
   209e8:	210d4804 	addi	r4,r4,13600
   209ec:	0023de80 	call	23de8 <puts>
            return FALSE;
   209f0:	0005883a 	mov	r2,zero
   209f4:	00001706 	br	20a54 <OC_I2C_Read+0x1bc>
        }
   // printf("\n read receive ACK-device address(read)! \n");

        Data32=IORD( i2c_base, 3);
   209f8:	e0bffd17 	ldw	r2,-12(fp)
   209fc:	10800304 	addi	r2,r2,12
   20a00:	10800037 	ldwio	r2,0(r2)
   20a04:	e0bffe15 	stw	r2,-8(fp)
        *(pData8+i) =  Data32 & 0xff;
   20a08:	e0bfff17 	ldw	r2,-4(fp)
   20a0c:	e0fffa17 	ldw	r3,-24(fp)
   20a10:	1885883a 	add	r2,r3,r2
   20a14:	e0fffe17 	ldw	r3,-8(fp)
   20a18:	10c00005 	stb	r3,0(r2)
    for(i=0;i<nReadLength;i++){
   20a1c:	e0bfff17 	ldw	r2,-4(fp)
   20a20:	10800044 	addi	r2,r2,1
   20a24:	e0bfff15 	stw	r2,-4(fp)
   20a28:	e0ffff17 	ldw	r3,-4(fp)
   20a2c:	e0800217 	ldw	r2,8(fp)
   20a30:	18bfde16 	blt	r3,r2,209ac <OC_I2C_Read+0x114>
    }

    IOWR( i2c_base, 4,0x40);
   20a34:	e0bffd17 	ldw	r2,-12(fp)
   20a38:	10800404 	addi	r2,r2,16
   20a3c:	1007883a 	mov	r3,r2
   20a40:	00801004 	movi	r2,64
   20a44:	18800035 	stwio	r2,0(r3)

  // Sleep(10);
   //OS_msleep(1);
    usleep(SLEEP_TIME);
   20a48:	01003e84 	movi	r4,250
   20a4c:	0030e780 	call	30e78 <usleep>
 //  printf(" Read  [%02X] = %02Xh\r\n", sub_address, data);


   return TRUE;
   20a50:	00800044 	movi	r2,1

}
   20a54:	e037883a 	mov	sp,fp
   20a58:	dfc00117 	ldw	ra,4(sp)
   20a5c:	df000017 	ldw	fp,0(sp)
   20a60:	dec00204 	addi	sp,sp,8
   20a64:	f800283a 	ret

00020a68 <OC_I2C_Read_Continue>:


bool  OC_I2C_Read_Continue(alt_32 i2c_base,alt_u8 device_address, alt_u8 *pData8, int nReadLength){
   20a68:	defff804 	addi	sp,sp,-32
   20a6c:	dfc00715 	stw	ra,28(sp)
   20a70:	df000615 	stw	fp,24(sp)
   20a74:	df000604 	addi	fp,sp,24
   20a78:	e13ffd15 	stw	r4,-12(fp)
   20a7c:	2805883a 	mov	r2,r5
   20a80:	e1bffb15 	stw	r6,-20(fp)
   20a84:	e1fffa15 	stw	r7,-24(fp)
   20a88:	e0bffc05 	stb	r2,-16(fp)
	int i;
	alt_u32 Data32;

    IOWR(i2c_base, 3,device_address|0x01);
   20a8c:	e0bffd17 	ldw	r2,-12(fp)
   20a90:	10800304 	addi	r2,r2,12
   20a94:	1007883a 	mov	r3,r2
   20a98:	e0bffc03 	ldbu	r2,-16(fp)
   20a9c:	10800054 	ori	r2,r2,1
   20aa0:	10803fcc 	andi	r2,r2,255
   20aa4:	18800035 	stwio	r2,0(r3)

   //set STA and WR bits(bit7 and bit4)
    IOWR( i2c_base, 4,0x90);
   20aa8:	e0bffd17 	ldw	r2,-12(fp)
   20aac:	10800404 	addi	r2,r2,16
   20ab0:	1007883a 	mov	r3,r2
   20ab4:	00802404 	movi	r2,144
   20ab8:	18800035 	stwio	r2,0(r3)
//usleep(5*1000);
   //wait TIP bit go to 0 to end Tx
    if (!ACK_check( i2c_base)){
   20abc:	e13ffd17 	ldw	r4,-12(fp)
   20ac0:	00205d00 	call	205d0 <ACK_check>
   20ac4:	1000051e 	bne	r2,zero,20adc <OC_I2C_Read_Continue+0x74>
        printf("OC_I2C_Read error[8]\r\n");
   20ac8:	010000f4 	movhi	r4,3
   20acc:	210d4204 	addi	r4,r4,13576
   20ad0:	0023de80 	call	23de8 <puts>
        return FALSE;
   20ad4:	0005883a 	mov	r2,zero
   20ad8:	00002c06 	br	20b8c <OC_I2C_Read_Continue+0x124>
    }

    for(i=0;i<nReadLength;i++){
   20adc:	e03fff15 	stw	zero,-4(fp)
   20ae0:	00001f06 	br	20b60 <OC_I2C_Read_Continue+0xf8>
  // printf("\n read receive ACK-device address(read)! \n");
   //set the RD and ACK bit(bit5 and bit3)
    	IOWR( i2c_base, 4,((i+1) == nReadLength)?0x28:0x20);
   20ae4:	e0bffd17 	ldw	r2,-12(fp)
   20ae8:	10800404 	addi	r2,r2,16
   20aec:	1009883a 	mov	r4,r2
   20af0:	e0bfff17 	ldw	r2,-4(fp)
   20af4:	10800044 	addi	r2,r2,1
   20af8:	e0fffa17 	ldw	r3,-24(fp)
   20afc:	1880021e 	bne	r3,r2,20b08 <OC_I2C_Read_Continue+0xa0>
   20b00:	00800a04 	movi	r2,40
   20b04:	00000106 	br	20b0c <OC_I2C_Read_Continue+0xa4>
   20b08:	00800804 	movi	r2,32
   20b0c:	20800035 	stwio	r2,0(r4)

        if (!ACK_judge_for_read( i2c_base)){
   20b10:	e13ffd17 	ldw	r4,-12(fp)
   20b14:	00208340 	call	20834 <ACK_judge_for_read>
   20b18:	1000051e 	bne	r2,zero,20b30 <OC_I2C_Read_Continue+0xc8>
            printf("OC_I2C_Read error[10]\r\n");
   20b1c:	010000f4 	movhi	r4,3
   20b20:	210d4804 	addi	r4,r4,13600
   20b24:	0023de80 	call	23de8 <puts>
            return FALSE;
   20b28:	0005883a 	mov	r2,zero
   20b2c:	00001706 	br	20b8c <OC_I2C_Read_Continue+0x124>
        }
   // printf("\n read receive ACK-device address(read)! \n");

        Data32=IORD( i2c_base, 3);
   20b30:	e0bffd17 	ldw	r2,-12(fp)
   20b34:	10800304 	addi	r2,r2,12
   20b38:	10800037 	ldwio	r2,0(r2)
   20b3c:	e0bffe15 	stw	r2,-8(fp)
        *(pData8+i) =  Data32 & 0xff;
   20b40:	e0bfff17 	ldw	r2,-4(fp)
   20b44:	e0fffb17 	ldw	r3,-20(fp)
   20b48:	1885883a 	add	r2,r3,r2
   20b4c:	e0fffe17 	ldw	r3,-8(fp)
   20b50:	10c00005 	stb	r3,0(r2)
    for(i=0;i<nReadLength;i++){
   20b54:	e0bfff17 	ldw	r2,-4(fp)
   20b58:	10800044 	addi	r2,r2,1
   20b5c:	e0bfff15 	stw	r2,-4(fp)
   20b60:	e0ffff17 	ldw	r3,-4(fp)
   20b64:	e0bffa17 	ldw	r2,-24(fp)
   20b68:	18bfde16 	blt	r3,r2,20ae4 <OC_I2C_Read_Continue+0x7c>
    }

    IOWR( i2c_base, 4,0x40);
   20b6c:	e0bffd17 	ldw	r2,-12(fp)
   20b70:	10800404 	addi	r2,r2,16
   20b74:	1007883a 	mov	r3,r2
   20b78:	00801004 	movi	r2,64
   20b7c:	18800035 	stwio	r2,0(r3)

  // Sleep(10);
   //OS_msleep(1);
    usleep(SLEEP_TIME);
   20b80:	01003e84 	movi	r4,250
   20b84:	0030e780 	call	30e78 <usleep>
 //  printf(" Read  [%02X] = %02Xh\r\n", sub_address, data);


   return TRUE;
   20b88:	00800044 	movi	r2,1

}
   20b8c:	e037883a 	mov	sp,fp
   20b90:	dfc00117 	ldw	ra,4(sp)
   20b94:	df000017 	ldw	fp,0(sp)
   20b98:	dec00204 	addi	sp,sp,8
   20b9c:	f800283a 	ret

00020ba0 <OC_I2CL_Write>:


//  size > 2Kb
bool  OC_I2CL_Write(alt_32 i2c_base,alt_u8 device_address,alt_u16 sub_address,alt_u8 *pData, int nWriteLength)
    {
   20ba0:	defff804 	addi	sp,sp,-32
   20ba4:	dfc00715 	stw	ra,28(sp)
   20ba8:	df000615 	stw	fp,24(sp)
   20bac:	df000604 	addi	fp,sp,24
   20bb0:	e13ffd15 	stw	r4,-12(fp)
   20bb4:	2805883a 	mov	r2,r5
   20bb8:	3007883a 	mov	r3,r6
   20bbc:	e1fffa15 	stw	r7,-24(fp)
   20bc0:	e0bffc05 	stb	r2,-16(fp)
   20bc4:	1805883a 	mov	r2,r3
   20bc8:	e0bffb0d 	sth	r2,-20(fp)
    //DWORD reg_data = 0x0;
	alt_u8 AddrHigh, AddrLow;
    //int count= 0;

    AddrHigh = (sub_address >> 8) & 0xFF;
   20bcc:	e0bffb0b 	ldhu	r2,-20(fp)
   20bd0:	1004d23a 	srli	r2,r2,8
   20bd4:	e0bffec5 	stb	r2,-5(fp)
    AddrLow  = sub_address & 0xFF;
   20bd8:	e0bffb0b 	ldhu	r2,-20(fp)
   20bdc:	e0bffe85 	stb	r2,-6(fp)

    int i;

    //set the tx reg audio chip dev address with write bit
   if (!Write32_Data( i2c_base, 3,device_address))
   20be0:	e0bffc03 	ldbu	r2,-16(fp)
   20be4:	100d883a 	mov	r6,r2
   20be8:	014000c4 	movi	r5,3
   20bec:	e13ffd17 	ldw	r4,-12(fp)
   20bf0:	00202840 	call	20284 <Write32_Data>
   20bf4:	1000021e 	bne	r2,zero,20c00 <OC_I2CL_Write+0x60>
       return FALSE;
   20bf8:	0005883a 	mov	r2,zero
   20bfc:	00006806 	br	20da0 <OC_I2CL_Write+0x200>
   //set STA and WR bits(bit7 and bit4)
   if (!Write32_Data( i2c_base, 4,0x90))//0x90
   20c00:	01802404 	movi	r6,144
   20c04:	01400104 	movi	r5,4
   20c08:	e13ffd17 	ldw	r4,-12(fp)
   20c0c:	00202840 	call	20284 <Write32_Data>
   20c10:	1000021e 	bne	r2,zero,20c1c <OC_I2CL_Write+0x7c>
       return FALSE;
   20c14:	0005883a 	mov	r2,zero
   20c18:	00006106 	br	20da0 <OC_I2CL_Write+0x200>

   //wait TIP bit go to 0 to end Tx
    if(!ACK_check( i2c_base)){
   20c1c:	e13ffd17 	ldw	r4,-12(fp)
   20c20:	00205d00 	call	205d0 <ACK_check>
   20c24:	1000051e 	bne	r2,zero,20c3c <OC_I2CL_Write+0x9c>
        printf("OC_I2CL_Write error[0]\r\n");
   20c28:	010000f4 	movhi	r4,3
   20c2c:	210d4e04 	addi	r4,r4,13624
   20c30:	0023de80 	call	23de8 <puts>
        return FALSE;
   20c34:	0005883a 	mov	r2,zero
   20c38:	00005906 	br	20da0 <OC_I2CL_Write+0x200>
  // printf("\n receive ACK-device address! \n");

   //set the txr reg data with reg address + 1 data MSB
 //  reg_data  = (sub_address << 1) & 0xFE;
   //reg_data |= ((data >> 8) & 0x01);
   if (!Write32_Data( i2c_base, 3,AddrHigh))//reg_data&0xff);
   20c3c:	e0bffec3 	ldbu	r2,-5(fp)
   20c40:	100d883a 	mov	r6,r2
   20c44:	014000c4 	movi	r5,3
   20c48:	e13ffd17 	ldw	r4,-12(fp)
   20c4c:	00202840 	call	20284 <Write32_Data>
   20c50:	1000021e 	bne	r2,zero,20c5c <OC_I2CL_Write+0xbc>
       return FALSE;
   20c54:	0005883a 	mov	r2,zero
   20c58:	00005106 	br	20da0 <OC_I2CL_Write+0x200>

   //set WR bits(bit4)
    if (!Write32_Data( i2c_base, 4,0x10))
   20c5c:	01800404 	movi	r6,16
   20c60:	01400104 	movi	r5,4
   20c64:	e13ffd17 	ldw	r4,-12(fp)
   20c68:	00202840 	call	20284 <Write32_Data>
   20c6c:	1000021e 	bne	r2,zero,20c78 <OC_I2CL_Write+0xd8>
        return FALSE;
   20c70:	0005883a 	mov	r2,zero
   20c74:	00004a06 	br	20da0 <OC_I2CL_Write+0x200>

   //wait TIP bit go to 0 to end Tx
    if(!ACK_check( i2c_base)){
   20c78:	e13ffd17 	ldw	r4,-12(fp)
   20c7c:	00205d00 	call	205d0 <ACK_check>
   20c80:	1000051e 	bne	r2,zero,20c98 <OC_I2CL_Write+0xf8>
        printf("OC_I2CL_Write error[1]\r\n");
   20c84:	010000f4 	movhi	r4,3
   20c88:	210d5404 	addi	r4,r4,13648
   20c8c:	0023de80 	call	23de8 <puts>
        return FALSE;
   20c90:	0005883a 	mov	r2,zero
   20c94:	00004206 	br	20da0 <OC_I2CL_Write+0x200>
    }
  // printf("\n receive ACK-reg high address! \n");

   //set the txr reg data with reg address + 1 data MSB
   if (!Write32_Data( i2c_base, 3,AddrLow))//reg_data&0xff);
   20c98:	e0bffe83 	ldbu	r2,-6(fp)
   20c9c:	100d883a 	mov	r6,r2
   20ca0:	014000c4 	movi	r5,3
   20ca4:	e13ffd17 	ldw	r4,-12(fp)
   20ca8:	00202840 	call	20284 <Write32_Data>
   20cac:	1000021e 	bne	r2,zero,20cb8 <OC_I2CL_Write+0x118>
       return FALSE;
   20cb0:	0005883a 	mov	r2,zero
   20cb4:	00003a06 	br	20da0 <OC_I2CL_Write+0x200>

   //set WR bits(bit4)
    Write32_Data( i2c_base, 4,0x10);
   20cb8:	01800404 	movi	r6,16
   20cbc:	01400104 	movi	r5,4
   20cc0:	e13ffd17 	ldw	r4,-12(fp)
   20cc4:	00202840 	call	20284 <Write32_Data>

   //wait TIP bit go to 0 to end Tx
    if(!ACK_check( i2c_base)){
   20cc8:	e13ffd17 	ldw	r4,-12(fp)
   20ccc:	00205d00 	call	205d0 <ACK_check>
   20cd0:	1000051e 	bne	r2,zero,20ce8 <OC_I2CL_Write+0x148>
        printf("OC_I2CL_Write error[2]\r\n");
   20cd4:	010000f4 	movhi	r4,3
   20cd8:	210d5a04 	addi	r4,r4,13672
   20cdc:	0023de80 	call	23de8 <puts>
        return FALSE;
   20ce0:	0005883a 	mov	r2,zero
   20ce4:	00002e06 	br	20da0 <OC_I2CL_Write+0x200>
    }
  //  printf("\n receive ACK-reg low address! \n");

#if 1
    for( i=nWriteLength-1;i>=0;i--){
   20ce8:	e0800217 	ldw	r2,8(fp)
   20cec:	10bfffc4 	addi	r2,r2,-1
   20cf0:	e0bfff15 	stw	r2,-4(fp)
   20cf4:	00001e06 	br	20d70 <OC_I2CL_Write+0x1d0>
        //set the txr reg data with the other data 8 bit LSB
        if (!Write32_Data( i2c_base, 3,*(pData+i)))
   20cf8:	e0bfff17 	ldw	r2,-4(fp)
   20cfc:	e0fffa17 	ldw	r3,-24(fp)
   20d00:	1885883a 	add	r2,r3,r2
   20d04:	10800003 	ldbu	r2,0(r2)
   20d08:	10803fcc 	andi	r2,r2,255
   20d0c:	100d883a 	mov	r6,r2
   20d10:	014000c4 	movi	r5,3
   20d14:	e13ffd17 	ldw	r4,-12(fp)
   20d18:	00202840 	call	20284 <Write32_Data>
   20d1c:	1000021e 	bne	r2,zero,20d28 <OC_I2CL_Write+0x188>
            return FALSE;
   20d20:	0005883a 	mov	r2,zero
   20d24:	00001e06 	br	20da0 <OC_I2CL_Write+0x200>

       //set STO and WR bits(bit7 and bit4)
        if (!Write32_Data( i2c_base, 4,0x10))
   20d28:	01800404 	movi	r6,16
   20d2c:	01400104 	movi	r5,4
   20d30:	e13ffd17 	ldw	r4,-12(fp)
   20d34:	00202840 	call	20284 <Write32_Data>
   20d38:	1000021e 	bne	r2,zero,20d44 <OC_I2CL_Write+0x1a4>
            return FALSE;
   20d3c:	0005883a 	mov	r2,zero
   20d40:	00001706 	br	20da0 <OC_I2CL_Write+0x200>

        //wait TIP bit go to 0 to end Tx
         if(!ACK_check( i2c_base)){
   20d44:	e13ffd17 	ldw	r4,-12(fp)
   20d48:	00205d00 	call	205d0 <ACK_check>
   20d4c:	1000051e 	bne	r2,zero,20d64 <OC_I2CL_Write+0x1c4>
             printf("OC_I2CL_Write error[3]\r\n");
   20d50:	010000f4 	movhi	r4,3
   20d54:	210d6004 	addi	r4,r4,13696
   20d58:	0023de80 	call	23de8 <puts>
             return FALSE;
   20d5c:	0005883a 	mov	r2,zero
   20d60:	00000f06 	br	20da0 <OC_I2CL_Write+0x200>
    for( i=nWriteLength-1;i>=0;i--){
   20d64:	e0bfff17 	ldw	r2,-4(fp)
   20d68:	10bfffc4 	addi	r2,r2,-1
   20d6c:	e0bfff15 	stw	r2,-4(fp)
   20d70:	e0bfff17 	ldw	r2,-4(fp)
   20d74:	103fe00e 	bge	r2,zero,20cf8 <OC_I2CL_Write+0x158>
   //wait TIP bit go to 0 to end Tx
    if(!ACK_check( i2c_base))
        return FALSE;

#endif
    if (!Write32_Data( i2c_base, 4,0x40))
   20d78:	01801004 	movi	r6,64
   20d7c:	01400104 	movi	r5,4
   20d80:	e13ffd17 	ldw	r4,-12(fp)
   20d84:	00202840 	call	20284 <Write32_Data>
   20d88:	1000021e 	bne	r2,zero,20d94 <OC_I2CL_Write+0x1f4>
         return FALSE;
   20d8c:	0005883a 	mov	r2,zero
   20d90:	00000306 	br	20da0 <OC_I2CL_Write+0x200>

     //OS_msleep(1);
      usleep(SLEEP_TIME);
   20d94:	01003e84 	movi	r4,250
   20d98:	0030e780 	call	30e78 <usleep>
  //  printf("\n receive ACK-data! \n");

     return TRUE;
   20d9c:	00800044 	movi	r2,1
}
   20da0:	e037883a 	mov	sp,fp
   20da4:	dfc00117 	ldw	ra,4(sp)
   20da8:	df000017 	ldw	fp,0(sp)
   20dac:	dec00204 	addi	sp,sp,8
   20db0:	f800283a 	ret

00020db4 <OC_I2CL_Read>:

   return TRUE;

} */

bool  OC_I2CL_Read(alt_32 i2c_base,alt_u8 device_address, alt_u16 sub_address, alt_u8 *pData8, int nReadLength){
   20db4:	defff704 	addi	sp,sp,-36
   20db8:	dfc00815 	stw	ra,32(sp)
   20dbc:	df000715 	stw	fp,28(sp)
   20dc0:	df000704 	addi	fp,sp,28
   20dc4:	e13ffc15 	stw	r4,-16(fp)
   20dc8:	2805883a 	mov	r2,r5
   20dcc:	3007883a 	mov	r3,r6
   20dd0:	e1fff915 	stw	r7,-28(fp)
   20dd4:	e0bffb05 	stb	r2,-20(fp)
   20dd8:	1805883a 	mov	r2,r3
   20ddc:	e0bffa0d 	sth	r2,-24(fp)
    int i;

    alt_u8 AddrHigh, AddrLow;
    alt_u8 DataHigh, DataLow;

    AddrHigh = (sub_address >> 8) & 0xFF;
   20de0:	e0bffa0b 	ldhu	r2,-24(fp)
   20de4:	1004d23a 	srli	r2,r2,8
   20de8:	e0bffec5 	stb	r2,-5(fp)
    AddrLow  = sub_address & 0xFF;
   20dec:	e0bffa0b 	ldhu	r2,-24(fp)
   20df0:	e0bffe85 	stb	r2,-6(fp)


   //set the tx reg audio chip dev address with write bit
   if (!Write32_Data( i2c_base, 3,device_address))
   20df4:	e0bffb03 	ldbu	r2,-20(fp)
   20df8:	100d883a 	mov	r6,r2
   20dfc:	014000c4 	movi	r5,3
   20e00:	e13ffc17 	ldw	r4,-16(fp)
   20e04:	00202840 	call	20284 <Write32_Data>
   20e08:	1000021e 	bne	r2,zero,20e14 <OC_I2CL_Read+0x60>
       return FALSE;
   20e0c:	0005883a 	mov	r2,zero
   20e10:	00008406 	br	21024 <OC_I2CL_Read+0x270>

   //set STA and WR bits(bit7 and bit4)
   if (!Write32_Data( i2c_base, 4,0x90))
   20e14:	01802404 	movi	r6,144
   20e18:	01400104 	movi	r5,4
   20e1c:	e13ffc17 	ldw	r4,-16(fp)
   20e20:	00202840 	call	20284 <Write32_Data>
   20e24:	1000021e 	bne	r2,zero,20e30 <OC_I2CL_Read+0x7c>
       return FALSE;
   20e28:	0005883a 	mov	r2,zero
   20e2c:	00007d06 	br	21024 <OC_I2CL_Read+0x270>

   //wait TIP bit go to 0 to end Tx
    if(!ACK_check( i2c_base)){
   20e30:	e13ffc17 	ldw	r4,-16(fp)
   20e34:	00205d00 	call	205d0 <ACK_check>
   20e38:	1000051e 	bne	r2,zero,20e50 <OC_I2CL_Read+0x9c>
        printf("OC_I2CL_Read error[0]\r\n");
   20e3c:	010000f4 	movhi	r4,3
   20e40:	210d6604 	addi	r4,r4,13720
   20e44:	0023de80 	call	23de8 <puts>
        return FALSE;
   20e48:	0005883a 	mov	r2,zero
   20e4c:	00007506 	br	21024 <OC_I2CL_Read+0x270>
 //  printf("\n receive ACK-device address! \n");


   //set the txr reg data with reg address + 0

   if (!Write32_Data( i2c_base, 3,AddrHigh))//reg_data&0xff);
   20e50:	e0bffec3 	ldbu	r2,-5(fp)
   20e54:	100d883a 	mov	r6,r2
   20e58:	014000c4 	movi	r5,3
   20e5c:	e13ffc17 	ldw	r4,-16(fp)
   20e60:	00202840 	call	20284 <Write32_Data>
   20e64:	1000021e 	bne	r2,zero,20e70 <OC_I2CL_Read+0xbc>
       return FALSE;
   20e68:	0005883a 	mov	r2,zero
   20e6c:	00006d06 	br	21024 <OC_I2CL_Read+0x270>

   //set WR bits(bit4)
    if (!Write32_Data( i2c_base, 4,0x10))
   20e70:	01800404 	movi	r6,16
   20e74:	01400104 	movi	r5,4
   20e78:	e13ffc17 	ldw	r4,-16(fp)
   20e7c:	00202840 	call	20284 <Write32_Data>
   20e80:	1000021e 	bne	r2,zero,20e8c <OC_I2CL_Read+0xd8>
        return FALSE;
   20e84:	0005883a 	mov	r2,zero
   20e88:	00006606 	br	21024 <OC_I2CL_Read+0x270>

   //wait TIP bit go to 0 to end Tx
    if(!ACK_check( i2c_base)){
   20e8c:	e13ffc17 	ldw	r4,-16(fp)
   20e90:	00205d00 	call	205d0 <ACK_check>
   20e94:	1000051e 	bne	r2,zero,20eac <OC_I2CL_Read+0xf8>
        printf("OC_I2CL_Read error[1]\r\n");
   20e98:	010000f4 	movhi	r4,3
   20e9c:	210d6c04 	addi	r4,r4,13744
   20ea0:	0023de80 	call	23de8 <puts>
        return FALSE;
   20ea4:	0005883a 	mov	r2,zero
   20ea8:	00005e06 	br	21024 <OC_I2CL_Read+0x270>
    }
//   printf("\n read receive ACK-reg High address! \n");

     //set the txr reg data with reg address + 0
   if (!Write32_Data( i2c_base, 3,AddrLow)) //;//reg_data&0xff);
   20eac:	e0bffe83 	ldbu	r2,-6(fp)
   20eb0:	100d883a 	mov	r6,r2
   20eb4:	014000c4 	movi	r5,3
   20eb8:	e13ffc17 	ldw	r4,-16(fp)
   20ebc:	00202840 	call	20284 <Write32_Data>
   20ec0:	1000021e 	bne	r2,zero,20ecc <OC_I2CL_Read+0x118>
       return FALSE;
   20ec4:	0005883a 	mov	r2,zero
   20ec8:	00005606 	br	21024 <OC_I2CL_Read+0x270>
   //set WR bits(bit4)
    if (!Write32_Data( i2c_base, 4,0x10))
   20ecc:	01800404 	movi	r6,16
   20ed0:	01400104 	movi	r5,4
   20ed4:	e13ffc17 	ldw	r4,-16(fp)
   20ed8:	00202840 	call	20284 <Write32_Data>
   20edc:	1000021e 	bne	r2,zero,20ee8 <OC_I2CL_Read+0x134>
        return FALSE;
   20ee0:	0005883a 	mov	r2,zero
   20ee4:	00004f06 	br	21024 <OC_I2CL_Read+0x270>

   //wait TIP bit go to 0 to end Tx
    if(!ACK_check( i2c_base)){
   20ee8:	e13ffc17 	ldw	r4,-16(fp)
   20eec:	00205d00 	call	205d0 <ACK_check>
   20ef0:	1000051e 	bne	r2,zero,20f08 <OC_I2CL_Read+0x154>
        printf("OC_I2CL_Read error[2]\r\n");
   20ef4:	010000f4 	movhi	r4,3
   20ef8:	210d7204 	addi	r4,r4,13768
   20efc:	0023de80 	call	23de8 <puts>
        return FALSE;
   20f00:	0005883a 	mov	r2,zero
   20f04:	00004706 	br	21024 <OC_I2CL_Read+0x270>

 //  printf("\n read receive ACK-reg Low address! \n");

   //read
    //set the tx reg audio chip dev address with read bit 1
     if (!Write32_Data( i2c_base, 3,device_address|0x01))
   20f08:	e0bffb03 	ldbu	r2,-20(fp)
   20f0c:	10800054 	ori	r2,r2,1
   20f10:	10803fcc 	andi	r2,r2,255
   20f14:	100d883a 	mov	r6,r2
   20f18:	014000c4 	movi	r5,3
   20f1c:	e13ffc17 	ldw	r4,-16(fp)
   20f20:	00202840 	call	20284 <Write32_Data>
   20f24:	1000021e 	bne	r2,zero,20f30 <OC_I2CL_Read+0x17c>
         return FALSE;
   20f28:	0005883a 	mov	r2,zero
   20f2c:	00003d06 	br	21024 <OC_I2CL_Read+0x270>

   //set STA and WR bits(bit7 and bit4)
     if (!Write32_Data( i2c_base, 4,0x90))
   20f30:	01802404 	movi	r6,144
   20f34:	01400104 	movi	r5,4
   20f38:	e13ffc17 	ldw	r4,-16(fp)
   20f3c:	00202840 	call	20284 <Write32_Data>
   20f40:	1000021e 	bne	r2,zero,20f4c <OC_I2CL_Read+0x198>
         return FALSE;
   20f44:	0005883a 	mov	r2,zero
   20f48:	00003606 	br	21024 <OC_I2CL_Read+0x270>

   //wait TIP bit go to 0 to end Tx
    if(!ACK_check( i2c_base)){
   20f4c:	e13ffc17 	ldw	r4,-16(fp)
   20f50:	00205d00 	call	205d0 <ACK_check>
   20f54:	1000051e 	bne	r2,zero,20f6c <OC_I2CL_Read+0x1b8>
        printf("OC_I2CL_Read error[3]\r\n");
   20f58:	010000f4 	movhi	r4,3
   20f5c:	210d7804 	addi	r4,r4,13792
   20f60:	0023de80 	call	23de8 <puts>
        return FALSE;
   20f64:	0005883a 	mov	r2,zero
   20f68:	00002e06 	br	21024 <OC_I2CL_Read+0x270>
//   printf("\n read receive ACK-device address(read)! \n");

       //read the rxr data

#if 1
    for(i=0;i<nReadLength;i++){
   20f6c:	e03fff15 	stw	zero,-4(fp)
   20f70:	00001f06 	br	20ff0 <OC_I2CL_Read+0x23c>
  // printf("\n read receive ACK-device address(read)! \n");
   //set the RD and ACK bit(bit5 and bit3)
    	IOWR( i2c_base, 4,((i+1) == nReadLength)?0x28:0x20);
   20f74:	e0bffc17 	ldw	r2,-16(fp)
   20f78:	10800404 	addi	r2,r2,16
   20f7c:	1009883a 	mov	r4,r2
   20f80:	e0bfff17 	ldw	r2,-4(fp)
   20f84:	10800044 	addi	r2,r2,1
   20f88:	e0c00217 	ldw	r3,8(fp)
   20f8c:	1880021e 	bne	r3,r2,20f98 <OC_I2CL_Read+0x1e4>
   20f90:	00800a04 	movi	r2,40
   20f94:	00000106 	br	20f9c <OC_I2CL_Read+0x1e8>
   20f98:	00800804 	movi	r2,32
   20f9c:	20800035 	stwio	r2,0(r4)

        if (!ACK_judge_for_read( i2c_base)){
   20fa0:	e13ffc17 	ldw	r4,-16(fp)
   20fa4:	00208340 	call	20834 <ACK_judge_for_read>
   20fa8:	1000051e 	bne	r2,zero,20fc0 <OC_I2CL_Read+0x20c>
            printf("OC_I2CL_Read error[4]\r\n");
   20fac:	010000f4 	movhi	r4,3
   20fb0:	210d7e04 	addi	r4,r4,13816
   20fb4:	0023de80 	call	23de8 <puts>
            return FALSE;
   20fb8:	0005883a 	mov	r2,zero
   20fbc:	00001906 	br	21024 <OC_I2CL_Read+0x270>
        }
   // printf("\n read receive ACK-device address(read)! \n");

        Data32=IORD( i2c_base, 3);
   20fc0:	e0bffc17 	ldw	r2,-16(fp)
   20fc4:	10800304 	addi	r2,r2,12
   20fc8:	10800037 	ldwio	r2,0(r2)
   20fcc:	e0bffd15 	stw	r2,-12(fp)
        *(pData8+i) =  Data32 & 0xff;
   20fd0:	e0bfff17 	ldw	r2,-4(fp)
   20fd4:	e0fff917 	ldw	r3,-28(fp)
   20fd8:	1885883a 	add	r2,r3,r2
   20fdc:	e0fffd17 	ldw	r3,-12(fp)
   20fe0:	10c00005 	stb	r3,0(r2)
    for(i=0;i<nReadLength;i++){
   20fe4:	e0bfff17 	ldw	r2,-4(fp)
   20fe8:	10800044 	addi	r2,r2,1
   20fec:	e0bfff15 	stw	r2,-4(fp)
   20ff0:	e0ffff17 	ldw	r3,-4(fp)
   20ff4:	e0800217 	ldw	r2,8(fp)
   20ff8:	18bfde16 	blt	r3,r2,20f74 <OC_I2CL_Read+0x1c0>
    DataLow =  Data32 & 0xff;

    pData16 = (DataHigh << 8) | DataLow;
#endif

   if (!Write32_Data( i2c_base, 4,0x40))
   20ffc:	01801004 	movi	r6,64
   21000:	01400104 	movi	r5,4
   21004:	e13ffc17 	ldw	r4,-16(fp)
   21008:	00202840 	call	20284 <Write32_Data>
   2100c:	1000021e 	bne	r2,zero,21018 <OC_I2CL_Read+0x264>
       return FALSE;
   21010:	0005883a 	mov	r2,zero
   21014:	00000306 	br	21024 <OC_I2CL_Read+0x270>

   //OS_msleep(1);
    usleep(SLEEP_TIME);
   21018:	01003e84 	movi	r4,250
   2101c:	0030e780 	call	30e78 <usleep>

   return TRUE;
   21020:	00800044 	movi	r2,1

}
   21024:	e037883a 	mov	sp,fp
   21028:	dfc00117 	ldw	ra,4(sp)
   2102c:	df000017 	ldw	fp,0(sp)
   21030:	dec00204 	addi	sp,sp,8
   21034:	f800283a 	ret

00021038 <Focus_Init>:
// please observe focus performance when change the scal ,scal_f. or when change camera frame rate
alt_u8  focus_scal   =   4;  // scan 0 -> 1023 , step: SCAL , to find STEP_UP
alt_u8  focus_scal_f =   1;  //  scan STEP_UP + - SCAL/2 , step: SCAL_F
alt_u8  focus_th     =   20;

void Focus_Init(void){
   21038:	defffe04 	addi	sp,sp,-8
   2103c:	dfc00115 	stw	ra,4(sp)
   21040:	df000015 	stw	fp,0(sp)
   21044:	d839883a 	mov	fp,sp
  // please look at TERASIC_AUTO_FOCUS IP to see register's detail.
  IOWR(TERASIC_AUTO_FOCUS_0_BASE,REG_CTRL, 0);// focus mode : 1: window-screen, 0: full-screen
   21048:	0007883a 	mov	r3,zero
   2104c:	00800134 	movhi	r2,4
   21050:	10c40935 	stwio	r3,4132(r2)
  IOWR(TERASIC_AUTO_FOCUS_0_BASE,REG_FOCUS_W, focus_width);// focus_width
   21054:	d0a0010b 	ldhu	r2,-32764(gp)
   21058:	10ffffcc 	andi	r3,r2,65535
   2105c:	00800134 	movhi	r2,4
   21060:	10c40a35 	stwio	r3,4136(r2)
  IOWR(TERASIC_AUTO_FOCUS_0_BASE,REG_FOCUS_H, focus_height);// focus_height
   21064:	d0a0018b 	ldhu	r2,-32762(gp)
   21068:	10ffffcc 	andi	r3,r2,65535
   2106c:	00800134 	movhi	r2,4
   21070:	10c40b35 	stwio	r3,4140(r2)
  IOWR(TERASIC_AUTO_FOCUS_0_BASE,REG_FOCUS_X_START, video_w/2-focus_width/2);//x_start
   21074:	d0a0000b 	ldhu	r2,-32768(gp)
   21078:	10bfffcc 	andi	r2,r2,65535
   2107c:	1004d07a 	srli	r2,r2,1
   21080:	10ffffcc 	andi	r3,r2,65535
   21084:	d0a0010b 	ldhu	r2,-32764(gp)
   21088:	10bfffcc 	andi	r2,r2,65535
   2108c:	1004d07a 	srli	r2,r2,1
   21090:	10bfffcc 	andi	r2,r2,65535
   21094:	1887c83a 	sub	r3,r3,r2
   21098:	00800134 	movhi	r2,4
   2109c:	10c40c35 	stwio	r3,4144(r2)
  IOWR(TERASIC_AUTO_FOCUS_0_BASE,REG_FOCUS_Y_START, video_h/2-focus_height/2);// y_start
   210a0:	d0a0008b 	ldhu	r2,-32766(gp)
   210a4:	10bfffcc 	andi	r2,r2,65535
   210a8:	1004d07a 	srli	r2,r2,1
   210ac:	10ffffcc 	andi	r3,r2,65535
   210b0:	d0a0018b 	ldhu	r2,-32762(gp)
   210b4:	10bfffcc 	andi	r2,r2,65535
   210b8:	1004d07a 	srli	r2,r2,1
   210bc:	10bfffcc 	andi	r2,r2,65535
   210c0:	1887c83a 	sub	r3,r3,r2
   210c4:	00800134 	movhi	r2,4
   210c8:	10c40d35 	stwio	r3,4148(r2)

  IOWR(TERASIC_AUTO_FOCUS_0_BASE,REG_SCAL, focus_scal*256 + focus_scal_f); // scan 0 -> 1023 , step: SCAL , to find STEP_UP
   210cc:	d0a00203 	ldbu	r2,-32760(gp)
   210d0:	10803fcc 	andi	r2,r2,255
   210d4:	1006923a 	slli	r3,r2,8
   210d8:	d0a00243 	ldbu	r2,-32759(gp)
   210dc:	10803fcc 	andi	r2,r2,255
   210e0:	1887883a 	add	r3,r3,r2
   210e4:	00800134 	movhi	r2,4
   210e8:	10c40e35 	stwio	r3,4152(r2)
                                                                          //  scan STEP_UP + - SCAL/2 , step: SCAL_F
  IOWR(TERASIC_AUTO_FOCUS_0_BASE,REG_TH, focus_th);
   210ec:	d0a00283 	ldbu	r2,-32758(gp)
   210f0:	10c03fcc 	andi	r3,r2,255
   210f4:	00800134 	movhi	r2,4
   210f8:	10c40f35 	stwio	r3,4156(r2)

  //////////// focus at initial time
  usleep(100);
   210fc:	01001904 	movi	r4,100
   21100:	0030e780 	call	30e78 <usleep>
  IOWR(TERASIC_AUTO_FOCUS_0_BASE,REG_GO, 1);
   21104:	00c00044 	movi	r3,1
   21108:	00800134 	movhi	r2,4
   2110c:	10c40835 	stwio	r3,4128(r2)
  usleep(2);
   21110:	01000084 	movi	r4,2
   21114:	0030e780 	call	30e78 <usleep>
  IOWR(TERASIC_AUTO_FOCUS_0_BASE,REG_GO, 0);
   21118:	0007883a 	mov	r3,zero
   2111c:	00800134 	movhi	r2,4
   21120:	10c40835 	stwio	r3,4128(r2)
}
   21124:	0001883a 	nop
   21128:	e037883a 	mov	sp,fp
   2112c:	dfc00117 	ldw	ra,4(sp)
   21130:	df000017 	ldw	fp,0(sp)
   21134:	dec00204 	addi	sp,sp,8
   21138:	f800283a 	ret

0002113c <Focus_Window>:

alt_u16 Focus_Window(int x,int y){
   2113c:	defffa04 	addi	sp,sp,-24
   21140:	dfc00515 	stw	ra,20(sp)
   21144:	df000415 	stw	fp,16(sp)
   21148:	df000404 	addi	fp,sp,16
   2114c:	e13ffd15 	stw	r4,-12(fp)
   21150:	e17ffc15 	stw	r5,-16(fp)
   alt_u16 x_start,y_start;
   alt_u16 end_focus;

   if(Focus_Released()) { // pre focus done
   21154:	00213040 	call	21304 <Focus_Released>
   21158:	10006426 	beq	r2,zero,212ec <Focus_Window+0x1b0>
	   IOWR(TERASIC_AUTO_FOCUS_0_BASE,REG_CTRL, 1);// focus mode : 1: window-screen, 0: full-screen
   2115c:	00c00044 	movi	r3,1
   21160:	00800134 	movhi	r2,4
   21164:	10c40935 	stwio	r3,4132(r2)

	   if(( x -  focus_width/2) < 0 ) x_start = 0;
   21168:	d0a0010b 	ldhu	r2,-32764(gp)
   2116c:	10bfffcc 	andi	r2,r2,65535
   21170:	1004d07a 	srli	r2,r2,1
   21174:	10bfffcc 	andi	r2,r2,65535
   21178:	e0fffd17 	ldw	r3,-12(fp)
   2117c:	1885c83a 	sub	r2,r3,r2
   21180:	1000020e 	bge	r2,zero,2118c <Focus_Window+0x50>
   21184:	e03fff8d 	sth	zero,-2(fp)
   21188:	00001606 	br	211e4 <Focus_Window+0xa8>
	   else if(( x + focus_width/2 ) > video_w )  x_start = video_w -1 -focus_width;
   2118c:	d0a0010b 	ldhu	r2,-32764(gp)
   21190:	10bfffcc 	andi	r2,r2,65535
   21194:	1004d07a 	srli	r2,r2,1
   21198:	10ffffcc 	andi	r3,r2,65535
   2119c:	e0bffd17 	ldw	r2,-12(fp)
   211a0:	1885883a 	add	r2,r3,r2
   211a4:	d0e0000b 	ldhu	r3,-32768(gp)
   211a8:	18ffffcc 	andi	r3,r3,65535
   211ac:	1880060e 	bge	r3,r2,211c8 <Focus_Window+0x8c>
   211b0:	d0e0000b 	ldhu	r3,-32768(gp)
   211b4:	d0a0010b 	ldhu	r2,-32764(gp)
   211b8:	1885c83a 	sub	r2,r3,r2
   211bc:	10bfffc4 	addi	r2,r2,-1
   211c0:	e0bfff8d 	sth	r2,-2(fp)
   211c4:	00000706 	br	211e4 <Focus_Window+0xa8>
	   else x_start = x - focus_width/2;
   211c8:	e0bffd17 	ldw	r2,-12(fp)
   211cc:	1007883a 	mov	r3,r2
   211d0:	d0a0010b 	ldhu	r2,-32764(gp)
   211d4:	10bfffcc 	andi	r2,r2,65535
   211d8:	1004d07a 	srli	r2,r2,1
   211dc:	1885c83a 	sub	r2,r3,r2
   211e0:	e0bfff8d 	sth	r2,-2(fp)

	   if(( y -  focus_height/2) < 0 ) y_start = 0;
   211e4:	d0a0018b 	ldhu	r2,-32762(gp)
   211e8:	10bfffcc 	andi	r2,r2,65535
   211ec:	1004d07a 	srli	r2,r2,1
   211f0:	10bfffcc 	andi	r2,r2,65535
   211f4:	e0fffc17 	ldw	r3,-16(fp)
   211f8:	1885c83a 	sub	r2,r3,r2
   211fc:	1000020e 	bge	r2,zero,21208 <Focus_Window+0xcc>
   21200:	e03fff0d 	sth	zero,-4(fp)
   21204:	00001606 	br	21260 <Focus_Window+0x124>
	   else if(( y + focus_height/2 ) > video_h )  y_start = video_h -1 -focus_height;
   21208:	d0a0018b 	ldhu	r2,-32762(gp)
   2120c:	10bfffcc 	andi	r2,r2,65535
   21210:	1004d07a 	srli	r2,r2,1
   21214:	10ffffcc 	andi	r3,r2,65535
   21218:	e0bffc17 	ldw	r2,-16(fp)
   2121c:	1885883a 	add	r2,r3,r2
   21220:	d0e0008b 	ldhu	r3,-32766(gp)
   21224:	18ffffcc 	andi	r3,r3,65535
   21228:	1880060e 	bge	r3,r2,21244 <Focus_Window+0x108>
   2122c:	d0e0008b 	ldhu	r3,-32766(gp)
   21230:	d0a0018b 	ldhu	r2,-32762(gp)
   21234:	1885c83a 	sub	r2,r3,r2
   21238:	10bfffc4 	addi	r2,r2,-1
   2123c:	e0bfff0d 	sth	r2,-4(fp)
   21240:	00000706 	br	21260 <Focus_Window+0x124>
	   else y_start = y - focus_height/2;
   21244:	e0bffc17 	ldw	r2,-16(fp)
   21248:	1007883a 	mov	r3,r2
   2124c:	d0a0018b 	ldhu	r2,-32762(gp)
   21250:	10bfffcc 	andi	r2,r2,65535
   21254:	1004d07a 	srli	r2,r2,1
   21258:	1885c83a 	sub	r2,r3,r2
   2125c:	e0bfff0d 	sth	r2,-4(fp)

	   printf("x_start= %d,y_start= %d\n",x_start,y_start);
   21260:	e0bfff8b 	ldhu	r2,-2(fp)
   21264:	e0ffff0b 	ldhu	r3,-4(fp)
   21268:	180d883a 	mov	r6,r3
   2126c:	100b883a 	mov	r5,r2
   21270:	010000f4 	movhi	r4,3
   21274:	210d8404 	addi	r4,r4,13840
   21278:	0023cc40 	call	23cc4 <printf>

	   IOWR(TERASIC_AUTO_FOCUS_0_BASE,REG_FOCUS_X_START, x_start);//x_start
   2127c:	e0ffff8b 	ldhu	r3,-2(fp)
   21280:	00800134 	movhi	r2,4
   21284:	10c40c35 	stwio	r3,4144(r2)
	   IOWR(TERASIC_AUTO_FOCUS_0_BASE,REG_FOCUS_Y_START, y_start);//y_start
   21288:	e0ffff0b 	ldhu	r3,-4(fp)
   2128c:	00800134 	movhi	r2,4
   21290:	10c40d35 	stwio	r3,4148(r2)

	   usleep(10);
   21294:	01000284 	movi	r4,10
   21298:	0030e780 	call	30e78 <usleep>

	   IOWR(TERASIC_AUTO_FOCUS_0_BASE,REG_GO, 1);
   2129c:	00c00044 	movi	r3,1
   212a0:	00800134 	movhi	r2,4
   212a4:	10c40835 	stwio	r3,4128(r2)
	   usleep(2);
   212a8:	01000084 	movi	r4,2
   212ac:	0030e780 	call	30e78 <usleep>
	   IOWR(TERASIC_AUTO_FOCUS_0_BASE,REG_GO, 0);
   212b0:	0007883a 	mov	r3,zero
   212b4:	00800134 	movhi	r2,4
   212b8:	10c40835 	stwio	r3,4128(r2)
	   Focus_Released();
   212bc:	00213040 	call	21304 <Focus_Released>

	   end_focus = IORD(TERASIC_AUTO_FOCUS_0_BASE,REG_STATUS)&0x0FFF;
   212c0:	00800134 	movhi	r2,4
   212c4:	10840837 	ldwio	r2,4128(r2)
   212c8:	1083ffcc 	andi	r2,r2,4095
   212cc:	e0bffe8d 	sth	r2,-6(fp)
	   printf("end_focus = %d \n",end_focus);
   212d0:	e0bffe8b 	ldhu	r2,-6(fp)
   212d4:	100b883a 	mov	r5,r2
   212d8:	010000f4 	movhi	r4,3
   212dc:	210d8b04 	addi	r4,r4,13868
   212e0:	0023cc40 	call	23cc4 <printf>

	   return end_focus;
   212e4:	e0bffe8b 	ldhu	r2,-6(fp)
   212e8:	00000106 	br	212f0 <Focus_Window+0x1b4>

   }
   return end_focus;
   212ec:	e0bffe8b 	ldhu	r2,-6(fp)

}
   212f0:	e037883a 	mov	sp,fp
   212f4:	dfc00117 	ldw	ra,4(sp)
   212f8:	df000017 	ldw	fp,0(sp)
   212fc:	dec00204 	addi	sp,sp,8
   21300:	f800283a 	ret

00021304 <Focus_Released>:

int Focus_Released(void){
   21304:	defffc04 	addi	sp,sp,-16
   21308:	dfc00315 	stw	ra,12(sp)
   2130c:	df000215 	stw	fp,8(sp)
   21310:	df000204 	addi	fp,sp,8
  int Released = FALSE;
   21314:	e03fff15 	stw	zero,-4(fp)
 * alt_nticks() returns the elapsed number of system clock ticks since reset.
 */

static ALT_INLINE alt_u32 ALT_ALWAYS_INLINE alt_nticks (void)
{
  return _alt_nticks;
   21318:	d0e92e17 	ldw	r3,-23368(gp)
  return _alt_tick_rate;
   2131c:	d0a92d17 	ldw	r2,-23372(gp)
  alt_u32 TimeOut;

  TimeOut = alt_nticks() + alt_ticks_per_second()*8;
   21320:	100490fa 	slli	r2,r2,3
   21324:	1885883a 	add	r2,r3,r2
   21328:	e0bffe15 	stw	r2,-8(fp)

  while((IORD(TERASIC_AUTO_FOCUS_0_BASE,REG_STATUS)&0x8000) ==0 && alt_nticks() < TimeOut ); // waiting for VCM release I2C bus
   2132c:	0001883a 	nop
   21330:	00800134 	movhi	r2,4
   21334:	10840837 	ldwio	r2,4128(r2)
   21338:	10a0000c 	andi	r2,r2,32768
   2133c:	1000031e 	bne	r2,zero,2134c <Focus_Released+0x48>
  return _alt_nticks;
   21340:	d0e92e17 	ldw	r3,-23368(gp)
   21344:	e0bffe17 	ldw	r2,-8(fp)
   21348:	18bff936 	bltu	r3,r2,21330 <Focus_Released+0x2c>
   2134c:	d0e92e17 	ldw	r3,-23368(gp)

  if(alt_nticks() < TimeOut ) Released = TRUE;
   21350:	e0bffe17 	ldw	r2,-8(fp)
   21354:	1880032e 	bgeu	r3,r2,21364 <Focus_Released+0x60>
   21358:	00800044 	movi	r2,1
   2135c:	e0bfff15 	stw	r2,-4(fp)
   21360:	00000306 	br	21370 <Focus_Released+0x6c>
  else printf("\n =>Released check TimeOut!\n");
   21364:	010000f4 	movhi	r4,3
   21368:	210d9004 	addi	r4,r4,13888
   2136c:	0023de80 	call	23de8 <puts>

  usleep(10000);
   21370:	0109c404 	movi	r4,10000
   21374:	0030e780 	call	30e78 <usleep>

  return Released;
   21378:	e0bfff17 	ldw	r2,-4(fp)
}
   2137c:	e037883a 	mov	sp,fp
   21380:	dfc00117 	ldw	ra,4(sp)
   21384:	df000017 	ldw	fp,0(sp)
   21388:	dec00204 	addi	sp,sp,8
   2138c:	f800283a 	ret

00021390 <mipi_clear_error>:
#define MIPI_REG_CSIErrEn		0x0066
#define MIPI_REG_MDLSynErr		0x0068
#define MIPI_REG_FrmErrCnt		0x0080
#define MIPI_REG_MDLErrCnt		0x0090

void mipi_clear_error(void){
   21390:	defffe04 	addi	sp,sp,-8
   21394:	dfc00115 	stw	ra,4(sp)
   21398:	df000015 	stw	fp,0(sp)
   2139c:	d839883a 	mov	fp,sp
	MipiBridgeRegWrite(MIPI_REG_CSIStatus,0x01FF); // clear error
   213a0:	01407fc4 	movi	r5,511
   213a4:	01001904 	movi	r4,100
   213a8:	0021b840 	call	21b84 <MipiBridgeRegWrite>
	MipiBridgeRegWrite(MIPI_REG_MDLSynErr,0x0000); // clear error
   213ac:	000b883a 	mov	r5,zero
   213b0:	01001a04 	movi	r4,104
   213b4:	0021b840 	call	21b84 <MipiBridgeRegWrite>
	MipiBridgeRegWrite(MIPI_REG_FrmErrCnt,0x0000); // clear error
   213b8:	000b883a 	mov	r5,zero
   213bc:	01002004 	movi	r4,128
   213c0:	0021b840 	call	21b84 <MipiBridgeRegWrite>
	MipiBridgeRegWrite(MIPI_REG_MDLErrCnt, 0x0000); // clear error
   213c4:	000b883a 	mov	r5,zero
   213c8:	01002404 	movi	r4,144
   213cc:	0021b840 	call	21b84 <MipiBridgeRegWrite>

  	MipiBridgeRegWrite(0x0082,0x00);
   213d0:	000b883a 	mov	r5,zero
   213d4:	01002084 	movi	r4,130
   213d8:	0021b840 	call	21b84 <MipiBridgeRegWrite>
  	MipiBridgeRegWrite(0x0084,0x00);
   213dc:	000b883a 	mov	r5,zero
   213e0:	01002104 	movi	r4,132
   213e4:	0021b840 	call	21b84 <MipiBridgeRegWrite>
  	MipiBridgeRegWrite(0x0086,0x00);
   213e8:	000b883a 	mov	r5,zero
   213ec:	01002184 	movi	r4,134
   213f0:	0021b840 	call	21b84 <MipiBridgeRegWrite>
  	MipiBridgeRegWrite(0x0088,0x00);
   213f4:	000b883a 	mov	r5,zero
   213f8:	01002204 	movi	r4,136
   213fc:	0021b840 	call	21b84 <MipiBridgeRegWrite>
  	MipiBridgeRegWrite(0x008A,0x00);
   21400:	000b883a 	mov	r5,zero
   21404:	01002284 	movi	r4,138
   21408:	0021b840 	call	21b84 <MipiBridgeRegWrite>
  	MipiBridgeRegWrite(0x008C,0x00);
   2140c:	000b883a 	mov	r5,zero
   21410:	01002304 	movi	r4,140
   21414:	0021b840 	call	21b84 <MipiBridgeRegWrite>
  	MipiBridgeRegWrite(0x008E,0x00);
   21418:	000b883a 	mov	r5,zero
   2141c:	01002384 	movi	r4,142
   21420:	0021b840 	call	21b84 <MipiBridgeRegWrite>
  	MipiBridgeRegWrite(0x0090,0x00);
   21424:	000b883a 	mov	r5,zero
   21428:	01002404 	movi	r4,144
   2142c:	0021b840 	call	21b84 <MipiBridgeRegWrite>
}
   21430:	0001883a 	nop
   21434:	e037883a 	mov	sp,fp
   21438:	dfc00117 	ldw	ra,4(sp)
   2143c:	df000017 	ldw	fp,0(sp)
   21440:	dec00204 	addi	sp,sp,8
   21444:	f800283a 	ret

00021448 <mipi_show_error_info>:

void mipi_show_error_info(void){
   21448:	defff904 	addi	sp,sp,-28
   2144c:	dfc00615 	stw	ra,24(sp)
   21450:	df000515 	stw	fp,20(sp)
   21454:	df000504 	addi	fp,sp,20

	alt_u16 PHY_status, SCI_status, MDLSynErr, FrmErrCnt, MDLErrCnt;

	PHY_status = MipiBridgeRegRead(MIPI_REG_PHYSta);
   21458:	01001884 	movi	r4,98
   2145c:	0021bf40 	call	21bf4 <MipiBridgeRegRead>
   21460:	e0bfff8d 	sth	r2,-2(fp)
	SCI_status = MipiBridgeRegRead(MIPI_REG_CSIStatus);
   21464:	01001904 	movi	r4,100
   21468:	0021bf40 	call	21bf4 <MipiBridgeRegRead>
   2146c:	e0bfff0d 	sth	r2,-4(fp)
	MDLSynErr = MipiBridgeRegRead(MIPI_REG_MDLSynErr);
   21470:	01001a04 	movi	r4,104
   21474:	0021bf40 	call	21bf4 <MipiBridgeRegRead>
   21478:	e0bffe8d 	sth	r2,-6(fp)
	FrmErrCnt = MipiBridgeRegRead(MIPI_REG_FrmErrCnt);
   2147c:	01002004 	movi	r4,128
   21480:	0021bf40 	call	21bf4 <MipiBridgeRegRead>
   21484:	e0bffe0d 	sth	r2,-8(fp)
	MDLErrCnt = MipiBridgeRegRead(MIPI_REG_MDLErrCnt);
   21488:	01002404 	movi	r4,144
   2148c:	0021bf40 	call	21bf4 <MipiBridgeRegRead>
   21490:	e0bffd8d 	sth	r2,-10(fp)
	printf("PHY_status=%xh, CSI_status=%xh, MDLSynErr=%xh, FrmErrCnt=%xh, MDLErrCnt=%xh\r\n", PHY_status, SCI_status, MDLSynErr,FrmErrCnt, MDLErrCnt);
   21494:	e13fff8b 	ldhu	r4,-2(fp)
   21498:	e17fff0b 	ldhu	r5,-4(fp)
   2149c:	e1bffe8b 	ldhu	r6,-6(fp)
   214a0:	e0bffe0b 	ldhu	r2,-8(fp)
   214a4:	e0fffd8b 	ldhu	r3,-10(fp)
   214a8:	d8c00115 	stw	r3,4(sp)
   214ac:	d8800015 	stw	r2,0(sp)
   214b0:	300f883a 	mov	r7,r6
   214b4:	280d883a 	mov	r6,r5
   214b8:	200b883a 	mov	r5,r4
   214bc:	010000f4 	movhi	r4,3
   214c0:	210d9804 	addi	r4,r4,13920
   214c4:	0023cc40 	call	23cc4 <printf>
}
   214c8:	0001883a 	nop
   214cc:	e037883a 	mov	sp,fp
   214d0:	dfc00117 	ldw	ra,4(sp)
   214d4:	df000017 	ldw	fp,0(sp)
   214d8:	dec00204 	addi	sp,sp,8
   214dc:	f800283a 	ret

000214e0 <mipi_show_error_info_more>:

void mipi_show_error_info_more(void){
   214e0:	defffe04 	addi	sp,sp,-8
   214e4:	dfc00115 	stw	ra,4(sp)
   214e8:	df000015 	stw	fp,0(sp)
   214ec:	d839883a 	mov	fp,sp
    printf("FrmErrCnt = %d\n",MipiBridgeRegRead(0x0080));
   214f0:	01002004 	movi	r4,128
   214f4:	0021bf40 	call	21bf4 <MipiBridgeRegRead>
   214f8:	10bfffcc 	andi	r2,r2,65535
   214fc:	100b883a 	mov	r5,r2
   21500:	010000f4 	movhi	r4,3
   21504:	210dac04 	addi	r4,r4,14000
   21508:	0023cc40 	call	23cc4 <printf>
    printf("CRCErrCnt = %d\n",MipiBridgeRegRead(0x0082));
   2150c:	01002084 	movi	r4,130
   21510:	0021bf40 	call	21bf4 <MipiBridgeRegRead>
   21514:	10bfffcc 	andi	r2,r2,65535
   21518:	100b883a 	mov	r5,r2
   2151c:	010000f4 	movhi	r4,3
   21520:	210db004 	addi	r4,r4,14016
   21524:	0023cc40 	call	23cc4 <printf>
    printf("CorErrCnt = %d\n",MipiBridgeRegRead(0x0084));
   21528:	01002104 	movi	r4,132
   2152c:	0021bf40 	call	21bf4 <MipiBridgeRegRead>
   21530:	10bfffcc 	andi	r2,r2,65535
   21534:	100b883a 	mov	r5,r2
   21538:	010000f4 	movhi	r4,3
   2153c:	210db404 	addi	r4,r4,14032
   21540:	0023cc40 	call	23cc4 <printf>
    printf("HdrErrCnt = %d\n",MipiBridgeRegRead(0x0086));
   21544:	01002184 	movi	r4,134
   21548:	0021bf40 	call	21bf4 <MipiBridgeRegRead>
   2154c:	10bfffcc 	andi	r2,r2,65535
   21550:	100b883a 	mov	r5,r2
   21554:	010000f4 	movhi	r4,3
   21558:	210db804 	addi	r4,r4,14048
   2155c:	0023cc40 	call	23cc4 <printf>
    printf("EIDErrCnt = %d\n",MipiBridgeRegRead(0x0088));
   21560:	01002204 	movi	r4,136
   21564:	0021bf40 	call	21bf4 <MipiBridgeRegRead>
   21568:	10bfffcc 	andi	r2,r2,65535
   2156c:	100b883a 	mov	r5,r2
   21570:	010000f4 	movhi	r4,3
   21574:	210dbc04 	addi	r4,r4,14064
   21578:	0023cc40 	call	23cc4 <printf>
    printf("CtlErrCnt = %d\n",MipiBridgeRegRead(0x008A));
   2157c:	01002284 	movi	r4,138
   21580:	0021bf40 	call	21bf4 <MipiBridgeRegRead>
   21584:	10bfffcc 	andi	r2,r2,65535
   21588:	100b883a 	mov	r5,r2
   2158c:	010000f4 	movhi	r4,3
   21590:	210dc004 	addi	r4,r4,14080
   21594:	0023cc40 	call	23cc4 <printf>
    printf("SoTErrCnt = %d\n",MipiBridgeRegRead(0x008C));
   21598:	01002304 	movi	r4,140
   2159c:	0021bf40 	call	21bf4 <MipiBridgeRegRead>
   215a0:	10bfffcc 	andi	r2,r2,65535
   215a4:	100b883a 	mov	r5,r2
   215a8:	010000f4 	movhi	r4,3
   215ac:	210dc404 	addi	r4,r4,14096
   215b0:	0023cc40 	call	23cc4 <printf>
    printf("SynErrCnt = %d\n",MipiBridgeRegRead(0x008E));
   215b4:	01002384 	movi	r4,142
   215b8:	0021bf40 	call	21bf4 <MipiBridgeRegRead>
   215bc:	10bfffcc 	andi	r2,r2,65535
   215c0:	100b883a 	mov	r5,r2
   215c4:	010000f4 	movhi	r4,3
   215c8:	210dc804 	addi	r4,r4,14112
   215cc:	0023cc40 	call	23cc4 <printf>
    printf("MDLErrCnt = %d\n",MipiBridgeRegRead(0x0090));
   215d0:	01002404 	movi	r4,144
   215d4:	0021bf40 	call	21bf4 <MipiBridgeRegRead>
   215d8:	10bfffcc 	andi	r2,r2,65535
   215dc:	100b883a 	mov	r5,r2
   215e0:	010000f4 	movhi	r4,3
   215e4:	210dcc04 	addi	r4,r4,14128
   215e8:	0023cc40 	call	23cc4 <printf>
    printf("FIFOSTATUS = %d\n",MipiBridgeRegRead(0x00F8));
   215ec:	01003e04 	movi	r4,248
   215f0:	0021bf40 	call	21bf4 <MipiBridgeRegRead>
   215f4:	10bfffcc 	andi	r2,r2,65535
   215f8:	100b883a 	mov	r5,r2
   215fc:	010000f4 	movhi	r4,3
   21600:	210dd004 	addi	r4,r4,14144
   21604:	0023cc40 	call	23cc4 <printf>
    printf("DataType = 0x%04x\n",MipiBridgeRegRead(0x006A));
   21608:	01001a84 	movi	r4,106
   2160c:	0021bf40 	call	21bf4 <MipiBridgeRegRead>
   21610:	10bfffcc 	andi	r2,r2,65535
   21614:	100b883a 	mov	r5,r2
   21618:	010000f4 	movhi	r4,3
   2161c:	210dd504 	addi	r4,r4,14164
   21620:	0023cc40 	call	23cc4 <printf>
    printf("CSIPktLen = %d\n",MipiBridgeRegRead(0x006E));
   21624:	01001b84 	movi	r4,110
   21628:	0021bf40 	call	21bf4 <MipiBridgeRegRead>
   2162c:	10bfffcc 	andi	r2,r2,65535
   21630:	100b883a 	mov	r5,r2
   21634:	010000f4 	movhi	r4,3
   21638:	210dda04 	addi	r4,r4,14184
   2163c:	0023cc40 	call	23cc4 <printf>
}
   21640:	0001883a 	nop
   21644:	e037883a 	mov	sp,fp
   21648:	dfc00117 	ldw	ra,4(sp)
   2164c:	df000017 	ldw	fp,0(sp)
   21650:	dec00204 	addi	sp,sp,8
   21654:	f800283a 	ret

00021658 <MIPI_Init>:



bool MIPI_Init(void){
   21658:	defffd04 	addi	sp,sp,-12
   2165c:	dfc00215 	stw	ra,8(sp)
   21660:	df000115 	stw	fp,4(sp)
   21664:	df000104 	addi	fp,sp,4
	bool bSuccess;


	bSuccess = oc_i2c_init_ex(I2C_OPENCORES_MIPI_BASE, 50*1000*1000,400*1000); //I2C: 400K
   21668:	018001b4 	movhi	r6,6
   2166c:	3186a004 	addi	r6,r6,6784
   21670:	0140bef4 	movhi	r5,763
   21674:	297c2004 	addi	r5,r5,-3968
   21678:	01000134 	movhi	r4,4
   2167c:	21041804 	addi	r4,r4,4192
   21680:	00203840 	call	20384 <oc_i2c_init_ex>
   21684:	e0bfff15 	stw	r2,-4(fp)
	if (!bSuccess)
   21688:	e0bfff17 	ldw	r2,-4(fp)
   2168c:	1000031e 	bne	r2,zero,2169c <MIPI_Init+0x44>
		printf("failed to init MIPI- Bridge i2c\r\n");
   21690:	010000f4 	movhi	r4,3
   21694:	210dde04 	addi	r4,r4,14200
   21698:	0023de80 	call	23de8 <puts>

    usleep(50*1000);
   2169c:	0130d414 	movui	r4,50000
   216a0:	0030e780 	call	30e78 <usleep>
    MipiBridgeInit();
   216a4:	0021c6c0 	call	21c6c <MipiBridgeInit>

    usleep(500*1000);
   216a8:	01000234 	movhi	r4,8
   216ac:	21284804 	addi	r4,r4,-24288
   216b0:	0030e780 	call	30e78 <usleep>

//	bSuccess = oc_i2c_init_ex(I2C_OPENCORES_CAMERA_BASE, 50*1000*1000,400*1000); //I2C: 400K
//	if (!bSuccess)
//		printf("failed to init MIPI- Camera i2c\r\n");

    MipiCameraInit();
   216b4:	00224340 	call	22434 <MipiCameraInit>
    MIPI_BIN_LEVEL(DEFAULT_LEVEL);
   216b8:	010000c4 	movi	r4,3
   216bc:	00222740 	call	22274 <MIPI_BIN_LEVEL>
//    OV8865_FOCUS_Move_to(340);

//    oc_i2c_uninit(I2C_OPENCORES_CAMERA_BASE);  // Release I2C bus , due to two I2C master shared!


 	usleep(1000);
   216c0:	0100fa04 	movi	r4,1000
   216c4:	0030e780 	call	30e78 <usleep>


//    oc_i2c_uninit(I2C_OPENCORES_MIPI_BASE);

	return bSuccess;
   216c8:	e0bfff17 	ldw	r2,-4(fp)
}
   216cc:	e037883a 	mov	sp,fp
   216d0:	dfc00117 	ldw	ra,4(sp)
   216d4:	df000017 	ldw	fp,0(sp)
   216d8:	dec00204 	addi	sp,sp,8
   216dc:	f800283a 	ret

000216e0 <main>:




int main()
{
   216e0:	defff704 	addi	sp,sp,-36
   216e4:	dfc00815 	stw	ra,32(sp)
   216e8:	df000715 	stw	fp,28(sp)
   216ec:	df000704 	addi	fp,sp,28

	fcntl(STDIN_FILENO, F_SETFL, O_NONBLOCK);
   216f0:	01900004 	movi	r6,16384
   216f4:	01400104 	movi	r5,4
   216f8:	0009883a 	mov	r4,zero
   216fc:	00301040 	call	30104 <fcntl>

  printf("DE10-LITE D8M VGA Demo\n");
   21700:	010000f4 	movhi	r4,3
   21704:	210de704 	addi	r4,r4,14236
   21708:	0023de80 	call	23de8 <puts>
  printf("Imperial College EEE2 Project version\n");
   2170c:	010000f4 	movhi	r4,3
   21710:	210ded04 	addi	r4,r4,14260
   21714:	0023de80 	call	23de8 <puts>
  IOWR(MIPI_PWDN_N_BASE, 0x00, 0x00);
   21718:	0007883a 	mov	r3,zero
   2171c:	00800134 	movhi	r2,4
   21720:	10c42035 	stwio	r3,4224(r2)
  IOWR(MIPI_RESET_N_BASE, 0x00, 0x00);
   21724:	0007883a 	mov	r3,zero
   21728:	00800134 	movhi	r2,4
   2172c:	10c42435 	stwio	r3,4240(r2)

  usleep(2000);
   21730:	0101f404 	movi	r4,2000
   21734:	0030e780 	call	30e78 <usleep>
  IOWR(MIPI_PWDN_N_BASE, 0x00, 0xFF);
   21738:	00c03fc4 	movi	r3,255
   2173c:	00800134 	movhi	r2,4
   21740:	10c42035 	stwio	r3,4224(r2)
  usleep(2000);
   21744:	0101f404 	movi	r4,2000
   21748:	0030e780 	call	30e78 <usleep>
  IOWR(MIPI_RESET_N_BASE, 0x00, 0xFF);
   2174c:	00c03fc4 	movi	r3,255
   21750:	00800134 	movhi	r2,4
   21754:	10c42435 	stwio	r3,4240(r2)

  printf("Image Processor ID: %x\n",IORD(0x42000,EEE_IMGPROC_ID));
   21758:	00800134 	movhi	r2,4
   2175c:	10880237 	ldwio	r2,8200(r2)
   21760:	100b883a 	mov	r5,r2
   21764:	010000f4 	movhi	r4,3
   21768:	210df704 	addi	r4,r4,14300
   2176c:	0023cc40 	call	23cc4 <printf>
  //printf("Image Processor ID: %x\n",IORD(EEE_IMGPROC_0_BASE,EEE_IMGPROC_ID)); //Don't know why this doesn't work - definition is in system.h in BSP


  usleep(2000);
   21770:	0101f404 	movi	r4,2000
   21774:	0030e780 	call	30e78 <usleep>


  // MIPI Init
   if (!MIPI_Init()){
   21778:	00216580 	call	21658 <MIPI_Init>
   2177c:	1000041e 	bne	r2,zero,21790 <main+0xb0>
	  printf("MIPI_Init Init failed!\r\n");
   21780:	010000f4 	movhi	r4,3
   21784:	210dfd04 	addi	r4,r4,14324
   21788:	0023de80 	call	23de8 <puts>
   2178c:	00000306 	br	2179c <main+0xbc>
  }else{
	  printf("MIPI_Init Init successfully!\r\n");
   21790:	010000f4 	movhi	r4,3
   21794:	210e0304 	addi	r4,r4,14348
   21798:	0023de80 	call	23de8 <puts>
  }

//   while(1){
 	    mipi_clear_error();
   2179c:	00213900 	call	21390 <mipi_clear_error>
	 	usleep(50*1000);
   217a0:	0130d414 	movui	r4,50000
   217a4:	0030e780 	call	30e78 <usleep>
 	    mipi_clear_error();
   217a8:	00213900 	call	21390 <mipi_clear_error>
	 	usleep(1000*1000);
   217ac:	010003f4 	movhi	r4,15
   217b0:	21109004 	addi	r4,r4,16960
   217b4:	0030e780 	call	30e78 <usleep>
	    mipi_show_error_info();
   217b8:	00214480 	call	21448 <mipi_show_error_info>
//	    mipi_show_error_info_more();
	    printf("\n");
   217bc:	01000284 	movi	r4,10
   217c0:	0023d040 	call	23d04 <putchar>




    //////////////////////////////////////////////////////////
        alt_u16 bin_level = DEFAULT_LEVEL;
   217c4:	008000c4 	movi	r2,3
   217c8:	e0bfff8d 	sth	r2,-2(fp)
        alt_u8  manual_focus_step = 10;
   217cc:	00800284 	movi	r2,10
   217d0:	e0bffc45 	stb	r2,-15(fp)
        alt_u16  current_focus = 300;
   217d4:	00804b04 	movi	r2,300
   217d8:	e0bfff0d 	sth	r2,-4(fp)
    	int boundingBoxColour = 0;
   217dc:	e03ffe15 	stw	zero,-8(fp)
    	alt_u32 exposureTime = EXPOSURE_INIT;
   217e0:	00880004 	movi	r2,8192
   217e4:	e0bffd15 	stw	r2,-12(fp)
    	alt_u16 gain = GAIN_INIT;
   217e8:	00802004 	movi	r2,128
   217ec:	e0bffc8d 	sth	r2,-14(fp)

        OV8865SetExposure(exposureTime);
   217f0:	e13ffd17 	ldw	r4,-12(fp)
   217f4:	00220080 	call	22008 <OV8865SetExposure>
        OV8865SetGain(gain);
   217f8:	e0bffc8b 	ldhu	r2,-14(fp)
   217fc:	1009883a 	mov	r4,r2
   21800:	00220ec0 	call	220ec <OV8865SetGain>
        Focus_Init();
   21804:	00210380 	call	21038 <Focus_Init>

        FILE* ser = fopen("/dev/uart_0", "rb+");
   21808:	014000f4 	movhi	r5,3
   2180c:	294e0b04 	addi	r5,r5,14380
   21810:	010000f4 	movhi	r4,3
   21814:	210e0c04 	addi	r4,r4,14384
   21818:	0022b500 	call	22b50 <fopen>
   2181c:	e0bffb15 	stw	r2,-20(fp)
        if(ser){
   21820:	e0bffb17 	ldw	r2,-20(fp)
   21824:	10000426 	beq	r2,zero,21838 <main+0x158>
        	printf("Opened UART\n");
   21828:	010000f4 	movhi	r4,3
   2182c:	210e0f04 	addi	r4,r4,14396
   21830:	0023de80 	call	23de8 <puts>
   21834:	00000406 	br	21848 <main+0x168>
        } else {
        	printf("Failed to open UART\n");
   21838:	010000f4 	movhi	r4,3
   2183c:	210e1204 	addi	r4,r4,14408
   21840:	0023de80 	call	23de8 <puts>
        	while (1);
   21844:	003fff06 	br	21844 <main+0x164>
        }

  while(1){

       // touch KEY0 to trigger Auto focus
	   if((IORD(KEY_BASE,0)&0x03) == 0x02){
   21848:	00800134 	movhi	r2,4
   2184c:	10842837 	ldwio	r2,4256(r2)
   21850:	108000cc 	andi	r2,r2,3
   21854:	10800098 	cmpnei	r2,r2,2
   21858:	1000041e 	bne	r2,zero,2186c <main+0x18c>

    	   current_focus = Focus_Window(320,240);
   2185c:	01403c04 	movi	r5,240
   21860:	01005004 	movi	r4,320
   21864:	002113c0 	call	2113c <Focus_Window>
   21868:	e0bfff0d 	sth	r2,-4(fp)
       }
	   // touch KEY1 to ZOOM
	         if((IORD(KEY_BASE,0)&0x03) == 0x01){
   2186c:	00800134 	movhi	r2,4
   21870:	10842837 	ldwio	r2,4256(r2)
   21874:	108000cc 	andi	r2,r2,3
   21878:	10800058 	cmpnei	r2,r2,1
   2187c:	10002f1e 	bne	r2,zero,2193c <main+0x25c>
	      	   if(bin_level == 3 )bin_level = 1;
   21880:	e0bfff8b 	ldhu	r2,-2(fp)
   21884:	108000d8 	cmpnei	r2,r2,3
   21888:	1000031e 	bne	r2,zero,21898 <main+0x1b8>
   2188c:	00800044 	movi	r2,1
   21890:	e0bfff8d 	sth	r2,-2(fp)
   21894:	00000306 	br	218a4 <main+0x1c4>
	      	   else bin_level ++;
   21898:	e0bfff8b 	ldhu	r2,-2(fp)
   2189c:	10800044 	addi	r2,r2,1
   218a0:	e0bfff8d 	sth	r2,-2(fp)
	      	   printf("set bin level to %d\n",bin_level);
   218a4:	e0bfff8b 	ldhu	r2,-2(fp)
   218a8:	100b883a 	mov	r5,r2
   218ac:	010000f4 	movhi	r4,3
   218b0:	210e1704 	addi	r4,r4,14428
   218b4:	0023cc40 	call	23cc4 <printf>
	      	   MIPI_BIN_LEVEL(bin_level);
   218b8:	e0bfff8b 	ldhu	r2,-2(fp)
   218bc:	10803fcc 	andi	r2,r2,255
   218c0:	1009883a 	mov	r4,r2
   218c4:	00222740 	call	22274 <MIPI_BIN_LEVEL>
	      	 	usleep(500000);
   218c8:	01000234 	movhi	r4,8
   218cc:	21284804 	addi	r4,r4,-24288
   218d0:	0030e780 	call	30e78 <usleep>

       }
	#endif

       //Read messages from the image processor and print them on the terminal
       while ((IORD(0x42000,EEE_IMGPROC_STATUS)>>8) & 0xff) { 	//Find out if there are words to read
   218d4:	00001906 	br	2193c <main+0x25c>
           int word = IORD(0x42000,EEE_IMGPROC_MSG); 			//Get next word from message buffer
   218d8:	00800134 	movhi	r2,4
   218dc:	10880137 	ldwio	r2,8196(r2)
   218e0:	e0bff915 	stw	r2,-28(fp)
    	   if (fwrite(&word, 4, 1, ser) != 1)
   218e4:	e0bff904 	addi	r2,fp,-28
   218e8:	e1fffb17 	ldw	r7,-20(fp)
   218ec:	01800044 	movi	r6,1
   218f0:	01400104 	movi	r5,4
   218f4:	1009883a 	mov	r4,r2
   218f8:	002311c0 	call	2311c <fwrite>
   218fc:	10800060 	cmpeqi	r2,r2,1
   21900:	1000031e 	bne	r2,zero,21910 <main+0x230>
    		   printf("Error writing to UART");
   21904:	010000f4 	movhi	r4,3
   21908:	210e1d04 	addi	r4,r4,14452
   2190c:	0023cc40 	call	23cc4 <printf>
           if (word == EEE_IMGPROC_MSG_START)				//Newline on message identifier
   21910:	e0fff917 	ldw	r3,-28(fp)
   21914:	008014b4 	movhi	r2,82
   21918:	10909084 	addi	r2,r2,16962
   2191c:	1880021e 	bne	r3,r2,21928 <main+0x248>
    		   printf("\n");
   21920:	01000284 	movi	r4,10
   21924:	0023d040 	call	23d04 <putchar>
    	   printf("%08x\n",word);
   21928:	e0bff917 	ldw	r2,-28(fp)
   2192c:	100b883a 	mov	r5,r2
   21930:	010000f4 	movhi	r4,3
   21934:	210e2304 	addi	r4,r4,14476
   21938:	0023cc40 	call	23cc4 <printf>
       while ((IORD(0x42000,EEE_IMGPROC_STATUS)>>8) & 0xff) { 	//Find out if there are words to read
   2193c:	00800134 	movhi	r2,4
   21940:	10880037 	ldwio	r2,8192(r2)
   21944:	1005d23a 	srai	r2,r2,8
   21948:	10803fcc 	andi	r2,r2,255
   2194c:	103fe21e 	bne	r2,zero,218d8 <main+0x1f8>
       }

       //Update the bounding box colour
       boundingBoxColour = ((boundingBoxColour + 1) & 0xff);
   21950:	e0bffe17 	ldw	r2,-8(fp)
   21954:	10800044 	addi	r2,r2,1
   21958:	10803fcc 	andi	r2,r2,255
   2195c:	e0bffe15 	stw	r2,-8(fp)
       IOWR(0x42000, EEE_IMGPROC_BBCOL, (boundingBoxColour << 8) | (0xff - boundingBoxColour));
   21960:	e0bffe17 	ldw	r2,-8(fp)
   21964:	1006923a 	slli	r3,r2,8
   21968:	01003fc4 	movi	r4,255
   2196c:	e0bffe17 	ldw	r2,-8(fp)
   21970:	2085c83a 	sub	r2,r4,r2
   21974:	1886b03a 	or	r3,r3,r2
   21978:	00800134 	movhi	r2,4
   2197c:	10c80335 	stwio	r3,8204(r2)

       //Process input commands
       int in = getchar();
   21980:	00231580 	call	23158 <getchar>
   21984:	e0bffa15 	stw	r2,-24(fp)
   21988:	e0bffa17 	ldw	r2,-24(fp)
   2198c:	10bfe704 	addi	r2,r2,-100
   21990:	10c00468 	cmpgeui	r3,r2,17
   21994:	1800651e 	bne	r3,zero,21b2c <main+0x44c>
   21998:	100690ba 	slli	r3,r2,2
   2199c:	008000b4 	movhi	r2,2
   219a0:	1885883a 	add	r2,r3,r2
   219a4:	10866b17 	ldw	r2,6572(r2)
   219a8:	1000683a 	jmp	r2
   219ac:	00021a18 	cmpnei	zero,zero,2152
   219b0:	000219f0 	cmpltui	zero,zero,2151
   219b4:	00021ae8 	cmpgeui	zero,zero,2155
   219b8:	00021a70 	cmpltui	zero,zero,2153
   219bc:	00021b2c 	andhi	zero,zero,2156
   219c0:	00021b2c 	andhi	zero,zero,2156
   219c4:	00021b2c 	andhi	zero,zero,2156
   219c8:	00021b2c 	andhi	zero,zero,2156
   219cc:	00021b2c 	andhi	zero,zero,2156
   219d0:	00021b2c 	andhi	zero,zero,2156
   219d4:	00021b2c 	andhi	zero,zero,2156
   219d8:	00021b2c 	andhi	zero,zero,2156
   219dc:	00021b2c 	andhi	zero,zero,2156
   219e0:	00021b2c 	andhi	zero,zero,2156
   219e4:	00021aa0 	cmpeqi	zero,zero,2154
   219e8:	00021b2c 	andhi	zero,zero,2156
   219ec:	00021a40 	call	21a4 <__alt_mem_onchip_memory2_0-0x1de5c>
       switch (in) {
       	   case 'e': {
       		   exposureTime += EXPOSURE_STEP;
   219f0:	e0bffd17 	ldw	r2,-12(fp)
   219f4:	10804004 	addi	r2,r2,256
   219f8:	e0bffd15 	stw	r2,-12(fp)
       		   OV8865SetExposure(exposureTime);
   219fc:	e13ffd17 	ldw	r4,-12(fp)
   21a00:	00220080 	call	22008 <OV8865SetExposure>
       		   printf("\nExposure = %x ", exposureTime);
   21a04:	e17ffd17 	ldw	r5,-12(fp)
   21a08:	010000f4 	movhi	r4,3
   21a0c:	210e2504 	addi	r4,r4,14484
   21a10:	0023cc40 	call	23cc4 <printf>
       	   	   break;}
   21a14:	00004506 	br	21b2c <main+0x44c>
       	   case 'd': {
       		   exposureTime -= EXPOSURE_STEP;
   21a18:	e0bffd17 	ldw	r2,-12(fp)
   21a1c:	10bfc004 	addi	r2,r2,-256
   21a20:	e0bffd15 	stw	r2,-12(fp)
       		   OV8865SetExposure(exposureTime);
   21a24:	e13ffd17 	ldw	r4,-12(fp)
   21a28:	00220080 	call	22008 <OV8865SetExposure>
       		   printf("\nExposure = %x ", exposureTime);
   21a2c:	e17ffd17 	ldw	r5,-12(fp)
   21a30:	010000f4 	movhi	r4,3
   21a34:	210e2504 	addi	r4,r4,14484
   21a38:	0023cc40 	call	23cc4 <printf>
       	   	   break;}
   21a3c:	00003b06 	br	21b2c <main+0x44c>
       	   case 't': {
       		   gain += GAIN_STEP;
   21a40:	e0bffc8b 	ldhu	r2,-14(fp)
   21a44:	10801004 	addi	r2,r2,64
   21a48:	e0bffc8d 	sth	r2,-14(fp)
       		   OV8865SetGain(gain);
   21a4c:	e0bffc8b 	ldhu	r2,-14(fp)
   21a50:	1009883a 	mov	r4,r2
   21a54:	00220ec0 	call	220ec <OV8865SetGain>
       		   printf("\nGain = %x ", gain);
   21a58:	e0bffc8b 	ldhu	r2,-14(fp)
   21a5c:	100b883a 	mov	r5,r2
   21a60:	010000f4 	movhi	r4,3
   21a64:	210e2904 	addi	r4,r4,14500
   21a68:	0023cc40 	call	23cc4 <printf>
       	   	   break;}
   21a6c:	00002f06 	br	21b2c <main+0x44c>
       	   case 'g': {
       		   gain -= GAIN_STEP;
   21a70:	e0bffc8b 	ldhu	r2,-14(fp)
   21a74:	10bff004 	addi	r2,r2,-64
   21a78:	e0bffc8d 	sth	r2,-14(fp)
       		   OV8865SetGain(gain);
   21a7c:	e0bffc8b 	ldhu	r2,-14(fp)
   21a80:	1009883a 	mov	r4,r2
   21a84:	00220ec0 	call	220ec <OV8865SetGain>
       		   printf("\nGain = %x ", gain);
   21a88:	e0bffc8b 	ldhu	r2,-14(fp)
   21a8c:	100b883a 	mov	r5,r2
   21a90:	010000f4 	movhi	r4,3
   21a94:	210e2904 	addi	r4,r4,14500
   21a98:	0023cc40 	call	23cc4 <printf>
       	   	   break;}
   21a9c:	00002306 	br	21b2c <main+0x44c>
       	   case 'r': {
        	   current_focus += manual_focus_step;
   21aa0:	e0bffc43 	ldbu	r2,-15(fp)
   21aa4:	e0ffff0b 	ldhu	r3,-4(fp)
   21aa8:	1885883a 	add	r2,r3,r2
   21aac:	e0bfff0d 	sth	r2,-4(fp)
        	   if(current_focus >1023) current_focus = 1023;
   21ab0:	e0bfff0b 	ldhu	r2,-4(fp)
   21ab4:	10810030 	cmpltui	r2,r2,1024
   21ab8:	1000021e 	bne	r2,zero,21ac4 <main+0x3e4>
   21abc:	0080ffc4 	movi	r2,1023
   21ac0:	e0bfff0d 	sth	r2,-4(fp)
        	   OV8865_FOCUS_Move_to(current_focus);
   21ac4:	e0bfff0b 	ldhu	r2,-4(fp)
   21ac8:	1009883a 	mov	r4,r2
   21acc:	0021f380 	call	21f38 <OV8865_FOCUS_Move_to>
        	   printf("\nFocus = %x ",current_focus);
   21ad0:	e0bfff0b 	ldhu	r2,-4(fp)
   21ad4:	100b883a 	mov	r5,r2
   21ad8:	010000f4 	movhi	r4,3
   21adc:	210e2c04 	addi	r4,r4,14512
   21ae0:	0023cc40 	call	23cc4 <printf>
       	   	   break;}
   21ae4:	00001106 	br	21b2c <main+0x44c>
       	   case 'f': {
        	   if(current_focus > manual_focus_step) current_focus -= manual_focus_step;
   21ae8:	e0fffc43 	ldbu	r3,-15(fp)
   21aec:	e0bfff0b 	ldhu	r2,-4(fp)
   21af0:	18ffffcc 	andi	r3,r3,65535
   21af4:	1880042e 	bgeu	r3,r2,21b08 <main+0x428>
   21af8:	e0bffc43 	ldbu	r2,-15(fp)
   21afc:	e0ffff0b 	ldhu	r3,-4(fp)
   21b00:	1885c83a 	sub	r2,r3,r2
   21b04:	e0bfff0d 	sth	r2,-4(fp)
        	   OV8865_FOCUS_Move_to(current_focus);
   21b08:	e0bfff0b 	ldhu	r2,-4(fp)
   21b0c:	1009883a 	mov	r4,r2
   21b10:	0021f380 	call	21f38 <OV8865_FOCUS_Move_to>
        	   printf("\nFocus = %x ",current_focus);
   21b14:	e0bfff0b 	ldhu	r2,-4(fp)
   21b18:	100b883a 	mov	r5,r2
   21b1c:	010000f4 	movhi	r4,3
   21b20:	210e2c04 	addi	r4,r4,14512
   21b24:	0023cc40 	call	23cc4 <printf>
       	   	   break;}
   21b28:	0001883a 	nop
       }


	   //Main loop delay
	   usleep(10000);
   21b2c:	0109c404 	movi	r4,10000
   21b30:	0030e780 	call	30e78 <usleep>
  while(1){
   21b34:	003f4406 	br	21848 <main+0x168>

00021b38 <nSWAP16>:
	{0x0004,0x8047} // Configuration Control Register

};


alt_u16 nSWAP16(alt_u16 x){
   21b38:	defffd04 	addi	sp,sp,-12
   21b3c:	df000215 	stw	fp,8(sp)
   21b40:	df000204 	addi	fp,sp,8
   21b44:	2005883a 	mov	r2,r4
   21b48:	e0bffe0d 	sth	r2,-8(fp)
	alt_u16 y;
	//y =  (((x) >> 8) & 0xff) | (((x) & 0xff) << 8);

//	y = x;
	y = (x >> 8) & 0x00ff;
   21b4c:	e0bffe0b 	ldhu	r2,-8(fp)
   21b50:	1004d23a 	srli	r2,r2,8
   21b54:	e0bfff8d 	sth	r2,-2(fp)
	y |= (x << 8) & 0xff00;
   21b58:	e0bffe0b 	ldhu	r2,-8(fp)
   21b5c:	1004923a 	slli	r2,r2,8
   21b60:	1007883a 	mov	r3,r2
   21b64:	e0bfff8b 	ldhu	r2,-2(fp)
   21b68:	1884b03a 	or	r2,r3,r2
   21b6c:	e0bfff8d 	sth	r2,-2(fp)
	return y;
   21b70:	e0bfff8b 	ldhu	r2,-2(fp)
}
   21b74:	e037883a 	mov	sp,fp
   21b78:	df000017 	ldw	fp,0(sp)
   21b7c:	dec00104 	addi	sp,sp,4
   21b80:	f800283a 	ret

00021b84 <MipiBridgeRegWrite>:


void MipiBridgeRegWrite(alt_u16 Addr, alt_u16 Value){
   21b84:	defffa04 	addi	sp,sp,-24
   21b88:	dfc00515 	stw	ra,20(sp)
   21b8c:	df000415 	stw	fp,16(sp)
   21b90:	df000404 	addi	fp,sp,16
   21b94:	2005883a 	mov	r2,r4
   21b98:	2807883a 	mov	r3,r5
   21b9c:	e0bffe0d 	sth	r2,-8(fp)
   21ba0:	1805883a 	mov	r2,r3
   21ba4:	e0bffd0d 	sth	r2,-12(fp)
	const alt_u8 device_address = MIPI_BRIDGE_I2C_ADDR;
   21ba8:	00800704 	movi	r2,28
   21bac:	e0bfffc5 	stb	r2,-1(fp)
	OC_I2CL_Write(I2C_OPENCORES_MIPI_BASE, device_address, Addr, (alt_u8 *)&Value, sizeof(Value));
   21bb0:	e0ffffc3 	ldbu	r3,-1(fp)
   21bb4:	e13ffe0b 	ldhu	r4,-8(fp)
   21bb8:	e17ffd04 	addi	r5,fp,-12
   21bbc:	00800084 	movi	r2,2
   21bc0:	d8800015 	stw	r2,0(sp)
   21bc4:	280f883a 	mov	r7,r5
   21bc8:	200d883a 	mov	r6,r4
   21bcc:	180b883a 	mov	r5,r3
   21bd0:	01000134 	movhi	r4,4
   21bd4:	21041804 	addi	r4,r4,4192
   21bd8:	0020ba00 	call	20ba0 <OC_I2CL_Write>
}
   21bdc:	0001883a 	nop
   21be0:	e037883a 	mov	sp,fp
   21be4:	dfc00117 	ldw	ra,4(sp)
   21be8:	df000017 	ldw	fp,0(sp)
   21bec:	dec00204 	addi	sp,sp,8
   21bf0:	f800283a 	ret

00021bf4 <MipiBridgeRegRead>:

alt_u16 MipiBridgeRegRead(alt_u16 Addr){
   21bf4:	defffa04 	addi	sp,sp,-24
   21bf8:	dfc00515 	stw	ra,20(sp)
   21bfc:	df000415 	stw	fp,16(sp)
   21c00:	df000404 	addi	fp,sp,16
   21c04:	2005883a 	mov	r2,r4
   21c08:	e0bffd0d 	sth	r2,-12(fp)
	alt_u16 Value,tValue;
	const alt_u8 device_address = MIPI_BRIDGE_I2C_ADDR;
   21c0c:	00800704 	movi	r2,28
   21c10:	e0bfffc5 	stb	r2,-1(fp)

	OC_I2CL_Read(I2C_OPENCORES_MIPI_BASE,device_address, Addr,(alt_u8 *)&Value,sizeof(Value));
   21c14:	e0ffffc3 	ldbu	r3,-1(fp)
   21c18:	e13ffd0b 	ldhu	r4,-12(fp)
   21c1c:	e17ffe84 	addi	r5,fp,-6
   21c20:	00800084 	movi	r2,2
   21c24:	d8800015 	stw	r2,0(sp)
   21c28:	280f883a 	mov	r7,r5
   21c2c:	200d883a 	mov	r6,r4
   21c30:	180b883a 	mov	r5,r3
   21c34:	01000134 	movhi	r4,4
   21c38:	21041804 	addi	r4,r4,4192
   21c3c:	0020db40 	call	20db4 <OC_I2CL_Read>

	tValue = nSWAP16(Value);
   21c40:	e0bffe8b 	ldhu	r2,-6(fp)
   21c44:	10bfffcc 	andi	r2,r2,65535
   21c48:	1009883a 	mov	r4,r2
   21c4c:	0021b380 	call	21b38 <nSWAP16>
   21c50:	e0bfff0d 	sth	r2,-4(fp)

	return (tValue);
   21c54:	e0bfff0b 	ldhu	r2,-4(fp)
}
   21c58:	e037883a 	mov	sp,fp
   21c5c:	dfc00117 	ldw	ra,4(sp)
   21c60:	df000017 	ldw	fp,0(sp)
   21c64:	dec00204 	addi	sp,sp,8
   21c68:	f800283a 	ret

00021c6c <MipiBridgeInit>:




void MipiBridgeInit(void){
   21c6c:	defffb04 	addi	sp,sp,-20
   21c70:	dfc00415 	stw	ra,16(sp)
   21c74:	df000315 	stw	fp,12(sp)
   21c78:	df000304 	addi	fp,sp,12

	alt_u16 data;
    int i, num;

	printf("\nStart MipiBridgeInit!\n");
   21c7c:	010000f4 	movhi	r4,3
   21c80:	210e3004 	addi	r4,r4,14528
   21c84:	0023de80 	call	23de8 <puts>

	data = MipiBridgeRegRead(0x0000); // read chip and revision id;
   21c88:	0009883a 	mov	r4,zero
   21c8c:	0021bf40 	call	21bf4 <MipiBridgeRegRead>
   21c90:	e0bffe8d 	sth	r2,-6(fp)

	printf("Chip and Revision ID is 0x%04xh(expected: 0x4401);\n",data);
   21c94:	e0bffe8b 	ldhu	r2,-6(fp)
   21c98:	100b883a 	mov	r5,r2
   21c9c:	010000f4 	movhi	r4,3
   21ca0:	210e3604 	addi	r4,r4,14552
   21ca4:	0023cc40 	call	23cc4 <printf>


    num = sizeof(MipiBridgeReg)/sizeof(MipiBridgeReg[0]);
   21ca8:	00800344 	movi	r2,13
   21cac:	e0bffd15 	stw	r2,-12(fp)

    for(i=0;i<num;i++){
   21cb0:	e03fff15 	stw	zero,-4(fp)
   21cb4:	00002306 	br	21d44 <MipiBridgeInit+0xd8>
   	 if (MipiBridgeReg[i].Addr == 0xFFFF)   usleep(MipiBridgeReg[i].Data*1000);
   21cb8:	e0bfff17 	ldw	r2,-4(fp)
   21cbc:	100690ba 	slli	r3,r2,2
   21cc0:	008000f4 	movhi	r2,3
   21cc4:	1885883a 	add	r2,r3,r2
   21cc8:	1090050b 	ldhu	r2,16404(r2)
   21ccc:	10ffffcc 	andi	r3,r2,65535
   21cd0:	00bfffd4 	movui	r2,65535
   21cd4:	18800a1e 	bne	r3,r2,21d00 <MipiBridgeInit+0x94>
   21cd8:	e0bfff17 	ldw	r2,-4(fp)
   21cdc:	100690ba 	slli	r3,r2,2
   21ce0:	008000f4 	movhi	r2,3
   21ce4:	1885883a 	add	r2,r3,r2
   21ce8:	1090058b 	ldhu	r2,16406(r2)
   21cec:	10bfffcc 	andi	r2,r2,65535
   21cf0:	1080fa24 	muli	r2,r2,1000
   21cf4:	1009883a 	mov	r4,r2
   21cf8:	0030e780 	call	30e78 <usleep>
   21cfc:	00000e06 	br	21d38 <MipiBridgeInit+0xcc>
        else MipiBridgeRegWrite(MipiBridgeReg[i].Addr,  MipiBridgeReg[i].Data);
   21d00:	e0bfff17 	ldw	r2,-4(fp)
   21d04:	100690ba 	slli	r3,r2,2
   21d08:	008000f4 	movhi	r2,3
   21d0c:	1885883a 	add	r2,r3,r2
   21d10:	1090050b 	ldhu	r2,16404(r2)
   21d14:	113fffcc 	andi	r4,r2,65535
   21d18:	e0bfff17 	ldw	r2,-4(fp)
   21d1c:	100690ba 	slli	r3,r2,2
   21d20:	008000f4 	movhi	r2,3
   21d24:	1885883a 	add	r2,r3,r2
   21d28:	1090058b 	ldhu	r2,16406(r2)
   21d2c:	10bfffcc 	andi	r2,r2,65535
   21d30:	100b883a 	mov	r5,r2
   21d34:	0021b840 	call	21b84 <MipiBridgeRegWrite>
    for(i=0;i<num;i++){
   21d38:	e0bfff17 	ldw	r2,-4(fp)
   21d3c:	10800044 	addi	r2,r2,1
   21d40:	e0bfff15 	stw	r2,-4(fp)
   21d44:	e0ffff17 	ldw	r3,-4(fp)
   21d48:	e0bffd17 	ldw	r2,-12(fp)
   21d4c:	18bfda16 	blt	r3,r2,21cb8 <MipiBridgeInit+0x4c>
//     MipiBridgeRegWrite(0x005A,((cap<<6) + (HsRxRs<<4) + ClkDly_data));
//     MipiBridgeRegWrite(0x005C,((cap<<6) + (HsRxRs<<4) + ClkDly_data));
//     MipiBridgeRegWrite(0x005E,((cap<<6) + (HsRxRs<<4) + ClkDly_data));
//

    printf("End MipiBridgeInit!\n\n");
   21d50:	010000f4 	movhi	r4,3
   21d54:	210e4304 	addi	r4,r4,14604
   21d58:	0023de80 	call	23de8 <puts>

}
   21d5c:	0001883a 	nop
   21d60:	e037883a 	mov	sp,fp
   21d64:	dfc00117 	ldw	ra,4(sp)
   21d68:	df000017 	ldw	fp,0(sp)
   21d6c:	dec00204 	addi	sp,sp,8
   21d70:	f800283a 	ret

00021d74 <OV8865_read_cmos_sensor_8>:
   };




alt_u8 OV8865_read_cmos_sensor_8(alt_u16 Addr){
   21d74:	defffb04 	addi	sp,sp,-20
   21d78:	dfc00415 	stw	ra,16(sp)
   21d7c:	df000315 	stw	fp,12(sp)
   21d80:	df000304 	addi	fp,sp,12
   21d84:	2005883a 	mov	r2,r4
   21d88:	e0bffe0d 	sth	r2,-8(fp)
	const alt_u8 device_address = MIPI_I2C_ADDR;
   21d8c:	00801b04 	movi	r2,108
   21d90:	e0bfffc5 	stb	r2,-1(fp)
	alt_u8 Value;

	//OC_I2CL_Write(I2C_OPENCORES_CAMERA_BASE, device_address, SWAP16(Addr), (alt_u8 *)&Value, sizeof(Value));
	OC_I2CL_Read(I2C_OPENCORES_CAMERA_BASE, device_address, Addr, (alt_u8 *)&Value, sizeof(Value));
   21d94:	e0ffffc3 	ldbu	r3,-1(fp)
   21d98:	e13ffe0b 	ldhu	r4,-8(fp)
   21d9c:	e17fff84 	addi	r5,fp,-2
   21da0:	00800044 	movi	r2,1
   21da4:	d8800015 	stw	r2,0(sp)
   21da8:	280f883a 	mov	r7,r5
   21dac:	200d883a 	mov	r6,r4
   21db0:	180b883a 	mov	r5,r3
   21db4:	01000134 	movhi	r4,4
   21db8:	21041004 	addi	r4,r4,4160
   21dbc:	0020db40 	call	20db4 <OC_I2CL_Read>

	return (Value);
   21dc0:	e0bfff83 	ldbu	r2,-2(fp)
}
   21dc4:	e037883a 	mov	sp,fp
   21dc8:	dfc00117 	ldw	ra,4(sp)
   21dcc:	df000017 	ldw	fp,0(sp)
   21dd0:	dec00204 	addi	sp,sp,8
   21dd4:	f800283a 	ret

00021dd8 <OV8865_write_cmos_sensor_8>:


void OV8865_write_cmos_sensor_8(alt_u16 Addr, alt_u8 Value){
   21dd8:	defffa04 	addi	sp,sp,-24
   21ddc:	dfc00515 	stw	ra,20(sp)
   21de0:	df000415 	stw	fp,16(sp)
   21de4:	df000404 	addi	fp,sp,16
   21de8:	2005883a 	mov	r2,r4
   21dec:	2807883a 	mov	r3,r5
   21df0:	e0bffe0d 	sth	r2,-8(fp)
   21df4:	1805883a 	mov	r2,r3
   21df8:	e0bffd05 	stb	r2,-12(fp)
	const alt_u8 device_address = MIPI_I2C_ADDR;
   21dfc:	00801b04 	movi	r2,108
   21e00:	e0bfffc5 	stb	r2,-1(fp)
	//OC_I2CL_Write(I2C_OPENCORES_CAMERA_BASE, device_address, SWAP16(Addr), (alt_u8 *)&Value, sizeof(Value));
	OC_I2CL_Write(I2C_OPENCORES_CAMERA_BASE, device_address, Addr, (alt_u8 *)&Value, sizeof(Value));
   21e04:	e0ffffc3 	ldbu	r3,-1(fp)
   21e08:	e13ffe0b 	ldhu	r4,-8(fp)
   21e0c:	e17ffd04 	addi	r5,fp,-12
   21e10:	00800044 	movi	r2,1
   21e14:	d8800015 	stw	r2,0(sp)
   21e18:	280f883a 	mov	r7,r5
   21e1c:	200d883a 	mov	r6,r4
   21e20:	180b883a 	mov	r5,r3
   21e24:	01000134 	movhi	r4,4
   21e28:	21041004 	addi	r4,r4,4160
   21e2c:	0020ba00 	call	20ba0 <OC_I2CL_Write>
}
   21e30:	0001883a 	nop
   21e34:	e037883a 	mov	sp,fp
   21e38:	dfc00117 	ldw	ra,4(sp)
   21e3c:	df000017 	ldw	fp,0(sp)
   21e40:	dec00204 	addi	sp,sp,8
   21e44:	f800283a 	ret

00021e48 <OV8865_write_AF>:


void OV8865_write_AF(alt_u8 msb, alt_u8 lsb){
   21e48:	defffa04 	addi	sp,sp,-24
   21e4c:	dfc00515 	stw	ra,20(sp)
   21e50:	df000415 	stw	fp,16(sp)
   21e54:	df000404 	addi	fp,sp,16
   21e58:	2005883a 	mov	r2,r4
   21e5c:	2807883a 	mov	r3,r5
   21e60:	e0bffe05 	stb	r2,-8(fp)
   21e64:	1805883a 	mov	r2,r3
   21e68:	e0bffd05 	stb	r2,-12(fp)
	// VCM149C
	const alt_u8 device_address = MIPI_AF_I2C_ADDR;
   21e6c:	00800604 	movi	r2,24
   21e70:	e0bfffc5 	stb	r2,-1(fp)
	OC_I2C_Write(I2C_OPENCORES_CAMERA_BASE, device_address, msb, (alt_u8 *)&lsb, sizeof(lsb));
   21e74:	e0ffffc3 	ldbu	r3,-1(fp)
   21e78:	e13ffe03 	ldbu	r4,-8(fp)
   21e7c:	e17ffd04 	addi	r5,fp,-12
   21e80:	00800044 	movi	r2,1
   21e84:	d8800015 	stw	r2,0(sp)
   21e88:	280f883a 	mov	r7,r5
   21e8c:	200d883a 	mov	r6,r4
   21e90:	180b883a 	mov	r5,r3
   21e94:	01000134 	movhi	r4,4
   21e98:	21041004 	addi	r4,r4,4160
   21e9c:	00206300 	call	20630 <OC_I2C_Write>
}
   21ea0:	0001883a 	nop
   21ea4:	e037883a 	mov	sp,fp
   21ea8:	dfc00117 	ldw	ra,4(sp)
   21eac:	df000017 	ldw	fp,0(sp)
   21eb0:	dec00204 	addi	sp,sp,8
   21eb4:	f800283a 	ret

00021eb8 <OV8865_read_AF>:

void OV8865_read_AF(void){
   21eb8:	defffb04 	addi	sp,sp,-20
   21ebc:	dfc00415 	stw	ra,16(sp)
   21ec0:	df000315 	stw	fp,12(sp)
   21ec4:	df000304 	addi	fp,sp,12
	// VCM149C
	const alt_u8 device_address = MIPI_AF_I2C_ADDR;
   21ec8:	00800604 	movi	r2,24
   21ecc:	e0bfffc5 	stb	r2,-1(fp)
	alt_u8 szData8[2];
	bool bSuccess;

		bSuccess = OC_I2C_Read_Continue(I2C_OPENCORES_CAMERA_BASE, device_address, szData8, sizeof(szData8));
   21ed0:	e0bfffc3 	ldbu	r2,-1(fp)
   21ed4:	e0fffd84 	addi	r3,fp,-10
   21ed8:	01c00084 	movi	r7,2
   21edc:	180d883a 	mov	r6,r3
   21ee0:	100b883a 	mov	r5,r2
   21ee4:	01000134 	movhi	r4,4
   21ee8:	21041004 	addi	r4,r4,4160
   21eec:	0020a680 	call	20a68 <OC_I2C_Read_Continue>
   21ef0:	e0bffe15 	stw	r2,-8(fp)
		if (bSuccess)
   21ef4:	e0bffe17 	ldw	r2,-8(fp)
   21ef8:	10000926 	beq	r2,zero,21f20 <OV8865_read_AF+0x68>
			printf("Read MSB=%xh, LSB=%xh\r\n", szData8[0], szData8[1]);
   21efc:	e0bffd83 	ldbu	r2,-10(fp)
   21f00:	10803fcc 	andi	r2,r2,255
   21f04:	e0fffdc3 	ldbu	r3,-9(fp)
   21f08:	18c03fcc 	andi	r3,r3,255
   21f0c:	180d883a 	mov	r6,r3
   21f10:	100b883a 	mov	r5,r2
   21f14:	010000f4 	movhi	r4,3
   21f18:	210e4904 	addi	r4,r4,14628
   21f1c:	0023cc40 	call	23cc4 <printf>
}
   21f20:	0001883a 	nop
   21f24:	e037883a 	mov	sp,fp
   21f28:	dfc00117 	ldw	ra,4(sp)
   21f2c:	df000017 	ldw	fp,0(sp)
   21f30:	dec00204 	addi	sp,sp,8
   21f34:	f800283a 	ret

00021f38 <OV8865_FOCUS_Move_to>:

void OV8865_FOCUS_Move_to(alt_u16 a_u2MovePosition)
{
   21f38:	defffb04 	addi	sp,sp,-20
   21f3c:	dfc00415 	stw	ra,16(sp)
   21f40:	df000315 	stw	fp,12(sp)
   21f44:	df000304 	addi	fp,sp,12
   21f48:	2005883a 	mov	r2,r4
   21f4c:	e0bffd0d 	sth	r2,-12(fp)
  if (a_u2MovePosition > 1023)   {a_u2MovePosition = 1023;}
   21f50:	e0bffd0b 	ldhu	r2,-12(fp)
   21f54:	10810030 	cmpltui	r2,r2,1024
   21f58:	1000021e 	bne	r2,zero,21f64 <OV8865_FOCUS_Move_to+0x2c>
   21f5c:	0080ffc4 	movi	r2,1023
   21f60:	e0bffd0d 	sth	r2,-12(fp)
  if (a_u2MovePosition < 0)     {a_u2MovePosition = 0;}
  int bSuccess;

  Focus_Released(); // waiting for VCM release I2C bus
   21f64:	00213040 	call	21304 <Focus_Released>

	bSuccess = oc_i2c_init_ex(I2C_OPENCORES_CAMERA_BASE, 50*1000*1000,400*1000); //I2C: 400K
   21f68:	018001b4 	movhi	r6,6
   21f6c:	3186a004 	addi	r6,r6,6784
   21f70:	0140bef4 	movhi	r5,763
   21f74:	297c2004 	addi	r5,r5,-3968
   21f78:	01000134 	movhi	r4,4
   21f7c:	21041004 	addi	r4,r4,4160
   21f80:	00203840 	call	20384 <oc_i2c_init_ex>
   21f84:	e0bfff15 	stw	r2,-4(fp)
	if (!bSuccess)
   21f88:	e0bfff17 	ldw	r2,-4(fp)
   21f8c:	1000031e 	bne	r2,zero,21f9c <OV8865_FOCUS_Move_to+0x64>
		printf("failed to init MIPI- Camera i2c\r\n");
   21f90:	010000f4 	movhi	r4,3
   21f94:	210e4f04 	addi	r4,r4,14652
   21f98:	0023de80 	call	23de8 <puts>

	//printf("Manual set focus to %d\r\n",a_u2MovePosition);
  alt_u8 msb,lsb;
  msb = (a_u2MovePosition >> 4)&0x00FF;
   21f9c:	e0bffd0b 	ldhu	r2,-12(fp)
   21fa0:	1004d13a 	srli	r2,r2,4
   21fa4:	e0bffec5 	stb	r2,-5(fp)
  lsb = (a_u2MovePosition << 4 )&0x00F0;
   21fa8:	e0bffd0b 	ldhu	r2,-12(fp)
   21fac:	1004913a 	slli	r2,r2,4
   21fb0:	e0bffe85 	stb	r2,-6(fp)
  lsb += 0x06;
   21fb4:	e0bffe83 	ldbu	r2,-6(fp)
   21fb8:	10800184 	addi	r2,r2,6
   21fbc:	e0bffe85 	stb	r2,-6(fp)
//	printf("Write MSB=%xh, LSB=%xh\r\n", msb, lsb);
	OV8865_write_AF(msb, lsb+0x6);
   21fc0:	e0fffec3 	ldbu	r3,-5(fp)
   21fc4:	e0bffe83 	ldbu	r2,-6(fp)
   21fc8:	10800184 	addi	r2,r2,6
   21fcc:	10803fcc 	andi	r2,r2,255
   21fd0:	100b883a 	mov	r5,r2
   21fd4:	1809883a 	mov	r4,r3
   21fd8:	0021e480 	call	21e48 <OV8865_write_AF>
	usleep(1000);
   21fdc:	0100fa04 	movi	r4,1000
   21fe0:	0030e780 	call	30e78 <usleep>
//	OV8865_read_AF();

	oc_i2c_uninit(I2C_OPENCORES_CAMERA_BASE);  // Release I2C bus , due to two I2C master shared!
   21fe4:	01000134 	movhi	r4,4
   21fe8:	21041004 	addi	r4,r4,4160
   21fec:	00204c00 	call	204c0 <oc_i2c_uninit>

}
   21ff0:	0001883a 	nop
   21ff4:	e037883a 	mov	sp,fp
   21ff8:	dfc00117 	ldw	ra,4(sp)
   21ffc:	df000017 	ldw	fp,0(sp)
   22000:	dec00204 	addi	sp,sp,8
   22004:	f800283a 	ret

00022008 <OV8865SetExposure>:

void OV8865SetExposure(alt_u32 exposure){
   22008:	defffc04 	addi	sp,sp,-16
   2200c:	dfc00315 	stw	ra,12(sp)
   22010:	df000215 	stw	fp,8(sp)
   22014:	df000204 	addi	fp,sp,8
   22018:	e13ffe15 	stw	r4,-8(fp)

	Focus_Released(); // waiting for VCM release I2C bus
   2201c:	00213040 	call	21304 <Focus_Released>

	int bSuccess = oc_i2c_init_ex(I2C_OPENCORES_CAMERA_BASE, 50*1000*1000,400*1000); //I2C: 400K
   22020:	018001b4 	movhi	r6,6
   22024:	3186a004 	addi	r6,r6,6784
   22028:	0140bef4 	movhi	r5,763
   2202c:	297c2004 	addi	r5,r5,-3968
   22030:	01000134 	movhi	r4,4
   22034:	21041004 	addi	r4,r4,4160
   22038:	00203840 	call	20384 <oc_i2c_init_ex>
   2203c:	e0bfff15 	stw	r2,-4(fp)
	if (!bSuccess)
   22040:	e0bfff17 	ldw	r2,-4(fp)
   22044:	1000031e 	bne	r2,zero,22054 <OV8865SetExposure+0x4c>
		printf("failed to init MIPI- Camera i2c\r\n");
   22048:	010000f4 	movhi	r4,3
   2204c:	210e4f04 	addi	r4,r4,14652
   22050:	0023de80 	call	23de8 <puts>

	if (exposure > 0xFFFFF) exposure = 0xFFFFF;
   22054:	e0fffe17 	ldw	r3,-8(fp)
   22058:	00800434 	movhi	r2,16
   2205c:	18800336 	bltu	r3,r2,2206c <OV8865SetExposure+0x64>
   22060:	00800434 	movhi	r2,16
   22064:	10bfffc4 	addi	r2,r2,-1
   22068:	e0bffe15 	stw	r2,-8(fp)
	if (exposure < 0x20) exposure = 0x20;
   2206c:	e0bffe17 	ldw	r2,-8(fp)
   22070:	10800828 	cmpgeui	r2,r2,32
   22074:	1000021e 	bne	r2,zero,22080 <OV8865SetExposure+0x78>
   22078:	00800804 	movi	r2,32
   2207c:	e0bffe15 	stw	r2,-8(fp)

	OV8865_write_cmos_sensor_8(0x3500, (exposure >> 16) & 0x0F);
   22080:	e0bffe17 	ldw	r2,-8(fp)
   22084:	1004d43a 	srli	r2,r2,16
   22088:	10803fcc 	andi	r2,r2,255
   2208c:	108003cc 	andi	r2,r2,15
   22090:	100b883a 	mov	r5,r2
   22094:	010d4004 	movi	r4,13568
   22098:	0021dd80 	call	21dd8 <OV8865_write_cmos_sensor_8>
	OV8865_write_cmos_sensor_8(0x3501, (exposure >> 8) & 0xFF);
   2209c:	e0bffe17 	ldw	r2,-8(fp)
   220a0:	1004d23a 	srli	r2,r2,8
   220a4:	10803fcc 	andi	r2,r2,255
   220a8:	100b883a 	mov	r5,r2
   220ac:	010d4044 	movi	r4,13569
   220b0:	0021dd80 	call	21dd8 <OV8865_write_cmos_sensor_8>
	OV8865_write_cmos_sensor_8(0x3502, exposure & 0xFF);
   220b4:	e0bffe17 	ldw	r2,-8(fp)
   220b8:	10803fcc 	andi	r2,r2,255
   220bc:	100b883a 	mov	r5,r2
   220c0:	010d4084 	movi	r4,13570
   220c4:	0021dd80 	call	21dd8 <OV8865_write_cmos_sensor_8>


	oc_i2c_uninit(I2C_OPENCORES_CAMERA_BASE);
   220c8:	01000134 	movhi	r4,4
   220cc:	21041004 	addi	r4,r4,4160
   220d0:	00204c00 	call	204c0 <oc_i2c_uninit>
}
   220d4:	0001883a 	nop
   220d8:	e037883a 	mov	sp,fp
   220dc:	dfc00117 	ldw	ra,4(sp)
   220e0:	df000017 	ldw	fp,0(sp)
   220e4:	dec00204 	addi	sp,sp,8
   220e8:	f800283a 	ret

000220ec <OV8865SetGain>:

void OV8865SetGain(alt_u16 gain){
   220ec:	defffc04 	addi	sp,sp,-16
   220f0:	dfc00315 	stw	ra,12(sp)
   220f4:	df000215 	stw	fp,8(sp)
   220f8:	df000204 	addi	fp,sp,8
   220fc:	2005883a 	mov	r2,r4
   22100:	e0bffe0d 	sth	r2,-8(fp)

	Focus_Released(); // waiting for VCM release I2C bus
   22104:	00213040 	call	21304 <Focus_Released>

	int bSuccess = oc_i2c_init_ex(I2C_OPENCORES_CAMERA_BASE, 50*1000*1000,400*1000); //I2C: 400K
   22108:	018001b4 	movhi	r6,6
   2210c:	3186a004 	addi	r6,r6,6784
   22110:	0140bef4 	movhi	r5,763
   22114:	297c2004 	addi	r5,r5,-3968
   22118:	01000134 	movhi	r4,4
   2211c:	21041004 	addi	r4,r4,4160
   22120:	00203840 	call	20384 <oc_i2c_init_ex>
   22124:	e0bfff15 	stw	r2,-4(fp)
	if (!bSuccess)
   22128:	e0bfff17 	ldw	r2,-4(fp)
   2212c:	1000031e 	bne	r2,zero,2213c <OV8865SetGain+0x50>
		printf("failed to init MIPI- Camera i2c\r\n");
   22130:	010000f4 	movhi	r4,3
   22134:	210e4f04 	addi	r4,r4,14652
   22138:	0023de80 	call	23de8 <puts>

	if (gain > 0x7FF) gain = 0x7FF;
   2213c:	e0bffe0b 	ldhu	r2,-8(fp)
   22140:	10820030 	cmpltui	r2,r2,2048
   22144:	1000021e 	bne	r2,zero,22150 <OV8865SetGain+0x64>
   22148:	0081ffc4 	movi	r2,2047
   2214c:	e0bffe0d 	sth	r2,-8(fp)
	if (gain < 0x080) gain = 0x080;
   22150:	e0bffe0b 	ldhu	r2,-8(fp)
   22154:	10802028 	cmpgeui	r2,r2,128
   22158:	1000021e 	bne	r2,zero,22164 <OV8865SetGain+0x78>
   2215c:	00802004 	movi	r2,128
   22160:	e0bffe0d 	sth	r2,-8(fp)

	OV8865_write_cmos_sensor_8(0x3508, (gain >> 8) & 0x0F);
   22164:	e0bffe0b 	ldhu	r2,-8(fp)
   22168:	1004d23a 	srli	r2,r2,8
   2216c:	10803fcc 	andi	r2,r2,255
   22170:	108003cc 	andi	r2,r2,15
   22174:	100b883a 	mov	r5,r2
   22178:	010d4204 	movi	r4,13576
   2217c:	0021dd80 	call	21dd8 <OV8865_write_cmos_sensor_8>
	OV8865_write_cmos_sensor_8(0x3509, gain & 0xFF);
   22180:	e0bffe0b 	ldhu	r2,-8(fp)
   22184:	10803fcc 	andi	r2,r2,255
   22188:	100b883a 	mov	r5,r2
   2218c:	010d4244 	movi	r4,13577
   22190:	0021dd80 	call	21dd8 <OV8865_write_cmos_sensor_8>


	oc_i2c_uninit(I2C_OPENCORES_CAMERA_BASE);
   22194:	01000134 	movhi	r4,4
   22198:	21041004 	addi	r4,r4,4160
   2219c:	00204c00 	call	204c0 <oc_i2c_uninit>
}
   221a0:	0001883a 	nop
   221a4:	e037883a 	mov	sp,fp
   221a8:	dfc00117 	ldw	ra,4(sp)
   221ac:	df000017 	ldw	fp,0(sp)
   221b0:	dec00204 	addi	sp,sp,8
   221b4:	f800283a 	ret

000221b8 <OV8865ReadExposure>:

alt_u32 OV8865ReadExposure(){
   221b8:	defffb04 	addi	sp,sp,-20
   221bc:	dfc00415 	stw	ra,16(sp)
   221c0:	df000315 	stw	fp,12(sp)
   221c4:	dc000215 	stw	r16,8(sp)
   221c8:	df000304 	addi	fp,sp,12

	alt_u32 exposure;

	Focus_Released(); // waiting for VCM release I2C bus
   221cc:	00213040 	call	21304 <Focus_Released>

	int bSuccess = oc_i2c_init_ex(I2C_OPENCORES_CAMERA_BASE, 50*1000*1000,400*1000); //I2C: 400K
   221d0:	018001b4 	movhi	r6,6
   221d4:	3186a004 	addi	r6,r6,6784
   221d8:	0140bef4 	movhi	r5,763
   221dc:	297c2004 	addi	r5,r5,-3968
   221e0:	01000134 	movhi	r4,4
   221e4:	21041004 	addi	r4,r4,4160
   221e8:	00203840 	call	20384 <oc_i2c_init_ex>
   221ec:	e0bffe15 	stw	r2,-8(fp)
	if (!bSuccess)
   221f0:	e0bffe17 	ldw	r2,-8(fp)
   221f4:	1000031e 	bne	r2,zero,22204 <OV8865ReadExposure+0x4c>
		printf("failed to init MIPI- Camera i2c\r\n");
   221f8:	010000f4 	movhi	r4,3
   221fc:	210e4f04 	addi	r4,r4,14652
   22200:	0023de80 	call	23de8 <puts>

	exposure = OV8865_read_cmos_sensor_8(0x3500);
   22204:	010d4004 	movi	r4,13568
   22208:	0021d740 	call	21d74 <OV8865_read_cmos_sensor_8>
   2220c:	10803fcc 	andi	r2,r2,255
   22210:	e0bffd15 	stw	r2,-12(fp)
	exposure = (exposure <<8) | OV8865_read_cmos_sensor_8(0x3501);
   22214:	e0bffd17 	ldw	r2,-12(fp)
   22218:	1020923a 	slli	r16,r2,8
   2221c:	010d4044 	movi	r4,13569
   22220:	0021d740 	call	21d74 <OV8865_read_cmos_sensor_8>
   22224:	10803fcc 	andi	r2,r2,255
   22228:	8084b03a 	or	r2,r16,r2
   2222c:	e0bffd15 	stw	r2,-12(fp)
	exposure = (exposure <<8) | OV8865_read_cmos_sensor_8(0x3502);
   22230:	e0bffd17 	ldw	r2,-12(fp)
   22234:	1020923a 	slli	r16,r2,8
   22238:	010d4084 	movi	r4,13570
   2223c:	0021d740 	call	21d74 <OV8865_read_cmos_sensor_8>
   22240:	10803fcc 	andi	r2,r2,255
   22244:	8084b03a 	or	r2,r16,r2
   22248:	e0bffd15 	stw	r2,-12(fp)

	oc_i2c_uninit(I2C_OPENCORES_CAMERA_BASE);
   2224c:	01000134 	movhi	r4,4
   22250:	21041004 	addi	r4,r4,4160
   22254:	00204c00 	call	204c0 <oc_i2c_uninit>

	return exposure;
   22258:	e0bffd17 	ldw	r2,-12(fp)
}
   2225c:	e6ffff04 	addi	sp,fp,-4
   22260:	dfc00217 	ldw	ra,8(sp)
   22264:	df000117 	ldw	fp,4(sp)
   22268:	dc000017 	ldw	r16,0(sp)
   2226c:	dec00304 	addi	sp,sp,12
   22270:	f800283a 	ret

00022274 <MIPI_BIN_LEVEL>:




//ZOOM
void MIPI_BIN_LEVEL(alt_u8 level){
   22274:	defffc04 	addi	sp,sp,-16
   22278:	dfc00315 	stw	ra,12(sp)
   2227c:	df000215 	stw	fp,8(sp)
   22280:	df000204 	addi	fp,sp,8
   22284:	2005883a 	mov	r2,r4
   22288:	e0bffe05 	stb	r2,-8(fp)
	if(level <= 1) level = 1;
   2228c:	e0bffe03 	ldbu	r2,-8(fp)
   22290:	108000a8 	cmpgeui	r2,r2,2
   22294:	1000021e 	bne	r2,zero,222a0 <MIPI_BIN_LEVEL+0x2c>
   22298:	00800044 	movi	r2,1
   2229c:	e0bffe05 	stb	r2,-8(fp)
	if(level >= 3) level = 3;
   222a0:	e0bffe03 	ldbu	r2,-8(fp)
   222a4:	108000f0 	cmpltui	r2,r2,3
   222a8:	1000021e 	bne	r2,zero,222b4 <MIPI_BIN_LEVEL+0x40>
   222ac:	008000c4 	movi	r2,3
   222b0:	e0bffe05 	stb	r2,-8(fp)

	  Focus_Released(); // waiting for VCM release I2C bus
   222b4:	00213040 	call	21304 <Focus_Released>

	  int bSuccess;
		bSuccess = oc_i2c_init_ex(I2C_OPENCORES_CAMERA_BASE, 50*1000*1000,400*1000); //I2C: 400K
   222b8:	018001b4 	movhi	r6,6
   222bc:	3186a004 	addi	r6,r6,6784
   222c0:	0140bef4 	movhi	r5,763
   222c4:	297c2004 	addi	r5,r5,-3968
   222c8:	01000134 	movhi	r4,4
   222cc:	21041004 	addi	r4,r4,4160
   222d0:	00203840 	call	20384 <oc_i2c_init_ex>
   222d4:	e0bfff15 	stw	r2,-4(fp)
		if (!bSuccess)
   222d8:	e0bfff17 	ldw	r2,-4(fp)
   222dc:	1000031e 	bne	r2,zero,222ec <MIPI_BIN_LEVEL+0x78>
			printf("failed to init MIPI- Camera i2c\r\n");
   222e0:	010000f4 	movhi	r4,3
   222e4:	210e4f04 	addi	r4,r4,14652
   222e8:	0023de80 	call	23de8 <puts>


	OV8865_write_cmos_sensor_8(0x0100, 0x00);
   222ec:	000b883a 	mov	r5,zero
   222f0:	01004004 	movi	r4,256
   222f4:	0021dd80 	call	21dd8 <OV8865_write_cmos_sensor_8>

	if(level == 1){
   222f8:	e0bffe03 	ldbu	r2,-8(fp)
   222fc:	10800058 	cmpnei	r2,r2,1
   22300:	1000131e 	bne	r2,zero,22350 <MIPI_BIN_LEVEL+0xdc>

		OV8865_write_cmos_sensor_8(0x3814, 0x01);
   22304:	01400044 	movi	r5,1
   22308:	010e0504 	movi	r4,14356
   2230c:	0021dd80 	call	21dd8 <OV8865_write_cmos_sensor_8>
		OV8865_write_cmos_sensor_8(0x3815, 0x01);
   22310:	01400044 	movi	r5,1
   22314:	010e0544 	movi	r4,14357
   22318:	0021dd80 	call	21dd8 <OV8865_write_cmos_sensor_8>
		OV8865_write_cmos_sensor_8(0x382a, 0x01);
   2231c:	01400044 	movi	r5,1
   22320:	010e0a84 	movi	r4,14378
   22324:	0021dd80 	call	21dd8 <OV8865_write_cmos_sensor_8>
		OV8865_write_cmos_sensor_8(0x382b, 0x01);
   22328:	01400044 	movi	r5,1
   2232c:	010e0ac4 	movi	r4,14379
   22330:	0021dd80 	call	21dd8 <OV8865_write_cmos_sensor_8>

		OV8865_write_cmos_sensor_8(0x3830, 8);
   22334:	01400204 	movi	r5,8
   22338:	010e0c04 	movi	r4,14384
   2233c:	0021dd80 	call	21dd8 <OV8865_write_cmos_sensor_8>
		OV8865_write_cmos_sensor_8(0x3836, 2);
   22340:	01400084 	movi	r5,2
   22344:	010e0d84 	movi	r4,14390
   22348:	0021dd80 	call	21dd8 <OV8865_write_cmos_sensor_8>
   2234c:	00002b06 	br	223fc <MIPI_BIN_LEVEL+0x188>
	}
	else if(level == 2){
   22350:	e0bffe03 	ldbu	r2,-8(fp)
   22354:	10800098 	cmpnei	r2,r2,2
   22358:	1000131e 	bne	r2,zero,223a8 <MIPI_BIN_LEVEL+0x134>

		OV8865_write_cmos_sensor_8(0x3814, 0x03);
   2235c:	014000c4 	movi	r5,3
   22360:	010e0504 	movi	r4,14356
   22364:	0021dd80 	call	21dd8 <OV8865_write_cmos_sensor_8>
		OV8865_write_cmos_sensor_8(0x3815, 0x01);
   22368:	01400044 	movi	r5,1
   2236c:	010e0544 	movi	r4,14357
   22370:	0021dd80 	call	21dd8 <OV8865_write_cmos_sensor_8>
		OV8865_write_cmos_sensor_8(0x382a, 0x03);
   22374:	014000c4 	movi	r5,3
   22378:	010e0a84 	movi	r4,14378
   2237c:	0021dd80 	call	21dd8 <OV8865_write_cmos_sensor_8>
		OV8865_write_cmos_sensor_8(0x382b, 0x01);
   22380:	01400044 	movi	r5,1
   22384:	010e0ac4 	movi	r4,14379
   22388:	0021dd80 	call	21dd8 <OV8865_write_cmos_sensor_8>

		OV8865_write_cmos_sensor_8(0x3830, 4);
   2238c:	01400104 	movi	r5,4
   22390:	010e0c04 	movi	r4,14384
   22394:	0021dd80 	call	21dd8 <OV8865_write_cmos_sensor_8>
		OV8865_write_cmos_sensor_8(0x3836, 1);
   22398:	01400044 	movi	r5,1
   2239c:	010e0d84 	movi	r4,14390
   223a0:	0021dd80 	call	21dd8 <OV8865_write_cmos_sensor_8>
   223a4:	00001506 	br	223fc <MIPI_BIN_LEVEL+0x188>

	}
	else if(level == 3){
   223a8:	e0bffe03 	ldbu	r2,-8(fp)
   223ac:	108000d8 	cmpnei	r2,r2,3
   223b0:	1000121e 	bne	r2,zero,223fc <MIPI_BIN_LEVEL+0x188>

		OV8865_write_cmos_sensor_8(0x3814, 0x07);
   223b4:	014001c4 	movi	r5,7
   223b8:	010e0504 	movi	r4,14356
   223bc:	0021dd80 	call	21dd8 <OV8865_write_cmos_sensor_8>
		OV8865_write_cmos_sensor_8(0x3815, 0x01);
   223c0:	01400044 	movi	r5,1
   223c4:	010e0544 	movi	r4,14357
   223c8:	0021dd80 	call	21dd8 <OV8865_write_cmos_sensor_8>
		OV8865_write_cmos_sensor_8(0x382a, 0x07);
   223cc:	014001c4 	movi	r5,7
   223d0:	010e0a84 	movi	r4,14378
   223d4:	0021dd80 	call	21dd8 <OV8865_write_cmos_sensor_8>
		OV8865_write_cmos_sensor_8(0x382b, 0x01);
   223d8:	01400044 	movi	r5,1
   223dc:	010e0ac4 	movi	r4,14379
   223e0:	0021dd80 	call	21dd8 <OV8865_write_cmos_sensor_8>

		OV8865_write_cmos_sensor_8(0x3830, 8);
   223e4:	01400204 	movi	r5,8
   223e8:	010e0c04 	movi	r4,14384
   223ec:	0021dd80 	call	21dd8 <OV8865_write_cmos_sensor_8>
		OV8865_write_cmos_sensor_8(0x3836, 2);
   223f0:	01400084 	movi	r5,2
   223f4:	010e0d84 	movi	r4,14390
   223f8:	0021dd80 	call	21dd8 <OV8865_write_cmos_sensor_8>
	}
    usleep(10000);
   223fc:	0109c404 	movi	r4,10000
   22400:	0030e780 	call	30e78 <usleep>
	OV8865_write_cmos_sensor_8(0x0100, 0x01);
   22404:	01400044 	movi	r5,1
   22408:	01004004 	movi	r4,256
   2240c:	0021dd80 	call	21dd8 <OV8865_write_cmos_sensor_8>

	oc_i2c_uninit(I2C_OPENCORES_CAMERA_BASE);  // Release I2C bus , due to two I2C master shared!
   22410:	01000134 	movhi	r4,4
   22414:	21041004 	addi	r4,r4,4160
   22418:	00204c00 	call	204c0 <oc_i2c_uninit>

}
   2241c:	0001883a 	nop
   22420:	e037883a 	mov	sp,fp
   22424:	dfc00117 	ldw	ra,4(sp)
   22428:	df000017 	ldw	fp,0(sp)
   2242c:	dec00204 	addi	sp,sp,8
   22430:	f800283a 	ret

00022434 <MipiCameraInit>:
//		OV8865_write_cmos_sensor_8(0x0100, 0x01);
//}


void MipiCameraInit(void)
{
   22434:	defffb04 	addi	sp,sp,-20
   22438:	dfc00415 	stw	ra,16(sp)
   2243c:	df000315 	stw	fp,12(sp)
   22440:	df000304 	addi	fp,sp,12

    int i, num;
    int bSuccess;

    Focus_Released(); // waiting for VCM release I2C bus
   22444:	00213040 	call	21304 <Focus_Released>


		bSuccess = oc_i2c_init_ex(I2C_OPENCORES_CAMERA_BASE, 50*1000*1000,400*1000); //I2C: 400K
   22448:	018001b4 	movhi	r6,6
   2244c:	3186a004 	addi	r6,r6,6784
   22450:	0140bef4 	movhi	r5,763
   22454:	297c2004 	addi	r5,r5,-3968
   22458:	01000134 	movhi	r4,4
   2245c:	21041004 	addi	r4,r4,4160
   22460:	00203840 	call	20384 <oc_i2c_init_ex>
   22464:	e0bffe15 	stw	r2,-8(fp)
		if (!bSuccess)
   22468:	e0bffe17 	ldw	r2,-8(fp)
   2246c:	1000031e 	bne	r2,zero,2247c <MipiCameraInit+0x48>
			printf("failed to init MIPI- Camera i2c\r\n");
   22470:	010000f4 	movhi	r4,3
   22474:	210e4f04 	addi	r4,r4,14652
   22478:	0023de80 	call	23de8 <puts>
//        usleep(10000);
//    }
//


	 OV8865DB("\nStart MipiCameraInit -OV8865!\r\n");
   2247c:	010000f4 	movhi	r4,3
   22480:	210e5804 	addi	r4,r4,14688
   22484:	0023de80 	call	23de8 <puts>
	 OV8865DB("Write Read Test!\n");
   22488:	010000f4 	movhi	r4,3
   2248c:	210e6004 	addi	r4,r4,14720
   22490:	0023de80 	call	23de8 <puts>

	    for(i=0;i<10;i++){
   22494:	e03fff15 	stw	zero,-4(fp)
   22498:	00001406 	br	224ec <MipiCameraInit+0xb8>
	       OV8865_write_cmos_sensor_8(0x3809,i);
   2249c:	e0bfff17 	ldw	r2,-4(fp)
   224a0:	10803fcc 	andi	r2,r2,255
   224a4:	100b883a 	mov	r5,r2
   224a8:	010e0244 	movi	r4,14345
   224ac:	0021dd80 	call	21dd8 <OV8865_write_cmos_sensor_8>
	      usleep(100);
   224b0:	01001904 	movi	r4,100
   224b4:	0030e780 	call	30e78 <usleep>
	        printf("%d (%d)\n",OV8865_read_cmos_sensor_8(0x3809),i);
   224b8:	010e0244 	movi	r4,14345
   224bc:	0021d740 	call	21d74 <OV8865_read_cmos_sensor_8>
   224c0:	10803fcc 	andi	r2,r2,255
   224c4:	e1bfff17 	ldw	r6,-4(fp)
   224c8:	100b883a 	mov	r5,r2
   224cc:	010000f4 	movhi	r4,3
   224d0:	210e6504 	addi	r4,r4,14740
   224d4:	0023cc40 	call	23cc4 <printf>
	      usleep(100);
   224d8:	01001904 	movi	r4,100
   224dc:	0030e780 	call	30e78 <usleep>
	    for(i=0;i<10;i++){
   224e0:	e0bfff17 	ldw	r2,-4(fp)
   224e4:	10800044 	addi	r2,r2,1
   224e8:	e0bfff15 	stw	r2,-4(fp)
   224ec:	e0bfff17 	ldw	r2,-4(fp)
   224f0:	10800290 	cmplti	r2,r2,10
   224f4:	103fe91e 	bne	r2,zero,2249c <MipiCameraInit+0x68>
	    }
	 num = sizeof(MipiCameraReg)/sizeof(MipiCameraReg[0]);
   224f8:	00804f84 	movi	r2,318
   224fc:	e0bffd15 	stw	r2,-12(fp)
     for(i=0;i<num;i++){
   22500:	e03fff15 	stw	zero,-4(fp)
   22504:	00003306 	br	225d4 <MipiCameraInit+0x1a0>

    	 if (MipiCameraReg[i].Type == TIME_DELAY)   usleep(MipiCameraReg[i].Data*100);
   22508:	e0bfff17 	ldw	r2,-4(fp)
   2250c:	10c001a4 	muli	r3,r2,6
   22510:	008000f4 	movhi	r2,3
   22514:	1885883a 	add	r2,r3,r2
   22518:	10901203 	ldbu	r2,16456(r2)
   2251c:	10803fcc 	andi	r2,r2,255
   22520:	108000d8 	cmpnei	r2,r2,3
   22524:	10000a1e 	bne	r2,zero,22550 <MipiCameraInit+0x11c>
   22528:	e0bfff17 	ldw	r2,-4(fp)
   2252c:	10c001a4 	muli	r3,r2,6
   22530:	008000f4 	movhi	r2,3
   22534:	1885883a 	add	r2,r3,r2
   22538:	10901303 	ldbu	r2,16460(r2)
   2253c:	10803fcc 	andi	r2,r2,255
   22540:	10801924 	muli	r2,r2,100
   22544:	1009883a 	mov	r4,r2
   22548:	0030e780 	call	30e78 <usleep>
   2254c:	00001e06 	br	225c8 <MipiCameraInit+0x194>
    	 else if(MipiCameraReg[i].Type == END_OF_SCRIPT)   break;
   22550:	e0bfff17 	ldw	r2,-4(fp)
   22554:	10c001a4 	muli	r3,r2,6
   22558:	008000f4 	movhi	r2,3
   2255c:	1885883a 	add	r2,r3,r2
   22560:	10901203 	ldbu	r2,16456(r2)
   22564:	10803fcc 	andi	r2,r2,255
   22568:	10800118 	cmpnei	r2,r2,4
   2256c:	10001d26 	beq	r2,zero,225e4 <MipiCameraInit+0x1b0>
    	 else if(MipiCameraReg[i].Type == 0x6c)   OV8865_write_cmos_sensor_8(MipiCameraReg[i].Addr, MipiCameraReg[i].Data);
   22570:	e0bfff17 	ldw	r2,-4(fp)
   22574:	10c001a4 	muli	r3,r2,6
   22578:	008000f4 	movhi	r2,3
   2257c:	1885883a 	add	r2,r3,r2
   22580:	10901203 	ldbu	r2,16456(r2)
   22584:	10803fcc 	andi	r2,r2,255
   22588:	10801b18 	cmpnei	r2,r2,108
   2258c:	10000e1e 	bne	r2,zero,225c8 <MipiCameraInit+0x194>
   22590:	e0bfff17 	ldw	r2,-4(fp)
   22594:	10c001a4 	muli	r3,r2,6
   22598:	008000f4 	movhi	r2,3
   2259c:	1885883a 	add	r2,r3,r2
   225a0:	1090128b 	ldhu	r2,16458(r2)
   225a4:	113fffcc 	andi	r4,r2,65535
   225a8:	e0bfff17 	ldw	r2,-4(fp)
   225ac:	10c001a4 	muli	r3,r2,6
   225b0:	008000f4 	movhi	r2,3
   225b4:	1885883a 	add	r2,r3,r2
   225b8:	10901303 	ldbu	r2,16460(r2)
   225bc:	10803fcc 	andi	r2,r2,255
   225c0:	100b883a 	mov	r5,r2
   225c4:	0021dd80 	call	21dd8 <OV8865_write_cmos_sensor_8>
     for(i=0;i<num;i++){
   225c8:	e0bfff17 	ldw	r2,-4(fp)
   225cc:	10800044 	addi	r2,r2,1
   225d0:	e0bfff15 	stw	r2,-4(fp)
   225d4:	e0ffff17 	ldw	r3,-4(fp)
   225d8:	e0bffd17 	ldw	r2,-12(fp)
   225dc:	18bfca16 	blt	r3,r2,22508 <MipiCameraInit+0xd4>
   225e0:	00000106 	br	225e8 <MipiCameraInit+0x1b4>
    	 else if(MipiCameraReg[i].Type == END_OF_SCRIPT)   break;
   225e4:	0001883a 	nop
     }


 	oc_i2c_uninit(I2C_OPENCORES_CAMERA_BASE);  // Release I2C bus , due to two I2C master shared!
   225e8:	01000134 	movhi	r4,4
   225ec:	21041004 	addi	r4,r4,4160
   225f0:	00204c00 	call	204c0 <oc_i2c_uninit>



	 OV8865DB("\nEnd MipiCameraInit! -OV8865!\r\n\n");
   225f4:	010000f4 	movhi	r4,3
   225f8:	210e6804 	addi	r4,r4,14752
   225fc:	0023de80 	call	23de8 <puts>

}
   22600:	0001883a 	nop
   22604:	e037883a 	mov	sp,fp
   22608:	dfc00117 	ldw	ra,4(sp)
   2260c:	df000017 	ldw	fp,0(sp)
   22610:	dec00204 	addi	sp,sp,8
   22614:	f800283a 	ret

00022618 <QUEUE_New>:
#include "queue.h"




QUEUE_STRUCT* QUEUE_New(int nQueueNum){
   22618:	defffb04 	addi	sp,sp,-20
   2261c:	dfc00415 	stw	ra,16(sp)
   22620:	df000315 	stw	fp,12(sp)
   22624:	df000304 	addi	fp,sp,12
   22628:	e13ffd15 	stw	r4,-12(fp)
    int nSize;
    QUEUE_STRUCT *pQueue;
    nSize = sizeof(QUEUE_STRUCT)+nQueueNum*sizeof(alt_u32);
   2262c:	e0bffd17 	ldw	r2,-12(fp)
   22630:	10800144 	addi	r2,r2,5
   22634:	100490ba 	slli	r2,r2,2
   22638:	e0bfff15 	stw	r2,-4(fp)
    pQueue = (QUEUE_STRUCT *)malloc(nSize);
   2263c:	e0bfff17 	ldw	r2,-4(fp)
   22640:	1009883a 	mov	r4,r2
   22644:	00233400 	call	23340 <malloc>
   22648:	e0bffe15 	stw	r2,-8(fp)
    memset((void *)pQueue, 0, nSize);
   2264c:	e0bfff17 	ldw	r2,-4(fp)
   22650:	100d883a 	mov	r6,r2
   22654:	000b883a 	mov	r5,zero
   22658:	e13ffe17 	ldw	r4,-8(fp)
   2265c:	0023b400 	call	23b40 <memset>
    pQueue->num = nQueueNum;
   22660:	e0fffd17 	ldw	r3,-12(fp)
   22664:	e0bffe17 	ldw	r2,-8(fp)
   22668:	10c00015 	stw	r3,0(r2)
    return pQueue;
   2266c:	e0bffe17 	ldw	r2,-8(fp)
}
   22670:	e037883a 	mov	sp,fp
   22674:	dfc00117 	ldw	ra,4(sp)
   22678:	df000017 	ldw	fp,0(sp)
   2267c:	dec00204 	addi	sp,sp,8
   22680:	f800283a 	ret

00022684 <QUEUE_Delete>:

void QUEUE_Delete(QUEUE_STRUCT *pQueue){
   22684:	defffd04 	addi	sp,sp,-12
   22688:	dfc00215 	stw	ra,8(sp)
   2268c:	df000115 	stw	fp,4(sp)
   22690:	df000104 	addi	fp,sp,4
   22694:	e13fff15 	stw	r4,-4(fp)
    free(pQueue);
   22698:	e13fff17 	ldw	r4,-4(fp)
   2269c:	00233500 	call	23350 <free>
}
   226a0:	0001883a 	nop
   226a4:	e037883a 	mov	sp,fp
   226a8:	dfc00117 	ldw	ra,4(sp)
   226ac:	df000017 	ldw	fp,0(sp)
   226b0:	dec00204 	addi	sp,sp,8
   226b4:	f800283a 	ret

000226b8 <QUEUE_IsEmpty>:

bool QUEUE_IsEmpty(QUEUE_STRUCT *pQueue){
   226b8:	defffe04 	addi	sp,sp,-8
   226bc:	df000115 	stw	fp,4(sp)
   226c0:	df000104 	addi	fp,sp,4
   226c4:	e13fff15 	stw	r4,-4(fp)
    if (pQueue->front == pQueue->rear)
   226c8:	e0bfff17 	ldw	r2,-4(fp)
   226cc:	10c00117 	ldw	r3,4(r2)
   226d0:	e0bfff17 	ldw	r2,-4(fp)
   226d4:	10800217 	ldw	r2,8(r2)
   226d8:	1880021e 	bne	r3,r2,226e4 <QUEUE_IsEmpty+0x2c>
        return TRUE;
   226dc:	00800044 	movi	r2,1
   226e0:	00000106 	br	226e8 <QUEUE_IsEmpty+0x30>
    return FALSE;
   226e4:	0005883a 	mov	r2,zero
}
   226e8:	e037883a 	mov	sp,fp
   226ec:	df000017 	ldw	fp,0(sp)
   226f0:	dec00104 	addi	sp,sp,4
   226f4:	f800283a 	ret

000226f8 <QUEUE_IsFull>:

bool QUEUE_IsFull(QUEUE_STRUCT *pQueue){
   226f8:	defffd04 	addi	sp,sp,-12
   226fc:	dfc00215 	stw	ra,8(sp)
   22700:	df000115 	stw	fp,4(sp)
   22704:	df000104 	addi	fp,sp,4
   22708:	e13fff15 	stw	r4,-4(fp)
    if (((pQueue->front+1)%pQueue->num) == pQueue->rear)
   2270c:	e0bfff17 	ldw	r2,-4(fp)
   22710:	10800117 	ldw	r2,4(r2)
   22714:	10c00044 	addi	r3,r2,1
   22718:	e0bfff17 	ldw	r2,-4(fp)
   2271c:	10800017 	ldw	r2,0(r2)
   22720:	100b883a 	mov	r5,r2
   22724:	1809883a 	mov	r4,r3
   22728:	0022a040 	call	22a04 <__umodsi3>
   2272c:	1007883a 	mov	r3,r2
   22730:	e0bfff17 	ldw	r2,-4(fp)
   22734:	10800217 	ldw	r2,8(r2)
   22738:	1880021e 	bne	r3,r2,22744 <QUEUE_IsFull+0x4c>
        return TRUE;
   2273c:	00800044 	movi	r2,1
   22740:	00000106 	br	22748 <QUEUE_IsFull+0x50>
    return FALSE;
   22744:	0005883a 	mov	r2,zero
}
   22748:	e037883a 	mov	sp,fp
   2274c:	dfc00117 	ldw	ra,4(sp)
   22750:	df000017 	ldw	fp,0(sp)
   22754:	dec00204 	addi	sp,sp,8
   22758:	f800283a 	ret

0002275c <QUEUE_Push>:

bool QUEUE_Push(QUEUE_STRUCT *pQueue, alt_u32 data32){
   2275c:	defffc04 	addi	sp,sp,-16
   22760:	dfc00315 	stw	ra,12(sp)
   22764:	df000215 	stw	fp,8(sp)
   22768:	df000204 	addi	fp,sp,8
   2276c:	e13fff15 	stw	r4,-4(fp)
   22770:	e17ffe15 	stw	r5,-8(fp)
    if (QUEUE_IsFull(pQueue))
   22774:	e13fff17 	ldw	r4,-4(fp)
   22778:	00226f80 	call	226f8 <QUEUE_IsFull>
   2277c:	10000226 	beq	r2,zero,22788 <QUEUE_Push+0x2c>
        return FALSE;
   22780:	0005883a 	mov	r2,zero
   22784:	00001406 	br	227d8 <QUEUE_Push+0x7c>
    pQueue->data[pQueue->front] = data32;
   22788:	e0bfff17 	ldw	r2,-4(fp)
   2278c:	10800117 	ldw	r2,4(r2)
   22790:	e0ffff17 	ldw	r3,-4(fp)
   22794:	108000c4 	addi	r2,r2,3
   22798:	100490ba 	slli	r2,r2,2
   2279c:	1885883a 	add	r2,r3,r2
   227a0:	e0fffe17 	ldw	r3,-8(fp)
   227a4:	10c00015 	stw	r3,0(r2)
    pQueue->front = (pQueue->front+1)%pQueue->num;        
   227a8:	e0bfff17 	ldw	r2,-4(fp)
   227ac:	10800117 	ldw	r2,4(r2)
   227b0:	10c00044 	addi	r3,r2,1
   227b4:	e0bfff17 	ldw	r2,-4(fp)
   227b8:	10800017 	ldw	r2,0(r2)
   227bc:	100b883a 	mov	r5,r2
   227c0:	1809883a 	mov	r4,r3
   227c4:	0022a040 	call	22a04 <__umodsi3>
   227c8:	1007883a 	mov	r3,r2
   227cc:	e0bfff17 	ldw	r2,-4(fp)
   227d0:	10c00115 	stw	r3,4(r2)
    return TRUE;
   227d4:	00800044 	movi	r2,1
}
   227d8:	e037883a 	mov	sp,fp
   227dc:	dfc00117 	ldw	ra,4(sp)
   227e0:	df000017 	ldw	fp,0(sp)
   227e4:	dec00204 	addi	sp,sp,8
   227e8:	f800283a 	ret

000227ec <QUEUE_Pop>:

alt_u32 QUEUE_Pop(QUEUE_STRUCT *pQueue){
   227ec:	defffc04 	addi	sp,sp,-16
   227f0:	dfc00315 	stw	ra,12(sp)
   227f4:	df000215 	stw	fp,8(sp)
   227f8:	df000204 	addi	fp,sp,8
   227fc:	e13ffe15 	stw	r4,-8(fp)
    alt_u32 data32;
    if (QUEUE_IsEmpty(pQueue))
   22800:	e13ffe17 	ldw	r4,-8(fp)
   22804:	00226b80 	call	226b8 <QUEUE_IsEmpty>
   22808:	10000226 	beq	r2,zero,22814 <QUEUE_Pop+0x28>
        return 0;
   2280c:	0005883a 	mov	r2,zero
   22810:	00001406 	br	22864 <QUEUE_Pop+0x78>
    data32 = pQueue->data[pQueue->rear];
   22814:	e0bffe17 	ldw	r2,-8(fp)
   22818:	10800217 	ldw	r2,8(r2)
   2281c:	e0fffe17 	ldw	r3,-8(fp)
   22820:	108000c4 	addi	r2,r2,3
   22824:	100490ba 	slli	r2,r2,2
   22828:	1885883a 	add	r2,r3,r2
   2282c:	10800017 	ldw	r2,0(r2)
   22830:	e0bfff15 	stw	r2,-4(fp)
    pQueue->rear = (pQueue->rear+1)%pQueue->num;        
   22834:	e0bffe17 	ldw	r2,-8(fp)
   22838:	10800217 	ldw	r2,8(r2)
   2283c:	10c00044 	addi	r3,r2,1
   22840:	e0bffe17 	ldw	r2,-8(fp)
   22844:	10800017 	ldw	r2,0(r2)
   22848:	100b883a 	mov	r5,r2
   2284c:	1809883a 	mov	r4,r3
   22850:	0022a040 	call	22a04 <__umodsi3>
   22854:	1007883a 	mov	r3,r2
   22858:	e0bffe17 	ldw	r2,-8(fp)
   2285c:	10c00215 	stw	r3,8(r2)
    return data32;
   22860:	e0bfff17 	ldw	r2,-4(fp)
}
   22864:	e037883a 	mov	sp,fp
   22868:	dfc00117 	ldw	ra,4(sp)
   2286c:	df000017 	ldw	fp,0(sp)
   22870:	dec00204 	addi	sp,sp,8
   22874:	f800283a 	ret

00022878 <QUEUE_Empty>:

void QUEUE_Empty(QUEUE_STRUCT *pQueue){
   22878:	defffe04 	addi	sp,sp,-8
   2287c:	df000115 	stw	fp,4(sp)
   22880:	df000104 	addi	fp,sp,4
   22884:	e13fff15 	stw	r4,-4(fp)
    pQueue->front = 0;
   22888:	e0bfff17 	ldw	r2,-4(fp)
   2288c:	10000115 	stw	zero,4(r2)
    pQueue->rear = 0;
   22890:	e0bfff17 	ldw	r2,-4(fp)
   22894:	10000215 	stw	zero,8(r2)
}
   22898:	0001883a 	nop
   2289c:	e037883a 	mov	sp,fp
   228a0:	df000017 	ldw	fp,0(sp)
   228a4:	dec00104 	addi	sp,sp,4
   228a8:	f800283a 	ret

000228ac <__divsi3>:
   228ac:	20001a16 	blt	r4,zero,22918 <__divsi3+0x6c>
   228b0:	000f883a 	mov	r7,zero
   228b4:	2800020e 	bge	r5,zero,228c0 <__divsi3+0x14>
   228b8:	014bc83a 	sub	r5,zero,r5
   228bc:	39c0005c 	xori	r7,r7,1
   228c0:	200d883a 	mov	r6,r4
   228c4:	00c00044 	movi	r3,1
   228c8:	2900092e 	bgeu	r5,r4,228f0 <__divsi3+0x44>
   228cc:	00800804 	movi	r2,32
   228d0:	00c00044 	movi	r3,1
   228d4:	00000106 	br	228dc <__divsi3+0x30>
   228d8:	10001226 	beq	r2,zero,22924 <__divsi3+0x78>
   228dc:	294b883a 	add	r5,r5,r5
   228e0:	10bfffc4 	addi	r2,r2,-1
   228e4:	18c7883a 	add	r3,r3,r3
   228e8:	293ffb36 	bltu	r5,r4,228d8 <__divsi3+0x2c>
   228ec:	18000d26 	beq	r3,zero,22924 <__divsi3+0x78>
   228f0:	0005883a 	mov	r2,zero
   228f4:	31400236 	bltu	r6,r5,22900 <__divsi3+0x54>
   228f8:	314dc83a 	sub	r6,r6,r5
   228fc:	10c4b03a 	or	r2,r2,r3
   22900:	1806d07a 	srli	r3,r3,1
   22904:	280ad07a 	srli	r5,r5,1
   22908:	183ffa1e 	bne	r3,zero,228f4 <__divsi3+0x48>
   2290c:	38000126 	beq	r7,zero,22914 <__divsi3+0x68>
   22910:	0085c83a 	sub	r2,zero,r2
   22914:	f800283a 	ret
   22918:	0109c83a 	sub	r4,zero,r4
   2291c:	01c00044 	movi	r7,1
   22920:	003fe406 	br	228b4 <__divsi3+0x8>
   22924:	0005883a 	mov	r2,zero
   22928:	003ff806 	br	2290c <__divsi3+0x60>

0002292c <__modsi3>:
   2292c:	20001916 	blt	r4,zero,22994 <__modsi3+0x68>
   22930:	000f883a 	mov	r7,zero
   22934:	2005883a 	mov	r2,r4
   22938:	2800010e 	bge	r5,zero,22940 <__modsi3+0x14>
   2293c:	014bc83a 	sub	r5,zero,r5
   22940:	00c00044 	movi	r3,1
   22944:	2900092e 	bgeu	r5,r4,2296c <__modsi3+0x40>
   22948:	01800804 	movi	r6,32
   2294c:	00c00044 	movi	r3,1
   22950:	00000106 	br	22958 <__modsi3+0x2c>
   22954:	30000d26 	beq	r6,zero,2298c <__modsi3+0x60>
   22958:	294b883a 	add	r5,r5,r5
   2295c:	31bfffc4 	addi	r6,r6,-1
   22960:	18c7883a 	add	r3,r3,r3
   22964:	293ffb36 	bltu	r5,r4,22954 <__modsi3+0x28>
   22968:	18000826 	beq	r3,zero,2298c <__modsi3+0x60>
   2296c:	1806d07a 	srli	r3,r3,1
   22970:	11400136 	bltu	r2,r5,22978 <__modsi3+0x4c>
   22974:	1145c83a 	sub	r2,r2,r5
   22978:	280ad07a 	srli	r5,r5,1
   2297c:	183ffb1e 	bne	r3,zero,2296c <__modsi3+0x40>
   22980:	38000126 	beq	r7,zero,22988 <__modsi3+0x5c>
   22984:	0085c83a 	sub	r2,zero,r2
   22988:	f800283a 	ret
   2298c:	2005883a 	mov	r2,r4
   22990:	003ffb06 	br	22980 <__modsi3+0x54>
   22994:	0109c83a 	sub	r4,zero,r4
   22998:	01c00044 	movi	r7,1
   2299c:	003fe506 	br	22934 <__modsi3+0x8>

000229a0 <__udivsi3>:
   229a0:	200d883a 	mov	r6,r4
   229a4:	2900152e 	bgeu	r5,r4,229fc <__udivsi3+0x5c>
   229a8:	28001416 	blt	r5,zero,229fc <__udivsi3+0x5c>
   229ac:	00800804 	movi	r2,32
   229b0:	00c00044 	movi	r3,1
   229b4:	00000206 	br	229c0 <__udivsi3+0x20>
   229b8:	10000e26 	beq	r2,zero,229f4 <__udivsi3+0x54>
   229bc:	28000516 	blt	r5,zero,229d4 <__udivsi3+0x34>
   229c0:	294b883a 	add	r5,r5,r5
   229c4:	10bfffc4 	addi	r2,r2,-1
   229c8:	18c7883a 	add	r3,r3,r3
   229cc:	293ffa36 	bltu	r5,r4,229b8 <__udivsi3+0x18>
   229d0:	18000826 	beq	r3,zero,229f4 <__udivsi3+0x54>
   229d4:	0005883a 	mov	r2,zero
   229d8:	31400236 	bltu	r6,r5,229e4 <__udivsi3+0x44>
   229dc:	314dc83a 	sub	r6,r6,r5
   229e0:	10c4b03a 	or	r2,r2,r3
   229e4:	1806d07a 	srli	r3,r3,1
   229e8:	280ad07a 	srli	r5,r5,1
   229ec:	183ffa1e 	bne	r3,zero,229d8 <__udivsi3+0x38>
   229f0:	f800283a 	ret
   229f4:	0005883a 	mov	r2,zero
   229f8:	f800283a 	ret
   229fc:	00c00044 	movi	r3,1
   22a00:	003ff406 	br	229d4 <__udivsi3+0x34>

00022a04 <__umodsi3>:
   22a04:	2005883a 	mov	r2,r4
   22a08:	2900132e 	bgeu	r5,r4,22a58 <__umodsi3+0x54>
   22a0c:	28001216 	blt	r5,zero,22a58 <__umodsi3+0x54>
   22a10:	01800804 	movi	r6,32
   22a14:	00c00044 	movi	r3,1
   22a18:	00000206 	br	22a24 <__umodsi3+0x20>
   22a1c:	30000c26 	beq	r6,zero,22a50 <__umodsi3+0x4c>
   22a20:	28000516 	blt	r5,zero,22a38 <__umodsi3+0x34>
   22a24:	294b883a 	add	r5,r5,r5
   22a28:	31bfffc4 	addi	r6,r6,-1
   22a2c:	18c7883a 	add	r3,r3,r3
   22a30:	293ffa36 	bltu	r5,r4,22a1c <__umodsi3+0x18>
   22a34:	18000626 	beq	r3,zero,22a50 <__umodsi3+0x4c>
   22a38:	1806d07a 	srli	r3,r3,1
   22a3c:	11400136 	bltu	r2,r5,22a44 <__umodsi3+0x40>
   22a40:	1145c83a 	sub	r2,r2,r5
   22a44:	280ad07a 	srli	r5,r5,1
   22a48:	183ffb1e 	bne	r3,zero,22a38 <__umodsi3+0x34>
   22a4c:	f800283a 	ret
   22a50:	2005883a 	mov	r2,r4
   22a54:	f800283a 	ret
   22a58:	00c00044 	movi	r3,1
   22a5c:	003ff606 	br	22a38 <__umodsi3+0x34>

00022a60 <_fopen_r>:
   22a60:	defffa04 	addi	sp,sp,-24
   22a64:	3007883a 	mov	r3,r6
   22a68:	dcc00415 	stw	r19,16(sp)
   22a6c:	d80d883a 	mov	r6,sp
   22a70:	2827883a 	mov	r19,r5
   22a74:	180b883a 	mov	r5,r3
   22a78:	dc800315 	stw	r18,12(sp)
   22a7c:	dfc00515 	stw	ra,20(sp)
   22a80:	dc400215 	stw	r17,8(sp)
   22a84:	dc000115 	stw	r16,4(sp)
   22a88:	2025883a 	mov	r18,r4
   22a8c:	00285200 	call	28520 <__sflags>
   22a90:	10002726 	beq	r2,zero,22b30 <_fopen_r+0xd0>
   22a94:	9009883a 	mov	r4,r18
   22a98:	1023883a 	mov	r17,r2
   22a9c:	00283c80 	call	283c8 <__sfp>
   22aa0:	1021883a 	mov	r16,r2
   22aa4:	10002226 	beq	r2,zero,22b30 <_fopen_r+0xd0>
   22aa8:	d9800017 	ldw	r6,0(sp)
   22aac:	01c06d84 	movi	r7,438
   22ab0:	980b883a 	mov	r5,r19
   22ab4:	9009883a 	mov	r4,r18
   22ab8:	0023c300 	call	23c30 <_open_r>
   22abc:	10001916 	blt	r2,zero,22b24 <_fopen_r+0xc4>
   22ac0:	018000b4 	movhi	r6,2
   22ac4:	014000b4 	movhi	r5,2
   22ac8:	010000b4 	movhi	r4,2
   22acc:	00c000b4 	movhi	r3,2
   22ad0:	31900e04 	addi	r6,r6,16440
   22ad4:	29502504 	addi	r5,r5,16532
   22ad8:	21104504 	addi	r4,r4,16660
   22adc:	18d05c04 	addi	r3,r3,16752
   22ae0:	8440030d 	sth	r17,12(r16)
   22ae4:	8080038d 	sth	r2,14(r16)
   22ae8:	84000715 	stw	r16,28(r16)
   22aec:	81800815 	stw	r6,32(r16)
   22af0:	81400915 	stw	r5,36(r16)
   22af4:	81000a15 	stw	r4,40(r16)
   22af8:	80c00b15 	stw	r3,44(r16)
   22afc:	8c40400c 	andi	r17,r17,256
   22b00:	88000d1e 	bne	r17,zero,22b38 <_fopen_r+0xd8>
   22b04:	8005883a 	mov	r2,r16
   22b08:	dfc00517 	ldw	ra,20(sp)
   22b0c:	dcc00417 	ldw	r19,16(sp)
   22b10:	dc800317 	ldw	r18,12(sp)
   22b14:	dc400217 	ldw	r17,8(sp)
   22b18:	dc000117 	ldw	r16,4(sp)
   22b1c:	dec00604 	addi	sp,sp,24
   22b20:	f800283a 	ret
   22b24:	00284e80 	call	284e8 <__sfp_lock_acquire>
   22b28:	8000030d 	sth	zero,12(r16)
   22b2c:	00284ec0 	call	284ec <__sfp_lock_release>
   22b30:	0021883a 	mov	r16,zero
   22b34:	003ff306 	br	22b04 <_fopen_r+0xa4>
   22b38:	01c00084 	movi	r7,2
   22b3c:	000d883a 	mov	r6,zero
   22b40:	800b883a 	mov	r5,r16
   22b44:	9009883a 	mov	r4,r18
   22b48:	0022b680 	call	22b68 <_fseek_r>
   22b4c:	003fed06 	br	22b04 <_fopen_r+0xa4>

00022b50 <fopen>:
   22b50:	00c000f4 	movhi	r3,3
   22b54:	2005883a 	mov	r2,r4
   22b58:	19190c17 	ldw	r4,25648(r3)
   22b5c:	280d883a 	mov	r6,r5
   22b60:	100b883a 	mov	r5,r2
   22b64:	0022a601 	jmpi	22a60 <_fopen_r>

00022b68 <_fseek_r>:
   22b68:	0022b881 	jmpi	22b88 <_fseeko_r>

00022b6c <fseek>:
   22b6c:	00c000f4 	movhi	r3,3
   22b70:	2005883a 	mov	r2,r4
   22b74:	19190c17 	ldw	r4,25648(r3)
   22b78:	300f883a 	mov	r7,r6
   22b7c:	280d883a 	mov	r6,r5
   22b80:	100b883a 	mov	r5,r2
   22b84:	0022b881 	jmpi	22b88 <_fseeko_r>

00022b88 <_fseeko_r>:
   22b88:	deffe504 	addi	sp,sp,-108
   22b8c:	dd401715 	stw	r21,92(sp)
   22b90:	dcc01515 	stw	r19,84(sp)
   22b94:	dc401315 	stw	r17,76(sp)
   22b98:	dc001215 	stw	r16,72(sp)
   22b9c:	dfc01a15 	stw	ra,104(sp)
   22ba0:	ddc01915 	stw	r23,100(sp)
   22ba4:	dd801815 	stw	r22,96(sp)
   22ba8:	dd001615 	stw	r20,88(sp)
   22bac:	dc801415 	stw	r18,80(sp)
   22bb0:	2023883a 	mov	r17,r4
   22bb4:	2821883a 	mov	r16,r5
   22bb8:	3027883a 	mov	r19,r6
   22bbc:	382b883a 	mov	r21,r7
   22bc0:	20000226 	beq	r4,zero,22bcc <_fseeko_r+0x44>
   22bc4:	20800e17 	ldw	r2,56(r4)
   22bc8:	10001a26 	beq	r2,zero,22c34 <_fseeko_r+0xac>
   22bcc:	8080030b 	ldhu	r2,12(r16)
   22bd0:	1080420c 	andi	r2,r2,264
   22bd4:	10804218 	cmpnei	r2,r2,264
   22bd8:	10001b26 	beq	r2,zero,22c48 <_fseeko_r+0xc0>
   22bdc:	85000a17 	ldw	r20,40(r16)
   22be0:	a000fa26 	beq	r20,zero,22fcc <_fseeko_r+0x444>
   22be4:	a8800060 	cmpeqi	r2,r21,1
   22be8:	10004a1e 	bne	r2,zero,22d14 <_fseeko_r+0x18c>
   22bec:	04bfff44 	movi	r18,-3
   22bf0:	aca4703a 	and	r18,r21,r18
   22bf4:	90001826 	beq	r18,zero,22c58 <_fseeko_r+0xd0>
   22bf8:	00800584 	movi	r2,22
   22bfc:	88800015 	stw	r2,0(r17)
   22c00:	04bfffc4 	movi	r18,-1
   22c04:	9005883a 	mov	r2,r18
   22c08:	dfc01a17 	ldw	ra,104(sp)
   22c0c:	ddc01917 	ldw	r23,100(sp)
   22c10:	dd801817 	ldw	r22,96(sp)
   22c14:	dd401717 	ldw	r21,92(sp)
   22c18:	dd001617 	ldw	r20,88(sp)
   22c1c:	dcc01517 	ldw	r19,84(sp)
   22c20:	dc801417 	ldw	r18,80(sp)
   22c24:	dc401317 	ldw	r17,76(sp)
   22c28:	dc001217 	ldw	r16,72(sp)
   22c2c:	dec01b04 	addi	sp,sp,108
   22c30:	f800283a 	ret
   22c34:	00284d80 	call	284d8 <__sinit>
   22c38:	8080030b 	ldhu	r2,12(r16)
   22c3c:	1080420c 	andi	r2,r2,264
   22c40:	10804218 	cmpnei	r2,r2,264
   22c44:	103fe51e 	bne	r2,zero,22bdc <_fseeko_r+0x54>
   22c48:	800b883a 	mov	r5,r16
   22c4c:	8809883a 	mov	r4,r17
   22c50:	00281540 	call	28154 <_fflush_r>
   22c54:	003fe106 	br	22bdc <_fseeko_r+0x54>
   22c58:	81000417 	ldw	r4,16(r16)
   22c5c:	002f883a 	mov	r23,zero
   22c60:	20004826 	beq	r4,zero,22d84 <_fseeko_r+0x1fc>
   22c64:	8080030b 	ldhu	r2,12(r16)
   22c68:	10c2068c 	andi	r3,r2,2074
   22c6c:	1800071e 	bne	r3,zero,22c8c <_fseeko_r+0x104>
   22c70:	10c1000c 	andi	r3,r2,1024
   22c74:	1800561e 	bne	r3,zero,22dd0 <_fseeko_r+0x248>
   22c78:	00c000b4 	movhi	r3,2
   22c7c:	18d04504 	addi	r3,r3,16660
   22c80:	a0c04426 	beq	r20,r3,22d94 <_fseeko_r+0x20c>
   22c84:	10820014 	ori	r2,r2,2048
   22c88:	8080030d 	sth	r2,12(r16)
   22c8c:	800b883a 	mov	r5,r16
   22c90:	8809883a 	mov	r4,r17
   22c94:	00281540 	call	28154 <_fflush_r>
   22c98:	1025883a 	mov	r18,r2
   22c9c:	103fd81e 	bne	r2,zero,22c00 <_fseeko_r+0x78>
   22ca0:	81400717 	ldw	r5,28(r16)
   22ca4:	a80f883a 	mov	r7,r21
   22ca8:	980d883a 	mov	r6,r19
   22cac:	8809883a 	mov	r4,r17
   22cb0:	a03ee83a 	callr	r20
   22cb4:	10bfffe0 	cmpeqi	r2,r2,-1
   22cb8:	103fd11e 	bne	r2,zero,22c00 <_fseeko_r+0x78>
   22cbc:	81400c17 	ldw	r5,48(r16)
   22cc0:	28000526 	beq	r5,zero,22cd8 <_fseeko_r+0x150>
   22cc4:	80801004 	addi	r2,r16,64
   22cc8:	28800226 	beq	r5,r2,22cd4 <_fseeko_r+0x14c>
   22ccc:	8809883a 	mov	r4,r17
   22cd0:	00286f40 	call	286f4 <_free_r>
   22cd4:	80000c15 	stw	zero,48(r16)
   22cd8:	8080030b 	ldhu	r2,12(r16)
   22cdc:	80c00417 	ldw	r3,16(r16)
   22ce0:	80000115 	stw	zero,4(r16)
   22ce4:	10bdf7cc 	andi	r2,r2,63455
   22ce8:	80c00015 	stw	r3,0(r16)
   22cec:	8080030d 	sth	r2,12(r16)
   22cf0:	80001705 	stb	zero,92(r16)
   22cf4:	80001745 	stb	zero,93(r16)
   22cf8:	80001785 	stb	zero,94(r16)
   22cfc:	800017c5 	stb	zero,95(r16)
   22d00:	80001805 	stb	zero,96(r16)
   22d04:	80001845 	stb	zero,97(r16)
   22d08:	80001885 	stb	zero,98(r16)
   22d0c:	800018c5 	stb	zero,99(r16)
   22d10:	003fbc06 	br	22c04 <_fseeko_r+0x7c>
   22d14:	800b883a 	mov	r5,r16
   22d18:	8809883a 	mov	r4,r17
   22d1c:	00281540 	call	28154 <_fflush_r>
   22d20:	8080030b 	ldhu	r2,12(r16)
   22d24:	10c4000c 	andi	r3,r2,4096
   22d28:	18006e1e 	bne	r3,zero,22ee4 <_fseeko_r+0x35c>
   22d2c:	81400717 	ldw	r5,28(r16)
   22d30:	01c00044 	movi	r7,1
   22d34:	000d883a 	mov	r6,zero
   22d38:	8809883a 	mov	r4,r17
   22d3c:	a03ee83a 	callr	r20
   22d40:	1025883a 	mov	r18,r2
   22d44:	10bfffd8 	cmpnei	r2,r2,-1
   22d48:	103fad26 	beq	r2,zero,22c00 <_fseeko_r+0x78>
   22d4c:	8080030b 	ldhu	r2,12(r16)
   22d50:	81000417 	ldw	r4,16(r16)
   22d54:	10c0010c 	andi	r3,r2,4
   22d58:	18006626 	beq	r3,zero,22ef4 <_fseeko_r+0x36c>
   22d5c:	80c00117 	ldw	r3,4(r16)
   22d60:	80800c17 	ldw	r2,48(r16)
   22d64:	90e5c83a 	sub	r18,r18,r3
   22d68:	10000226 	beq	r2,zero,22d74 <_fseeko_r+0x1ec>
   22d6c:	81800f17 	ldw	r6,60(r16)
   22d70:	91a5c83a 	sub	r18,r18,r6
   22d74:	9ca7883a 	add	r19,r19,r18
   22d78:	05c00044 	movi	r23,1
   22d7c:	002b883a 	mov	r21,zero
   22d80:	203fb81e 	bne	r4,zero,22c64 <_fseeko_r+0xdc>
   22d84:	800b883a 	mov	r5,r16
   22d88:	8809883a 	mov	r4,r17
   22d8c:	00232000 	call	23200 <__smakebuf_r>
   22d90:	003fb406 	br	22c64 <_fseeko_r+0xdc>
   22d94:	8140038f 	ldh	r5,14(r16)
   22d98:	283fba16 	blt	r5,zero,22c84 <_fseeko_r+0xfc>
   22d9c:	d80d883a 	mov	r6,sp
   22da0:	8809883a 	mov	r4,r17
   22da4:	0022ff80 	call	22ff8 <_fstat_r>
   22da8:	1000761e 	bne	r2,zero,22f84 <_fseeko_r+0x3fc>
   22dac:	d8c00117 	ldw	r3,4(sp)
   22db0:	01200014 	movui	r4,32768
   22db4:	8080030b 	ldhu	r2,12(r16)
   22db8:	18fc000c 	andi	r3,r3,61440
   22dbc:	193fb11e 	bne	r3,r4,22c84 <_fseeko_r+0xfc>
   22dc0:	10810014 	ori	r2,r2,1024
   22dc4:	00c10004 	movi	r3,1024
   22dc8:	80c01315 	stw	r3,76(r16)
   22dcc:	8080030d 	sth	r2,12(r16)
   22dd0:	a8004f1e 	bne	r21,zero,22f10 <_fseeko_r+0x388>
   22dd4:	982d883a 	mov	r22,r19
   22dd8:	b800551e 	bne	r23,zero,22f30 <_fseeko_r+0x3a8>
   22ddc:	8080030b 	ldhu	r2,12(r16)
   22de0:	1084000c 	andi	r2,r2,4096
   22de4:	10005f26 	beq	r2,zero,22f64 <_fseeko_r+0x3dc>
   22de8:	80801417 	ldw	r2,80(r16)
   22dec:	80c00117 	ldw	r3,4(r16)
   22df0:	81400c17 	ldw	r5,48(r16)
   22df4:	1809883a 	mov	r4,r3
   22df8:	10e5c83a 	sub	r18,r2,r3
   22dfc:	28005226 	beq	r5,zero,22f48 <_fseeko_r+0x3c0>
   22e00:	81800f17 	ldw	r6,60(r16)
   22e04:	91a5c83a 	sub	r18,r18,r6
   22e08:	80800e17 	ldw	r2,56(r16)
   22e0c:	81c00417 	ldw	r7,16(r16)
   22e10:	90e5883a 	add	r18,r18,r3
   22e14:	11c5c83a 	sub	r2,r2,r7
   22e18:	90a5c83a 	sub	r18,r18,r2
   22e1c:	1185883a 	add	r2,r2,r6
   22e20:	b4800216 	blt	r22,r18,22e2c <_fseeko_r+0x2a4>
   22e24:	9087883a 	add	r3,r18,r2
   22e28:	b0c05836 	bltu	r22,r3,22f8c <_fseeko_r+0x404>
   22e2c:	84801317 	ldw	r18,76(r16)
   22e30:	81400717 	ldw	r5,28(r16)
   22e34:	000f883a 	mov	r7,zero
   22e38:	04a5c83a 	sub	r18,zero,r18
   22e3c:	95a4703a 	and	r18,r18,r22
   22e40:	900d883a 	mov	r6,r18
   22e44:	8809883a 	mov	r4,r17
   22e48:	a03ee83a 	callr	r20
   22e4c:	10bfffe0 	cmpeqi	r2,r2,-1
   22e50:	103f8e1e 	bne	r2,zero,22c8c <_fseeko_r+0x104>
   22e54:	80800417 	ldw	r2,16(r16)
   22e58:	81400c17 	ldw	r5,48(r16)
   22e5c:	80000115 	stw	zero,4(r16)
   22e60:	80800015 	stw	r2,0(r16)
   22e64:	28000526 	beq	r5,zero,22e7c <_fseeko_r+0x2f4>
   22e68:	80801004 	addi	r2,r16,64
   22e6c:	28800226 	beq	r5,r2,22e78 <_fseeko_r+0x2f0>
   22e70:	8809883a 	mov	r4,r17
   22e74:	00286f40 	call	286f4 <_free_r>
   22e78:	80000c15 	stw	zero,48(r16)
   22e7c:	8080030b 	ldhu	r2,12(r16)
   22e80:	b4afc83a 	sub	r23,r22,r18
   22e84:	10bff7cc 	andi	r2,r2,65503
   22e88:	8080030d 	sth	r2,12(r16)
   22e8c:	b4800b26 	beq	r22,r18,22ebc <_fseeko_r+0x334>
   22e90:	800b883a 	mov	r5,r16
   22e94:	8809883a 	mov	r4,r17
   22e98:	0023e140 	call	23e14 <__srefill_r>
   22e9c:	103f7b1e 	bne	r2,zero,22c8c <_fseeko_r+0x104>
   22ea0:	80800117 	ldw	r2,4(r16)
   22ea4:	15ff7936 	bltu	r2,r23,22c8c <_fseeko_r+0x104>
   22ea8:	80c00017 	ldw	r3,0(r16)
   22eac:	15c5c83a 	sub	r2,r2,r23
   22eb0:	80800115 	stw	r2,4(r16)
   22eb4:	1def883a 	add	r23,r3,r23
   22eb8:	85c00015 	stw	r23,0(r16)
   22ebc:	80001705 	stb	zero,92(r16)
   22ec0:	80001745 	stb	zero,93(r16)
   22ec4:	80001785 	stb	zero,94(r16)
   22ec8:	800017c5 	stb	zero,95(r16)
   22ecc:	80001805 	stb	zero,96(r16)
   22ed0:	80001845 	stb	zero,97(r16)
   22ed4:	80001885 	stb	zero,98(r16)
   22ed8:	800018c5 	stb	zero,99(r16)
   22edc:	0025883a 	mov	r18,zero
   22ee0:	003f4806 	br	22c04 <_fseeko_r+0x7c>
   22ee4:	10c0010c 	andi	r3,r2,4
   22ee8:	84801417 	ldw	r18,80(r16)
   22eec:	81000417 	ldw	r4,16(r16)
   22ef0:	183f9a1e 	bne	r3,zero,22d5c <_fseeko_r+0x1d4>
   22ef4:	1080020c 	andi	r2,r2,8
   22ef8:	103f9e26 	beq	r2,zero,22d74 <_fseeko_r+0x1ec>
   22efc:	80800017 	ldw	r2,0(r16)
   22f00:	103f9c26 	beq	r2,zero,22d74 <_fseeko_r+0x1ec>
   22f04:	1105c83a 	sub	r2,r2,r4
   22f08:	90a5883a 	add	r18,r18,r2
   22f0c:	003f9906 	br	22d74 <_fseeko_r+0x1ec>
   22f10:	8140038f 	ldh	r5,14(r16)
   22f14:	d80d883a 	mov	r6,sp
   22f18:	8809883a 	mov	r4,r17
   22f1c:	0022ff80 	call	22ff8 <_fstat_r>
   22f20:	103f5a1e 	bne	r2,zero,22c8c <_fseeko_r+0x104>
   22f24:	dd800417 	ldw	r22,16(sp)
   22f28:	9dad883a 	add	r22,r19,r22
   22f2c:	b83fab26 	beq	r23,zero,22ddc <_fseeko_r+0x254>
   22f30:	81400c17 	ldw	r5,48(r16)
   22f34:	28000326 	beq	r5,zero,22f44 <_fseeko_r+0x3bc>
   22f38:	80c00117 	ldw	r3,4(r16)
   22f3c:	81800f17 	ldw	r6,60(r16)
   22f40:	003fb106 	br	22e08 <_fseeko_r+0x280>
   22f44:	81000117 	ldw	r4,4(r16)
   22f48:	80800017 	ldw	r2,0(r16)
   22f4c:	81c00417 	ldw	r7,16(r16)
   22f50:	000b883a 	mov	r5,zero
   22f54:	11c5c83a 	sub	r2,r2,r7
   22f58:	90a5c83a 	sub	r18,r18,r2
   22f5c:	2085883a 	add	r2,r4,r2
   22f60:	003faf06 	br	22e20 <_fseeko_r+0x298>
   22f64:	81400717 	ldw	r5,28(r16)
   22f68:	01c00044 	movi	r7,1
   22f6c:	000d883a 	mov	r6,zero
   22f70:	8809883a 	mov	r4,r17
   22f74:	a03ee83a 	callr	r20
   22f78:	10ffffe0 	cmpeqi	r3,r2,-1
   22f7c:	183f9b26 	beq	r3,zero,22dec <_fseeko_r+0x264>
   22f80:	003f4206 	br	22c8c <_fseeko_r+0x104>
   22f84:	8080030b 	ldhu	r2,12(r16)
   22f88:	003f3e06 	br	22c84 <_fseeko_r+0xfc>
   22f8c:	b4a5c83a 	sub	r18,r22,r18
   22f90:	3c8f883a 	add	r7,r7,r18
   22f94:	14a5c83a 	sub	r18,r2,r18
   22f98:	81c00015 	stw	r7,0(r16)
   22f9c:	84800115 	stw	r18,4(r16)
   22fa0:	28000526 	beq	r5,zero,22fb8 <_fseeko_r+0x430>
   22fa4:	80801004 	addi	r2,r16,64
   22fa8:	28800226 	beq	r5,r2,22fb4 <_fseeko_r+0x42c>
   22fac:	8809883a 	mov	r4,r17
   22fb0:	00286f40 	call	286f4 <_free_r>
   22fb4:	80000c15 	stw	zero,48(r16)
   22fb8:	80c0030b 	ldhu	r3,12(r16)
   22fbc:	80001705 	stb	zero,92(r16)
   22fc0:	18fff7cc 	andi	r3,r3,65503
   22fc4:	80c0030d 	sth	r3,12(r16)
   22fc8:	003fbd06 	br	22ec0 <_fseeko_r+0x338>
   22fcc:	00800744 	movi	r2,29
   22fd0:	88800015 	stw	r2,0(r17)
   22fd4:	04bfffc4 	movi	r18,-1
   22fd8:	003f0a06 	br	22c04 <_fseeko_r+0x7c>

00022fdc <fseeko>:
   22fdc:	00c000f4 	movhi	r3,3
   22fe0:	2005883a 	mov	r2,r4
   22fe4:	19190c17 	ldw	r4,25648(r3)
   22fe8:	300f883a 	mov	r7,r6
   22fec:	280d883a 	mov	r6,r5
   22ff0:	100b883a 	mov	r5,r2
   22ff4:	0022b881 	jmpi	22b88 <_fseeko_r>

00022ff8 <_fstat_r>:
   22ff8:	2807883a 	mov	r3,r5
   22ffc:	defffe04 	addi	sp,sp,-8
   23000:	dc000015 	stw	r16,0(sp)
   23004:	00800134 	movhi	r2,4
   23008:	300b883a 	mov	r5,r6
   2300c:	2021883a 	mov	r16,r4
   23010:	1809883a 	mov	r4,r3
   23014:	dfc00115 	stw	ra,4(sp)
   23018:	10222d15 	stw	zero,-30540(r2)
   2301c:	00302640 	call	30264 <fstat>
   23020:	10ffffd8 	cmpnei	r3,r2,-1
   23024:	18000426 	beq	r3,zero,23038 <_fstat_r+0x40>
   23028:	dfc00117 	ldw	ra,4(sp)
   2302c:	dc000017 	ldw	r16,0(sp)
   23030:	dec00204 	addi	sp,sp,8
   23034:	f800283a 	ret
   23038:	00c00134 	movhi	r3,4
   2303c:	18e22d17 	ldw	r3,-30540(r3)
   23040:	183ff926 	beq	r3,zero,23028 <_fstat_r+0x30>
   23044:	80c00015 	stw	r3,0(r16)
   23048:	dfc00117 	ldw	ra,4(sp)
   2304c:	dc000017 	ldw	r16,0(sp)
   23050:	dec00204 	addi	sp,sp,8
   23054:	f800283a 	ret

00023058 <_fwrite_r>:
   23058:	defff604 	addi	sp,sp,-40
   2305c:	dcc00815 	stw	r19,32(sp)
   23060:	39a7383a 	mul	r19,r7,r6
   23064:	00800044 	movi	r2,1
   23068:	dc800715 	stw	r18,28(sp)
   2306c:	dc400615 	stw	r17,24(sp)
   23070:	dc000515 	stw	r16,20(sp)
   23074:	d9400015 	stw	r5,0(sp)
   23078:	dfc00915 	stw	ra,36(sp)
   2307c:	dcc00115 	stw	r19,4(sp)
   23080:	dcc00415 	stw	r19,16(sp)
   23084:	dec00215 	stw	sp,8(sp)
   23088:	d8800315 	stw	r2,12(sp)
   2308c:	d9400a17 	ldw	r5,40(sp)
   23090:	3025883a 	mov	r18,r6
   23094:	3821883a 	mov	r16,r7
   23098:	2023883a 	mov	r17,r4
   2309c:	20000226 	beq	r4,zero,230a8 <_fwrite_r+0x50>
   230a0:	20800e17 	ldw	r2,56(r4)
   230a4:	10001826 	beq	r2,zero,23108 <_fwrite_r+0xb0>
   230a8:	2880030b 	ldhu	r2,12(r5)
   230ac:	10c8000c 	andi	r3,r2,8192
   230b0:	1800061e 	bne	r3,zero,230cc <_fwrite_r+0x74>
   230b4:	28c01917 	ldw	r3,100(r5)
   230b8:	0137ffc4 	movi	r4,-8193
   230bc:	10880014 	ori	r2,r2,8192
   230c0:	1906703a 	and	r3,r3,r4
   230c4:	2880030d 	sth	r2,12(r5)
   230c8:	28c01915 	stw	r3,100(r5)
   230cc:	d9800204 	addi	r6,sp,8
   230d0:	8809883a 	mov	r4,r17
   230d4:	00289f00 	call	289f0 <__sfvwrite_r>
   230d8:	10000e26 	beq	r2,zero,23114 <_fwrite_r+0xbc>
   230dc:	d9000417 	ldw	r4,16(sp)
   230e0:	900b883a 	mov	r5,r18
   230e4:	9909c83a 	sub	r4,r19,r4
   230e8:	00229a00 	call	229a0 <__udivsi3>
   230ec:	dfc00917 	ldw	ra,36(sp)
   230f0:	dcc00817 	ldw	r19,32(sp)
   230f4:	dc800717 	ldw	r18,28(sp)
   230f8:	dc400617 	ldw	r17,24(sp)
   230fc:	dc000517 	ldw	r16,20(sp)
   23100:	dec00a04 	addi	sp,sp,40
   23104:	f800283a 	ret
   23108:	00284d80 	call	284d8 <__sinit>
   2310c:	d9400a17 	ldw	r5,40(sp)
   23110:	003fe506 	br	230a8 <_fwrite_r+0x50>
   23114:	8005883a 	mov	r2,r16
   23118:	003ff406 	br	230ec <_fwrite_r+0x94>

0002311c <fwrite>:
   2311c:	00c000f4 	movhi	r3,3
   23120:	2005883a 	mov	r2,r4
   23124:	19190c17 	ldw	r4,25648(r3)
   23128:	defffe04 	addi	sp,sp,-8
   2312c:	d9c00015 	stw	r7,0(sp)
   23130:	300f883a 	mov	r7,r6
   23134:	280d883a 	mov	r6,r5
   23138:	100b883a 	mov	r5,r2
   2313c:	dfc00115 	stw	ra,4(sp)
   23140:	00230580 	call	23058 <_fwrite_r>
   23144:	dfc00117 	ldw	ra,4(sp)
   23148:	dec00204 	addi	sp,sp,8
   2314c:	f800283a 	ret

00023150 <_getchar_r>:
   23150:	21400117 	ldw	r5,4(r4)
   23154:	0028fec1 	jmpi	28fec <_getc_r>

00023158 <getchar>:
   23158:	008000f4 	movhi	r2,3
   2315c:	11190c17 	ldw	r4,25648(r2)
   23160:	21400117 	ldw	r5,4(r4)
   23164:	0028fec1 	jmpi	28fec <_getc_r>

00023168 <__swhatbuf_r>:
   23168:	deffea04 	addi	sp,sp,-88
   2316c:	dc001215 	stw	r16,72(sp)
   23170:	2821883a 	mov	r16,r5
   23174:	2940038f 	ldh	r5,14(r5)
   23178:	dc801415 	stw	r18,80(sp)
   2317c:	dc401315 	stw	r17,76(sp)
   23180:	dfc01515 	stw	ra,84(sp)
   23184:	3023883a 	mov	r17,r6
   23188:	3825883a 	mov	r18,r7
   2318c:	28001016 	blt	r5,zero,231d0 <__swhatbuf_r+0x68>
   23190:	d80d883a 	mov	r6,sp
   23194:	0022ff80 	call	22ff8 <_fstat_r>
   23198:	10000d16 	blt	r2,zero,231d0 <__swhatbuf_r+0x68>
   2319c:	d8c00117 	ldw	r3,4(sp)
   231a0:	00820004 	movi	r2,2048
   231a4:	18fc000c 	andi	r3,r3,61440
   231a8:	18c80020 	cmpeqi	r3,r3,8192
   231ac:	90c00015 	stw	r3,0(r18)
   231b0:	00c10004 	movi	r3,1024
   231b4:	88c00015 	stw	r3,0(r17)
   231b8:	dfc01517 	ldw	ra,84(sp)
   231bc:	dc801417 	ldw	r18,80(sp)
   231c0:	dc401317 	ldw	r17,76(sp)
   231c4:	dc001217 	ldw	r16,72(sp)
   231c8:	dec01604 	addi	sp,sp,88
   231cc:	f800283a 	ret
   231d0:	8080030b 	ldhu	r2,12(r16)
   231d4:	90000015 	stw	zero,0(r18)
   231d8:	1080200c 	andi	r2,r2,128
   231dc:	10000426 	beq	r2,zero,231f0 <__swhatbuf_r+0x88>
   231e0:	00801004 	movi	r2,64
   231e4:	88800015 	stw	r2,0(r17)
   231e8:	0005883a 	mov	r2,zero
   231ec:	003ff206 	br	231b8 <__swhatbuf_r+0x50>
   231f0:	00810004 	movi	r2,1024
   231f4:	88800015 	stw	r2,0(r17)
   231f8:	0005883a 	mov	r2,zero
   231fc:	003fee06 	br	231b8 <__swhatbuf_r+0x50>

00023200 <__smakebuf_r>:
   23200:	2880030b 	ldhu	r2,12(r5)
   23204:	defffa04 	addi	sp,sp,-24
   23208:	dc000215 	stw	r16,8(sp)
   2320c:	dfc00515 	stw	ra,20(sp)
   23210:	dc800415 	stw	r18,16(sp)
   23214:	dc400315 	stw	r17,12(sp)
   23218:	1080008c 	andi	r2,r2,2
   2321c:	2821883a 	mov	r16,r5
   23220:	10000b26 	beq	r2,zero,23250 <__smakebuf_r+0x50>
   23224:	288010c4 	addi	r2,r5,67
   23228:	28800015 	stw	r2,0(r5)
   2322c:	28800415 	stw	r2,16(r5)
   23230:	00800044 	movi	r2,1
   23234:	28800515 	stw	r2,20(r5)
   23238:	dfc00517 	ldw	ra,20(sp)
   2323c:	dc800417 	ldw	r18,16(sp)
   23240:	dc400317 	ldw	r17,12(sp)
   23244:	dc000217 	ldw	r16,8(sp)
   23248:	dec00604 	addi	sp,sp,24
   2324c:	f800283a 	ret
   23250:	d9c00104 	addi	r7,sp,4
   23254:	d80d883a 	mov	r6,sp
   23258:	2023883a 	mov	r17,r4
   2325c:	00231680 	call	23168 <__swhatbuf_r>
   23260:	d9000117 	ldw	r4,4(sp)
   23264:	1025883a 	mov	r18,r2
   23268:	2000131e 	bne	r4,zero,232b8 <__smakebuf_r+0xb8>
   2326c:	d9400017 	ldw	r5,0(sp)
   23270:	8809883a 	mov	r4,r17
   23274:	00233600 	call	23360 <_malloc_r>
   23278:	10001c26 	beq	r2,zero,232ec <__smakebuf_r+0xec>
   2327c:	010000f4 	movhi	r4,3
   23280:	21207904 	addi	r4,r4,-32284
   23284:	80c0030b 	ldhu	r3,12(r16)
   23288:	89000f15 	stw	r4,60(r17)
   2328c:	80800015 	stw	r2,0(r16)
   23290:	80800415 	stw	r2,16(r16)
   23294:	d8800017 	ldw	r2,0(sp)
   23298:	d9400117 	ldw	r5,4(sp)
   2329c:	18c02014 	ori	r3,r3,128
   232a0:	80c0030d 	sth	r3,12(r16)
   232a4:	80800515 	stw	r2,20(r16)
   232a8:	28001d1e 	bne	r5,zero,23320 <__smakebuf_r+0x120>
   232ac:	90c6b03a 	or	r3,r18,r3
   232b0:	80c0030d 	sth	r3,12(r16)
   232b4:	003fe006 	br	23238 <__smakebuf_r+0x38>
   232b8:	8140038f 	ldh	r5,14(r16)
   232bc:	8809883a 	mov	r4,r17
   232c0:	00290f80 	call	290f8 <_isatty_r>
   232c4:	103fe926 	beq	r2,zero,2326c <__smakebuf_r+0x6c>
   232c8:	8080030b 	ldhu	r2,12(r16)
   232cc:	80c010c4 	addi	r3,r16,67
   232d0:	80c00015 	stw	r3,0(r16)
   232d4:	10800054 	ori	r2,r2,1
   232d8:	8080030d 	sth	r2,12(r16)
   232dc:	00800044 	movi	r2,1
   232e0:	80c00415 	stw	r3,16(r16)
   232e4:	80800515 	stw	r2,20(r16)
   232e8:	003fe006 	br	2326c <__smakebuf_r+0x6c>
   232ec:	8080030b 	ldhu	r2,12(r16)
   232f0:	10c0800c 	andi	r3,r2,512
   232f4:	183fd01e 	bne	r3,zero,23238 <__smakebuf_r+0x38>
   232f8:	00ffff04 	movi	r3,-4
   232fc:	10c4703a 	and	r2,r2,r3
   23300:	10800094 	ori	r2,r2,2
   23304:	80c010c4 	addi	r3,r16,67
   23308:	8080030d 	sth	r2,12(r16)
   2330c:	00800044 	movi	r2,1
   23310:	80c00015 	stw	r3,0(r16)
   23314:	80c00415 	stw	r3,16(r16)
   23318:	80800515 	stw	r2,20(r16)
   2331c:	003fc606 	br	23238 <__smakebuf_r+0x38>
   23320:	8140038f 	ldh	r5,14(r16)
   23324:	8809883a 	mov	r4,r17
   23328:	00290f80 	call	290f8 <_isatty_r>
   2332c:	80c0030b 	ldhu	r3,12(r16)
   23330:	103fde26 	beq	r2,zero,232ac <__smakebuf_r+0xac>
   23334:	18ffff0c 	andi	r3,r3,65532
   23338:	18c00054 	ori	r3,r3,1
   2333c:	003fdb06 	br	232ac <__smakebuf_r+0xac>

00023340 <malloc>:
   23340:	008000f4 	movhi	r2,3
   23344:	200b883a 	mov	r5,r4
   23348:	11190c17 	ldw	r4,25648(r2)
   2334c:	00233601 	jmpi	23360 <_malloc_r>

00023350 <free>:
   23350:	008000f4 	movhi	r2,3
   23354:	200b883a 	mov	r5,r4
   23358:	11190c17 	ldw	r4,25648(r2)
   2335c:	00286f41 	jmpi	286f4 <_free_r>

00023360 <_malloc_r>:
   23360:	defff604 	addi	sp,sp,-40
   23364:	dc400115 	stw	r17,4(sp)
   23368:	2c4002c4 	addi	r17,r5,11
   2336c:	dc800215 	stw	r18,8(sp)
   23370:	dfc00915 	stw	ra,36(sp)
   23374:	df000815 	stw	fp,32(sp)
   23378:	ddc00715 	stw	r23,28(sp)
   2337c:	dd800615 	stw	r22,24(sp)
   23380:	dd400515 	stw	r21,20(sp)
   23384:	dd000415 	stw	r20,16(sp)
   23388:	dcc00315 	stw	r19,12(sp)
   2338c:	dc000015 	stw	r16,0(sp)
   23390:	888005e8 	cmpgeui	r2,r17,23
   23394:	2025883a 	mov	r18,r4
   23398:	10001b1e 	bne	r2,zero,23408 <_malloc_r+0xa8>
   2339c:	29400468 	cmpgeui	r5,r5,17
   233a0:	2800821e 	bne	r5,zero,235ac <_malloc_r+0x24c>
   233a4:	00307f40 	call	307f4 <__malloc_lock>
   233a8:	04400404 	movi	r17,16
   233ac:	01c00084 	movi	r7,2
   233b0:	00800604 	movi	r2,24
   233b4:	04c000f4 	movhi	r19,3
   233b8:	9cd2f804 	addi	r19,r19,19424
   233bc:	9885883a 	add	r2,r19,r2
   233c0:	14000117 	ldw	r16,4(r2)
   233c4:	10fffe04 	addi	r3,r2,-8
   233c8:	80c08b26 	beq	r16,r3,235f8 <_malloc_r+0x298>
   233cc:	80800117 	ldw	r2,4(r16)
   233d0:	81000317 	ldw	r4,12(r16)
   233d4:	00ffff04 	movi	r3,-4
   233d8:	10c4703a 	and	r2,r2,r3
   233dc:	81400217 	ldw	r5,8(r16)
   233e0:	8085883a 	add	r2,r16,r2
   233e4:	10c00117 	ldw	r3,4(r2)
   233e8:	29000315 	stw	r4,12(r5)
   233ec:	21400215 	stw	r5,8(r4)
   233f0:	18c00054 	ori	r3,r3,1
   233f4:	10c00115 	stw	r3,4(r2)
   233f8:	9009883a 	mov	r4,r18
   233fc:	00308180 	call	30818 <__malloc_unlock>
   23400:	80800204 	addi	r2,r16,8
   23404:	00006c06 	br	235b8 <_malloc_r+0x258>
   23408:	00bffe04 	movi	r2,-8
   2340c:	88a2703a 	and	r17,r17,r2
   23410:	88006616 	blt	r17,zero,235ac <_malloc_r+0x24c>
   23414:	89406536 	bltu	r17,r5,235ac <_malloc_r+0x24c>
   23418:	00307f40 	call	307f4 <__malloc_lock>
   2341c:	88807e28 	cmpgeui	r2,r17,504
   23420:	10012226 	beq	r2,zero,238ac <_malloc_r+0x54c>
   23424:	8804d27a 	srli	r2,r17,9
   23428:	10006f26 	beq	r2,zero,235e8 <_malloc_r+0x288>
   2342c:	10c00168 	cmpgeui	r3,r2,5
   23430:	1800fe1e 	bne	r3,zero,2382c <_malloc_r+0x4cc>
   23434:	8804d1ba 	srli	r2,r17,6
   23438:	11c00e44 	addi	r7,r2,57
   2343c:	380890fa 	slli	r4,r7,3
   23440:	12000e04 	addi	r8,r2,56
   23444:	04c000f4 	movhi	r19,3
   23448:	9cd2f804 	addi	r19,r19,19424
   2344c:	9909883a 	add	r4,r19,r4
   23450:	24000117 	ldw	r16,4(r4)
   23454:	213ffe04 	addi	r4,r4,-8
   23458:	24000b26 	beq	r4,r16,23488 <_malloc_r+0x128>
   2345c:	01bfff04 	movi	r6,-4
   23460:	00000306 	br	23470 <_malloc_r+0x110>
   23464:	1800d60e 	bge	r3,zero,237c0 <_malloc_r+0x460>
   23468:	84000317 	ldw	r16,12(r16)
   2346c:	24000626 	beq	r4,r16,23488 <_malloc_r+0x128>
   23470:	80800117 	ldw	r2,4(r16)
   23474:	1184703a 	and	r2,r2,r6
   23478:	1447c83a 	sub	r3,r2,r17
   2347c:	19400408 	cmpgei	r5,r3,16
   23480:	283ff826 	beq	r5,zero,23464 <_malloc_r+0x104>
   23484:	400f883a 	mov	r7,r8
   23488:	9c000417 	ldw	r16,16(r19)
   2348c:	024000f4 	movhi	r9,3
   23490:	4a52fa04 	addi	r9,r9,19432
   23494:	82405f26 	beq	r16,r9,23614 <_malloc_r+0x2b4>
   23498:	80c00117 	ldw	r3,4(r16)
   2349c:	00bfff04 	movi	r2,-4
   234a0:	1884703a 	and	r2,r3,r2
   234a4:	1447c83a 	sub	r3,r2,r17
   234a8:	19000410 	cmplti	r4,r3,16
   234ac:	20010a26 	beq	r4,zero,238d8 <_malloc_r+0x578>
   234b0:	9a400515 	stw	r9,20(r19)
   234b4:	9a400415 	stw	r9,16(r19)
   234b8:	1800ff0e 	bge	r3,zero,238b8 <_malloc_r+0x558>
   234bc:	10c08028 	cmpgeui	r3,r2,512
   234c0:	1800c11e 	bne	r3,zero,237c8 <_malloc_r+0x468>
   234c4:	1006d0fa 	srli	r3,r2,3
   234c8:	1008d17a 	srli	r4,r2,5
   234cc:	00800044 	movi	r2,1
   234d0:	18c00044 	addi	r3,r3,1
   234d4:	180690fa 	slli	r3,r3,3
   234d8:	99400117 	ldw	r5,4(r19)
   234dc:	1104983a 	sll	r2,r2,r4
   234e0:	98c7883a 	add	r3,r19,r3
   234e4:	19000017 	ldw	r4,0(r3)
   234e8:	1144b03a 	or	r2,r2,r5
   234ec:	197ffe04 	addi	r5,r3,-8
   234f0:	81400315 	stw	r5,12(r16)
   234f4:	81000215 	stw	r4,8(r16)
   234f8:	98800115 	stw	r2,4(r19)
   234fc:	1c000015 	stw	r16,0(r3)
   23500:	24000315 	stw	r16,12(r4)
   23504:	3807d0ba 	srai	r3,r7,2
   23508:	01000044 	movi	r4,1
   2350c:	20c8983a 	sll	r4,r4,r3
   23510:	11004536 	bltu	r2,r4,23628 <_malloc_r+0x2c8>
   23514:	2086703a 	and	r3,r4,r2
   23518:	18000a1e 	bne	r3,zero,23544 <_malloc_r+0x1e4>
   2351c:	00ffff04 	movi	r3,-4
   23520:	2109883a 	add	r4,r4,r4
   23524:	38ce703a 	and	r7,r7,r3
   23528:	2086703a 	and	r3,r4,r2
   2352c:	39c00104 	addi	r7,r7,4
   23530:	1800041e 	bne	r3,zero,23544 <_malloc_r+0x1e4>
   23534:	2109883a 	add	r4,r4,r4
   23538:	2086703a 	and	r3,r4,r2
   2353c:	39c00104 	addi	r7,r7,4
   23540:	183ffc26 	beq	r3,zero,23534 <_malloc_r+0x1d4>
   23544:	02bfff04 	movi	r10,-4
   23548:	381690fa 	slli	r11,r7,3
   2354c:	3819883a 	mov	r12,r7
   23550:	9ad7883a 	add	r11,r19,r11
   23554:	5811883a 	mov	r8,r11
   23558:	40800317 	ldw	r2,12(r8)
   2355c:	4080bc26 	beq	r8,r2,23850 <_malloc_r+0x4f0>
   23560:	10c00117 	ldw	r3,4(r2)
   23564:	1021883a 	mov	r16,r2
   23568:	10800317 	ldw	r2,12(r2)
   2356c:	1a86703a 	and	r3,r3,r10
   23570:	1c4bc83a 	sub	r5,r3,r17
   23574:	29800410 	cmplti	r6,r5,16
   23578:	3000ba26 	beq	r6,zero,23864 <_malloc_r+0x504>
   2357c:	283ff716 	blt	r5,zero,2355c <_malloc_r+0x1fc>
   23580:	80c7883a 	add	r3,r16,r3
   23584:	19400117 	ldw	r5,4(r3)
   23588:	81800217 	ldw	r6,8(r16)
   2358c:	9009883a 	mov	r4,r18
   23590:	29400054 	ori	r5,r5,1
   23594:	19400115 	stw	r5,4(r3)
   23598:	30800315 	stw	r2,12(r6)
   2359c:	11800215 	stw	r6,8(r2)
   235a0:	00308180 	call	30818 <__malloc_unlock>
   235a4:	80800204 	addi	r2,r16,8
   235a8:	00000306 	br	235b8 <_malloc_r+0x258>
   235ac:	00800304 	movi	r2,12
   235b0:	90800015 	stw	r2,0(r18)
   235b4:	0005883a 	mov	r2,zero
   235b8:	dfc00917 	ldw	ra,36(sp)
   235bc:	df000817 	ldw	fp,32(sp)
   235c0:	ddc00717 	ldw	r23,28(sp)
   235c4:	dd800617 	ldw	r22,24(sp)
   235c8:	dd400517 	ldw	r21,20(sp)
   235cc:	dd000417 	ldw	r20,16(sp)
   235d0:	dcc00317 	ldw	r19,12(sp)
   235d4:	dc800217 	ldw	r18,8(sp)
   235d8:	dc400117 	ldw	r17,4(sp)
   235dc:	dc000017 	ldw	r16,0(sp)
   235e0:	dec00a04 	addi	sp,sp,40
   235e4:	f800283a 	ret
   235e8:	01008004 	movi	r4,512
   235ec:	01c01004 	movi	r7,64
   235f0:	02000fc4 	movi	r8,63
   235f4:	003f9306 	br	23444 <_malloc_r+0xe4>
   235f8:	14000317 	ldw	r16,12(r2)
   235fc:	39c00084 	addi	r7,r7,2
   23600:	143f721e 	bne	r2,r16,233cc <_malloc_r+0x6c>
   23604:	9c000417 	ldw	r16,16(r19)
   23608:	024000f4 	movhi	r9,3
   2360c:	4a52fa04 	addi	r9,r9,19432
   23610:	827fa11e 	bne	r16,r9,23498 <_malloc_r+0x138>
   23614:	3807d0ba 	srai	r3,r7,2
   23618:	01000044 	movi	r4,1
   2361c:	98800117 	ldw	r2,4(r19)
   23620:	20c8983a 	sll	r4,r4,r3
   23624:	113fbb2e 	bgeu	r2,r4,23514 <_malloc_r+0x1b4>
   23628:	9c000217 	ldw	r16,8(r19)
   2362c:	00bfff04 	movi	r2,-4
   23630:	85400117 	ldw	r21,4(r16)
   23634:	a8ac703a 	and	r22,r21,r2
   23638:	b4400336 	bltu	r22,r17,23648 <_malloc_r+0x2e8>
   2363c:	b445c83a 	sub	r2,r22,r17
   23640:	10c00408 	cmpgei	r3,r2,16
   23644:	1800541e 	bne	r3,zero,23798 <_malloc_r+0x438>
   23648:	008000f4 	movhi	r2,3
   2364c:	10990d17 	ldw	r2,25652(r2)
   23650:	00c00134 	movhi	r3,4
   23654:	1d623017 	ldw	r21,-30528(r3)
   23658:	10bfffd8 	cmpnei	r2,r2,-1
   2365c:	85b9883a 	add	fp,r16,r22
   23660:	8d6b883a 	add	r21,r17,r21
   23664:	1000d626 	beq	r2,zero,239c0 <_malloc_r+0x660>
   23668:	ad4403c4 	addi	r21,r21,4111
   2366c:	00bc0004 	movi	r2,-4096
   23670:	a8aa703a 	and	r21,r21,r2
   23674:	a80b883a 	mov	r5,r21
   23678:	9009883a 	mov	r4,r18
   2367c:	0023fe00 	call	23fe0 <_sbrk_r>
   23680:	102f883a 	mov	r23,r2
   23684:	10bfffd8 	cmpnei	r2,r2,-1
   23688:	1000a826 	beq	r2,zero,2392c <_malloc_r+0x5cc>
   2368c:	bf00a636 	bltu	r23,fp,23928 <_malloc_r+0x5c8>
   23690:	00800134 	movhi	r2,4
   23694:	15223917 	ldw	r20,-30492(r2)
   23698:	ad29883a 	add	r20,r21,r20
   2369c:	15223915 	stw	r20,-30492(r2)
   236a0:	a007883a 	mov	r3,r20
   236a4:	e5c0ec26 	beq	fp,r23,23a58 <_malloc_r+0x6f8>
   236a8:	008000f4 	movhi	r2,3
   236ac:	10990d17 	ldw	r2,25652(r2)
   236b0:	10bfffd8 	cmpnei	r2,r2,-1
   236b4:	1000ef26 	beq	r2,zero,23a74 <_malloc_r+0x714>
   236b8:	bf39c83a 	sub	fp,r23,fp
   236bc:	e0c7883a 	add	r3,fp,r3
   236c0:	00800134 	movhi	r2,4
   236c4:	10e23915 	stw	r3,-30492(r2)
   236c8:	bf0001cc 	andi	fp,r23,7
   236cc:	e000c526 	beq	fp,zero,239e4 <_malloc_r+0x684>
   236d0:	bf2fc83a 	sub	r23,r23,fp
   236d4:	bdc00204 	addi	r23,r23,8
   236d8:	05040204 	movi	r20,4104
   236dc:	a729c83a 	sub	r20,r20,fp
   236e0:	bd6b883a 	add	r21,r23,r21
   236e4:	a569c83a 	sub	r20,r20,r21
   236e8:	a503ffcc 	andi	r20,r20,4095
   236ec:	a00b883a 	mov	r5,r20
   236f0:	9009883a 	mov	r4,r18
   236f4:	0023fe00 	call	23fe0 <_sbrk_r>
   236f8:	10ffffe0 	cmpeqi	r3,r2,-1
   236fc:	1800f31e 	bne	r3,zero,23acc <_malloc_r+0x76c>
   23700:	15c5c83a 	sub	r2,r2,r23
   23704:	152b883a 	add	r21,r2,r20
   23708:	00800134 	movhi	r2,4
   2370c:	11623917 	ldw	r5,-30492(r2)
   23710:	9dc00215 	stw	r23,8(r19)
   23714:	ad400054 	ori	r21,r21,1
   23718:	a169883a 	add	r20,r20,r5
   2371c:	15223915 	stw	r20,-30492(r2)
   23720:	bd400115 	stw	r21,4(r23)
   23724:	84c0d626 	beq	r16,r19,23a80 <_malloc_r+0x720>
   23728:	b0800428 	cmpgeui	r2,r22,16
   2372c:	1000d626 	beq	r2,zero,23a88 <_malloc_r+0x728>
   23730:	80c00117 	ldw	r3,4(r16)
   23734:	013ffe04 	movi	r4,-8
   23738:	b0bffd04 	addi	r2,r22,-12
   2373c:	1104703a 	and	r2,r2,r4
   23740:	18c0004c 	andi	r3,r3,1
   23744:	1886b03a 	or	r3,r3,r2
   23748:	80c00115 	stw	r3,4(r16)
   2374c:	01000144 	movi	r4,5
   23750:	8087883a 	add	r3,r16,r2
   23754:	19000115 	stw	r4,4(r3)
   23758:	19000215 	stw	r4,8(r3)
   2375c:	10800428 	cmpgeui	r2,r2,16
   23760:	1000df1e 	bne	r2,zero,23ae0 <_malloc_r+0x780>
   23764:	bd400117 	ldw	r21,4(r23)
   23768:	b821883a 	mov	r16,r23
   2376c:	00800134 	movhi	r2,4
   23770:	10a22f17 	ldw	r2,-30532(r2)
   23774:	1500022e 	bgeu	r2,r20,23780 <_malloc_r+0x420>
   23778:	00800134 	movhi	r2,4
   2377c:	15222f15 	stw	r20,-30532(r2)
   23780:	00800134 	movhi	r2,4
   23784:	10a22e17 	ldw	r2,-30536(r2)
   23788:	15006a2e 	bgeu	r2,r20,23934 <_malloc_r+0x5d4>
   2378c:	00800134 	movhi	r2,4
   23790:	15222e15 	stw	r20,-30536(r2)
   23794:	00006706 	br	23934 <_malloc_r+0x5d4>
   23798:	88c00054 	ori	r3,r17,1
   2379c:	80c00115 	stw	r3,4(r16)
   237a0:	8463883a 	add	r17,r16,r17
   237a4:	10800054 	ori	r2,r2,1
   237a8:	9c400215 	stw	r17,8(r19)
   237ac:	88800115 	stw	r2,4(r17)
   237b0:	9009883a 	mov	r4,r18
   237b4:	00308180 	call	30818 <__malloc_unlock>
   237b8:	80800204 	addi	r2,r16,8
   237bc:	003f7e06 	br	235b8 <_malloc_r+0x258>
   237c0:	81000317 	ldw	r4,12(r16)
   237c4:	003f0506 	br	233dc <_malloc_r+0x7c>
   237c8:	1006d27a 	srli	r3,r2,9
   237cc:	19000168 	cmpgeui	r4,r3,5
   237d0:	20005026 	beq	r4,zero,23914 <_malloc_r+0x5b4>
   237d4:	19000568 	cmpgeui	r4,r3,21
   237d8:	20008c1e 	bne	r4,zero,23a0c <_malloc_r+0x6ac>
   237dc:	19401704 	addi	r5,r3,92
   237e0:	280a90fa 	slli	r5,r5,3
   237e4:	190016c4 	addi	r4,r3,91
   237e8:	994b883a 	add	r5,r19,r5
   237ec:	28c00017 	ldw	r3,0(r5)
   237f0:	297ffe04 	addi	r5,r5,-8
   237f4:	28c07426 	beq	r5,r3,239c8 <_malloc_r+0x668>
   237f8:	01bfff04 	movi	r6,-4
   237fc:	19000117 	ldw	r4,4(r3)
   23800:	2188703a 	and	r4,r4,r6
   23804:	1100022e 	bgeu	r2,r4,23810 <_malloc_r+0x4b0>
   23808:	18c00217 	ldw	r3,8(r3)
   2380c:	28fffb1e 	bne	r5,r3,237fc <_malloc_r+0x49c>
   23810:	19400317 	ldw	r5,12(r3)
   23814:	98800117 	ldw	r2,4(r19)
   23818:	81400315 	stw	r5,12(r16)
   2381c:	80c00215 	stw	r3,8(r16)
   23820:	2c000215 	stw	r16,8(r5)
   23824:	1c000315 	stw	r16,12(r3)
   23828:	003f3606 	br	23504 <_malloc_r+0x1a4>
   2382c:	10c00568 	cmpgeui	r3,r2,21
   23830:	18004a26 	beq	r3,zero,2395c <_malloc_r+0x5fc>
   23834:	10c01568 	cmpgeui	r3,r2,85
   23838:	18007b1e 	bne	r3,zero,23a28 <_malloc_r+0x6c8>
   2383c:	8804d33a 	srli	r2,r17,12
   23840:	11c01bc4 	addi	r7,r2,111
   23844:	380890fa 	slli	r4,r7,3
   23848:	12001b84 	addi	r8,r2,110
   2384c:	003efd06 	br	23444 <_malloc_r+0xe4>
   23850:	63000044 	addi	r12,r12,1
   23854:	608000cc 	andi	r2,r12,3
   23858:	42000204 	addi	r8,r8,8
   2385c:	103f3e1e 	bne	r2,zero,23558 <_malloc_r+0x1f8>
   23860:	00004506 	br	23978 <_malloc_r+0x618>
   23864:	81000217 	ldw	r4,8(r16)
   23868:	89800054 	ori	r6,r17,1
   2386c:	81800115 	stw	r6,4(r16)
   23870:	20800315 	stw	r2,12(r4)
   23874:	11000215 	stw	r4,8(r2)
   23878:	8463883a 	add	r17,r16,r17
   2387c:	9c400515 	stw	r17,20(r19)
   23880:	9c400415 	stw	r17,16(r19)
   23884:	28800054 	ori	r2,r5,1
   23888:	88800115 	stw	r2,4(r17)
   2388c:	8a400315 	stw	r9,12(r17)
   23890:	8a400215 	stw	r9,8(r17)
   23894:	80c7883a 	add	r3,r16,r3
   23898:	19400015 	stw	r5,0(r3)
   2389c:	9009883a 	mov	r4,r18
   238a0:	00308180 	call	30818 <__malloc_unlock>
   238a4:	80800204 	addi	r2,r16,8
   238a8:	003f4306 	br	235b8 <_malloc_r+0x258>
   238ac:	880ed0fa 	srli	r7,r17,3
   238b0:	88800204 	addi	r2,r17,8
   238b4:	003ebf06 	br	233b4 <_malloc_r+0x54>
   238b8:	8085883a 	add	r2,r16,r2
   238bc:	10c00117 	ldw	r3,4(r2)
   238c0:	9009883a 	mov	r4,r18
   238c4:	18c00054 	ori	r3,r3,1
   238c8:	10c00115 	stw	r3,4(r2)
   238cc:	00308180 	call	30818 <__malloc_unlock>
   238d0:	80800204 	addi	r2,r16,8
   238d4:	003f3806 	br	235b8 <_malloc_r+0x258>
   238d8:	89000054 	ori	r4,r17,1
   238dc:	81000115 	stw	r4,4(r16)
   238e0:	8463883a 	add	r17,r16,r17
   238e4:	9c400515 	stw	r17,20(r19)
   238e8:	9c400415 	stw	r17,16(r19)
   238ec:	19000054 	ori	r4,r3,1
   238f0:	89000115 	stw	r4,4(r17)
   238f4:	8085883a 	add	r2,r16,r2
   238f8:	8a400315 	stw	r9,12(r17)
   238fc:	8a400215 	stw	r9,8(r17)
   23900:	10c00015 	stw	r3,0(r2)
   23904:	9009883a 	mov	r4,r18
   23908:	00308180 	call	30818 <__malloc_unlock>
   2390c:	80800204 	addi	r2,r16,8
   23910:	003f2906 	br	235b8 <_malloc_r+0x258>
   23914:	1006d1ba 	srli	r3,r2,6
   23918:	19400e44 	addi	r5,r3,57
   2391c:	280a90fa 	slli	r5,r5,3
   23920:	19000e04 	addi	r4,r3,56
   23924:	003fb006 	br	237e8 <_malloc_r+0x488>
   23928:	84c04626 	beq	r16,r19,23a44 <_malloc_r+0x6e4>
   2392c:	9c000217 	ldw	r16,8(r19)
   23930:	85400117 	ldw	r21,4(r16)
   23934:	00bfff04 	movi	r2,-4
   23938:	a8aa703a 	and	r21,r21,r2
   2393c:	ac45c83a 	sub	r2,r21,r17
   23940:	ac400236 	bltu	r21,r17,2394c <_malloc_r+0x5ec>
   23944:	10c00408 	cmpgei	r3,r2,16
   23948:	183f931e 	bne	r3,zero,23798 <_malloc_r+0x438>
   2394c:	9009883a 	mov	r4,r18
   23950:	00308180 	call	30818 <__malloc_unlock>
   23954:	0005883a 	mov	r2,zero
   23958:	003f1706 	br	235b8 <_malloc_r+0x258>
   2395c:	11c01704 	addi	r7,r2,92
   23960:	380890fa 	slli	r4,r7,3
   23964:	120016c4 	addi	r8,r2,91
   23968:	003eb606 	br	23444 <_malloc_r+0xe4>
   2396c:	58800217 	ldw	r2,8(r11)
   23970:	39ffffc4 	addi	r7,r7,-1
   23974:	12c0701e 	bne	r2,r11,23b38 <_malloc_r+0x7d8>
   23978:	388000cc 	andi	r2,r7,3
   2397c:	5afffe04 	addi	r11,r11,-8
   23980:	103ffa1e 	bne	r2,zero,2396c <_malloc_r+0x60c>
   23984:	98c00117 	ldw	r3,4(r19)
   23988:	0104303a 	nor	r2,zero,r4
   2398c:	10c4703a 	and	r2,r2,r3
   23990:	98800115 	stw	r2,4(r19)
   23994:	2109883a 	add	r4,r4,r4
   23998:	113f2336 	bltu	r2,r4,23628 <_malloc_r+0x2c8>
   2399c:	203f2226 	beq	r4,zero,23628 <_malloc_r+0x2c8>
   239a0:	2086703a 	and	r3,r4,r2
   239a4:	1800041e 	bne	r3,zero,239b8 <_malloc_r+0x658>
   239a8:	2109883a 	add	r4,r4,r4
   239ac:	2086703a 	and	r3,r4,r2
   239b0:	63000104 	addi	r12,r12,4
   239b4:	183ffc26 	beq	r3,zero,239a8 <_malloc_r+0x648>
   239b8:	600f883a 	mov	r7,r12
   239bc:	003ee206 	br	23548 <_malloc_r+0x1e8>
   239c0:	ad400404 	addi	r21,r21,16
   239c4:	003f2b06 	br	23674 <_malloc_r+0x314>
   239c8:	2009d0ba 	srai	r4,r4,2
   239cc:	00800044 	movi	r2,1
   239d0:	99800117 	ldw	r6,4(r19)
   239d4:	1104983a 	sll	r2,r2,r4
   239d8:	1184b03a 	or	r2,r2,r6
   239dc:	98800115 	stw	r2,4(r19)
   239e0:	003f8d06 	br	23818 <_malloc_r+0x4b8>
   239e4:	bd69883a 	add	r20,r23,r21
   239e8:	0529c83a 	sub	r20,zero,r20
   239ec:	a503ffcc 	andi	r20,r20,4095
   239f0:	a00b883a 	mov	r5,r20
   239f4:	9009883a 	mov	r4,r18
   239f8:	0023fe00 	call	23fe0 <_sbrk_r>
   239fc:	10ffffe0 	cmpeqi	r3,r2,-1
   23a00:	183f3f26 	beq	r3,zero,23700 <_malloc_r+0x3a0>
   23a04:	0029883a 	mov	r20,zero
   23a08:	003f3f06 	br	23708 <_malloc_r+0x3a8>
   23a0c:	19001568 	cmpgeui	r4,r3,85
   23a10:	2000201e 	bne	r4,zero,23a94 <_malloc_r+0x734>
   23a14:	1006d33a 	srli	r3,r2,12
   23a18:	19401bc4 	addi	r5,r3,111
   23a1c:	280a90fa 	slli	r5,r5,3
   23a20:	19001b84 	addi	r4,r3,110
   23a24:	003f7006 	br	237e8 <_malloc_r+0x488>
   23a28:	10c05568 	cmpgeui	r3,r2,341
   23a2c:	1800201e 	bne	r3,zero,23ab0 <_malloc_r+0x750>
   23a30:	8804d3fa 	srli	r2,r17,15
   23a34:	11c01e04 	addi	r7,r2,120
   23a38:	380890fa 	slli	r4,r7,3
   23a3c:	12001dc4 	addi	r8,r2,119
   23a40:	003e8006 	br	23444 <_malloc_r+0xe4>
   23a44:	00800134 	movhi	r2,4
   23a48:	10e23917 	ldw	r3,-30492(r2)
   23a4c:	a8c7883a 	add	r3,r21,r3
   23a50:	10e23915 	stw	r3,-30492(r2)
   23a54:	003f1406 	br	236a8 <_malloc_r+0x348>
   23a58:	e083ffcc 	andi	r2,fp,4095
   23a5c:	103f121e 	bne	r2,zero,236a8 <_malloc_r+0x348>
   23a60:	9c000217 	ldw	r16,8(r19)
   23a64:	b56b883a 	add	r21,r22,r21
   23a68:	ad400054 	ori	r21,r21,1
   23a6c:	85400115 	stw	r21,4(r16)
   23a70:	003f3e06 	br	2376c <_malloc_r+0x40c>
   23a74:	008000f4 	movhi	r2,3
   23a78:	15d90d15 	stw	r23,25652(r2)
   23a7c:	003f1206 	br	236c8 <_malloc_r+0x368>
   23a80:	b821883a 	mov	r16,r23
   23a84:	003f3906 	br	2376c <_malloc_r+0x40c>
   23a88:	00800044 	movi	r2,1
   23a8c:	b8800115 	stw	r2,4(r23)
   23a90:	003fae06 	br	2394c <_malloc_r+0x5ec>
   23a94:	19005568 	cmpgeui	r4,r3,341
   23a98:	2000191e 	bne	r4,zero,23b00 <_malloc_r+0x7a0>
   23a9c:	1006d3fa 	srli	r3,r2,15
   23aa0:	19401e04 	addi	r5,r3,120
   23aa4:	280a90fa 	slli	r5,r5,3
   23aa8:	19001dc4 	addi	r4,r3,119
   23aac:	003f4e06 	br	237e8 <_malloc_r+0x488>
   23ab0:	10815568 	cmpgeui	r2,r2,1365
   23ab4:	1000191e 	bne	r2,zero,23b1c <_malloc_r+0x7bc>
   23ab8:	8804d4ba 	srli	r2,r17,18
   23abc:	11c01f44 	addi	r7,r2,125
   23ac0:	380890fa 	slli	r4,r7,3
   23ac4:	12001f04 	addi	r8,r2,124
   23ac8:	003e5e06 	br	23444 <_malloc_r+0xe4>
   23acc:	e73ffe04 	addi	fp,fp,-8
   23ad0:	af2b883a 	add	r21,r21,fp
   23ad4:	adebc83a 	sub	r21,r21,r23
   23ad8:	0029883a 	mov	r20,zero
   23adc:	003f0a06 	br	23708 <_malloc_r+0x3a8>
   23ae0:	81400204 	addi	r5,r16,8
   23ae4:	9009883a 	mov	r4,r18
   23ae8:	00286f40 	call	286f4 <_free_r>
   23aec:	9c000217 	ldw	r16,8(r19)
   23af0:	00800134 	movhi	r2,4
   23af4:	15223917 	ldw	r20,-30492(r2)
   23af8:	85400117 	ldw	r21,4(r16)
   23afc:	003f1b06 	br	2376c <_malloc_r+0x40c>
   23b00:	18c15568 	cmpgeui	r3,r3,1365
   23b04:	1800091e 	bne	r3,zero,23b2c <_malloc_r+0x7cc>
   23b08:	1006d4ba 	srli	r3,r2,18
   23b0c:	19401f44 	addi	r5,r3,125
   23b10:	280a90fa 	slli	r5,r5,3
   23b14:	19001f04 	addi	r4,r3,124
   23b18:	003f3306 	br	237e8 <_malloc_r+0x488>
   23b1c:	0100fe04 	movi	r4,1016
   23b20:	01c01fc4 	movi	r7,127
   23b24:	02001f84 	movi	r8,126
   23b28:	003e4606 	br	23444 <_malloc_r+0xe4>
   23b2c:	0140fe04 	movi	r5,1016
   23b30:	01001f84 	movi	r4,126
   23b34:	003f2c06 	br	237e8 <_malloc_r+0x488>
   23b38:	98800117 	ldw	r2,4(r19)
   23b3c:	003f9506 	br	23994 <_malloc_r+0x634>

00023b40 <memset>:
   23b40:	20c000cc 	andi	r3,r4,3
   23b44:	2005883a 	mov	r2,r4
   23b48:	18003626 	beq	r3,zero,23c24 <memset+0xe4>
   23b4c:	31ffffc4 	addi	r7,r6,-1
   23b50:	30003326 	beq	r6,zero,23c20 <memset+0xe0>
   23b54:	2811883a 	mov	r8,r5
   23b58:	2007883a 	mov	r3,r4
   23b5c:	00000306 	br	23b6c <memset+0x2c>
   23b60:	39ffffc4 	addi	r7,r7,-1
   23b64:	39bfffe0 	cmpeqi	r6,r7,-1
   23b68:	30002d1e 	bne	r6,zero,23c20 <memset+0xe0>
   23b6c:	18c00044 	addi	r3,r3,1
   23b70:	198000cc 	andi	r6,r3,3
   23b74:	1a3fffc5 	stb	r8,-1(r3)
   23b78:	303ff91e 	bne	r6,zero,23b60 <memset+0x20>
   23b7c:	39000130 	cmpltui	r4,r7,4
   23b80:	2000221e 	bne	r4,zero,23c0c <memset+0xcc>
   23b84:	29003fcc 	andi	r4,r5,255
   23b88:	200c923a 	slli	r6,r4,8
   23b8c:	3a000430 	cmpltui	r8,r7,16
   23b90:	3108b03a 	or	r4,r6,r4
   23b94:	200c943a 	slli	r6,r4,16
   23b98:	310cb03a 	or	r6,r6,r4
   23b9c:	40000e1e 	bne	r8,zero,23bd8 <memset+0x98>
   23ba0:	393ffc04 	addi	r4,r7,-16
   23ba4:	2008d13a 	srli	r4,r4,4
   23ba8:	21000044 	addi	r4,r4,1
   23bac:	2008913a 	slli	r4,r4,4
   23bb0:	1909883a 	add	r4,r3,r4
   23bb4:	19800015 	stw	r6,0(r3)
   23bb8:	19800115 	stw	r6,4(r3)
   23bbc:	19800215 	stw	r6,8(r3)
   23bc0:	19800315 	stw	r6,12(r3)
   23bc4:	18c00404 	addi	r3,r3,16
   23bc8:	20fffa1e 	bne	r4,r3,23bb4 <memset+0x74>
   23bcc:	3900030c 	andi	r4,r7,12
   23bd0:	39c003cc 	andi	r7,r7,15
   23bd4:	20000d26 	beq	r4,zero,23c0c <memset+0xcc>
   23bd8:	1811883a 	mov	r8,r3
   23bdc:	42000104 	addi	r8,r8,4
   23be0:	3a09c83a 	sub	r4,r7,r8
   23be4:	1909883a 	add	r4,r3,r4
   23be8:	21000128 	cmpgeui	r4,r4,4
   23bec:	41bfff15 	stw	r6,-4(r8)
   23bf0:	203ffa1e 	bne	r4,zero,23bdc <memset+0x9c>
   23bf4:	393fff04 	addi	r4,r7,-4
   23bf8:	2008d0ba 	srli	r4,r4,2
   23bfc:	39c000cc 	andi	r7,r7,3
   23c00:	21000044 	addi	r4,r4,1
   23c04:	200890ba 	slli	r4,r4,2
   23c08:	1907883a 	add	r3,r3,r4
   23c0c:	38000426 	beq	r7,zero,23c20 <memset+0xe0>
   23c10:	19cf883a 	add	r7,r3,r7
   23c14:	18c00044 	addi	r3,r3,1
   23c18:	197fffc5 	stb	r5,-1(r3)
   23c1c:	38fffd1e 	bne	r7,r3,23c14 <memset+0xd4>
   23c20:	f800283a 	ret
   23c24:	2007883a 	mov	r3,r4
   23c28:	300f883a 	mov	r7,r6
   23c2c:	003fd306 	br	23b7c <memset+0x3c>

00023c30 <_open_r>:
   23c30:	2807883a 	mov	r3,r5
   23c34:	defffe04 	addi	sp,sp,-8
   23c38:	dc000015 	stw	r16,0(sp)
   23c3c:	300b883a 	mov	r5,r6
   23c40:	00800134 	movhi	r2,4
   23c44:	380d883a 	mov	r6,r7
   23c48:	2021883a 	mov	r16,r4
   23c4c:	1809883a 	mov	r4,r3
   23c50:	dfc00115 	stw	ra,4(sp)
   23c54:	10222d15 	stw	zero,-30540(r2)
   23c58:	00309300 	call	30930 <open>
   23c5c:	10ffffd8 	cmpnei	r3,r2,-1
   23c60:	18000426 	beq	r3,zero,23c74 <_open_r+0x44>
   23c64:	dfc00117 	ldw	ra,4(sp)
   23c68:	dc000017 	ldw	r16,0(sp)
   23c6c:	dec00204 	addi	sp,sp,8
   23c70:	f800283a 	ret
   23c74:	00c00134 	movhi	r3,4
   23c78:	18e22d17 	ldw	r3,-30540(r3)
   23c7c:	183ff926 	beq	r3,zero,23c64 <_open_r+0x34>
   23c80:	80c00015 	stw	r3,0(r16)
   23c84:	dfc00117 	ldw	ra,4(sp)
   23c88:	dc000017 	ldw	r16,0(sp)
   23c8c:	dec00204 	addi	sp,sp,8
   23c90:	f800283a 	ret

00023c94 <_printf_r>:
   23c94:	defffd04 	addi	sp,sp,-12
   23c98:	2805883a 	mov	r2,r5
   23c9c:	dfc00015 	stw	ra,0(sp)
   23ca0:	d9800115 	stw	r6,4(sp)
   23ca4:	d9c00215 	stw	r7,8(sp)
   23ca8:	21400217 	ldw	r5,8(r4)
   23cac:	d9c00104 	addi	r7,sp,4
   23cb0:	100d883a 	mov	r6,r2
   23cb4:	00242100 	call	24210 <___vfprintf_internal_r>
   23cb8:	dfc00017 	ldw	ra,0(sp)
   23cbc:	dec00304 	addi	sp,sp,12
   23cc0:	f800283a 	ret

00023cc4 <printf>:
   23cc4:	defffc04 	addi	sp,sp,-16
   23cc8:	dfc00015 	stw	ra,0(sp)
   23ccc:	d9400115 	stw	r5,4(sp)
   23cd0:	d9800215 	stw	r6,8(sp)
   23cd4:	d9c00315 	stw	r7,12(sp)
   23cd8:	008000f4 	movhi	r2,3
   23cdc:	10990c17 	ldw	r2,25648(r2)
   23ce0:	200b883a 	mov	r5,r4
   23ce4:	d9800104 	addi	r6,sp,4
   23ce8:	11000217 	ldw	r4,8(r2)
   23cec:	00262ec0 	call	262ec <__vfprintf_internal>
   23cf0:	dfc00017 	ldw	ra,0(sp)
   23cf4:	dec00404 	addi	sp,sp,16
   23cf8:	f800283a 	ret

00023cfc <_putchar_r>:
   23cfc:	21800217 	ldw	r6,8(r4)
   23d00:	002a5701 	jmpi	2a570 <_putc_r>

00023d04 <putchar>:
   23d04:	008000f4 	movhi	r2,3
   23d08:	10990c17 	ldw	r2,25648(r2)
   23d0c:	200b883a 	mov	r5,r4
   23d10:	11800217 	ldw	r6,8(r2)
   23d14:	1009883a 	mov	r4,r2
   23d18:	002a5701 	jmpi	2a570 <_putc_r>

00023d1c <_puts_r>:
   23d1c:	defff504 	addi	sp,sp,-44
   23d20:	dc000815 	stw	r16,32(sp)
   23d24:	2021883a 	mov	r16,r4
   23d28:	2809883a 	mov	r4,r5
   23d2c:	dc400915 	stw	r17,36(sp)
   23d30:	dfc00a15 	stw	ra,40(sp)
   23d34:	2823883a 	mov	r17,r5
   23d38:	00241780 	call	24178 <strlen>
   23d3c:	11000044 	addi	r4,r2,1
   23d40:	d8800515 	stw	r2,20(sp)
   23d44:	00800044 	movi	r2,1
   23d48:	00c000f4 	movhi	r3,3
   23d4c:	d8800715 	stw	r2,28(sp)
   23d50:	d8800404 	addi	r2,sp,16
   23d54:	18ce7004 	addi	r3,r3,14784
   23d58:	d8800115 	stw	r2,4(sp)
   23d5c:	00800084 	movi	r2,2
   23d60:	dc400415 	stw	r17,16(sp)
   23d64:	d8c00615 	stw	r3,24(sp)
   23d68:	d9000315 	stw	r4,12(sp)
   23d6c:	d8800215 	stw	r2,8(sp)
   23d70:	81400217 	ldw	r5,8(r16)
   23d74:	80000226 	beq	r16,zero,23d80 <_puts_r+0x64>
   23d78:	80800e17 	ldw	r2,56(r16)
   23d7c:	10001326 	beq	r2,zero,23dcc <_puts_r+0xb0>
   23d80:	2880030b 	ldhu	r2,12(r5)
   23d84:	10c8000c 	andi	r3,r2,8192
   23d88:	1800061e 	bne	r3,zero,23da4 <_puts_r+0x88>
   23d8c:	28c01917 	ldw	r3,100(r5)
   23d90:	0137ffc4 	movi	r4,-8193
   23d94:	10880014 	ori	r2,r2,8192
   23d98:	1906703a 	and	r3,r3,r4
   23d9c:	2880030d 	sth	r2,12(r5)
   23da0:	28c01915 	stw	r3,100(r5)
   23da4:	d9800104 	addi	r6,sp,4
   23da8:	8009883a 	mov	r4,r16
   23dac:	00289f00 	call	289f0 <__sfvwrite_r>
   23db0:	10000b1e 	bne	r2,zero,23de0 <_puts_r+0xc4>
   23db4:	00800284 	movi	r2,10
   23db8:	dfc00a17 	ldw	ra,40(sp)
   23dbc:	dc400917 	ldw	r17,36(sp)
   23dc0:	dc000817 	ldw	r16,32(sp)
   23dc4:	dec00b04 	addi	sp,sp,44
   23dc8:	f800283a 	ret
   23dcc:	8009883a 	mov	r4,r16
   23dd0:	d9400015 	stw	r5,0(sp)
   23dd4:	00284d80 	call	284d8 <__sinit>
   23dd8:	d9400017 	ldw	r5,0(sp)
   23ddc:	003fe806 	br	23d80 <_puts_r+0x64>
   23de0:	00bfffc4 	movi	r2,-1
   23de4:	003ff406 	br	23db8 <_puts_r+0x9c>

00023de8 <puts>:
   23de8:	008000f4 	movhi	r2,3
   23dec:	200b883a 	mov	r5,r4
   23df0:	11190c17 	ldw	r4,25648(r2)
   23df4:	0023d1c1 	jmpi	23d1c <_puts_r>

00023df8 <lflush>:
   23df8:	2080030b 	ldhu	r2,12(r4)
   23dfc:	1080024c 	andi	r2,r2,9
   23e00:	10800258 	cmpnei	r2,r2,9
   23e04:	10000226 	beq	r2,zero,23e10 <lflush+0x18>
   23e08:	0005883a 	mov	r2,zero
   23e0c:	f800283a 	ret
   23e10:	00281b41 	jmpi	281b4 <fflush>

00023e14 <__srefill_r>:
   23e14:	defffc04 	addi	sp,sp,-16
   23e18:	dc400115 	stw	r17,4(sp)
   23e1c:	dc000015 	stw	r16,0(sp)
   23e20:	dfc00315 	stw	ra,12(sp)
   23e24:	dc800215 	stw	r18,8(sp)
   23e28:	2023883a 	mov	r17,r4
   23e2c:	2821883a 	mov	r16,r5
   23e30:	20000226 	beq	r4,zero,23e3c <__srefill_r+0x28>
   23e34:	20800e17 	ldw	r2,56(r4)
   23e38:	10003a26 	beq	r2,zero,23f24 <__srefill_r+0x110>
   23e3c:	80c0030b 	ldhu	r3,12(r16)
   23e40:	1908000c 	andi	r4,r3,8192
   23e44:	1805883a 	mov	r2,r3
   23e48:	2000071e 	bne	r4,zero,23e68 <__srefill_r+0x54>
   23e4c:	81001917 	ldw	r4,100(r16)
   23e50:	18880014 	ori	r2,r3,8192
   23e54:	00f7ffc4 	movi	r3,-8193
   23e58:	20c8703a 	and	r4,r4,r3
   23e5c:	8080030d 	sth	r2,12(r16)
   23e60:	1007883a 	mov	r3,r2
   23e64:	81001915 	stw	r4,100(r16)
   23e68:	80000115 	stw	zero,4(r16)
   23e6c:	1100080c 	andi	r4,r2,32
   23e70:	20004d1e 	bne	r4,zero,23fa8 <__srefill_r+0x194>
   23e74:	1100010c 	andi	r4,r2,4
   23e78:	20001c1e 	bne	r4,zero,23eec <__srefill_r+0xd8>
   23e7c:	1100040c 	andi	r4,r2,16
   23e80:	20005126 	beq	r4,zero,23fc8 <__srefill_r+0x1b4>
   23e84:	1080020c 	andi	r2,r2,8
   23e88:	1000371e 	bne	r2,zero,23f68 <__srefill_r+0x154>
   23e8c:	18c00114 	ori	r3,r3,4
   23e90:	80c0030d 	sth	r3,12(r16)
   23e94:	80800417 	ldw	r2,16(r16)
   23e98:	10003c26 	beq	r2,zero,23f8c <__srefill_r+0x178>
   23e9c:	8480030b 	ldhu	r18,12(r16)
   23ea0:	908000cc 	andi	r2,r18,3
   23ea4:	1000211e 	bne	r2,zero,23f2c <__srefill_r+0x118>
   23ea8:	81800417 	ldw	r6,16(r16)
   23eac:	80800817 	ldw	r2,32(r16)
   23eb0:	81c00517 	ldw	r7,20(r16)
   23eb4:	81400717 	ldw	r5,28(r16)
   23eb8:	81800015 	stw	r6,0(r16)
   23ebc:	8809883a 	mov	r4,r17
   23ec0:	103ee83a 	callr	r2
   23ec4:	1007883a 	mov	r3,r2
   23ec8:	80800115 	stw	r2,4(r16)
   23ecc:	0005883a 	mov	r2,zero
   23ed0:	00c0370e 	bge	zero,r3,23fb0 <__srefill_r+0x19c>
   23ed4:	dfc00317 	ldw	ra,12(sp)
   23ed8:	dc800217 	ldw	r18,8(sp)
   23edc:	dc400117 	ldw	r17,4(sp)
   23ee0:	dc000017 	ldw	r16,0(sp)
   23ee4:	dec00404 	addi	sp,sp,16
   23ee8:	f800283a 	ret
   23eec:	81400c17 	ldw	r5,48(r16)
   23ef0:	283fe826 	beq	r5,zero,23e94 <__srefill_r+0x80>
   23ef4:	80801004 	addi	r2,r16,64
   23ef8:	28800226 	beq	r5,r2,23f04 <__srefill_r+0xf0>
   23efc:	8809883a 	mov	r4,r17
   23f00:	00286f40 	call	286f4 <_free_r>
   23f04:	80800f17 	ldw	r2,60(r16)
   23f08:	80000c15 	stw	zero,48(r16)
   23f0c:	80800115 	stw	r2,4(r16)
   23f10:	103fe026 	beq	r2,zero,23e94 <__srefill_r+0x80>
   23f14:	80c00e17 	ldw	r3,56(r16)
   23f18:	0005883a 	mov	r2,zero
   23f1c:	80c00015 	stw	r3,0(r16)
   23f20:	003fec06 	br	23ed4 <__srefill_r+0xc0>
   23f24:	00284d80 	call	284d8 <__sinit>
   23f28:	003fc406 	br	23e3c <__srefill_r+0x28>
   23f2c:	008000f4 	movhi	r2,3
   23f30:	11190b17 	ldw	r4,25644(r2)
   23f34:	014000b4 	movhi	r5,2
   23f38:	00800044 	movi	r2,1
   23f3c:	8080030d 	sth	r2,12(r16)
   23f40:	294f7e04 	addi	r5,r5,15864
   23f44:	0028eac0 	call	28eac <_fwalk>
   23f48:	9080024c 	andi	r2,r18,9
   23f4c:	8480030d 	sth	r18,12(r16)
   23f50:	10800258 	cmpnei	r2,r2,9
   23f54:	103fd41e 	bne	r2,zero,23ea8 <__srefill_r+0x94>
   23f58:	800b883a 	mov	r5,r16
   23f5c:	8809883a 	mov	r4,r17
   23f60:	0027f2c0 	call	27f2c <__sflush_r>
   23f64:	003fd006 	br	23ea8 <__srefill_r+0x94>
   23f68:	800b883a 	mov	r5,r16
   23f6c:	8809883a 	mov	r4,r17
   23f70:	00281540 	call	28154 <_fflush_r>
   23f74:	10000c1e 	bne	r2,zero,23fa8 <__srefill_r+0x194>
   23f78:	80c0030b 	ldhu	r3,12(r16)
   23f7c:	80000215 	stw	zero,8(r16)
   23f80:	80000615 	stw	zero,24(r16)
   23f84:	18fffdcc 	andi	r3,r3,65527
   23f88:	003fc006 	br	23e8c <__srefill_r+0x78>
   23f8c:	800b883a 	mov	r5,r16
   23f90:	8809883a 	mov	r4,r17
   23f94:	00232000 	call	23200 <__smakebuf_r>
   23f98:	003fc006 	br	23e9c <__srefill_r+0x88>
   23f9c:	10801014 	ori	r2,r2,64
   23fa0:	80000115 	stw	zero,4(r16)
   23fa4:	8080030d 	sth	r2,12(r16)
   23fa8:	00bfffc4 	movi	r2,-1
   23fac:	003fc906 	br	23ed4 <__srefill_r+0xc0>
   23fb0:	8080030b 	ldhu	r2,12(r16)
   23fb4:	183ff91e 	bne	r3,zero,23f9c <__srefill_r+0x188>
   23fb8:	10800814 	ori	r2,r2,32
   23fbc:	8080030d 	sth	r2,12(r16)
   23fc0:	00bfffc4 	movi	r2,-1
   23fc4:	003fc306 	br	23ed4 <__srefill_r+0xc0>
   23fc8:	00800244 	movi	r2,9
   23fcc:	88800015 	stw	r2,0(r17)
   23fd0:	18c01014 	ori	r3,r3,64
   23fd4:	80c0030d 	sth	r3,12(r16)
   23fd8:	00bfffc4 	movi	r2,-1
   23fdc:	003fbd06 	br	23ed4 <__srefill_r+0xc0>

00023fe0 <_sbrk_r>:
   23fe0:	defffe04 	addi	sp,sp,-8
   23fe4:	dc000015 	stw	r16,0(sp)
   23fe8:	00800134 	movhi	r2,4
   23fec:	2021883a 	mov	r16,r4
   23ff0:	2809883a 	mov	r4,r5
   23ff4:	dfc00115 	stw	ra,4(sp)
   23ff8:	10222d15 	stw	zero,-30540(r2)
   23ffc:	0030c140 	call	30c14 <sbrk>
   24000:	10ffffd8 	cmpnei	r3,r2,-1
   24004:	18000426 	beq	r3,zero,24018 <_sbrk_r+0x38>
   24008:	dfc00117 	ldw	ra,4(sp)
   2400c:	dc000017 	ldw	r16,0(sp)
   24010:	dec00204 	addi	sp,sp,8
   24014:	f800283a 	ret
   24018:	00c00134 	movhi	r3,4
   2401c:	18e22d17 	ldw	r3,-30540(r3)
   24020:	183ff926 	beq	r3,zero,24008 <_sbrk_r+0x28>
   24024:	80c00015 	stw	r3,0(r16)
   24028:	dfc00117 	ldw	ra,4(sp)
   2402c:	dc000017 	ldw	r16,0(sp)
   24030:	dec00204 	addi	sp,sp,8
   24034:	f800283a 	ret

00024038 <__sread>:
   24038:	defffe04 	addi	sp,sp,-8
   2403c:	dc000015 	stw	r16,0(sp)
   24040:	2821883a 	mov	r16,r5
   24044:	2940038f 	ldh	r5,14(r5)
   24048:	dfc00115 	stw	ra,4(sp)
   2404c:	002a71c0 	call	2a71c <_read_r>
   24050:	10000716 	blt	r2,zero,24070 <__sread+0x38>
   24054:	80c01417 	ldw	r3,80(r16)
   24058:	1887883a 	add	r3,r3,r2
   2405c:	80c01415 	stw	r3,80(r16)
   24060:	dfc00117 	ldw	ra,4(sp)
   24064:	dc000017 	ldw	r16,0(sp)
   24068:	dec00204 	addi	sp,sp,8
   2406c:	f800283a 	ret
   24070:	80c0030b 	ldhu	r3,12(r16)
   24074:	18fbffcc 	andi	r3,r3,61439
   24078:	80c0030d 	sth	r3,12(r16)
   2407c:	dfc00117 	ldw	ra,4(sp)
   24080:	dc000017 	ldw	r16,0(sp)
   24084:	dec00204 	addi	sp,sp,8
   24088:	f800283a 	ret

0002408c <__seofread>:
   2408c:	0005883a 	mov	r2,zero
   24090:	f800283a 	ret

00024094 <__swrite>:
   24094:	2880030b 	ldhu	r2,12(r5)
   24098:	defffb04 	addi	sp,sp,-20
   2409c:	dcc00315 	stw	r19,12(sp)
   240a0:	dc800215 	stw	r18,8(sp)
   240a4:	dc400115 	stw	r17,4(sp)
   240a8:	dc000015 	stw	r16,0(sp)
   240ac:	dfc00415 	stw	ra,16(sp)
   240b0:	10c0400c 	andi	r3,r2,256
   240b4:	2821883a 	mov	r16,r5
   240b8:	2023883a 	mov	r17,r4
   240bc:	2940038f 	ldh	r5,14(r5)
   240c0:	3025883a 	mov	r18,r6
   240c4:	3827883a 	mov	r19,r7
   240c8:	18000c1e 	bne	r3,zero,240fc <__swrite+0x68>
   240cc:	10bbffcc 	andi	r2,r2,61439
   240d0:	980f883a 	mov	r7,r19
   240d4:	900d883a 	mov	r6,r18
   240d8:	8809883a 	mov	r4,r17
   240dc:	8080030d 	sth	r2,12(r16)
   240e0:	dfc00417 	ldw	ra,16(sp)
   240e4:	dcc00317 	ldw	r19,12(sp)
   240e8:	dc800217 	ldw	r18,8(sp)
   240ec:	dc400117 	ldw	r17,4(sp)
   240f0:	dc000017 	ldw	r16,0(sp)
   240f4:	dec00504 	addi	sp,sp,20
   240f8:	00263c81 	jmpi	263c8 <_write_r>
   240fc:	01c00084 	movi	r7,2
   24100:	000d883a 	mov	r6,zero
   24104:	00291700 	call	29170 <_lseek_r>
   24108:	8080030b 	ldhu	r2,12(r16)
   2410c:	8140038f 	ldh	r5,14(r16)
   24110:	003fee06 	br	240cc <__swrite+0x38>

00024114 <__sseek>:
   24114:	defffe04 	addi	sp,sp,-8
   24118:	dc000015 	stw	r16,0(sp)
   2411c:	2821883a 	mov	r16,r5
   24120:	2940038f 	ldh	r5,14(r5)
   24124:	dfc00115 	stw	ra,4(sp)
   24128:	00291700 	call	29170 <_lseek_r>
   2412c:	10ffffd8 	cmpnei	r3,r2,-1
   24130:	18000826 	beq	r3,zero,24154 <__sseek+0x40>
   24134:	80c0030b 	ldhu	r3,12(r16)
   24138:	80801415 	stw	r2,80(r16)
   2413c:	18c40014 	ori	r3,r3,4096
   24140:	80c0030d 	sth	r3,12(r16)
   24144:	dfc00117 	ldw	ra,4(sp)
   24148:	dc000017 	ldw	r16,0(sp)
   2414c:	dec00204 	addi	sp,sp,8
   24150:	f800283a 	ret
   24154:	80c0030b 	ldhu	r3,12(r16)
   24158:	18fbffcc 	andi	r3,r3,61439
   2415c:	80c0030d 	sth	r3,12(r16)
   24160:	dfc00117 	ldw	ra,4(sp)
   24164:	dc000017 	ldw	r16,0(sp)
   24168:	dec00204 	addi	sp,sp,8
   2416c:	f800283a 	ret

00024170 <__sclose>:
   24170:	2940038f 	ldh	r5,14(r5)
   24174:	00265881 	jmpi	26588 <_close_r>

00024178 <strlen>:
   24178:	208000cc 	andi	r2,r4,3
   2417c:	10000926 	beq	r2,zero,241a4 <strlen+0x2c>
   24180:	2005883a 	mov	r2,r4
   24184:	00000306 	br	24194 <strlen+0x1c>
   24188:	10800044 	addi	r2,r2,1
   2418c:	10c000cc 	andi	r3,r2,3
   24190:	18000526 	beq	r3,zero,241a8 <strlen+0x30>
   24194:	10c00007 	ldb	r3,0(r2)
   24198:	183ffb1e 	bne	r3,zero,24188 <strlen+0x10>
   2419c:	1105c83a 	sub	r2,r2,r4
   241a0:	f800283a 	ret
   241a4:	2005883a 	mov	r2,r4
   241a8:	11400017 	ldw	r5,0(r2)
   241ac:	01ffbff4 	movhi	r7,65279
   241b0:	39ffbfc4 	addi	r7,r7,-257
   241b4:	29c7883a 	add	r3,r5,r7
   241b8:	01a02074 	movhi	r6,32897
   241bc:	014a303a 	nor	r5,zero,r5
   241c0:	1946703a 	and	r3,r3,r5
   241c4:	31a02004 	addi	r6,r6,-32640
   241c8:	1986703a 	and	r3,r3,r6
   241cc:	1800071e 	bne	r3,zero,241ec <strlen+0x74>
   241d0:	11400117 	ldw	r5,4(r2)
   241d4:	10800104 	addi	r2,r2,4
   241d8:	29c7883a 	add	r3,r5,r7
   241dc:	014a303a 	nor	r5,zero,r5
   241e0:	1946703a 	and	r3,r3,r5
   241e4:	1986703a 	and	r3,r3,r6
   241e8:	183ff926 	beq	r3,zero,241d0 <strlen+0x58>
   241ec:	10c00007 	ldb	r3,0(r2)
   241f0:	183fea26 	beq	r3,zero,2419c <strlen+0x24>
   241f4:	10c00047 	ldb	r3,1(r2)
   241f8:	10800044 	addi	r2,r2,1
   241fc:	183fe726 	beq	r3,zero,2419c <strlen+0x24>
   24200:	10c00047 	ldb	r3,1(r2)
   24204:	10800044 	addi	r2,r2,1
   24208:	183ffa1e 	bne	r3,zero,241f4 <strlen+0x7c>
   2420c:	003fe306 	br	2419c <strlen+0x24>

00024210 <___vfprintf_internal_r>:
   24210:	deffbf04 	addi	sp,sp,-260
   24214:	dfc04015 	stw	ra,256(sp)
   24218:	dd803d15 	stw	r22,244(sp)
   2421c:	dcc03a15 	stw	r19,232(sp)
   24220:	dc803915 	stw	r18,228(sp)
   24224:	2027883a 	mov	r19,r4
   24228:	2825883a 	mov	r18,r5
   2422c:	302d883a 	mov	r22,r6
   24230:	d9c00615 	stw	r7,24(sp)
   24234:	df003f15 	stw	fp,252(sp)
   24238:	ddc03e15 	stw	r23,248(sp)
   2423c:	dd403c15 	stw	r21,240(sp)
   24240:	dd003b15 	stw	r20,236(sp)
   24244:	dc403815 	stw	r17,224(sp)
   24248:	dc003715 	stw	r16,220(sp)
   2424c:	00291580 	call	29158 <_localeconv_r>
   24250:	10800017 	ldw	r2,0(r2)
   24254:	1009883a 	mov	r4,r2
   24258:	d8800d15 	stw	r2,52(sp)
   2425c:	00241780 	call	24178 <strlen>
   24260:	d8800b15 	stw	r2,44(sp)
   24264:	98000226 	beq	r19,zero,24270 <___vfprintf_internal_r+0x60>
   24268:	98800e17 	ldw	r2,56(r19)
   2426c:	1001d526 	beq	r2,zero,249c4 <___vfprintf_internal_r+0x7b4>
   24270:	9080030b 	ldhu	r2,12(r18)
   24274:	10c8000c 	andi	r3,r2,8192
   24278:	1800061e 	bne	r3,zero,24294 <___vfprintf_internal_r+0x84>
   2427c:	90c01917 	ldw	r3,100(r18)
   24280:	0137ffc4 	movi	r4,-8193
   24284:	10880014 	ori	r2,r2,8192
   24288:	1906703a 	and	r3,r3,r4
   2428c:	9080030d 	sth	r2,12(r18)
   24290:	90c01915 	stw	r3,100(r18)
   24294:	10c0020c 	andi	r3,r2,8
   24298:	1800fa26 	beq	r3,zero,24684 <___vfprintf_internal_r+0x474>
   2429c:	90c00417 	ldw	r3,16(r18)
   242a0:	1800f826 	beq	r3,zero,24684 <___vfprintf_internal_r+0x474>
   242a4:	1080068c 	andi	r2,r2,26
   242a8:	10800298 	cmpnei	r2,r2,10
   242ac:	1000fd26 	beq	r2,zero,246a4 <___vfprintf_internal_r+0x494>
   242b0:	d8802704 	addi	r2,sp,156
   242b4:	b02f883a 	mov	r23,r22
   242b8:	d8801a15 	stw	r2,104(sp)
   242bc:	d8001c15 	stw	zero,112(sp)
   242c0:	d8001b15 	stw	zero,108(sp)
   242c4:	d8000815 	stw	zero,32(sp)
   242c8:	d8000915 	stw	zero,36(sp)
   242cc:	d8000a15 	stw	zero,40(sp)
   242d0:	d8000c15 	stw	zero,48(sp)
   242d4:	d8001015 	stw	zero,64(sp)
   242d8:	d8000515 	stw	zero,20(sp)
   242dc:	102d883a 	mov	r22,r2
   242e0:	b8800007 	ldb	r2,0(r23)
   242e4:	1000d526 	beq	r2,zero,2463c <___vfprintf_internal_r+0x42c>
   242e8:	b821883a 	mov	r16,r23
   242ec:	00000306 	br	242fc <___vfprintf_internal_r+0xec>
   242f0:	80800047 	ldb	r2,1(r16)
   242f4:	84000044 	addi	r16,r16,1
   242f8:	10011726 	beq	r2,zero,24758 <___vfprintf_internal_r+0x548>
   242fc:	10800958 	cmpnei	r2,r2,37
   24300:	103ffb1e 	bne	r2,zero,242f0 <___vfprintf_internal_r+0xe0>
   24304:	85e3c83a 	sub	r17,r16,r23
   24308:	85c1151e 	bne	r16,r23,24760 <___vfprintf_internal_r+0x550>
   2430c:	80800003 	ldbu	r2,0(r16)
   24310:	10803fcc 	andi	r2,r2,255
   24314:	1080201c 	xori	r2,r2,128
   24318:	10bfe004 	addi	r2,r2,-128
   2431c:	1000c726 	beq	r2,zero,2463c <___vfprintf_internal_r+0x42c>
   24320:	82c00047 	ldb	r11,1(r16)
   24324:	85c00044 	addi	r23,r16,1
   24328:	d8001345 	stb	zero,77(sp)
   2432c:	0009883a 	mov	r4,zero
   24330:	000b883a 	mov	r5,zero
   24334:	023fffc4 	movi	r8,-1
   24338:	0021883a 	mov	r16,zero
   2433c:	0019883a 	mov	r12,zero
   24340:	bdc00044 	addi	r23,r23,1
   24344:	5839883a 	mov	fp,r11
   24348:	e0bff804 	addi	r2,fp,-32
   2434c:	10c01668 	cmpgeui	r3,r2,89
   24350:	18006a1e 	bne	r3,zero,244fc <___vfprintf_internal_r+0x2ec>
   24354:	100490ba 	slli	r2,r2,2
   24358:	00c000b4 	movhi	r3,2
   2435c:	10c7883a 	add	r3,r2,r3
   24360:	1890da17 	ldw	r2,17256(r3)
   24364:	1000683a 	jmp	r2
   24368:	00024d44 	movi	zero,2357
   2436c:	000244fc 	xorhi	zero,zero,2323
   24370:	000244fc 	xorhi	zero,zero,2323
   24374:	00024d38 	rdprs	zero,zero,2356
   24378:	000244fc 	xorhi	zero,zero,2323
   2437c:	000244fc 	xorhi	zero,zero,2323
   24380:	000244fc 	xorhi	zero,zero,2323
   24384:	000244fc 	xorhi	zero,zero,2323
   24388:	000244fc 	xorhi	zero,zero,2323
   2438c:	000244fc 	xorhi	zero,zero,2323
   24390:	00024d10 	cmplti	zero,zero,2356
   24394:	00024d00 	call	24d0 <__alt_mem_onchip_memory2_0-0x1db30>
   24398:	000244fc 	xorhi	zero,zero,2323
   2439c:	00024ce8 	cmpgeui	zero,zero,2355
   243a0:	00024ca4 	muli	zero,zero,2354
   243a4:	000244fc 	xorhi	zero,zero,2323
   243a8:	00024c98 	cmpnei	zero,zero,2354
   243ac:	000244cc 	andi	zero,zero,2323
   243b0:	000244cc 	andi	zero,zero,2323
   243b4:	000244cc 	andi	zero,zero,2323
   243b8:	000244cc 	andi	zero,zero,2323
   243bc:	000244cc 	andi	zero,zero,2323
   243c0:	000244cc 	andi	zero,zero,2323
   243c4:	000244cc 	andi	zero,zero,2323
   243c8:	000244cc 	andi	zero,zero,2323
   243cc:	000244cc 	andi	zero,zero,2323
   243d0:	000244fc 	xorhi	zero,zero,2323
   243d4:	000244fc 	xorhi	zero,zero,2323
   243d8:	000244fc 	xorhi	zero,zero,2323
   243dc:	000244fc 	xorhi	zero,zero,2323
   243e0:	000244fc 	xorhi	zero,zero,2323
   243e4:	000244fc 	xorhi	zero,zero,2323
   243e8:	000244fc 	xorhi	zero,zero,2323
   243ec:	000244fc 	xorhi	zero,zero,2323
   243f0:	000244fc 	xorhi	zero,zero,2323
   243f4:	000244fc 	xorhi	zero,zero,2323
   243f8:	00024b8c 	andi	zero,zero,2350
   243fc:	000247bc 	xorhi	zero,zero,2334
   24400:	000244fc 	xorhi	zero,zero,2323
   24404:	000247bc 	xorhi	zero,zero,2334
   24408:	000244fc 	xorhi	zero,zero,2323
   2440c:	000244fc 	xorhi	zero,zero,2323
   24410:	000244fc 	xorhi	zero,zero,2323
   24414:	000244fc 	xorhi	zero,zero,2323
   24418:	00024d70 	cmpltui	zero,zero,2357
   2441c:	000244fc 	xorhi	zero,zero,2323
   24420:	000244fc 	xorhi	zero,zero,2323
   24424:	000246f0 	cmpltui	zero,zero,2331
   24428:	000244fc 	xorhi	zero,zero,2323
   2442c:	000244fc 	xorhi	zero,zero,2323
   24430:	000244fc 	xorhi	zero,zero,2323
   24434:	000244fc 	xorhi	zero,zero,2323
   24438:	000244fc 	xorhi	zero,zero,2323
   2443c:	000246c8 	cmpgei	zero,zero,2331
   24440:	000244fc 	xorhi	zero,zero,2323
   24444:	000244fc 	xorhi	zero,zero,2323
   24448:	00024da4 	muli	zero,zero,2358
   2444c:	000244fc 	xorhi	zero,zero,2323
   24450:	000244fc 	xorhi	zero,zero,2323
   24454:	000244fc 	xorhi	zero,zero,2323
   24458:	000244fc 	xorhi	zero,zero,2323
   2445c:	000244fc 	xorhi	zero,zero,2323
   24460:	000244fc 	xorhi	zero,zero,2323
   24464:	000244fc 	xorhi	zero,zero,2323
   24468:	000244fc 	xorhi	zero,zero,2323
   2446c:	000244fc 	xorhi	zero,zero,2323
   24470:	000244fc 	xorhi	zero,zero,2323
   24474:	00024d7c 	xorhi	zero,zero,2357
   24478:	000249d0 	cmplti	zero,zero,2343
   2447c:	000247bc 	xorhi	zero,zero,2334
   24480:	000247bc 	xorhi	zero,zero,2334
   24484:	000247bc 	xorhi	zero,zero,2334
   24488:	00024a44 	movi	zero,2345
   2448c:	000249d0 	cmplti	zero,zero,2343
   24490:	000244fc 	xorhi	zero,zero,2323
   24494:	000244fc 	xorhi	zero,zero,2323
   24498:	00024b78 	rdprs	zero,zero,2349
   2449c:	000244fc 	xorhi	zero,zero,2323
   244a0:	00024b3c 	xorhi	zero,zero,2348
   244a4:	000246f4 	movhi	zero,2331
   244a8:	00024afc 	xorhi	zero,zero,2347
   244ac:	00024af0 	cmpltui	zero,zero,2347
   244b0:	000244fc 	xorhi	zero,zero,2323
   244b4:	00024a98 	cmpnei	zero,zero,2346
   244b8:	000244fc 	xorhi	zero,zero,2323
   244bc:	000246cc 	andi	zero,zero,2331
   244c0:	000244fc 	xorhi	zero,zero,2323
   244c4:	000244fc 	xorhi	zero,zero,2323
   244c8:	00024a50 	cmplti	zero,zero,2345
   244cc:	0021883a 	mov	r16,zero
   244d0:	e0bff404 	addi	r2,fp,-48
   244d4:	bf000007 	ldb	fp,0(r23)
   244d8:	840002a4 	muli	r16,r16,10
   244dc:	bdc00044 	addi	r23,r23,1
   244e0:	1421883a 	add	r16,r2,r16
   244e4:	e0bff404 	addi	r2,fp,-48
   244e8:	10c002b0 	cmpltui	r3,r2,10
   244ec:	183ff91e 	bne	r3,zero,244d4 <___vfprintf_internal_r+0x2c4>
   244f0:	e0bff804 	addi	r2,fp,-32
   244f4:	10c01668 	cmpgeui	r3,r2,89
   244f8:	183f9626 	beq	r3,zero,24354 <___vfprintf_internal_r+0x144>
   244fc:	21003fcc 	andi	r4,r4,255
   24500:	20068d1e 	bne	r4,zero,25f38 <___vfprintf_internal_r+0x1d28>
   24504:	e0004d26 	beq	fp,zero,2463c <___vfprintf_internal_r+0x42c>
   24508:	df001d05 	stb	fp,116(sp)
   2450c:	d8001345 	stb	zero,77(sp)
   24510:	05000044 	movi	r20,1
   24514:	05400044 	movi	r21,1
   24518:	dc401d04 	addi	r17,sp,116
   2451c:	db000415 	stw	r12,16(sp)
   24520:	0011883a 	mov	r8,zero
   24524:	d8000715 	stw	zero,28(sp)
   24528:	d8800417 	ldw	r2,16(sp)
   2452c:	1380008c 	andi	r14,r2,2
   24530:	70000126 	beq	r14,zero,24538 <___vfprintf_internal_r+0x328>
   24534:	a5000084 	addi	r20,r20,2
   24538:	d8800417 	ldw	r2,16(sp)
   2453c:	d8c01c17 	ldw	r3,112(sp)
   24540:	1340210c 	andi	r13,r2,132
   24544:	6800021e 	bne	r13,zero,24550 <___vfprintf_internal_r+0x340>
   24548:	850fc83a 	sub	r7,r16,r20
   2454c:	01c35e16 	blt	zero,r7,252c8 <___vfprintf_internal_r+0x10b8>
   24550:	d8801347 	ldb	r2,77(sp)
   24554:	10000c26 	beq	r2,zero,24588 <___vfprintf_internal_r+0x378>
   24558:	d8801b17 	ldw	r2,108(sp)
   2455c:	d9001344 	addi	r4,sp,77
   24560:	18c00044 	addi	r3,r3,1
   24564:	10800044 	addi	r2,r2,1
   24568:	b1000015 	stw	r4,0(r22)
   2456c:	01000044 	movi	r4,1
   24570:	d8801b15 	stw	r2,108(sp)
   24574:	b1000115 	stw	r4,4(r22)
   24578:	d8c01c15 	stw	r3,112(sp)
   2457c:	10800208 	cmpgei	r2,r2,8
   24580:	10039e1e 	bne	r2,zero,253fc <___vfprintf_internal_r+0x11ec>
   24584:	b5800204 	addi	r22,r22,8
   24588:	70000c26 	beq	r14,zero,245bc <___vfprintf_internal_r+0x3ac>
   2458c:	d8801b17 	ldw	r2,108(sp)
   24590:	d9001384 	addi	r4,sp,78
   24594:	18c00084 	addi	r3,r3,2
   24598:	10800044 	addi	r2,r2,1
   2459c:	b1000015 	stw	r4,0(r22)
   245a0:	01000084 	movi	r4,2
   245a4:	d8801b15 	stw	r2,108(sp)
   245a8:	b1000115 	stw	r4,4(r22)
   245ac:	d8c01c15 	stw	r3,112(sp)
   245b0:	10800208 	cmpgei	r2,r2,8
   245b4:	1003851e 	bne	r2,zero,253cc <___vfprintf_internal_r+0x11bc>
   245b8:	b5800204 	addi	r22,r22,8
   245bc:	6b402018 	cmpnei	r13,r13,128
   245c0:	68025026 	beq	r13,zero,24f04 <___vfprintf_internal_r+0xcf4>
   245c4:	4551c83a 	sub	r8,r8,r21
   245c8:	02028816 	blt	zero,r8,24fec <___vfprintf_internal_r+0xddc>
   245cc:	d8800417 	ldw	r2,16(sp)
   245d0:	1080400c 	andi	r2,r2,256
   245d4:	1002051e 	bne	r2,zero,24dec <___vfprintf_internal_r+0xbdc>
   245d8:	d8801b17 	ldw	r2,108(sp)
   245dc:	1d47883a 	add	r3,r3,r21
   245e0:	b4400015 	stw	r17,0(r22)
   245e4:	10800044 	addi	r2,r2,1
   245e8:	b5400115 	stw	r21,4(r22)
   245ec:	d8801b15 	stw	r2,108(sp)
   245f0:	d8c01c15 	stw	r3,112(sp)
   245f4:	10800208 	cmpgei	r2,r2,8
   245f8:	1002ec1e 	bne	r2,zero,251ac <___vfprintf_internal_r+0xf9c>
   245fc:	b5800204 	addi	r22,r22,8
   24600:	d8800417 	ldw	r2,16(sp)
   24604:	1440010c 	andi	r17,r2,4
   24608:	88000226 	beq	r17,zero,24614 <___vfprintf_internal_r+0x404>
   2460c:	8523c83a 	sub	r17,r16,r20
   24610:	0440bd16 	blt	zero,r17,24908 <___vfprintf_internal_r+0x6f8>
   24614:	8500010e 	bge	r16,r20,2461c <___vfprintf_internal_r+0x40c>
   24618:	a021883a 	mov	r16,r20
   2461c:	d8800517 	ldw	r2,20(sp)
   24620:	1405883a 	add	r2,r2,r16
   24624:	d8800515 	stw	r2,20(sp)
   24628:	1802b71e 	bne	r3,zero,25108 <___vfprintf_internal_r+0xef8>
   2462c:	b8800007 	ldb	r2,0(r23)
   24630:	d8001b15 	stw	zero,108(sp)
   24634:	dd802704 	addi	r22,sp,156
   24638:	103f2b1e 	bne	r2,zero,242e8 <___vfprintf_internal_r+0xd8>
   2463c:	d8801c17 	ldw	r2,112(sp)
   24640:	1006381e 	bne	r2,zero,25f24 <___vfprintf_internal_r+0x1d14>
   24644:	9080030b 	ldhu	r2,12(r18)
   24648:	1080100c 	andi	r2,r2,64
   2464c:	1006c71e 	bne	r2,zero,2616c <___vfprintf_internal_r+0x1f5c>
   24650:	d8800517 	ldw	r2,20(sp)
   24654:	dfc04017 	ldw	ra,256(sp)
   24658:	df003f17 	ldw	fp,252(sp)
   2465c:	ddc03e17 	ldw	r23,248(sp)
   24660:	dd803d17 	ldw	r22,244(sp)
   24664:	dd403c17 	ldw	r21,240(sp)
   24668:	dd003b17 	ldw	r20,236(sp)
   2466c:	dcc03a17 	ldw	r19,232(sp)
   24670:	dc803917 	ldw	r18,228(sp)
   24674:	dc403817 	ldw	r17,224(sp)
   24678:	dc003717 	ldw	r16,220(sp)
   2467c:	dec04104 	addi	sp,sp,260
   24680:	f800283a 	ret
   24684:	900b883a 	mov	r5,r18
   24688:	9809883a 	mov	r4,r19
   2468c:	002642c0 	call	2642c <__swsetup_r>
   24690:	1006b61e 	bne	r2,zero,2616c <___vfprintf_internal_r+0x1f5c>
   24694:	9080030b 	ldhu	r2,12(r18)
   24698:	1080068c 	andi	r2,r2,26
   2469c:	10800298 	cmpnei	r2,r2,10
   246a0:	103f031e 	bne	r2,zero,242b0 <___vfprintf_internal_r+0xa0>
   246a4:	9080038f 	ldh	r2,14(r18)
   246a8:	103f0116 	blt	r2,zero,242b0 <___vfprintf_internal_r+0xa0>
   246ac:	d9c00617 	ldw	r7,24(sp)
   246b0:	b00d883a 	mov	r6,r22
   246b4:	900b883a 	mov	r5,r18
   246b8:	9809883a 	mov	r4,r19
   246bc:	00263080 	call	26308 <__sbprintf>
   246c0:	d8800515 	stw	r2,20(sp)
   246c4:	003fe206 	br	24650 <___vfprintf_internal_r+0x440>
   246c8:	63000414 	ori	r12,r12,16
   246cc:	6080080c 	andi	r2,r12,32
   246d0:	10008126 	beq	r2,zero,248d8 <___vfprintf_internal_r+0x6c8>
   246d4:	d8c00617 	ldw	r3,24(sp)
   246d8:	00800044 	movi	r2,1
   246dc:	1d000017 	ldw	r20,0(r3)
   246e0:	1d400117 	ldw	r21,4(r3)
   246e4:	18c00204 	addi	r3,r3,8
   246e8:	d8c00615 	stw	r3,24(sp)
   246ec:	00000906 	br	24714 <___vfprintf_internal_r+0x504>
   246f0:	63000414 	ori	r12,r12,16
   246f4:	6080080c 	andi	r2,r12,32
   246f8:	10006b26 	beq	r2,zero,248a8 <___vfprintf_internal_r+0x698>
   246fc:	d8c00617 	ldw	r3,24(sp)
   24700:	0005883a 	mov	r2,zero
   24704:	1d000017 	ldw	r20,0(r3)
   24708:	1d400117 	ldw	r21,4(r3)
   2470c:	18c00204 	addi	r3,r3,8
   24710:	d8c00615 	stw	r3,24(sp)
   24714:	d8001345 	stb	zero,77(sp)
   24718:	40ffffe0 	cmpeqi	r3,r8,-1
   2471c:	001b883a 	mov	r13,zero
   24720:	1801351e 	bne	r3,zero,24bf8 <___vfprintf_internal_r+0x9e8>
   24724:	047fdfc4 	movi	r17,-129
   24728:	6448703a 	and	r4,r12,r17
   2472c:	a546b03a 	or	r3,r20,r21
   24730:	d9000415 	stw	r4,16(sp)
   24734:	1802e21e 	bne	r3,zero,252c0 <___vfprintf_internal_r+0x10b0>
   24738:	40025d1e 	bne	r8,zero,250b0 <___vfprintf_internal_r+0xea0>
   2473c:	1003a41e 	bne	r2,zero,255d0 <___vfprintf_internal_r+0x13c0>
   24740:	6540004c 	andi	r21,r12,1
   24744:	a803d226 	beq	r21,zero,25690 <___vfprintf_internal_r+0x1480>
   24748:	00800c04 	movi	r2,48
   2474c:	d88026c5 	stb	r2,155(sp)
   24750:	dc4026c4 	addi	r17,sp,155
   24754:	00014606 	br	24c70 <___vfprintf_internal_r+0xa60>
   24758:	85e3c83a 	sub	r17,r16,r23
   2475c:	85ffb726 	beq	r16,r23,2463c <___vfprintf_internal_r+0x42c>
   24760:	d8c01c17 	ldw	r3,112(sp)
   24764:	d8801b17 	ldw	r2,108(sp)
   24768:	b5c00015 	stw	r23,0(r22)
   2476c:	1c47883a 	add	r3,r3,r17
   24770:	10800044 	addi	r2,r2,1
   24774:	d8801b15 	stw	r2,108(sp)
   24778:	b4400115 	stw	r17,4(r22)
   2477c:	d8c01c15 	stw	r3,112(sp)
   24780:	10800208 	cmpgei	r2,r2,8
   24784:	1000061e 	bne	r2,zero,247a0 <___vfprintf_internal_r+0x590>
   24788:	b5800204 	addi	r22,r22,8
   2478c:	d8c00517 	ldw	r3,20(sp)
   24790:	80800003 	ldbu	r2,0(r16)
   24794:	1c47883a 	add	r3,r3,r17
   24798:	d8c00515 	stw	r3,20(sp)
   2479c:	003edc06 	br	24310 <___vfprintf_internal_r+0x100>
   247a0:	d9801a04 	addi	r6,sp,104
   247a4:	900b883a 	mov	r5,r18
   247a8:	9809883a 	mov	r4,r19
   247ac:	002ae5c0 	call	2ae5c <__sprint_r>
   247b0:	103fa41e 	bne	r2,zero,24644 <___vfprintf_internal_r+0x434>
   247b4:	dd802704 	addi	r22,sp,156
   247b8:	003ff406 	br	2478c <___vfprintf_internal_r+0x57c>
   247bc:	21003fcc 	andi	r4,r4,255
   247c0:	2006681e 	bne	r4,zero,26164 <___vfprintf_internal_r+0x1f54>
   247c4:	d8c00617 	ldw	r3,24(sp)
   247c8:	6080020c 	andi	r2,r12,8
   247cc:	19000204 	addi	r4,r3,8
   247d0:	d9000e15 	stw	r4,56(sp)
   247d4:	1003ce1e 	bne	r2,zero,25710 <___vfprintf_internal_r+0x1500>
   247d8:	d8800617 	ldw	r2,24(sp)
   247dc:	10c00017 	ldw	r3,0(r2)
   247e0:	10800117 	ldw	r2,4(r2)
   247e4:	d8c00915 	stw	r3,36(sp)
   247e8:	d8800a15 	stw	r2,40(sp)
   247ec:	dd400a17 	ldw	r21,40(sp)
   247f0:	dd000917 	ldw	r20,36(sp)
   247f4:	00a00034 	movhi	r2,32768
   247f8:	10bfffc4 	addi	r2,r2,-1
   247fc:	a8a2703a 	and	r17,r21,r2
   24800:	01dffc34 	movhi	r7,32752
   24804:	01bfffc4 	movi	r6,-1
   24808:	39ffffc4 	addi	r7,r7,-1
   2480c:	a009883a 	mov	r4,r20
   24810:	880b883a 	mov	r5,r17
   24814:	da000615 	stw	r8,24(sp)
   24818:	db000415 	stw	r12,16(sp)
   2481c:	002fce40 	call	2fce4 <__unorddf2>
   24820:	db000417 	ldw	r12,16(sp)
   24824:	da000617 	ldw	r8,24(sp)
   24828:	10046e1e 	bne	r2,zero,259e4 <___vfprintf_internal_r+0x17d4>
   2482c:	01dffc34 	movhi	r7,32752
   24830:	01bfffc4 	movi	r6,-1
   24834:	39ffffc4 	addi	r7,r7,-1
   24838:	a009883a 	mov	r4,r20
   2483c:	880b883a 	mov	r5,r17
   24840:	002ec500 	call	2ec50 <__ledf2>
   24844:	db000417 	ldw	r12,16(sp)
   24848:	da000617 	ldw	r8,24(sp)
   2484c:	0084650e 	bge	zero,r2,259e4 <___vfprintf_internal_r+0x17d4>
   24850:	000d883a 	mov	r6,zero
   24854:	000f883a 	mov	r7,zero
   24858:	a009883a 	mov	r4,r20
   2485c:	a80b883a 	mov	r5,r21
   24860:	002ec500 	call	2ec50 <__ledf2>
   24864:	db000417 	ldw	r12,16(sp)
   24868:	10059b16 	blt	r2,zero,25ed8 <___vfprintf_internal_r+0x1cc8>
   2486c:	db401343 	ldbu	r13,77(sp)
   24870:	e0801210 	cmplti	r2,fp,72
   24874:	1005721e 	bne	r2,zero,25e40 <___vfprintf_internal_r+0x1c30>
   24878:	044000f4 	movhi	r17,3
   2487c:	8c4e7204 	addi	r17,r17,14792
   24880:	00bfdfc4 	movi	r2,-129
   24884:	6084703a 	and	r2,r12,r2
   24888:	d8800415 	stw	r2,16(sp)
   2488c:	d8800e17 	ldw	r2,56(sp)
   24890:	050000c4 	movi	r20,3
   24894:	054000c4 	movi	r21,3
   24898:	d8800615 	stw	r2,24(sp)
   2489c:	0011883a 	mov	r8,zero
   248a0:	d8000715 	stw	zero,28(sp)
   248a4:	0000f606 	br	24c80 <___vfprintf_internal_r+0xa70>
   248a8:	d9000617 	ldw	r4,24(sp)
   248ac:	6080040c 	andi	r2,r12,16
   248b0:	20c00104 	addi	r3,r4,4
   248b4:	1003871e 	bne	r2,zero,256d4 <___vfprintf_internal_r+0x14c4>
   248b8:	6080100c 	andi	r2,r12,64
   248bc:	10056926 	beq	r2,zero,25e64 <___vfprintf_internal_r+0x1c54>
   248c0:	d8800617 	ldw	r2,24(sp)
   248c4:	002b883a 	mov	r21,zero
   248c8:	d8c00615 	stw	r3,24(sp)
   248cc:	1500000b 	ldhu	r20,0(r2)
   248d0:	0005883a 	mov	r2,zero
   248d4:	003f8f06 	br	24714 <___vfprintf_internal_r+0x504>
   248d8:	d9000617 	ldw	r4,24(sp)
   248dc:	6080040c 	andi	r2,r12,16
   248e0:	20c00104 	addi	r3,r4,4
   248e4:	1003801e 	bne	r2,zero,256e8 <___vfprintf_internal_r+0x14d8>
   248e8:	6080100c 	andi	r2,r12,64
   248ec:	10056326 	beq	r2,zero,25e7c <___vfprintf_internal_r+0x1c6c>
   248f0:	d8800617 	ldw	r2,24(sp)
   248f4:	002b883a 	mov	r21,zero
   248f8:	d8c00615 	stw	r3,24(sp)
   248fc:	1500000b 	ldhu	r20,0(r2)
   24900:	00800044 	movi	r2,1
   24904:	003f8306 	br	24714 <___vfprintf_internal_r+0x504>
   24908:	030000f4 	movhi	r12,3
   2490c:	89000450 	cmplti	r4,r17,17
   24910:	d8801b17 	ldw	r2,108(sp)
   24914:	630e8604 	addi	r12,r12,14872
   24918:	20001b1e 	bne	r4,zero,24988 <___vfprintf_internal_r+0x778>
   2491c:	05400404 	movi	r21,16
   24920:	6039883a 	mov	fp,r12
   24924:	00000406 	br	24938 <___vfprintf_internal_r+0x728>
   24928:	8c7ffc04 	addi	r17,r17,-16
   2492c:	89000448 	cmpgei	r4,r17,17
   24930:	b5800204 	addi	r22,r22,8
   24934:	20001326 	beq	r4,zero,24984 <___vfprintf_internal_r+0x774>
   24938:	10800044 	addi	r2,r2,1
   2493c:	18c00404 	addi	r3,r3,16
   24940:	b7000015 	stw	fp,0(r22)
   24944:	b5400115 	stw	r21,4(r22)
   24948:	d8c01c15 	stw	r3,112(sp)
   2494c:	d8801b15 	stw	r2,108(sp)
   24950:	11000208 	cmpgei	r4,r2,8
   24954:	203ff426 	beq	r4,zero,24928 <___vfprintf_internal_r+0x718>
   24958:	d9801a04 	addi	r6,sp,104
   2495c:	900b883a 	mov	r5,r18
   24960:	9809883a 	mov	r4,r19
   24964:	002ae5c0 	call	2ae5c <__sprint_r>
   24968:	103f361e 	bne	r2,zero,24644 <___vfprintf_internal_r+0x434>
   2496c:	8c7ffc04 	addi	r17,r17,-16
   24970:	89000448 	cmpgei	r4,r17,17
   24974:	d8c01c17 	ldw	r3,112(sp)
   24978:	d8801b17 	ldw	r2,108(sp)
   2497c:	dd802704 	addi	r22,sp,156
   24980:	203fed1e 	bne	r4,zero,24938 <___vfprintf_internal_r+0x728>
   24984:	e019883a 	mov	r12,fp
   24988:	10800044 	addi	r2,r2,1
   2498c:	1c47883a 	add	r3,r3,r17
   24990:	d8801b15 	stw	r2,108(sp)
   24994:	b3000015 	stw	r12,0(r22)
   24998:	b4400115 	stw	r17,4(r22)
   2499c:	d8c01c15 	stw	r3,112(sp)
   249a0:	10800210 	cmplti	r2,r2,8
   249a4:	103f1b1e 	bne	r2,zero,24614 <___vfprintf_internal_r+0x404>
   249a8:	d9801a04 	addi	r6,sp,104
   249ac:	900b883a 	mov	r5,r18
   249b0:	9809883a 	mov	r4,r19
   249b4:	002ae5c0 	call	2ae5c <__sprint_r>
   249b8:	103f221e 	bne	r2,zero,24644 <___vfprintf_internal_r+0x434>
   249bc:	d8c01c17 	ldw	r3,112(sp)
   249c0:	003f1406 	br	24614 <___vfprintf_internal_r+0x404>
   249c4:	9809883a 	mov	r4,r19
   249c8:	00284d80 	call	284d8 <__sinit>
   249cc:	003e2806 	br	24270 <___vfprintf_internal_r+0x60>
   249d0:	21003fcc 	andi	r4,r4,255
   249d4:	2005d91e 	bne	r4,zero,2613c <___vfprintf_internal_r+0x1f2c>
   249d8:	6080080c 	andi	r2,r12,32
   249dc:	10007026 	beq	r2,zero,24ba0 <___vfprintf_internal_r+0x990>
   249e0:	d8c00617 	ldw	r3,24(sp)
   249e4:	18800117 	ldw	r2,4(r3)
   249e8:	1d000017 	ldw	r20,0(r3)
   249ec:	18c00204 	addi	r3,r3,8
   249f0:	d8c00615 	stw	r3,24(sp)
   249f4:	102b883a 	mov	r21,r2
   249f8:	10007516 	blt	r2,zero,24bd0 <___vfprintf_internal_r+0x9c0>
   249fc:	40bfffd8 	cmpnei	r2,r8,-1
   24a00:	10034826 	beq	r2,zero,25724 <___vfprintf_internal_r+0x1514>
   24a04:	047fdfc4 	movi	r17,-129
   24a08:	6446703a 	and	r3,r12,r17
   24a0c:	a544b03a 	or	r2,r20,r21
   24a10:	d8c00415 	stw	r3,16(sp)
   24a14:	db401343 	ldbu	r13,77(sp)
   24a18:	1002ec26 	beq	r2,zero,255cc <___vfprintf_internal_r+0x13bc>
   24a1c:	db000417 	ldw	r12,16(sp)
   24a20:	a803421e 	bne	r21,zero,2572c <___vfprintf_internal_r+0x151c>
   24a24:	a08002a8 	cmpgeui	r2,r20,10
   24a28:	1003401e 	bne	r2,zero,2572c <___vfprintf_internal_r+0x151c>
   24a2c:	a5000c04 	addi	r20,r20,48
   24a30:	dd0026c5 	stb	r20,155(sp)
   24a34:	db000415 	stw	r12,16(sp)
   24a38:	05400044 	movi	r21,1
   24a3c:	dc4026c4 	addi	r17,sp,155
   24a40:	00008b06 	br	24c70 <___vfprintf_internal_r+0xa60>
   24a44:	bac00007 	ldb	r11,0(r23)
   24a48:	63001014 	ori	r12,r12,64
   24a4c:	003e3c06 	br	24340 <___vfprintf_internal_r+0x130>
   24a50:	21003fcc 	andi	r4,r4,255
   24a54:	2005bf1e 	bne	r4,zero,26154 <___vfprintf_internal_r+0x1f44>
   24a58:	008000f4 	movhi	r2,3
   24a5c:	108e7a04 	addi	r2,r2,14824
   24a60:	d8800c15 	stw	r2,48(sp)
   24a64:	6080080c 	andi	r2,r12,32
   24a68:	1000d526 	beq	r2,zero,24dc0 <___vfprintf_internal_r+0xbb0>
   24a6c:	d8800617 	ldw	r2,24(sp)
   24a70:	15000017 	ldw	r20,0(r2)
   24a74:	15400117 	ldw	r21,4(r2)
   24a78:	10800204 	addi	r2,r2,8
   24a7c:	d8800615 	stw	r2,24(sp)
   24a80:	6080004c 	andi	r2,r12,1
   24a84:	10000226 	beq	r2,zero,24a90 <___vfprintf_internal_r+0x880>
   24a88:	a544b03a 	or	r2,r20,r21
   24a8c:	1003071e 	bne	r2,zero,256ac <___vfprintf_internal_r+0x149c>
   24a90:	00800084 	movi	r2,2
   24a94:	003f1f06 	br	24714 <___vfprintf_internal_r+0x504>
   24a98:	d8800617 	ldw	r2,24(sp)
   24a9c:	d8001345 	stb	zero,77(sp)
   24aa0:	14400017 	ldw	r17,0(r2)
   24aa4:	10c00104 	addi	r3,r2,4
   24aa8:	88037526 	beq	r17,zero,25880 <___vfprintf_internal_r+0x1670>
   24aac:	40bfffe0 	cmpeqi	r2,r8,-1
   24ab0:	1004641e 	bne	r2,zero,25c44 <___vfprintf_internal_r+0x1a34>
   24ab4:	400d883a 	mov	r6,r8
   24ab8:	000b883a 	mov	r5,zero
   24abc:	8809883a 	mov	r4,r17
   24ac0:	d8c00715 	stw	r3,28(sp)
   24ac4:	db000615 	stw	r12,24(sp)
   24ac8:	da000415 	stw	r8,16(sp)
   24acc:	00291d40 	call	291d4 <memchr>
   24ad0:	da000417 	ldw	r8,16(sp)
   24ad4:	db000617 	ldw	r12,24(sp)
   24ad8:	d8c00717 	ldw	r3,28(sp)
   24adc:	10058726 	beq	r2,zero,260fc <___vfprintf_internal_r+0x1eec>
   24ae0:	146bc83a 	sub	r21,r2,r17
   24ae4:	a829883a 	mov	r20,r21
