
Vision.elf:     file format elf32-littlenios2
Vision.elf
architecture: nios2:r1, flags 0x00000112:
EXEC_P, HAS_SYMS, D_PAGED
start address 0x00020238

Program Header:
    LOAD off    0x00001000 vaddr 0x00020000 paddr 0x00020000 align 2**12
         filesz 0x00000020 memsz 0x00000020 flags r-x
    LOAD off    0x00001020 vaddr 0x00020020 paddr 0x00020020 align 2**12
         filesz 0x00013ff4 memsz 0x00013ff4 flags r-x
    LOAD off    0x00015014 vaddr 0x00034014 paddr 0x00036464 align 2**12
         filesz 0x00002450 memsz 0x00002450 flags rw-
    LOAD off    0x000178b4 vaddr 0x000388b4 paddr 0x000388b4 align 2**12
         filesz 0x00000000 memsz 0x00000158 flags rw-

Sections:
Idx Name          Size      VMA       LMA       File off  Algn
  0 .entry        00000020  00020000  00020000  00001000  2**5
                  CONTENTS, ALLOC, LOAD, READONLY, CODE
  1 .exceptions   00000218  00020020  00020020  00001020  2**2
                  CONTENTS, ALLOC, LOAD, READONLY, CODE
  2 .text         00013160  00020238  00020238  00001238  2**2
                  CONTENTS, ALLOC, LOAD, READONLY, CODE
  3 .rodata       00000c7c  00033398  00033398  00014398  2**2
                  CONTENTS, ALLOC, LOAD, READONLY, DATA
  4 .rwdata       00002450  00034014  00036464  00015014  2**2
                  CONTENTS, ALLOC, LOAD, DATA, SMALL_DATA
  5 .bss          00000158  000388b4  000388b4  000178b4  2**2
                  ALLOC, SMALL_DATA
  6 .onchip_memory2_0 00000000  00038a0c  00038a0c  00017464  2**0
                  CONTENTS
  7 .comment      0000002c  00000000  00000000  00017464  2**0
                  CONTENTS, READONLY
  8 .debug_aranges 000013d8  00000000  00000000  00017490  2**3
                  CONTENTS, READONLY, DEBUGGING
  9 .debug_info   0005f027  00000000  00000000  00018868  2**0
                  CONTENTS, READONLY, DEBUGGING
 10 .debug_abbrev 00013664  00000000  00000000  0007788f  2**0
                  CONTENTS, READONLY, DEBUGGING
 11 .debug_line   0001eb00  00000000  00000000  0008aef3  2**0
                  CONTENTS, READONLY, DEBUGGING
 12 .debug_frame  00003020  00000000  00000000  000a99f4  2**2
                  CONTENTS, READONLY, DEBUGGING
 13 .debug_str    00004c89  00000000  00000000  000aca14  2**0
                  CONTENTS, READONLY, DEBUGGING
 14 .debug_loc    0001e8e2  00000000  00000000  000b169d  2**0
                  CONTENTS, READONLY, DEBUGGING
 15 .debug_alt_sim_info 00000060  00000000  00000000  000cff80  2**2
                  CONTENTS, READONLY, DEBUGGING
 16 .debug_ranges 00001f98  00000000  00000000  000cffe0  2**3
                  CONTENTS, READONLY, DEBUGGING
 17 .thread_model 00000003  00000000  00000000  000d6030  2**0
                  CONTENTS, READONLY
 18 .cpu          0000000a  00000000  00000000  000d6033  2**0
                  CONTENTS, READONLY
 19 .qsys         00000001  00000000  00000000  000d603d  2**0
                  CONTENTS, READONLY
 20 .simulation_enabled 00000001  00000000  00000000  000d603e  2**0
                  CONTENTS, READONLY
 21 .sysid_hash   00000004  00000000  00000000  000d603f  2**0
                  CONTENTS, READONLY
 22 .sysid_base   00000004  00000000  00000000  000d6043  2**0
                  CONTENTS, READONLY
 23 .sysid_time   00000004  00000000  00000000  000d6047  2**0
                  CONTENTS, READONLY
 24 .stderr_dev   00000009  00000000  00000000  000d604b  2**0
                  CONTENTS, READONLY
 25 .stdin_dev    00000009  00000000  00000000  000d6054  2**0
                  CONTENTS, READONLY
 26 .stdout_dev   00000009  00000000  00000000  000d605d  2**0
                  CONTENTS, READONLY
 27 .sopc_system_name 00000004  00000000  00000000  000d6066  2**0
                  CONTENTS, READONLY
 28 .quartus_project_dir 00000039  00000000  00000000  000d606a  2**0
                  CONTENTS, READONLY
 29 .jdi          0000492f  00000000  00000000  000d60a3  2**0
                  CONTENTS, READONLY
SYMBOL TABLE:
00020000 l    d  .entry	00000000 .entry
00020020 l    d  .exceptions	00000000 .exceptions
00020238 l    d  .text	00000000 .text
00033398 l    d  .rodata	00000000 .rodata
00034014 l    d  .rwdata	00000000 .rwdata
000388b4 l    d  .bss	00000000 .bss
00038a0c l    d  .onchip_memory2_0	00000000 .onchip_memory2_0
00000000 l    d  .comment	00000000 .comment
00000000 l    d  .debug_aranges	00000000 .debug_aranges
00000000 l    d  .debug_info	00000000 .debug_info
00000000 l    d  .debug_abbrev	00000000 .debug_abbrev
00000000 l    d  .debug_line	00000000 .debug_line
00000000 l    d  .debug_frame	00000000 .debug_frame
00000000 l    d  .debug_str	00000000 .debug_str
00000000 l    d  .debug_loc	00000000 .debug_loc
00000000 l    d  .debug_alt_sim_info	00000000 .debug_alt_sim_info
00000000 l    d  .debug_ranges	00000000 .debug_ranges
00000000 l    df *ABS*	00000000 C:/Users/Emre/Documents/projectnios2/DE10_LITE_D8M_VIP_16/software/Vision_bsp/obj/HAL/src/crt0.o
00020280 l       .text	00000000 alt_after_alt_main
00000000 l    df *ABS*	00000000 alt_irq_handler.c
00000000 l    df *ABS*	00000000 alt_instruction_exception_entry.c
00000000 l    df *ABS*	00000000 I2C_core.c
00000000 l    df *ABS*	00000000 auto_focus.c
00000000 l    df *ABS*	00000000 main.c
00000000 l    df *ABS*	00000000 mipi_bridge_config.c
00034014 l     O .rwdata	00000034 MipiBridgeReg
00000000 l    df *ABS*	00000000 mipi_camera_config.c
00034048 l     O .rwdata	00000774 MipiCameraReg
00000000 l    df *ABS*	00000000 queue.c
00000000 l    df *ABS*	00000000 lib2-divmod.c
00000000 l    df *ABS*	00000000 fopen.c
00000000 l    df *ABS*	00000000 fseek.c
00000000 l    df *ABS*	00000000 fseeko.c
00000000 l    df *ABS*	00000000 fstatr.c
00000000 l    df *ABS*	00000000 fwrite.c
00000000 l    df *ABS*	00000000 getchar.c
00000000 l    df *ABS*	00000000 impure.c
000347bc l     O .rwdata	00000424 impure_data
00000000 l    df *ABS*	00000000 int_errno.c
00000000 l    df *ABS*	00000000 makebuf.c
00000000 l    df *ABS*	00000000 malloc.c
00000000 l    df *ABS*	00000000 mallocr.c
00000000 l    df *ABS*	00000000 memset.c
00000000 l    df *ABS*	00000000 openr.c
00000000 l    df *ABS*	00000000 printf.c
00000000 l    df *ABS*	00000000 putchar.c
00000000 l    df *ABS*	00000000 puts.c
00000000 l    df *ABS*	00000000 refill.c
00023df8 l     F .text	0000001c lflush
00000000 l    df *ABS*	00000000 sbrkr.c
00000000 l    df *ABS*	00000000 stdio.c
00000000 l    df *ABS*	00000000 strlen.c
00000000 l    df *ABS*	00000000 vfprintf.c
00026308 l     F .text	000000c0 __sbprintf
00033a18 l     O .rodata	00000010 blanks.5176
00033a08 l     O .rodata	00000010 zeroes.5177
00000000 l    df *ABS*	00000000 writer.c
00000000 l    df *ABS*	00000000 wsetup.c
00000000 l    df *ABS*	00000000 closer.c
00000000 l    df *ABS*	00000000 dtoa.c
000265e0 l     F .text	000001fc quorem
00000000 l    df *ABS*	00000000 fflush.c
00000000 l    df *ABS*	00000000 findfp.c
000281dc l     F .text	00000008 __fp_lock
000281f0 l     F .text	00000168 __sinit.part.0
00028358 l     F .text	00000008 __fp_unlock
00000000 l    df *ABS*	00000000 flags.c
00000000 l    df *ABS*	00000000 mallocr.c
00000000 l    df *ABS*	00000000 fvwrite.c
00000000 l    df *ABS*	00000000 fwalk.c
00000000 l    df *ABS*	00000000 getc.c
00000000 l    df *ABS*	00000000 isattyr.c
00000000 l    df *ABS*	00000000 localeconv.c
00000000 l    df *ABS*	00000000 lseekr.c
00000000 l    df *ABS*	00000000 memchr.c
00000000 l    df *ABS*	00000000 memcpy.c
00000000 l    df *ABS*	00000000 memmove.c
00000000 l    df *ABS*	00000000 mprec.c
00033ac4 l     O .rodata	0000000c p05.3991
00000000 l    df *ABS*	00000000 putc.c
00000000 l    df *ABS*	00000000 readr.c
00000000 l    df *ABS*	00000000 mallocr.c
00000000 l    df *ABS*	00000000 rget.c
00000000 l    df *ABS*	00000000 vfprintf.c
0002ad68 l     F .text	000000f4 __sprint_r.part.0
0002c194 l     F .text	000000c0 __sbprintf
00033bf8 l     O .rodata	00000010 blanks.5153
00033be8 l     O .rodata	00000010 zeroes.5154
00000000 l    df *ABS*	00000000 wbuf.c
00000000 l    df *ABS*	00000000 assert.c
00000000 l    df *ABS*	00000000 mallocr.c
00000000 l    df *ABS*	00000000 fclose.c
00000000 l    df *ABS*	00000000 fiprintf.c
00000000 l    df *ABS*	00000000 fputwc.c
00000000 l    df *ABS*	00000000 locale.c
00000000 l    df *ABS*	00000000 mbtowc_r.c
00000000 l    df *ABS*	00000000 strcmp.c
00000000 l    df *ABS*	00000000 vfiprintfr_1.c
00000000 l    df *ABS*	00000000 wcrtomb.c
00000000 l    df *ABS*	00000000 wctomb_r.c
00000000 l    df *ABS*	00000000 abort.c
00000000 l    df *ABS*	00000000 ctype_.c
00000000 l    df *ABS*	00000000 signal.c
0002cb2c l     F .text	0000004c _init_signal_r.part.0
00000000 l    df *ABS*	00000000 signalr.c
00000000 l    df *ABS*	00000000 libgcc2.c
00000000 l    df *ABS*	00000000 libgcc2.c
00000000 l    df *ABS*	00000000 adddf3.c
00000000 l    df *ABS*	00000000 divdf3.c
00000000 l    df *ABS*	00000000 eqdf2.c
00000000 l    df *ABS*	00000000 gedf2.c
00000000 l    df *ABS*	00000000 ledf2.c
00000000 l    df *ABS*	00000000 muldf3.c
00000000 l    df *ABS*	00000000 subdf3.c
00000000 l    df *ABS*	00000000 unorddf2.c
00000000 l    df *ABS*	00000000 fixdfsi.c
00000000 l    df *ABS*	00000000 floatsidf.c
00000000 l    df *ABS*	00000000 floatunsidf.c
00000000 l    df *ABS*	00000000 libgcc2.c
00000000 l    df *ABS*	00000000 libgcc2.c
00000000 l    df *ABS*	00000000 alt_close.c
0002ff58 l     F .text	0000003c alt_get_errno
00000000 l    df *ABS*	00000000 alt_dev.c
00030064 l     F .text	0000002c alt_dev_null_write
00000000 l    df *ABS*	00000000 alt_errno.c
00000000 l    df *ABS*	00000000 alt_exit.c
00000000 l    df *ABS*	00000000 alt_fcntl.c
000300c8 l     F .text	0000003c alt_get_errno
00000000 l    df *ABS*	00000000 alt_fstat.c
00030228 l     F .text	0000003c alt_get_errno
00000000 l    df *ABS*	00000000 alt_getpid.c
00000000 l    df *ABS*	00000000 alt_isatty.c
00030334 l     F .text	0000003c alt_get_errno
00000000 l    df *ABS*	00000000 alt_kill.c
00030414 l     F .text	0000003c alt_get_errno
00000000 l    df *ABS*	00000000 alt_load.c
0003057c l     F .text	00000068 alt_load_section
00000000 l    df *ABS*	00000000 alt_lseek.c
00030668 l     F .text	0000003c alt_get_errno
00000000 l    df *ABS*	00000000 alt_main.c
00000000 l    df *ABS*	00000000 alt_malloc_lock.c
00000000 l    df *ABS*	00000000 alt_open.c
0003083c l     F .text	0000003c alt_get_errno
00030878 l     F .text	000000b8 alt_file_locked
00000000 l    df *ABS*	00000000 alt_read.c
00030a84 l     F .text	0000003c alt_get_errno
00000000 l    df *ABS*	00000000 alt_release_fd.c
00000000 l    df *ABS*	00000000 alt_sbrk.c
00036454 l     O .rwdata	00000004 heap_end
00000000 l    df *ABS*	00000000 alt_tick.c
00000000 l    df *ABS*	00000000 alt_usleep.c
00000000 l    df *ABS*	00000000 alt_write.c
00030ea8 l     F .text	0000003c alt_get_errno
00000000 l    df *ABS*	00000000 alt_sys_init.c
00030fdc l     F .text	00000034 alt_dev_reg
000352fc l     O .rwdata	00001060 jtag_uart
0003635c l     O .rwdata	000000c4 uart_0
00000000 l    df *ABS*	00000000 altera_avalon_jtag_uart_fd.c
00000000 l    df *ABS*	00000000 altera_avalon_jtag_uart_init.c
000312f4 l     F .text	0000020c altera_avalon_jtag_uart_irq
00031500 l     F .text	000000a0 altera_avalon_jtag_uart_timeout
00000000 l    df *ABS*	00000000 altera_avalon_jtag_uart_ioctl.c
00000000 l    df *ABS*	00000000 altera_avalon_jtag_uart_read.c
00000000 l    df *ABS*	00000000 altera_avalon_jtag_uart_write.c
00000000 l    df *ABS*	00000000 altera_avalon_timer_sc.c
00031b44 l     F .text	0000007c alt_avalon_timer_sc_irq
00000000 l    df *ABS*	00000000 altera_avalon_uart_fd.c
00000000 l    df *ABS*	00000000 altera_avalon_uart_init.c
00031e00 l     F .text	0000009c altera_avalon_uart_irq
00031e9c l     F .text	000000e0 altera_avalon_uart_rxirq
00031f7c l     F .text	00000144 altera_avalon_uart_txirq
00000000 l    df *ABS*	00000000 altera_avalon_uart_read.c
00032114 l     F .text	0000003c alt_get_errno
00000000 l    df *ABS*	00000000 altera_avalon_uart_write.c
00032338 l     F .text	0000003c alt_get_errno
00000000 l    df *ABS*	00000000 alt_alarm_start.c
00000000 l    df *ABS*	00000000 alt_busy_sleep.c
00000000 l    df *ABS*	00000000 alt_dcache_flush_all.c
00000000 l    df *ABS*	00000000 alt_dev_llist_insert.c
00032800 l     F .text	0000003c alt_get_errno
00000000 l    df *ABS*	00000000 alt_do_ctors.c
00000000 l    df *ABS*	00000000 alt_do_dtors.c
00000000 l    df *ABS*	00000000 alt_find_dev.c
00000000 l    df *ABS*	00000000 alt_find_file.c
00000000 l    df *ABS*	00000000 alt_get_fd.c
00000000 l    df *ABS*	00000000 alt_icache_flush_all.c
00000000 l    df *ABS*	00000000 alt_iic.c
00000000 l    df *ABS*	00000000 alt_iic_isr_register.c
00000000 l    df *ABS*	00000000 alt_io_redirect.c
00032eb0 l     F .text	000000b0 alt_open_fd
00000000 l    df *ABS*	00000000 alt_irq_vars.c
00000000 l    df *ABS*	00000000 altera_nios2_gen2_irq.c
00000000 l    df *ABS*	00000000 alt_icache_flush.c
00000000 l    df *ABS*	00000000 atexit.c
00000000 l    df *ABS*	00000000 exit.c
00000000 l    df *ABS*	00000000 memcmp.c
00000000 l    df *ABS*	00000000 __atexit.c
00000000 l    df *ABS*	00000000 __call_atexit.c
000388e0 g     O .bss	00000004 alt_instruction_exception_handler
00023d04 g     F .text	00000018 putchar
0002a434 g     F .text	00000070 _mprec_log10
0002a510 g     F .text	00000060 __any_on
000290f8 g     F .text	00000058 _isatty_r
00033ad0 g     O .rodata	00000028 __mprec_tinytens
00030778 g     F .text	0000007c alt_main
00023d1c g     F .text	000000cc _puts_r
0003890c g     O .bss	00000100 alt_irq
00029170 g     F .text	00000064 _lseek_r
00021304 g     F .text	0000008c Focus_Released
000205d0 g     F .text	00000060 ACK_check
00036464 g       *ABS*	00000000 __flash_rwdata_start
00020544 g     F .text	0000008c ACK_single_check
00028520 g     F .text	000000b8 __sflags
0002eae0 g     F .text	00000080 .hidden __eqdf2
0002113c g     F .text	000001c8 Focus_Window
00021e48 g     F .text	00000070 OV8865_write_AF
00038a0c g       *ABS*	00000000 __alt_heap_start
000226f8 g     F .text	00000064 QUEUE_IsFull
0002cde0 g     F .text	00000060 _kill_r
00023cc4 g     F .text	00000038 printf
0002c9e4 g     F .text	0000006c _wcrtomb_r
0002cb8c g     F .text	00000084 _signal_r
00024114 g     F .text	0000005c __sseek
000284d8 g     F .text	00000010 __sinit
0002c254 g     F .text	00000148 __swbuf_r
0002c840 g     F .text	00000074 _setlocale_r
00028360 g     F .text	00000068 __sfmoreglue
00030818 g     F .text	00000024 __malloc_unlock
000293a8 g     F .text	0000012c memmove
00020630 g     F .text	00000204 OC_I2C_Write
000284c4 g     F .text	00000014 _cleanup
000294d4 g     F .text	000000a4 _Balloc
00021038 g     F .text	00000104 Focus_Init
0002eb60 g     F .text	000000f0 .hidden __gtdf2
00032fdc g     F .text	00000024 altera_nios2_gen2_irq_init
00020000 g     F .entry	0000001c __reset
00029150 g     F .text	00000008 __localeconv_l
00020020 g       *ABS*	00000000 __flash_exceptions_start
00022ff8 g     F .text	00000060 _fstat_r
00036428 g     O .rwdata	00000001 focus_scal
000388b4 g     O .bss	00000004 errno
0002ad58 g     F .text	00000010 __srget
0002408c g     F .text	00000008 __seofread
000388cc g     O .bss	00000004 alt_argv
0003e420 g       *ABS*	00000000 _gp
00030e78 g     F .text	00000030 usleep
00030314 g     F .text	00000020 getpid
0003517c g     O .rwdata	00000180 alt_fd_list
00028fec g     F .text	0000007c _getc_r
00029068 g     F .text	00000090 getc
00023cfc g     F .text	00000008 _putchar_r
000329ac g     F .text	00000090 alt_find_dev
000292a8 g     F .text	00000100 memcpy
00020384 g     F .text	0000013c oc_i2c_init_ex
000281e4 g     F .text	0000000c _cleanup_r
0002fdb8 g     F .text	000000bc .hidden __floatsidf
00032f60 g     F .text	0000007c alt_io_redirect
0002ec50 g     F .text	000000f0 .hidden __ltdf2
00033398 g       *ABS*	00000000 __DTOR_END__
00023de8 g     F .text	00000010 puts
00033090 g     F .text	00000098 alt_exception_cause_generated_bad_addr
0002a38c g     F .text	000000a8 __ratio
0002c178 g     F .text	0000001c __vfiprintf_internal
000226b8 g     F .text	00000040 QUEUE_IsEmpty
000316fc g     F .text	00000220 altera_avalon_jtag_uart_read
00023340 g     F .text	00000010 malloc
00023c94 g     F .text	00000030 _printf_r
00020000 g       *ABS*	00000000 __alt_mem_onchip_memory2_0
000229a0 g     F .text	00000064 .hidden __udivsi3
00030370 g     F .text	000000a4 isatty
0002cc10 g     F .text	000000c4 _raise_r
0002c3b4 g     F .text	00000064 __assert_func
00033b20 g     O .rodata	000000c8 __mprec_tens
00033000 g     F .text	00000090 alt_icache_flush
000388c0 g     O .bss	00000004 __malloc_top_pad
0002ce40 g     F .text	00000004 _getpid_r
00022878 g     F .text	00000034 QUEUE_Empty
00021f38 g     F .text	000000d0 OV8865_FOCUS_Move_to
00029158 g     F .text	0000000c _localeconv_r
00029920 g     F .text	00000054 __i2b
000289f0 g     F .text	000004bc __sfvwrite_r
000227ec g     F .text	0000008c QUEUE_Pop
0002ccd4 g     F .text	000000b8 __sigtramp_r
00023fe0 g     F .text	00000058 _sbrk_r
0002a71c g     F .text	00000064 _read_r
00036426 g     O .rwdata	00000002 focus_height
0003644c g     O .rwdata	00000004 alt_max_fd
0002c4e0 g     F .text	000000f8 _fclose_r
00021dd8 g     F .text	00000070 OV8865_write_cmos_sensor_8
000281b4 g     F .text	00000028 fflush
000388bc g     O .bss	00000004 __malloc_max_sbrked_mem
0002d908 g     F .text	00000978 .hidden __adddf3
0002a124 g     F .text	00000104 __b2d
0002d3d4 g     F .text	00000534 .hidden __umoddi3
000306a4 g     F .text	000000d4 lseek
0003642c g     O .rwdata	00000004 _global_impure_ptr
0002a780 g     F .text	00000564 _realloc_r
00038a0c g       *ABS*	00000000 __bss_end
00032dc8 g     F .text	000000e8 alt_iic_isr_register
00030d70 g     F .text	00000108 alt_tick
0002ce44 g     F .text	00000590 .hidden __udivdi3
0002c7a4 g     F .text	00000024 _fputwc_r
00033af8 g     O .rodata	00000028 __mprec_bigtens
000296d4 g     F .text	00000138 __s2b
0002cb14 g     F .text	00000018 abort
0002fe74 g     F .text	00000090 .hidden __floatunsidf
00036422 g     O .rwdata	00000002 video_h
00029e44 g     F .text	00000058 __mcmp
00031d54 g     F .text	000000ac altera_avalon_uart_init
000284f8 g     F .text	00000014 __fp_lock_all
00032d7c g     F .text	0000004c alt_ic_irq_enabled
00021390 g     F .text	000000b8 mipi_clear_error
00020ba0 g     F .text	00000214 OC_I2CL_Write
00030ccc g     F .text	000000a4 alt_alarm_stop
000388dc g     O .bss	00000004 alt_irq_active
00022b88 g     F .text	00000454 _fseeko_r
00020834 g     F .text	00000064 ACK_judge_for_read
000200fc g     F .exceptions	000000c8 alt_irq_handler
000220ec g     F .text	000000cc OV8865SetGain
00035154 g     O .rwdata	00000028 alt_dev_null
00020284 g     F .text	00000054 Write32_Data
000327b4 g     F .text	0000004c alt_dcache_flush_all
0002980c g     F .text	00000064 __hi0bits
0002fd38 g     F .text	00000080 .hidden __fixdfsi
00036429 g     O .rwdata	00000001 focus_scal_f
00036464 g       *ABS*	00000000 __ram_rwdata_end
00036444 g     O .rwdata	00000008 alt_dev_list
00030ee4 g     F .text	000000f8 write
0002a570 g     F .text	000000cc _putc_r
00034014 g       *ABS*	00000000 __ram_rodata_end
00030264 g     F .text	000000b0 fstat
00030450 g     F .text	0000012c kill
0002ec50 g     F .text	000000f0 .hidden __ledf2
00029ba4 g     F .text	00000118 __pow5mult
0002ae74 g     F .text	00001304 ___vfiprintf_internal_r
00022a04 g     F .text	0000005c .hidden __umodsi3
000214e0 g     F .text	00000178 mipi_show_error_info_more
00038a0c g       *ABS*	00000000 end
00022fdc g     F .text	0000001c fseeko
00032374 g     F .text	000001b4 altera_avalon_uart_write
00022b6c g     F .text	0000001c fseek
00031234 g     F .text	000000c0 altera_avalon_jtag_uart_init
000201c4 g     F .exceptions	00000074 alt_instruction_exception_entry
00033398 g       *ABS*	00000000 __CTOR_LIST__
00040000 g       *ABS*	00000000 __alt_stack_pointer
00031bc0 g     F .text	00000084 alt_avalon_timer_sc_init
00031ca4 g     F .text	00000060 altera_avalon_uart_write_fd
0002ff04 g     F .text	00000054 .hidden __clzsi2
00031d04 g     F .text	00000050 altera_avalon_uart_close_fd
0003191c g     F .text	00000228 altera_avalon_jtag_uart_write
000284e8 g     F .text	00000004 __sfp_lock_acquire
000291d4 g     F .text	000000d4 memchr
00024210 g     F .text	000020dc ___vfprintf_internal_r
000286f4 g     F .text	000002fc _free_r
00033d5c g     O .rodata	00000180 _ctype_b
0002c8b4 g     F .text	0000000c __locale_mb_cur_max
00033278 g     F .text	00000120 __call_exitprocs
0002ace4 g     F .text	00000074 __srget_r
00036434 g     O .rwdata	00000004 __malloc_sbrk_base
00020238 g     F .text	0000004c _start
000388d4 g     O .bss	00000004 _alt_tick_rate
00029cbc g     F .text	00000188 __lshift
0002275c g     F .text	00000090 QUEUE_Push
000388d8 g     O .bss	00000004 _alt_nticks
0002cd9c g     F .text	00000018 signal
00030ac0 g     F .text	000000fc read
0003104c g     F .text	00000084 alt_sys_init
00023c30 g     F .text	00000064 _open_r
000331e8 g     F .text	00000090 __register_exitproc
00021d74 g     F .text	00000064 OV8865_read_cmos_sensor_8
00029974 g     F .text	00000230 __multiply
000315a0 g     F .text	00000068 altera_avalon_jtag_uart_close
00021b84 g     F .text	00000070 MipiBridgeRegWrite
00034014 g       *ABS*	00000000 __ram_rwdata_start
00033398 g       *ABS*	00000000 __ram_rodata_start
000388e4 g     O .bss	00000028 __malloc_current_mallinfo
0002a228 g     F .text	00000164 __d2b
000310d0 g     F .text	00000060 altera_avalon_jtag_uart_read_fd
00032b44 g     F .text	000000a0 alt_get_fd
0003265c g     F .text	00000158 alt_busy_sleep
00026588 g     F .text	00000058 _close_r
00033170 g     F .text	00000078 memcmp
00031190 g     F .text	00000050 altera_avalon_jtag_uart_close_fd
00038a0c g       *ABS*	00000000 __alt_stack_base
000311e0 g     F .text	00000054 altera_avalon_jtag_uart_ioctl_fd
00023058 g     F .text	000000c4 _fwrite_r
0002642c g     F .text	0000015c __swsetup_r
0002032c g     F .text	00000058 oc_i2c_init
0002e280 g     F .text	00000860 .hidden __divdf3
000283c8 g     F .text	000000fc __sfp
0002a4a4 g     F .text	0000006c __copybits
00034be0 g     O .rwdata	00000408 __malloc_av_
000284f4 g     F .text	00000004 __sinit_lock_release
0002ed40 g     F .text	00000670 .hidden __muldf3
00024038 g     F .text	00000054 __sread
00032a3c g     F .text	00000108 alt_find_file
0003283c g     F .text	000000a8 alt_dev_llist_insert
000307f4 g     F .text	00000024 __malloc_lock
00030c14 g     F .text	000000b8 sbrk
00022434 g     F .text	000001e4 MipiCameraInit
00021b38 g     F .text	0000004c nSWAP16
00028154 g     F .text	00000060 _fflush_r
0002c42c g     F .text	000000b4 _calloc_r
00022618 g     F .text	0000006c QUEUE_New
00022b50 g     F .text	00000018 fopen
000388b4 g       *ABS*	00000000 __bss_start
00023b40 g     F .text	000000f0 memset
000216e0 g     F .text	00000458 main
000388d0 g     O .bss	00000004 alt_envp
000388b8 g     O .bss	00000004 __malloc_max_total_mem
00031130 g     F .text	00000060 altera_avalon_jtag_uart_write_fd
0002c39c g     F .text	00000018 __swbuf
00024170 g     F .text	00000008 __sclose
00040000 g       *ABS*	00000000 __alt_heap_limit
0002c5d8 g     F .text	00000010 fclose
00023158 g     F .text	00000010 getchar
000267dc g     F .text	00001750 _dtoa_r
00023360 g     F .text	000007e0 _malloc_r
0002cae4 g     F .text	00000030 __ascii_wctomb
00036450 g     O .rwdata	00000004 alt_errno
0002c5e8 g     F .text	00000020 _fiprintf_r
0002cdb4 g     F .text	0000001c _init_signal
00028eac g     F .text	00000098 _fwalk
0002c8d8 g     F .text	0000000c _mbtowc_r
0002a63c g     F .text	000000e0 putc
000228ac g     F .text	00000080 .hidden __divsi3
000204c0 g     F .text	00000084 oc_i2c_uninit
000285d8 g     F .text	0000011c _malloc_trim_r
00033398 g       *ABS*	00000000 __CTOR_END__
00022274 g     F .text	000001c0 MIPI_BIN_LEVEL
0002c928 g     F .text	000000b8 strcmp
00033398 g       *ABS*	00000000 __flash_rodata_start
00033398 g       *ABS*	00000000 __DTOR_LIST__
0002eae0 g     F .text	00000080 .hidden __nedf2
00031010 g     F .text	0000003c alt_irq_init
00030bbc g     F .text	00000058 alt_release_fd
00021c6c g     F .text	00000108 MipiBridgeInit
00033edc g     O .rodata	00000100 .hidden __clz_tab
000388c4 g     O .bss	00000004 _PathLocale
00033128 g     F .text	00000014 atexit
000263c8 g     F .text	00000064 _write_r
0002c8c0 g     F .text	00000018 setlocale
00036430 g     O .rwdata	00000004 _impure_ptr
000388c8 g     O .bss	00000004 alt_argc
00021bf4 g     F .text	00000078 MipiBridgeRegRead
00027f2c g     F .text	00000228 __sflush_r
00032948 g     F .text	00000064 _do_dtors
00022b68 g     F .text	00000004 _fseek_r
00036420 g     O .rwdata	00000002 video_w
00023e14 g     F .text	000001cc __srefill_r
00020020 g       .exceptions	00000000 alt_irq_entry
0002c8e4 g     F .text	00000044 __ascii_mbtowc
0002a0c8 g     F .text	0000005c __ulp
0002850c g     F .text	00000014 __fp_unlock_all
0003643c g     O .rwdata	00000008 alt_fs_list
000202d8 g     F .text	00000054 Read32_Data
00020898 g     F .text	000001d0 OC_I2C_Read
00020020 g       *ABS*	00000000 __ram_exceptions_start
00029164 g     F .text	0000000c localeconv
00023168 g     F .text	00000098 __swhatbuf_r
00032c18 g     F .text	00000050 alt_ic_isr_register
0002311c g     F .text	00000034 fwrite
00036464 g       *ABS*	00000000 _edata
00031c44 g     F .text	00000060 altera_avalon_uart_read_fd
00038a0c g       *ABS*	00000000 _end
00023150 g     F .text	00000008 _getchar_r
000221b8 g     F .text	000000bc OV8865ReadExposure
0002c640 g     F .text	00000164 __fputwc
00020238 g       *ABS*	00000000 __ram_exceptions_end
00031608 g     F .text	000000f4 altera_avalon_jtag_uart_ioctl
00032cf0 g     F .text	0000008c alt_ic_irq_disable
00024094 g     F .text	00000080 __swrite
00036438 g     O .rwdata	00000004 __malloc_trim_threshold
00020a68 g     F .text	00000138 OC_I2C_Read_Continue
0003313c g     F .text	00000034 exit
0002c608 g     F .text	00000038 fiprintf
0003642a g     O .rwdata	00000001 focus_th
0002c9e0 g     F .text	00000004 _vfiprintf_r
00028f44 g     F .text	000000a8 _fwalk_reent
00029e9c g     F .text	0000022c __mdiff
0002292c g     F .text	00000074 .hidden __modsi3
00040000 g       *ABS*	00000000 __alt_data_end
00020020 g     F .exceptions	00000000 alt_exception
000284ec g     F .text	00000004 __sfp_lock_release
00021448 g     F .text	00000098 mipi_show_error_info
00022684 g     F .text	00000034 QUEUE_Delete
00033c58 g     O .rodata	00000101 _ctype_
0002fce4 g     F .text	00000054 .hidden __unorddf2
000320c0 g     F .text	00000054 altera_avalon_uart_close
00020db4 g     F .text	00000284 OC_I2CL_Read
00022a60 g     F .text	000000f0 _fopen_r
00030090 g     F .text	00000038 _exit
00032528 g     F .text	00000134 alt_alarm_start
00023200 g     F .text	00000140 __smakebuf_r
00024178 g     F .text	00000098 strlen
0002cb78 g     F .text	00000014 _init_signal_r
00030930 g     F .text	00000154 open
0002eb60 g     F .text	000000f0 .hidden __gedf2
0002c418 g     F .text	00000014 __assert
0002ae5c g     F .text	00000018 __sprint_r
00032be4 g     F .text	00000034 alt_icache_flush_all
00022008 g     F .text	000000e4 OV8865SetExposure
00036460 g     O .rwdata	00000004 alt_priority_mask
00036424 g     O .rwdata	00000002 focus_width
00032c68 g     F .text	00000088 alt_ic_irq_enable
000262ec g     F .text	0000001c __vfprintf_internal
00032150 g     F .text	000001e8 altera_avalon_uart_read
0002cad8 g     F .text	0000000c _wctomb_r
00021658 g     F .text	00000088 MIPI_Init
0002f3b0 g     F .text	00000934 .hidden __subdf3
00030104 g     F .text	00000124 fcntl
00029870 g     F .text	000000b0 __lo0bits
00036458 g     O .rwdata	00000008 alt_alarm_list
000328e4 g     F .text	00000064 _do_ctors
0002cdd0 g     F .text	00000010 __sigtramp
0002ca50 g     F .text	00000088 wcrtomb
0002ff94 g     F .text	000000d0 close
00034fe8 g     O .rwdata	0000016c __global_locale
00021eb8 g     F .text	00000080 OV8865_read_AF
000305e4 g     F .text	00000084 alt_load
0002c7c8 g     F .text	00000078 fputwc
0002cd8c g     F .text	00000010 raise
00023350 g     F .text	00000010 free
000284f0 g     F .text	00000004 __sinit_lock_acquire
0002959c g     F .text	00000138 __multadd
00029578 g     F .text	00000024 _Bfree



Disassembly of section .entry:

00020000 <__reset>:
#if NIOS2_ICACHE_SIZE > 0 && defined(ALT_ALLOW_CODE_AT_RESET) && (!defined(ALT_SIM_OPTIMIZE) || defined(NIOS2_ECC_PRESENT))
    /* Assume the instruction cache size is always a power of two. */
#if NIOS2_ICACHE_SIZE > 0x8000
    movhi r2, %hi(NIOS2_ICACHE_SIZE)
#else
    movui r2, NIOS2_ICACHE_SIZE
   20000:	00840014 	movui	r2,4096
#endif

0:
    initi r2
   20004:	1001483a 	initi	r2
    addi r2, r2, -NIOS2_ICACHE_LINE_SIZE
   20008:	10bff804 	addi	r2,r2,-32
    bgt r2, zero, 0b
   2000c:	00bffd16 	blt	zero,r2,20004 <__reset+0x4>
 * Jump to the _start entry point in the .text section if reset code
 * is allowed or if optimizing for RTL simulation.
 */
#if defined(ALT_ALLOW_CODE_AT_RESET) || defined(ALT_SIM_OPTIMIZE)
    /* Jump to the _start entry point in the .text section. */
    movhi r1, %hi(_start)
   20010:	004000b4 	movhi	at,2
    ori r1, r1, %lo(_start)
   20014:	08408e14 	ori	at,at,568
    jmp r1
   20018:	0800683a 	jmp	at
   2001c:	00000000 	call	0 <__alt_mem_onchip_memory2_0-0x20000>

Disassembly of section .exceptions:

00020020 <alt_exception>:

#else /* ALT_EXCEPTION_STACK disabled */
        /* 
         * Reserve space on normal stack for registers about to be pushed.
         */
        addi  sp, sp, -76
   20020:	deffed04 	addi	sp,sp,-76
         * documentation for details).
         *
         * Leave a gap in the stack frame at 4(sp) for the muldiv handler to
         * store zero into.
         */
        stw   ra,  0(sp)
   20024:	dfc00015 	stw	ra,0(sp)
        stw   r1,   8(sp)
   20028:	d8400215 	stw	at,8(sp)
        stw   r2,  12(sp)
   2002c:	d8800315 	stw	r2,12(sp)
        stw   r3,  16(sp)
   20030:	d8c00415 	stw	r3,16(sp)
        stw   r4,  20(sp)
   20034:	d9000515 	stw	r4,20(sp)
        stw   r5,  24(sp)
   20038:	d9400615 	stw	r5,24(sp)
        stw   r6,  28(sp)
   2003c:	d9800715 	stw	r6,28(sp)
        stw   r7,  32(sp)
   20040:	d9c00815 	stw	r7,32(sp)
        rdctl r5, estatus   /* Read early to avoid usage stall */
   20044:	000b307a 	rdctl	r5,estatus
        stw   r8,  36(sp)
   20048:	da000915 	stw	r8,36(sp)
        stw   r9,  40(sp)
   2004c:	da400a15 	stw	r9,40(sp)
        stw   r10, 44(sp)
   20050:	da800b15 	stw	r10,44(sp)
        stw   r11, 48(sp)
   20054:	dac00c15 	stw	r11,48(sp)
        stw   r12, 52(sp)
   20058:	db000d15 	stw	r12,52(sp)
        stw   r13, 56(sp)
   2005c:	db400e15 	stw	r13,56(sp)
        stw   r14, 60(sp)
   20060:	db800f15 	stw	r14,60(sp)
        stw   r15, 64(sp)
   20064:	dbc01015 	stw	r15,64(sp)
        /*
         * ea-4 contains the address of the instruction being executed
         * when the exception occured. For interrupt exceptions, we will
         * will be re-issue the isntruction. Store it in 72(sp)
         */
        stw   r5,  68(sp)  /* estatus */
   20068:	d9401115 	stw	r5,68(sp)
        addi  r15, ea, -4  /* instruction that caused exception */
   2006c:	ebffff04 	addi	r15,ea,-4
        stw   r15,  72(sp)
   20070:	dbc01215 	stw	r15,72(sp)
#else
        /*
         * Test to see if the exception was a software exception or caused 
         * by an external interrupt, and vector accordingly.
         */
        rdctl r4, ipending
   20074:	0009313a 	rdctl	r4,ipending
        andi  r2, r5, 1
   20078:	2880004c 	andi	r2,r5,1
        beq   r2, zero, .Lnot_irq
   2007c:	10000326 	beq	r2,zero,2008c <alt_exception+0x6c>
        beq   r4, zero, .Lnot_irq
   20080:	20000226 	beq	r4,zero,2008c <alt_exception+0x6c>
        /*
         * Now that all necessary registers have been preserved, call 
         * alt_irq_handler() to process the interrupts.
         */

        call alt_irq_handler
   20084:	00200fc0 	call	200fc <alt_irq_handler>

        .section .exceptions.irqreturn, "xa"

        br    .Lexception_exit
   20088:	00000706 	br	200a8 <alt_exception+0x88>
         * upon completion, so we write ea (address of instruction *after*
         * the one where the exception occured) into 72(sp). The actual
         * instruction that caused the exception is written in r2, which these
         * handlers will utilize.
         */
        stw ea, 72(sp) /* EA is PC+4 so will skip over instruction causing exception */
   2008c:	df401215 	stw	ea,72(sp)
.Lunknown_16bit:
        addi.n r4, r4, 2 /* Need PC+2 to skip over instruction causing exception */
        stw r4, 72(sp)

#else /* CDX is not Enabled and all instructions are 32bits */
        ldw r2, -4(ea) /* Instruction value that caused exception */
   20090:	e8bfff17 	ldw	r2,-4(ea)
         * debugger is present) or go into an infinite loop since the
         * handling behavior is undefined; in that case we will not return here.
         */

        /* Load exception-causing address as first argument (r4) */
        addi   r4, ea, -4
   20094:	e93fff04 	addi	r4,ea,-4

        /* Call the instruction-exception entry */
        call   alt_instruction_exception_entry
   20098:	00201c40 	call	201c4 <alt_instruction_exception_entry>
         * instruction
         *
         * Return code was 0: Skip. The instruction after the exception is
         * already stored in 72(sp).
         */
        bne   r2, r0, .Lexception_exit
   2009c:	1000021e 	bne	r2,zero,200a8 <alt_exception+0x88>

        /*
         * Otherwise, modify 72(sp) to re-issue the instruction that caused the
         * exception.
         */
        addi  r15, ea, -4  /* instruction that caused exception */
   200a0:	ebffff04 	addi	r15,ea,-4
        stw   r15,  72(sp)
   200a4:	dbc01215 	stw	r15,72(sp)
        /* 
         * Restore the saved registers, so that all general purpose registers 
         * have been restored to their state at the time the interrupt occured.
         */

        ldw   r5,  68(sp)
   200a8:	d9401117 	ldw	r5,68(sp)
        ldw   ea,  72(sp)  /* This becomes the PC once eret is executed */
   200ac:	df401217 	ldw	ea,72(sp)
        ldw   ra,   0(sp)
   200b0:	dfc00017 	ldw	ra,0(sp)

        wrctl estatus, r5
   200b4:	2801707a 	wrctl	estatus,r5

        ldw   r1,   8(sp)
   200b8:	d8400217 	ldw	at,8(sp)
        ldw   r2,  12(sp)
   200bc:	d8800317 	ldw	r2,12(sp)
        ldw   r3,  16(sp)
   200c0:	d8c00417 	ldw	r3,16(sp)
        ldw   r4,  20(sp)
   200c4:	d9000517 	ldw	r4,20(sp)
        ldw   r5,  24(sp)
   200c8:	d9400617 	ldw	r5,24(sp)
        ldw   r6,  28(sp)
   200cc:	d9800717 	ldw	r6,28(sp)
        ldw   r7,  32(sp)
   200d0:	d9c00817 	ldw	r7,32(sp)

#if defined(ALT_EXCEPTION_STACK) && defined(ALT_STACK_CHECK)
        ldw   et, %gprel(alt_exception_old_stack_limit)(gp)
#endif

        ldw   r8,  36(sp)
   200d4:	da000917 	ldw	r8,36(sp)
        ldw   r9,  40(sp)
   200d8:	da400a17 	ldw	r9,40(sp)
        ldw   r10, 44(sp)
   200dc:	da800b17 	ldw	r10,44(sp)
        ldw   r11, 48(sp)
   200e0:	dac00c17 	ldw	r11,48(sp)
        ldw   r12, 52(sp)
   200e4:	db000d17 	ldw	r12,52(sp)
        ldw   r13, 56(sp)
   200e8:	db400e17 	ldw	r13,56(sp)
        ldw   r14, 60(sp)
   200ec:	db800f17 	ldw	r14,60(sp)
        ldw   r15, 64(sp)
   200f0:	dbc01017 	ldw	r15,64(sp)
        stw   et, %gprel(alt_stack_limit_value)(gp)
        stw   zero, %gprel(alt_exception_old_stack_limit)(gp)
#endif /* ALT_STACK_CHECK */
        ldw   sp,  76(sp)
#else /* ALT_EXCEPTION_STACK disabled */
        addi  sp, sp, 76
   200f4:	dec01304 	addi	sp,sp,76

        /*
         * Return to the interrupted instruction.
         */

        eret
   200f8:	ef80083a 	eret

000200fc <alt_irq_handler>:
 * instruction is present if the macro ALT_CI_INTERRUPT_VECTOR defined.
 */

void alt_irq_handler (void) __attribute__ ((section (".exceptions")));
void alt_irq_handler (void)
{
   200fc:	defff904 	addi	sp,sp,-28
   20100:	dfc00615 	stw	ra,24(sp)
   20104:	df000515 	stw	fp,20(sp)
   20108:	df000504 	addi	fp,sp,20
  
  /*
   * Notify the operating system that we are at interrupt level.
   */ 
  
  ALT_OS_INT_ENTER();
   2010c:	0001883a 	nop
#ifndef NIOS2_EIC_PRESENT
static ALT_INLINE alt_u32 ALT_ALWAYS_INLINE alt_irq_pending (void)
{
  alt_u32 active;

  NIOS2_READ_IPENDING (active);
   20110:	0005313a 	rdctl	r2,ipending
   20114:	e0bffc15 	stw	r2,-16(fp)

  return active;
   20118:	e0bffc17 	ldw	r2,-16(fp)
   * Consider the case where the high priority interupt is asserted during
   * the interrupt entry sequence for a lower priority interrupt to see why
   * this is the case.
   */

  active = alt_irq_pending ();
   2011c:	e0bfff15 	stw	r2,-4(fp)

  do
  {
    i = 0;
   20120:	e03ffd15 	stw	zero,-12(fp)
    mask = 1;
   20124:	00800044 	movi	r2,1
   20128:	e0bffe15 	stw	r2,-8(fp)
     * called to clear the interrupt condition.
     */

    do
    {
      if (active & mask)
   2012c:	e0ffff17 	ldw	r3,-4(fp)
   20130:	e0bffe17 	ldw	r2,-8(fp)
   20134:	1884703a 	and	r2,r3,r2
   20138:	10001126 	beq	r2,zero,20180 <alt_irq_handler+0x84>
      { 
#ifdef ALT_ENHANCED_INTERRUPT_API_PRESENT
        alt_irq[i].handler(alt_irq[i].context); 
   2013c:	e0bffd17 	ldw	r2,-12(fp)
   20140:	100690fa 	slli	r3,r2,3
   20144:	00800134 	movhi	r2,4
   20148:	1885883a 	add	r2,r3,r2
   2014c:	10e24317 	ldw	r3,-30452(r2)
   20150:	e0bffd17 	ldw	r2,-12(fp)
   20154:	100890fa 	slli	r4,r2,3
   20158:	00800134 	movhi	r2,4
   2015c:	2085883a 	add	r2,r4,r2
   20160:	10a24417 	ldw	r2,-30448(r2)
   20164:	1009883a 	mov	r4,r2
   20168:	183ee83a 	callr	r3
#else
        alt_irq[i].handler(alt_irq[i].context, i); 
#endif
        break;
   2016c:	0001883a 	nop
  NIOS2_READ_IPENDING (active);
   20170:	0005313a 	rdctl	r2,ipending
   20174:	e0bffb15 	stw	r2,-20(fp)
  return active;
   20178:	e0bffb17 	ldw	r2,-20(fp)
   2017c:	00000706 	br	2019c <alt_irq_handler+0xa0>
      }
      mask <<= 1;
   20180:	e0bffe17 	ldw	r2,-8(fp)
   20184:	1085883a 	add	r2,r2,r2
   20188:	e0bffe15 	stw	r2,-8(fp)
      i++;
   2018c:	e0bffd17 	ldw	r2,-12(fp)
   20190:	10800044 	addi	r2,r2,1
   20194:	e0bffd15 	stw	r2,-12(fp)
      if (active & mask)
   20198:	003fe406 	br	2012c <alt_irq_handler+0x30>

    } while (1);

    active = alt_irq_pending ();
   2019c:	e0bfff15 	stw	r2,-4(fp)
    
  } while (active);
   201a0:	e0bfff17 	ldw	r2,-4(fp)
   201a4:	103fde1e 	bne	r2,zero,20120 <alt_irq_handler+0x24>

  /*
   * Notify the operating system that interrupt processing is complete.
   */ 

  ALT_OS_INT_EXIT();
   201a8:	0001883a 	nop
}
   201ac:	0001883a 	nop
   201b0:	e037883a 	mov	sp,fp
   201b4:	dfc00117 	ldw	ra,4(sp)
   201b8:	df000017 	ldw	fp,0(sp)
   201bc:	dec00204 	addi	sp,sp,8
   201c0:	f800283a 	ret

000201c4 <alt_instruction_exception_entry>:
 * that handler if it has been registered. Absent a handler, it will
 * break break or hang as discussed below.
 */
int 
alt_instruction_exception_entry (alt_u32 exception_pc)
{
   201c4:	defffb04 	addi	sp,sp,-20
   201c8:	dfc00415 	stw	ra,16(sp)
   201cc:	df000315 	stw	fp,12(sp)
   201d0:	df000304 	addi	fp,sp,12
   201d4:	e13ffd15 	stw	r4,-12(fp)
 * NIOS2_EXCEPTION_CAUSE_NOT_PRESENT. Your handling routine should
 * check the validity of the cause argument before proceeding.
 */
#ifdef NIOS2_HAS_EXTRA_EXCEPTION_INFO
  /* Get exception cause & "badaddr" */
  NIOS2_READ_EXCEPTION(cause);
   201d8:	000531fa 	rdctl	r2,exception
   201dc:	e0bfff15 	stw	r2,-4(fp)
  cause = ( (cause & NIOS2_EXCEPTION_REG_CAUSE_MASK) >>
   201e0:	e0bfff17 	ldw	r2,-4(fp)
   201e4:	1004d0ba 	srli	r2,r2,2
   201e8:	108007cc 	andi	r2,r2,31
   201ec:	e0bfff15 	stw	r2,-4(fp)
              NIOS2_EXCEPTION_REG_CAUSE_OFST );

  NIOS2_READ_BADADDR(badaddr);
   201f0:	0005333a 	rdctl	r2,badaddr
   201f4:	e0bffe15 	stw	r2,-8(fp)
#else
  cause = NIOS2_EXCEPTION_CAUSE_NOT_PRESENT;
  badaddr = 0;
#endif /* NIOS2_HAS_EXTRA_EXCEPTION_INFO */

  if(alt_instruction_exception_handler) {
   201f8:	d0a93017 	ldw	r2,-23360(gp)
   201fc:	10000726 	beq	r2,zero,2021c <alt_instruction_exception_entry+0x58>
     * Call handler. Its return value indicates whether the exception-causing
     * instruction should be re-issued. The code that called us,
     * alt_eceptions_entry.S, will look at this value and adjust the ea
     * register as necessary
     */
    return alt_instruction_exception_handler(cause, exception_pc, badaddr);
   20200:	d0a93017 	ldw	r2,-23360(gp)
   20204:	e0ffff17 	ldw	r3,-4(fp)
   20208:	e1bffe17 	ldw	r6,-8(fp)
   2020c:	e17ffd17 	ldw	r5,-12(fp)
   20210:	1809883a 	mov	r4,r3
   20214:	103ee83a 	callr	r2
   20218:	00000206 	br	20224 <alt_instruction_exception_entry+0x60>
   *    (a peripheral which negates its interrupt output before its
   *    interrupt handler has been executed will cause spurious interrupts)
   */
  else {
#ifdef NIOS2_HAS_DEBUG_STUB
    NIOS2_BREAK();
   2021c:	003da03a 	break	0
      ;
#endif /* NIOS2_HAS_DEBUG_STUB */
  }

  /* We should not get here. Remove compiler warning. */
  return NIOS2_EXCEPTION_RETURN_REISSUE_INST;
   20220:	0005883a 	mov	r2,zero
}
   20224:	e037883a 	mov	sp,fp
   20228:	dfc00117 	ldw	ra,4(sp)
   2022c:	df000017 	ldw	fp,0(sp)
   20230:	dec00204 	addi	sp,sp,8
   20234:	f800283a 	ret

Disassembly of section .text:

00020238 <_start>:

    /* Assume the data cache size is always a power of two. */
#if NIOS2_DCACHE_SIZE > 0x8000
    movhi r2, %hi(NIOS2_DCACHE_SIZE)
#else
    movui r2, NIOS2_DCACHE_SIZE
   20238:	00820014 	movui	r2,2048
#endif

0:
    initd 0(r2)
   2023c:	10000033 	initd	0(r2)
#ifdef NIOS2_ECC_PRESENT
    addi r2, r2, -4
#else
    addi r2, r2, -NIOS2_DCACHE_LINE_SIZE
   20240:	10bff804 	addi	r2,r2,-32
#endif
    bgt r2, zero, 0b
   20244:	00bffd16 	blt	zero,r2,2023c <_start+0x4>

    /*
     * Now that the caches are initialized, set up the stack pointer and global pointer.
     * The values provided by the linker are assumed to be correctly aligned.
     */
    movhi sp, %hi(__alt_stack_pointer)
   20248:	06c00134 	movhi	sp,4
    ori sp, sp, %lo(__alt_stack_pointer)
   2024c:	dec00014 	ori	sp,sp,0
    movhi gp, %hi(_gp)
   20250:	068000f4 	movhi	gp,3
    ori gp, gp, %lo(_gp)
   20254:	d6b90814 	ori	gp,gp,58400
 */
#ifndef ALT_SIM_OPTIMIZE
    /* Log that the BSS is about to be cleared. */
    ALT_LOG_PUTS(alt_log_msg_bss)

    movhi r2, %hi(__bss_start)
   20258:	008000f4 	movhi	r2,3
    ori r2, r2, %lo(__bss_start)
   2025c:	10a22d14 	ori	r2,r2,34996

    movhi r3, %hi(__bss_end)
   20260:	00c000f4 	movhi	r3,3
    ori r3, r3, %lo(__bss_end)
   20264:	18e28314 	ori	r3,r3,35340

    beq r2, r3, 1f
   20268:	10c00326 	beq	r2,r3,20278 <_start+0x40>

0:
    stw zero, (r2)
   2026c:	10000015 	stw	zero,0(r2)
    addi r2, r2, 4
   20270:	10800104 	addi	r2,r2,4
    bltu r2, r3, 0b
   20274:	10fffd36 	bltu	r2,r3,2026c <_start+0x34>
     * section aren't defined until alt_load() has been called).
     */
    mov   et, zero
#endif

    call alt_load
   20278:	00305e40 	call	305e4 <alt_load>

    /* Log that alt_main is about to be called. */
    ALT_LOG_PUTS(alt_log_msg_alt_main)

    /* Call the C entry point. It should never return. */
    call alt_main
   2027c:	00307780 	call	30778 <alt_main>

00020280 <alt_after_alt_main>:

    /* Wait in infinite loop in case alt_main does return. */
alt_after_alt_main:
    br alt_after_alt_main
   20280:	003fff06 	br	20280 <alt_after_alt_main>

00020284 <Write32_Data>:
#define SLEEP_TIME 250  //us
#define ACK_SLEEP_TIME 250 //us
#define TRUE 1
#define FALSE 0

bool Write32_Data(alt_32 base_address, alt_32 offset_address, alt_32 Data){
   20284:	defffb04 	addi	sp,sp,-20
   20288:	df000415 	stw	fp,16(sp)
   2028c:	df000404 	addi	fp,sp,16
   20290:	e13ffe15 	stw	r4,-8(fp)
   20294:	e17ffd15 	stw	r5,-12(fp)
   20298:	e1bffc15 	stw	r6,-16(fp)
	bool bPass;
    IOWR(base_address, offset_address,Data);
   2029c:	e0bffd17 	ldw	r2,-12(fp)
   202a0:	100490ba 	slli	r2,r2,2
   202a4:	1007883a 	mov	r3,r2
   202a8:	e0bffe17 	ldw	r2,-8(fp)
   202ac:	1885883a 	add	r2,r3,r2
   202b0:	1007883a 	mov	r3,r2
   202b4:	e0bffc17 	ldw	r2,-16(fp)
   202b8:	18800035 	stwio	r2,0(r3)
    bPass=TRUE;
   202bc:	00800044 	movi	r2,1
   202c0:	e0bfff15 	stw	r2,-4(fp)
    return bPass;
   202c4:	e0bfff17 	ldw	r2,-4(fp)
}
   202c8:	e037883a 	mov	sp,fp
   202cc:	df000017 	ldw	fp,0(sp)
   202d0:	dec00104 	addi	sp,sp,4
   202d4:	f800283a 	ret

000202d8 <Read32_Data>:



bool  Read32_Data(alt_32 base_address, alt_32 offset_address, alt_32 *pData32){
   202d8:	defffb04 	addi	sp,sp,-20
   202dc:	df000415 	stw	fp,16(sp)
   202e0:	df000404 	addi	fp,sp,16
   202e4:	e13ffe15 	stw	r4,-8(fp)
   202e8:	e17ffd15 	stw	r5,-12(fp)
   202ec:	e1bffc15 	stw	r6,-16(fp)
	bool bPass;
	*pData32 =IORD(base_address ,offset_address  );
   202f0:	e0bffd17 	ldw	r2,-12(fp)
   202f4:	100490ba 	slli	r2,r2,2
   202f8:	1007883a 	mov	r3,r2
   202fc:	e0bffe17 	ldw	r2,-8(fp)
   20300:	1885883a 	add	r2,r3,r2
   20304:	10c00037 	ldwio	r3,0(r2)
   20308:	e0bffc17 	ldw	r2,-16(fp)
   2030c:	10c00015 	stw	r3,0(r2)
	bPass=TRUE;
   20310:	00800044 	movi	r2,1
   20314:	e0bfff15 	stw	r2,-4(fp)
    return bPass;
   20318:	e0bfff17 	ldw	r2,-4(fp)
}
   2031c:	e037883a 	mov	sp,fp
   20320:	df000017 	ldw	fp,0(sp)
   20324:	dec00104 	addi	sp,sp,4
   20328:	f800283a 	ret

0002032c <oc_i2c_init>:

bool oc_i2c_init(alt_32 i2c_base){
   2032c:	defffa04 	addi	sp,sp,-24
   20330:	dfc00515 	stw	ra,20(sp)
   20334:	df000415 	stw	fp,16(sp)
   20338:	df000404 	addi	fp,sp,16
   2033c:	e13ffc15 	stw	r4,-16(fp)
	bool bSuccess;
	const alt_32 ref_clk = 50*1000*1000; // 50MHz
   20340:	0080bef4 	movhi	r2,763
   20344:	10bc2004 	addi	r2,r2,-3968
   20348:	e0bfff15 	stw	r2,-4(fp)
	const alt_32 i2c_clk = 400*1000; // 400KHz
   2034c:	008001b4 	movhi	r2,6
   20350:	1086a004 	addi	r2,r2,6784
   20354:	e0bffe15 	stw	r2,-8(fp)

	bSuccess = oc_i2c_init_ex(i2c_base, ref_clk, i2c_clk);
   20358:	e1bffe17 	ldw	r6,-8(fp)
   2035c:	e17fff17 	ldw	r5,-4(fp)
   20360:	e13ffc17 	ldw	r4,-16(fp)
   20364:	00203840 	call	20384 <oc_i2c_init_ex>
   20368:	e0bffd15 	stw	r2,-12(fp)

	return bSuccess;
   2036c:	e0bffd17 	ldw	r2,-12(fp)
}
   20370:	e037883a 	mov	sp,fp
   20374:	dfc00117 	ldw	ra,4(sp)
   20378:	df000017 	ldw	fp,0(sp)
   2037c:	dec00204 	addi	sp,sp,8
   20380:	f800283a 	ret

00020384 <oc_i2c_init_ex>:

bool  oc_i2c_init_ex(alt_32 i2c_base, alt_32 ref_clk, alt_32 i2c_clk)
{
   20384:	defff604 	addi	sp,sp,-40
   20388:	dfc00915 	stw	ra,36(sp)
   2038c:	df000815 	stw	fp,32(sp)
   20390:	df000804 	addi	fp,sp,32
   20394:	e13ffa15 	stw	r4,-24(fp)
   20398:	e17ff915 	stw	r5,-28(fp)
   2039c:	e1bff815 	stw	r6,-32(fp)
	bool bSuccess=TRUE;
   203a0:	00800044 	movi	r2,1
   203a4:	e0bfff15 	stw	r2,-4(fp)
	alt_32 read_data;
	alt_32 prescale;
	alt_u8 prescale_high;
	alt_u8 prescale_low;
	const alt_u8 ControlValue = 0x80;
   203a8:	00bfe004 	movi	r2,-128
   203ac:	e0bffec5 	stb	r2,-5(fp)

    // I2c sysclock =50M hz
	// i2c scl max 400k
	//scl =sysclock/(prescale*5)
	prescale = (ref_clk/(5*i2c_clk))-1;
   203b0:	e0bff817 	ldw	r2,-32(fp)
   203b4:	10800164 	muli	r2,r2,5
   203b8:	100b883a 	mov	r5,r2
   203bc:	e13ff917 	ldw	r4,-28(fp)
   203c0:	00228ac0 	call	228ac <__divsi3>
   203c4:	10bfffc4 	addi	r2,r2,-1
   203c8:	e0bffd15 	stw	r2,-12(fp)
	prescale_low = prescale & 0xFF;
   203cc:	e0bffd17 	ldw	r2,-12(fp)
   203d0:	e0bffcc5 	stb	r2,-13(fp)
	prescale_high = (prescale >> 8) & 0xFF;
   203d4:	e0bffd17 	ldw	r2,-12(fp)
   203d8:	1005d23a 	srai	r2,r2,8
   203dc:	e0bffc85 	stb	r2,-14(fp)

   IOWR(i2c_base, 0, prescale_low);//write low byte of  prescale (reg 0)
   203e0:	e0bffa17 	ldw	r2,-24(fp)
   203e4:	e0fffcc3 	ldbu	r3,-13(fp)
   203e8:	10c00035 	stwio	r3,0(r2)
   IOWR(i2c_base, 1, prescale_high);//write high byte of prescale (reg 1)
   203ec:	e0bffa17 	ldw	r2,-24(fp)
   203f0:	10800104 	addi	r2,r2,4
   203f4:	1007883a 	mov	r3,r2
   203f8:	e0bffc83 	ldbu	r2,-14(fp)
   203fc:	18800035 	stwio	r2,0(r3)

   //enable the I2C core, but disable the IRQ
   IOWR( i2c_base, 2, ControlValue);
   20400:	e0bffa17 	ldw	r2,-24(fp)
   20404:	10800204 	addi	r2,r2,8
   20408:	1007883a 	mov	r3,r2
   2040c:	e0bffec3 	ldbu	r2,-5(fp)
   20410:	18800035 	stwio	r2,0(r3)


    // check prescale low byte
    if (bSuccess){
   20414:	e0bfff17 	ldw	r2,-4(fp)
   20418:	10000826 	beq	r2,zero,2043c <oc_i2c_init_ex+0xb8>
    	read_data =IORD(i2c_base, 0);
   2041c:	e0bffa17 	ldw	r2,-24(fp)
   20420:	10800037 	ldwio	r2,0(r2)
   20424:	e0bffb15 	stw	r2,-20(fp)
        if( (read_data & 0x00ff) != prescale_low ){
   20428:	e0bffb17 	ldw	r2,-20(fp)
   2042c:	10c03fcc 	andi	r3,r2,255
   20430:	e0bffcc3 	ldbu	r2,-13(fp)
   20434:	18800126 	beq	r3,r2,2043c <oc_i2c_init_ex+0xb8>
            bSuccess = FALSE;
   20438:	e03fff15 	stw	zero,-4(fp)
        }
    }

    // check prescale high byte
    if (bSuccess){
   2043c:	e0bfff17 	ldw	r2,-4(fp)
   20440:	10000926 	beq	r2,zero,20468 <oc_i2c_init_ex+0xe4>
    	read_data =IORD(i2c_base, 1);
   20444:	e0bffa17 	ldw	r2,-24(fp)
   20448:	10800104 	addi	r2,r2,4
   2044c:	10800037 	ldwio	r2,0(r2)
   20450:	e0bffb15 	stw	r2,-20(fp)
        if( (read_data & 0x00ff) != prescale_high ){
   20454:	e0bffb17 	ldw	r2,-20(fp)
   20458:	10c03fcc 	andi	r3,r2,255
   2045c:	e0bffc83 	ldbu	r2,-14(fp)
   20460:	18800126 	beq	r3,r2,20468 <oc_i2c_init_ex+0xe4>
            bSuccess = FALSE;
   20464:	e03fff15 	stw	zero,-4(fp)
        }
    }

    // check control
    if (bSuccess){
   20468:	e0bfff17 	ldw	r2,-4(fp)
   2046c:	10000926 	beq	r2,zero,20494 <oc_i2c_init_ex+0x110>
    	read_data =IORD(i2c_base, 2);
   20470:	e0bffa17 	ldw	r2,-24(fp)
   20474:	10800204 	addi	r2,r2,8
   20478:	10800037 	ldwio	r2,0(r2)
   2047c:	e0bffb15 	stw	r2,-20(fp)
        if( (read_data & 0x00ff) != ControlValue ){
   20480:	e0bffb17 	ldw	r2,-20(fp)
   20484:	10c03fcc 	andi	r3,r2,255
   20488:	e0bffec3 	ldbu	r2,-5(fp)
   2048c:	18800126 	beq	r3,r2,20494 <oc_i2c_init_ex+0x110>
            bSuccess = FALSE;
   20490:	e03fff15 	stw	zero,-4(fp)
        }
    }

   if (bSuccess){
   20494:	e0bfff17 	ldw	r2,-4(fp)
   20498:	1000031e 	bne	r2,zero,204a8 <oc_i2c_init_ex+0x124>
//       printf("\nI2C core is enabled! \r\n");
   }
   else
       printf("\nI2C core is not enabled successfully! \r\n");
   2049c:	010000f4 	movhi	r4,3
   204a0:	210ce604 	addi	r4,r4,13208
   204a4:	0023de80 	call	23de8 <puts>

   return bSuccess;
   204a8:	e0bfff17 	ldw	r2,-4(fp)

}
   204ac:	e037883a 	mov	sp,fp
   204b0:	dfc00117 	ldw	ra,4(sp)
   204b4:	df000017 	ldw	fp,0(sp)
   204b8:	dec00204 	addi	sp,sp,8
   204bc:	f800283a 	ret

000204c0 <oc_i2c_uninit>:

bool oc_i2c_uninit(alt_32 i2c_base)
{
   204c0:	defffa04 	addi	sp,sp,-24
   204c4:	dfc00515 	stw	ra,20(sp)
   204c8:	df000415 	stw	fp,16(sp)
   204cc:	df000404 	addi	fp,sp,16
   204d0:	e13ffc15 	stw	r4,-16(fp)
	bool bSuccess=TRUE;
   204d4:	00800044 	movi	r2,1
   204d8:	e0bfff15 	stw	r2,-4(fp)
	alt_32 read_data;
	const alt_u8 ControlValue = 0x00;
   204dc:	e03ffec5 	stb	zero,-5(fp)

    IOWR( i2c_base, 2, ControlValue);
   204e0:	e0bffc17 	ldw	r2,-16(fp)
   204e4:	10800204 	addi	r2,r2,8
   204e8:	1007883a 	mov	r3,r2
   204ec:	e0bffec3 	ldbu	r2,-5(fp)
   204f0:	18800035 	stwio	r2,0(r3)
   	read_data =IORD(i2c_base, 2);
   204f4:	e0bffc17 	ldw	r2,-16(fp)
   204f8:	10800204 	addi	r2,r2,8
   204fc:	10800037 	ldwio	r2,0(r2)
   20500:	e0bffd15 	stw	r2,-12(fp)
	if( (read_data & 0x00ff) != ControlValue ){
   20504:	e0bffd17 	ldw	r2,-12(fp)
   20508:	10c03fcc 	andi	r3,r2,255
   2050c:	e0bffec3 	ldbu	r2,-5(fp)
   20510:	18800126 	beq	r3,r2,20518 <oc_i2c_uninit+0x58>
            bSuccess = FALSE;
   20514:	e03fff15 	stw	zero,-4(fp)
    }

   if (bSuccess){
   20518:	e0bfff17 	ldw	r2,-4(fp)
   2051c:	1000031e 	bne	r2,zero,2052c <oc_i2c_uninit+0x6c>
//       printf("\I2C core  is disabled! \r\n");
   }
   else
       printf("\I2C core is failed to disable! \r\n");
   20520:	010000f4 	movhi	r4,3
   20524:	210cf104 	addi	r4,r4,13252
   20528:	0023de80 	call	23de8 <puts>

   return bSuccess;
   2052c:	e0bfff17 	ldw	r2,-4(fp)

}
   20530:	e037883a 	mov	sp,fp
   20534:	dfc00117 	ldw	ra,4(sp)
   20538:	df000017 	ldw	fp,0(sp)
   2053c:	dec00204 	addi	sp,sp,8
   20540:	f800283a 	ret

00020544 <ACK_single_check>:




bool  ACK_single_check(alt_32 i2c_base)
{
   20544:	defffb04 	addi	sp,sp,-20
   20548:	dfc00415 	stw	ra,16(sp)
   2054c:	df000315 	stw	fp,12(sp)
   20550:	df000304 	addi	fp,sp,12
   20554:	e13ffd15 	stw	r4,-12(fp)
	bool bSuccess=TRUE;
   20558:	00800044 	movi	r2,1
   2055c:	e0bfff15 	stw	r2,-4(fp)
	alt_32 read_data;

    usleep(ACK_SLEEP_TIME);
   20560:	01003e84 	movi	r4,250
   20564:	0030e780 	call	30e78 <usleep>
    read_data =IORD(i2c_base, 4);
   20568:	e0bffd17 	ldw	r2,-12(fp)
   2056c:	10800404 	addi	r2,r2,16
   20570:	10800037 	ldwio	r2,0(r2)
   20574:	e0bffe15 	stw	r2,-8(fp)
    if(read_data & 0x02)
   20578:	e0bffe17 	ldw	r2,-8(fp)
   2057c:	1080008c 	andi	r2,r2,2
   20580:	10000126 	beq	r2,zero,20588 <ACK_single_check+0x44>
            bSuccess = FALSE;
   20584:	e03fff15 	stw	zero,-4(fp)
     if (bSuccess){
   20588:	e0bfff17 	ldw	r2,-4(fp)
   2058c:	10000a26 	beq	r2,zero,205b8 <ACK_single_check+0x74>
            usleep(ACK_SLEEP_TIME);
   20590:	01003e84 	movi	r4,250
   20594:	0030e780 	call	30e78 <usleep>
            read_data =IORD(i2c_base, 4);
   20598:	e0bffd17 	ldw	r2,-12(fp)
   2059c:	10800404 	addi	r2,r2,16
   205a0:	10800037 	ldwio	r2,0(r2)
   205a4:	e0bffe15 	stw	r2,-8(fp)
                if(read_data & 0x80)
   205a8:	e0bffe17 	ldw	r2,-8(fp)
   205ac:	1080200c 	andi	r2,r2,128
   205b0:	10000126 	beq	r2,zero,205b8 <ACK_single_check+0x74>
                    bSuccess = FALSE;
   205b4:	e03fff15 	stw	zero,-4(fp)
     }
    return bSuccess;
   205b8:	e0bfff17 	ldw	r2,-4(fp)
}
   205bc:	e037883a 	mov	sp,fp
   205c0:	dfc00117 	ldw	ra,4(sp)
   205c4:	df000017 	ldw	fp,0(sp)
   205c8:	dec00204 	addi	sp,sp,8
   205cc:	f800283a 	ret

000205d0 <ACK_check>:


bool  ACK_check(alt_32 i2c_base){
   205d0:	defffb04 	addi	sp,sp,-20
   205d4:	dfc00415 	stw	ra,16(sp)
   205d8:	df000315 	stw	fp,12(sp)
   205dc:	df000304 	addi	fp,sp,12
   205e0:	e13ffd15 	stw	r4,-12(fp)
    bool bSuccess = FALSE;
   205e4:	e03fff15 	stw	zero,-4(fp)
    int i=0;
   205e8:	e03ffe15 	stw	zero,-8(fp)

    while(!bSuccess && i++ < 10){
   205ec:	00000306 	br	205fc <ACK_check+0x2c>
        bSuccess = ACK_single_check(i2c_base);
   205f0:	e13ffd17 	ldw	r4,-12(fp)
   205f4:	00205440 	call	20544 <ACK_single_check>
   205f8:	e0bfff15 	stw	r2,-4(fp)
    while(!bSuccess && i++ < 10){
   205fc:	e0bfff17 	ldw	r2,-4(fp)
   20600:	1000051e 	bne	r2,zero,20618 <ACK_check+0x48>
   20604:	e0bffe17 	ldw	r2,-8(fp)
   20608:	10c00044 	addi	r3,r2,1
   2060c:	e0fffe15 	stw	r3,-8(fp)
   20610:	10800290 	cmplti	r2,r2,10
   20614:	103ff61e 	bne	r2,zero,205f0 <ACK_check+0x20>
    }

    return bSuccess;
   20618:	e0bfff17 	ldw	r2,-4(fp)
}
   2061c:	e037883a 	mov	sp,fp
   20620:	dfc00117 	ldw	ra,4(sp)
   20624:	df000017 	ldw	fp,0(sp)
   20628:	dec00204 	addi	sp,sp,8
   2062c:	f800283a 	ret

00020630 <OC_I2C_Write>:

bool  OC_I2C_Write(alt_32 i2c_base,alt_u8 device_address,alt_u8 sub_address, alt_u8 *pData, int nWriteLength)
{
   20630:	defff904 	addi	sp,sp,-28
   20634:	dfc00615 	stw	ra,24(sp)
   20638:	df000515 	stw	fp,20(sp)
   2063c:	df000504 	addi	fp,sp,20
   20640:	e13ffe15 	stw	r4,-8(fp)
   20644:	2805883a 	mov	r2,r5
   20648:	3007883a 	mov	r3,r6
   2064c:	e1fffb15 	stw	r7,-20(fp)
   20650:	e0bffd05 	stb	r2,-12(fp)
   20654:	1805883a 	mov	r2,r3
   20658:	e0bffc05 	stb	r2,-16(fp)
    //DWORD reg_data = 0x0;
    int i;

   //set the tx reg audio chip dev address with write bit
   if (!Write32_Data( i2c_base, 3,device_address)){
   2065c:	e0bffd03 	ldbu	r2,-12(fp)
   20660:	100d883a 	mov	r6,r2
   20664:	014000c4 	movi	r5,3
   20668:	e13ffe17 	ldw	r4,-8(fp)
   2066c:	00202840 	call	20284 <Write32_Data>
   20670:	1000051e 	bne	r2,zero,20688 <OC_I2C_Write+0x58>
       printf("OC_I2C_Write error[0]\r\n");
   20674:	010000f4 	movhi	r4,3
   20678:	210cfa04 	addi	r4,r4,13288
   2067c:	0023de80 	call	23de8 <puts>
       return FALSE;
   20680:	0005883a 	mov	r2,zero
   20684:	00006606 	br	20820 <OC_I2C_Write+0x1f0>
   }
   //set STA and WR bits(bit7 and bit4)
   if (!Write32_Data( i2c_base, 4,0x90)){
   20688:	01802404 	movi	r6,144
   2068c:	01400104 	movi	r5,4
   20690:	e13ffe17 	ldw	r4,-8(fp)
   20694:	00202840 	call	20284 <Write32_Data>
   20698:	1000051e 	bne	r2,zero,206b0 <OC_I2C_Write+0x80>
       printf("OC_I2C_Write error[1]\r\n");
   2069c:	010000f4 	movhi	r4,3
   206a0:	210d0004 	addi	r4,r4,13312
   206a4:	0023de80 	call	23de8 <puts>
       return FALSE;
   206a8:	0005883a 	mov	r2,zero
   206ac:	00005c06 	br	20820 <OC_I2C_Write+0x1f0>
   }

   //wait TIP bit go to 0 to end Tx
    if(!ACK_check( i2c_base)){
   206b0:	e13ffe17 	ldw	r4,-8(fp)
   206b4:	00205d00 	call	205d0 <ACK_check>
   206b8:	1000051e 	bne	r2,zero,206d0 <OC_I2C_Write+0xa0>
        printf("OC_I2C_Write error[2]\r\n");
   206bc:	010000f4 	movhi	r4,3
   206c0:	210d0604 	addi	r4,r4,13336
   206c4:	0023de80 	call	23de8 <puts>
        return FALSE;
   206c8:	0005883a 	mov	r2,zero
   206cc:	00005406 	br	20820 <OC_I2C_Write+0x1f0>
    }
  // printf("\n receive ACK-device address! \n");

   //set the txr reg data with reg address + 1 data MSB
   if (!Write32_Data( i2c_base, 3,sub_address)){
   206d0:	e0bffc03 	ldbu	r2,-16(fp)
   206d4:	100d883a 	mov	r6,r2
   206d8:	014000c4 	movi	r5,3
   206dc:	e13ffe17 	ldw	r4,-8(fp)
   206e0:	00202840 	call	20284 <Write32_Data>
   206e4:	1000051e 	bne	r2,zero,206fc <OC_I2C_Write+0xcc>
       printf("OC_I2C_Write error[3]\r\n");
   206e8:	010000f4 	movhi	r4,3
   206ec:	210d0c04 	addi	r4,r4,13360
   206f0:	0023de80 	call	23de8 <puts>
       return FALSE;
   206f4:	0005883a 	mov	r2,zero
   206f8:	00004906 	br	20820 <OC_I2C_Write+0x1f0>
   }

   //set WR bits(bit4)
    if (!Write32_Data( i2c_base, 4,0x10)){
   206fc:	01800404 	movi	r6,16
   20700:	01400104 	movi	r5,4
   20704:	e13ffe17 	ldw	r4,-8(fp)
   20708:	00202840 	call	20284 <Write32_Data>
   2070c:	1000051e 	bne	r2,zero,20724 <OC_I2C_Write+0xf4>
        printf("OC_I2C_Write error[4]\r\n");
   20710:	010000f4 	movhi	r4,3
   20714:	210d1204 	addi	r4,r4,13384
   20718:	0023de80 	call	23de8 <puts>
        return FALSE;
   2071c:	0005883a 	mov	r2,zero
   20720:	00003f06 	br	20820 <OC_I2C_Write+0x1f0>
    }

   //wait TIP bit go to 0 to end Tx
    if(!ACK_check( i2c_base)){
   20724:	e13ffe17 	ldw	r4,-8(fp)
   20728:	00205d00 	call	205d0 <ACK_check>
   2072c:	1000051e 	bne	r2,zero,20744 <OC_I2C_Write+0x114>
        printf("OC_I2C_Write error[5]\r\n");
   20730:	010000f4 	movhi	r4,3
   20734:	210d1804 	addi	r4,r4,13408
   20738:	0023de80 	call	23de8 <puts>
        return FALSE;
   2073c:	0005883a 	mov	r2,zero
   20740:	00003706 	br	20820 <OC_I2C_Write+0x1f0>
    }
 //  printf("\n receive ACK-reg address! \n");

#if 1
        for( i=nWriteLength-1;i>=0;i--){
   20744:	e0800217 	ldw	r2,8(fp)
   20748:	10bfffc4 	addi	r2,r2,-1
   2074c:	e0bfff15 	stw	r2,-4(fp)
   20750:	00002406 	br	207e4 <OC_I2C_Write+0x1b4>
        //set the txr reg data with the data
          if (!Write32_Data( i2c_base, 3,*(pData+i))){
   20754:	e0bfff17 	ldw	r2,-4(fp)
   20758:	e0fffb17 	ldw	r3,-20(fp)
   2075c:	1885883a 	add	r2,r3,r2
   20760:	10800003 	ldbu	r2,0(r2)
   20764:	10803fcc 	andi	r2,r2,255
   20768:	100d883a 	mov	r6,r2
   2076c:	014000c4 	movi	r5,3
   20770:	e13ffe17 	ldw	r4,-8(fp)
   20774:	00202840 	call	20284 <Write32_Data>
   20778:	1000051e 	bne	r2,zero,20790 <OC_I2C_Write+0x160>
              printf("OC_I2C_Write error[6]\r\n");
   2077c:	010000f4 	movhi	r4,3
   20780:	210d1e04 	addi	r4,r4,13432
   20784:	0023de80 	call	23de8 <puts>
              return FALSE;
   20788:	0005883a 	mov	r2,zero
   2078c:	00002406 	br	20820 <OC_I2C_Write+0x1f0>
          }

        //set STO and WR bits(bit7 and bit4)
         if (!Write32_Data( i2c_base, 4,0x10)){
   20790:	01800404 	movi	r6,16
   20794:	01400104 	movi	r5,4
   20798:	e13ffe17 	ldw	r4,-8(fp)
   2079c:	00202840 	call	20284 <Write32_Data>
   207a0:	1000051e 	bne	r2,zero,207b8 <OC_I2C_Write+0x188>
             printf("OC_I2C_Write error[7]\r\n");
   207a4:	010000f4 	movhi	r4,3
   207a8:	210d2404 	addi	r4,r4,13456
   207ac:	0023de80 	call	23de8 <puts>
              return FALSE;
   207b0:	0005883a 	mov	r2,zero
   207b4:	00001a06 	br	20820 <OC_I2C_Write+0x1f0>
         }

         //wait TIP bit go to 0 to end Tx
          if(!ACK_check( i2c_base)){
   207b8:	e13ffe17 	ldw	r4,-8(fp)
   207bc:	00205d00 	call	205d0 <ACK_check>
   207c0:	1000051e 	bne	r2,zero,207d8 <OC_I2C_Write+0x1a8>
              printf("OC_I2C_Write error[8]\r\n");
   207c4:	010000f4 	movhi	r4,3
   207c8:	210d2a04 	addi	r4,r4,13480
   207cc:	0023de80 	call	23de8 <puts>
              return FALSE;
   207d0:	0005883a 	mov	r2,zero
   207d4:	00001206 	br	20820 <OC_I2C_Write+0x1f0>
        for( i=nWriteLength-1;i>=0;i--){
   207d8:	e0bfff17 	ldw	r2,-4(fp)
   207dc:	10bfffc4 	addi	r2,r2,-1
   207e0:	e0bfff15 	stw	r2,-4(fp)
   207e4:	e0bfff17 	ldw	r2,-4(fp)
   207e8:	103fda0e 	bge	r2,zero,20754 <OC_I2C_Write+0x124>
   //wait TIP bit go to 0 to end Tx
    if(!ACK_check( i2c_base))
        return false;
#endif

     if (!Write32_Data( i2c_base, 4,0x40)){
   207ec:	01801004 	movi	r6,64
   207f0:	01400104 	movi	r5,4
   207f4:	e13ffe17 	ldw	r4,-8(fp)
   207f8:	00202840 	call	20284 <Write32_Data>
   207fc:	1000051e 	bne	r2,zero,20814 <OC_I2C_Write+0x1e4>
         printf("OC_I2C_Write error[9]\r\n");
   20800:	010000f4 	movhi	r4,3
   20804:	210d3004 	addi	r4,r4,13504
   20808:	0023de80 	call	23de8 <puts>
         return FALSE;
   2080c:	0005883a 	mov	r2,zero
   20810:	00000306 	br	20820 <OC_I2C_Write+0x1f0>
     }
         //Sleep(10);
     //OS_msleep(1);
     usleep(SLEEP_TIME);
   20814:	01003e84 	movi	r4,250
   20818:	0030e780 	call	30e78 <usleep>

  // printf("\n receive ACK-data! \n");

     return TRUE;
   2081c:	00800044 	movi	r2,1

}
   20820:	e037883a 	mov	sp,fp
   20824:	dfc00117 	ldw	ra,4(sp)
   20828:	df000017 	ldw	fp,0(sp)
   2082c:	dec00204 	addi	sp,sp,8
   20830:	f800283a 	ret

00020834 <ACK_judge_for_read>:


bool ACK_judge_for_read(alt_32 i2c_base)
{
   20834:	defffb04 	addi	sp,sp,-20
   20838:	dfc00415 	stw	ra,16(sp)
   2083c:	df000315 	stw	fp,12(sp)
   20840:	df000304 	addi	fp,sp,12
   20844:	e13ffd15 	stw	r4,-12(fp)
	bool bSuccess;
    alt_32 this_data;

   // OS_msleep( SLEEP_TIME );
     usleep(ACK_SLEEP_TIME);
   20848:	01003e84 	movi	r4,250
   2084c:	0030e780 	call	30e78 <usleep>
    //   while(this_data & 0x02)
//   {
//      this_data =  Read32_Data ( hPCIe, i2c_base, 4);
//   }
    bSuccess =  Read32_Data ( i2c_base, 4, &this_data);
   20850:	e0bffe04 	addi	r2,fp,-8
   20854:	100d883a 	mov	r6,r2
   20858:	01400104 	movi	r5,4
   2085c:	e13ffd17 	ldw	r4,-12(fp)
   20860:	00202d80 	call	202d8 <Read32_Data>
   20864:	e0bfff15 	stw	r2,-4(fp)
    if (bSuccess){
   20868:	e0bfff17 	ldw	r2,-4(fp)
   2086c:	10000426 	beq	r2,zero,20880 <ACK_judge_for_read+0x4c>
        if(this_data & 0x02)
   20870:	e0bffe17 	ldw	r2,-8(fp)
   20874:	1080008c 	andi	r2,r2,2
   20878:	10000126 	beq	r2,zero,20880 <ACK_judge_for_read+0x4c>
            bSuccess = FALSE;
   2087c:	e03fff15 	stw	zero,-4(fp)
    }
   //wait the rx ACK signal 0-valid

    return bSuccess;
   20880:	e0bfff17 	ldw	r2,-4(fp)

}
   20884:	e037883a 	mov	sp,fp
   20888:	dfc00117 	ldw	ra,4(sp)
   2088c:	df000017 	ldw	fp,0(sp)
   20890:	dec00204 	addi	sp,sp,8
   20894:	f800283a 	ret

00020898 <OC_I2C_Read>:

bool  OC_I2C_Read(alt_32 i2c_base,alt_u8 device_address,alt_u8 sub_address, alt_u8 *pData8, int nReadLength){
   20898:	defff804 	addi	sp,sp,-32
   2089c:	dfc00715 	stw	ra,28(sp)
   208a0:	df000615 	stw	fp,24(sp)
   208a4:	df000604 	addi	fp,sp,24
   208a8:	e13ffd15 	stw	r4,-12(fp)
   208ac:	2805883a 	mov	r2,r5
   208b0:	3007883a 	mov	r3,r6
   208b4:	e1fffa15 	stw	r7,-24(fp)
   208b8:	e0bffc05 	stb	r2,-16(fp)
   208bc:	1805883a 	mov	r2,r3
   208c0:	e0bffb05 	stb	r2,-20(fp)
    //BYTE data = 0x0;
    alt_32 Data32;
    int i;

   //set the tx reg audio chip dev address with write bit
   IOWR( i2c_base, 3,device_address);
   208c4:	e0bffd17 	ldw	r2,-12(fp)
   208c8:	10800304 	addi	r2,r2,12
   208cc:	1007883a 	mov	r3,r2
   208d0:	e0bffc03 	ldbu	r2,-16(fp)
   208d4:	18800035 	stwio	r2,0(r3)
   //set STA and WR bits(bit7 and bit4)
   IOWR( i2c_base, 4,0x90);
   208d8:	e0bffd17 	ldw	r2,-12(fp)
   208dc:	10800404 	addi	r2,r2,16
   208e0:	1007883a 	mov	r3,r2
   208e4:	00802404 	movi	r2,144
   208e8:	18800035 	stwio	r2,0(r3)
   //wait TIP bit go to 0 to end Tx
   if (!ACK_check( i2c_base)){
   208ec:	e13ffd17 	ldw	r4,-12(fp)
   208f0:	00205d00 	call	205d0 <ACK_check>
   208f4:	1000051e 	bne	r2,zero,2090c <OC_I2C_Read+0x74>
       printf("OC_I2C_Read error[2]\r\n");
   208f8:	010000f4 	movhi	r4,3
   208fc:	210d3604 	addi	r4,r4,13528
   20900:	0023de80 	call	23de8 <puts>
       return FALSE;
   20904:	0005883a 	mov	r2,zero
   20908:	00005206 	br	20a54 <OC_I2C_Read+0x1bc>
   }
   IOWR(i2c_base, 3,sub_address);
   2090c:	e0bffd17 	ldw	r2,-12(fp)
   20910:	10800304 	addi	r2,r2,12
   20914:	1007883a 	mov	r3,r2
   20918:	e0bffb03 	ldbu	r2,-20(fp)
   2091c:	18800035 	stwio	r2,0(r3)

   //set WR bits(bit4)
   IOWR( i2c_base, 4,0x10);
   20920:	e0bffd17 	ldw	r2,-12(fp)
   20924:	10800404 	addi	r2,r2,16
   20928:	1007883a 	mov	r3,r2
   2092c:	00800404 	movi	r2,16
   20930:	18800035 	stwio	r2,0(r3)
   //wait TIP bit go to 0 to end Tx
    if (!ACK_check( i2c_base)){
   20934:	e13ffd17 	ldw	r4,-12(fp)
   20938:	00205d00 	call	205d0 <ACK_check>
   2093c:	1000051e 	bne	r2,zero,20954 <OC_I2C_Read+0xbc>
        printf("OC_I2C_Read error[5]\r\n");
   20940:	010000f4 	movhi	r4,3
   20944:	210d3c04 	addi	r4,r4,13552
   20948:	0023de80 	call	23de8 <puts>
        return FALSE;
   2094c:	0005883a 	mov	r2,zero
   20950:	00004006 	br	20a54 <OC_I2C_Read+0x1bc>
  // printf("\n read receive ACK-reg address! \n");

   //read
    //set the tx reg audio chip dev address with read bit 1

    IOWR(i2c_base, 3,device_address|0x01);
   20954:	e0bffd17 	ldw	r2,-12(fp)
   20958:	10800304 	addi	r2,r2,12
   2095c:	1007883a 	mov	r3,r2
   20960:	e0bffc03 	ldbu	r2,-16(fp)
   20964:	10800054 	ori	r2,r2,1
   20968:	10803fcc 	andi	r2,r2,255
   2096c:	18800035 	stwio	r2,0(r3)

   //set STA and WR bits(bit7 and bit4)
    IOWR( i2c_base, 4,0x90);
   20970:	e0bffd17 	ldw	r2,-12(fp)
   20974:	10800404 	addi	r2,r2,16
   20978:	1007883a 	mov	r3,r2
   2097c:	00802404 	movi	r2,144
   20980:	18800035 	stwio	r2,0(r3)

   //wait TIP bit go to 0 to end Tx
    if (!ACK_check( i2c_base)){
   20984:	e13ffd17 	ldw	r4,-12(fp)
   20988:	00205d00 	call	205d0 <ACK_check>
   2098c:	1000051e 	bne	r2,zero,209a4 <OC_I2C_Read+0x10c>
        printf("OC_I2C_Read error[8]\r\n");
   20990:	010000f4 	movhi	r4,3
   20994:	210d4204 	addi	r4,r4,13576
   20998:	0023de80 	call	23de8 <puts>
        return FALSE;
   2099c:	0005883a 	mov	r2,zero
   209a0:	00002c06 	br	20a54 <OC_I2C_Read+0x1bc>
    }

    for(i=0;i<nReadLength;i++){
   209a4:	e03fff15 	stw	zero,-4(fp)
   209a8:	00001f06 	br	20a28 <OC_I2C_Read+0x190>
  // printf("\n read receive ACK-device address(read)! \n");
   //set the RD and ACK bit(bit5 and bit3)
    	IOWR( i2c_base, 4,((i+1) == nReadLength)?0x28:0x20);
   209ac:	e0bffd17 	ldw	r2,-12(fp)
   209b0:	10800404 	addi	r2,r2,16
   209b4:	1009883a 	mov	r4,r2
   209b8:	e0bfff17 	ldw	r2,-4(fp)
   209bc:	10800044 	addi	r2,r2,1
   209c0:	e0c00217 	ldw	r3,8(fp)
   209c4:	1880021e 	bne	r3,r2,209d0 <OC_I2C_Read+0x138>
   209c8:	00800a04 	movi	r2,40
   209cc:	00000106 	br	209d4 <OC_I2C_Read+0x13c>
   209d0:	00800804 	movi	r2,32
   209d4:	20800035 	stwio	r2,0(r4)

        if (!ACK_judge_for_read( i2c_base)){
   209d8:	e13ffd17 	ldw	r4,-12(fp)
   209dc:	00208340 	call	20834 <ACK_judge_for_read>
   209e0:	1000051e 	bne	r2,zero,209f8 <OC_I2C_Read+0x160>
            printf("OC_I2C_Read error[10]\r\n");
   209e4:	010000f4 	movhi	r4,3
   209e8:	210d4804 	addi	r4,r4,13600
   209ec:	0023de80 	call	23de8 <puts>
            return FALSE;
   209f0:	0005883a 	mov	r2,zero
   209f4:	00001706 	br	20a54 <OC_I2C_Read+0x1bc>
        }
   // printf("\n read receive ACK-device address(read)! \n");

        Data32=IORD( i2c_base, 3);
   209f8:	e0bffd17 	ldw	r2,-12(fp)
   209fc:	10800304 	addi	r2,r2,12
   20a00:	10800037 	ldwio	r2,0(r2)
   20a04:	e0bffe15 	stw	r2,-8(fp)
        *(pData8+i) =  Data32 & 0xff;
   20a08:	e0bfff17 	ldw	r2,-4(fp)
   20a0c:	e0fffa17 	ldw	r3,-24(fp)
   20a10:	1885883a 	add	r2,r3,r2
   20a14:	e0fffe17 	ldw	r3,-8(fp)
   20a18:	10c00005 	stb	r3,0(r2)
    for(i=0;i<nReadLength;i++){
   20a1c:	e0bfff17 	ldw	r2,-4(fp)
   20a20:	10800044 	addi	r2,r2,1
   20a24:	e0bfff15 	stw	r2,-4(fp)
   20a28:	e0ffff17 	ldw	r3,-4(fp)
   20a2c:	e0800217 	ldw	r2,8(fp)
   20a30:	18bfde16 	blt	r3,r2,209ac <OC_I2C_Read+0x114>
    }

    IOWR( i2c_base, 4,0x40);
   20a34:	e0bffd17 	ldw	r2,-12(fp)
   20a38:	10800404 	addi	r2,r2,16
   20a3c:	1007883a 	mov	r3,r2
   20a40:	00801004 	movi	r2,64
   20a44:	18800035 	stwio	r2,0(r3)

  // Sleep(10);
   //OS_msleep(1);
    usleep(SLEEP_TIME);
   20a48:	01003e84 	movi	r4,250
   20a4c:	0030e780 	call	30e78 <usleep>
 //  printf(" Read  [%02X] = %02Xh\r\n", sub_address, data);


   return TRUE;
   20a50:	00800044 	movi	r2,1

}
   20a54:	e037883a 	mov	sp,fp
   20a58:	dfc00117 	ldw	ra,4(sp)
   20a5c:	df000017 	ldw	fp,0(sp)
   20a60:	dec00204 	addi	sp,sp,8
   20a64:	f800283a 	ret

00020a68 <OC_I2C_Read_Continue>:


bool  OC_I2C_Read_Continue(alt_32 i2c_base,alt_u8 device_address, alt_u8 *pData8, int nReadLength){
   20a68:	defff804 	addi	sp,sp,-32
   20a6c:	dfc00715 	stw	ra,28(sp)
   20a70:	df000615 	stw	fp,24(sp)
   20a74:	df000604 	addi	fp,sp,24
   20a78:	e13ffd15 	stw	r4,-12(fp)
   20a7c:	2805883a 	mov	r2,r5
   20a80:	e1bffb15 	stw	r6,-20(fp)
   20a84:	e1fffa15 	stw	r7,-24(fp)
   20a88:	e0bffc05 	stb	r2,-16(fp)
	int i;
	alt_u32 Data32;

    IOWR(i2c_base, 3,device_address|0x01);
   20a8c:	e0bffd17 	ldw	r2,-12(fp)
   20a90:	10800304 	addi	r2,r2,12
   20a94:	1007883a 	mov	r3,r2
   20a98:	e0bffc03 	ldbu	r2,-16(fp)
   20a9c:	10800054 	ori	r2,r2,1
   20aa0:	10803fcc 	andi	r2,r2,255
   20aa4:	18800035 	stwio	r2,0(r3)

   //set STA and WR bits(bit7 and bit4)
    IOWR( i2c_base, 4,0x90);
   20aa8:	e0bffd17 	ldw	r2,-12(fp)
   20aac:	10800404 	addi	r2,r2,16
   20ab0:	1007883a 	mov	r3,r2
   20ab4:	00802404 	movi	r2,144
   20ab8:	18800035 	stwio	r2,0(r3)
//usleep(5*1000);
   //wait TIP bit go to 0 to end Tx
    if (!ACK_check( i2c_base)){
   20abc:	e13ffd17 	ldw	r4,-12(fp)
   20ac0:	00205d00 	call	205d0 <ACK_check>
   20ac4:	1000051e 	bne	r2,zero,20adc <OC_I2C_Read_Continue+0x74>
        printf("OC_I2C_Read error[8]\r\n");
   20ac8:	010000f4 	movhi	r4,3
   20acc:	210d4204 	addi	r4,r4,13576
   20ad0:	0023de80 	call	23de8 <puts>
        return FALSE;
   20ad4:	0005883a 	mov	r2,zero
   20ad8:	00002c06 	br	20b8c <OC_I2C_Read_Continue+0x124>
    }

    for(i=0;i<nReadLength;i++){
   20adc:	e03fff15 	stw	zero,-4(fp)
   20ae0:	00001f06 	br	20b60 <OC_I2C_Read_Continue+0xf8>
  // printf("\n read receive ACK-device address(read)! \n");
   //set the RD and ACK bit(bit5 and bit3)
    	IOWR( i2c_base, 4,((i+1) == nReadLength)?0x28:0x20);
   20ae4:	e0bffd17 	ldw	r2,-12(fp)
   20ae8:	10800404 	addi	r2,r2,16
   20aec:	1009883a 	mov	r4,r2
   20af0:	e0bfff17 	ldw	r2,-4(fp)
   20af4:	10800044 	addi	r2,r2,1
   20af8:	e0fffa17 	ldw	r3,-24(fp)
   20afc:	1880021e 	bne	r3,r2,20b08 <OC_I2C_Read_Continue+0xa0>
   20b00:	00800a04 	movi	r2,40
   20b04:	00000106 	br	20b0c <OC_I2C_Read_Continue+0xa4>
   20b08:	00800804 	movi	r2,32
   20b0c:	20800035 	stwio	r2,0(r4)

        if (!ACK_judge_for_read( i2c_base)){
   20b10:	e13ffd17 	ldw	r4,-12(fp)
   20b14:	00208340 	call	20834 <ACK_judge_for_read>
   20b18:	1000051e 	bne	r2,zero,20b30 <OC_I2C_Read_Continue+0xc8>
            printf("OC_I2C_Read error[10]\r\n");
   20b1c:	010000f4 	movhi	r4,3
   20b20:	210d4804 	addi	r4,r4,13600
   20b24:	0023de80 	call	23de8 <puts>
            return FALSE;
   20b28:	0005883a 	mov	r2,zero
   20b2c:	00001706 	br	20b8c <OC_I2C_Read_Continue+0x124>
        }
   // printf("\n read receive ACK-device address(read)! \n");

        Data32=IORD( i2c_base, 3);
   20b30:	e0bffd17 	ldw	r2,-12(fp)
   20b34:	10800304 	addi	r2,r2,12
   20b38:	10800037 	ldwio	r2,0(r2)
   20b3c:	e0bffe15 	stw	r2,-8(fp)
        *(pData8+i) =  Data32 & 0xff;
   20b40:	e0bfff17 	ldw	r2,-4(fp)
   20b44:	e0fffb17 	ldw	r3,-20(fp)
   20b48:	1885883a 	add	r2,r3,r2
   20b4c:	e0fffe17 	ldw	r3,-8(fp)
   20b50:	10c00005 	stb	r3,0(r2)
    for(i=0;i<nReadLength;i++){
   20b54:	e0bfff17 	ldw	r2,-4(fp)
   20b58:	10800044 	addi	r2,r2,1
   20b5c:	e0bfff15 	stw	r2,-4(fp)
   20b60:	e0ffff17 	ldw	r3,-4(fp)
   20b64:	e0bffa17 	ldw	r2,-24(fp)
   20b68:	18bfde16 	blt	r3,r2,20ae4 <OC_I2C_Read_Continue+0x7c>
    }

    IOWR( i2c_base, 4,0x40);
   20b6c:	e0bffd17 	ldw	r2,-12(fp)
   20b70:	10800404 	addi	r2,r2,16
   20b74:	1007883a 	mov	r3,r2
   20b78:	00801004 	movi	r2,64
   20b7c:	18800035 	stwio	r2,0(r3)

  // Sleep(10);
   //OS_msleep(1);
    usleep(SLEEP_TIME);
   20b80:	01003e84 	movi	r4,250
   20b84:	0030e780 	call	30e78 <usleep>
 //  printf(" Read  [%02X] = %02Xh\r\n", sub_address, data);


   return TRUE;
   20b88:	00800044 	movi	r2,1

}
   20b8c:	e037883a 	mov	sp,fp
   20b90:	dfc00117 	ldw	ra,4(sp)
   20b94:	df000017 	ldw	fp,0(sp)
   20b98:	dec00204 	addi	sp,sp,8
   20b9c:	f800283a 	ret

00020ba0 <OC_I2CL_Write>:


//  size > 2Kb
bool  OC_I2CL_Write(alt_32 i2c_base,alt_u8 device_address,alt_u16 sub_address,alt_u8 *pData, int nWriteLength)
    {
   20ba0:	defff804 	addi	sp,sp,-32
   20ba4:	dfc00715 	stw	ra,28(sp)
   20ba8:	df000615 	stw	fp,24(sp)
   20bac:	df000604 	addi	fp,sp,24
   20bb0:	e13ffd15 	stw	r4,-12(fp)
   20bb4:	2805883a 	mov	r2,r5
   20bb8:	3007883a 	mov	r3,r6
   20bbc:	e1fffa15 	stw	r7,-24(fp)
   20bc0:	e0bffc05 	stb	r2,-16(fp)
   20bc4:	1805883a 	mov	r2,r3
   20bc8:	e0bffb0d 	sth	r2,-20(fp)
    //DWORD reg_data = 0x0;
	alt_u8 AddrHigh, AddrLow;
    //int count= 0;

    AddrHigh = (sub_address >> 8) & 0xFF;
   20bcc:	e0bffb0b 	ldhu	r2,-20(fp)
   20bd0:	1004d23a 	srli	r2,r2,8
   20bd4:	e0bffec5 	stb	r2,-5(fp)
    AddrLow  = sub_address & 0xFF;
   20bd8:	e0bffb0b 	ldhu	r2,-20(fp)
   20bdc:	e0bffe85 	stb	r2,-6(fp)

    int i;

    //set the tx reg audio chip dev address with write bit
   if (!Write32_Data( i2c_base, 3,device_address))
   20be0:	e0bffc03 	ldbu	r2,-16(fp)
   20be4:	100d883a 	mov	r6,r2
   20be8:	014000c4 	movi	r5,3
   20bec:	e13ffd17 	ldw	r4,-12(fp)
   20bf0:	00202840 	call	20284 <Write32_Data>
   20bf4:	1000021e 	bne	r2,zero,20c00 <OC_I2CL_Write+0x60>
       return FALSE;
   20bf8:	0005883a 	mov	r2,zero
   20bfc:	00006806 	br	20da0 <OC_I2CL_Write+0x200>
   //set STA and WR bits(bit7 and bit4)
   if (!Write32_Data( i2c_base, 4,0x90))//0x90
   20c00:	01802404 	movi	r6,144
   20c04:	01400104 	movi	r5,4
   20c08:	e13ffd17 	ldw	r4,-12(fp)
   20c0c:	00202840 	call	20284 <Write32_Data>
   20c10:	1000021e 	bne	r2,zero,20c1c <OC_I2CL_Write+0x7c>
       return FALSE;
   20c14:	0005883a 	mov	r2,zero
   20c18:	00006106 	br	20da0 <OC_I2CL_Write+0x200>

   //wait TIP bit go to 0 to end Tx
    if(!ACK_check( i2c_base)){
   20c1c:	e13ffd17 	ldw	r4,-12(fp)
   20c20:	00205d00 	call	205d0 <ACK_check>
   20c24:	1000051e 	bne	r2,zero,20c3c <OC_I2CL_Write+0x9c>
        printf("OC_I2CL_Write error[0]\r\n");
   20c28:	010000f4 	movhi	r4,3
   20c2c:	210d4e04 	addi	r4,r4,13624
   20c30:	0023de80 	call	23de8 <puts>
        return FALSE;
   20c34:	0005883a 	mov	r2,zero
   20c38:	00005906 	br	20da0 <OC_I2CL_Write+0x200>
  // printf("\n receive ACK-device address! \n");

   //set the txr reg data with reg address + 1 data MSB
 //  reg_data  = (sub_address << 1) & 0xFE;
   //reg_data |= ((data >> 8) & 0x01);
   if (!Write32_Data( i2c_base, 3,AddrHigh))//reg_data&0xff);
   20c3c:	e0bffec3 	ldbu	r2,-5(fp)
   20c40:	100d883a 	mov	r6,r2
   20c44:	014000c4 	movi	r5,3
   20c48:	e13ffd17 	ldw	r4,-12(fp)
   20c4c:	00202840 	call	20284 <Write32_Data>
   20c50:	1000021e 	bne	r2,zero,20c5c <OC_I2CL_Write+0xbc>
       return FALSE;
   20c54:	0005883a 	mov	r2,zero
   20c58:	00005106 	br	20da0 <OC_I2CL_Write+0x200>

   //set WR bits(bit4)
    if (!Write32_Data( i2c_base, 4,0x10))
   20c5c:	01800404 	movi	r6,16
   20c60:	01400104 	movi	r5,4
   20c64:	e13ffd17 	ldw	r4,-12(fp)
   20c68:	00202840 	call	20284 <Write32_Data>
   20c6c:	1000021e 	bne	r2,zero,20c78 <OC_I2CL_Write+0xd8>
        return FALSE;
   20c70:	0005883a 	mov	r2,zero
   20c74:	00004a06 	br	20da0 <OC_I2CL_Write+0x200>

   //wait TIP bit go to 0 to end Tx
    if(!ACK_check( i2c_base)){
   20c78:	e13ffd17 	ldw	r4,-12(fp)
   20c7c:	00205d00 	call	205d0 <ACK_check>
   20c80:	1000051e 	bne	r2,zero,20c98 <OC_I2CL_Write+0xf8>
        printf("OC_I2CL_Write error[1]\r\n");
   20c84:	010000f4 	movhi	r4,3
   20c88:	210d5404 	addi	r4,r4,13648
   20c8c:	0023de80 	call	23de8 <puts>
        return FALSE;
   20c90:	0005883a 	mov	r2,zero
   20c94:	00004206 	br	20da0 <OC_I2CL_Write+0x200>
    }
  // printf("\n receive ACK-reg high address! \n");

   //set the txr reg data with reg address + 1 data MSB
   if (!Write32_Data( i2c_base, 3,AddrLow))//reg_data&0xff);
   20c98:	e0bffe83 	ldbu	r2,-6(fp)
   20c9c:	100d883a 	mov	r6,r2
   20ca0:	014000c4 	movi	r5,3
   20ca4:	e13ffd17 	ldw	r4,-12(fp)
   20ca8:	00202840 	call	20284 <Write32_Data>
   20cac:	1000021e 	bne	r2,zero,20cb8 <OC_I2CL_Write+0x118>
       return FALSE;
   20cb0:	0005883a 	mov	r2,zero
   20cb4:	00003a06 	br	20da0 <OC_I2CL_Write+0x200>

   //set WR bits(bit4)
    Write32_Data( i2c_base, 4,0x10);
   20cb8:	01800404 	movi	r6,16
   20cbc:	01400104 	movi	r5,4
   20cc0:	e13ffd17 	ldw	r4,-12(fp)
   20cc4:	00202840 	call	20284 <Write32_Data>

   //wait TIP bit go to 0 to end Tx
    if(!ACK_check( i2c_base)){
   20cc8:	e13ffd17 	ldw	r4,-12(fp)
   20ccc:	00205d00 	call	205d0 <ACK_check>
   20cd0:	1000051e 	bne	r2,zero,20ce8 <OC_I2CL_Write+0x148>
        printf("OC_I2CL_Write error[2]\r\n");
   20cd4:	010000f4 	movhi	r4,3
   20cd8:	210d5a04 	addi	r4,r4,13672
   20cdc:	0023de80 	call	23de8 <puts>
        return FALSE;
   20ce0:	0005883a 	mov	r2,zero
   20ce4:	00002e06 	br	20da0 <OC_I2CL_Write+0x200>
    }
  //  printf("\n receive ACK-reg low address! \n");

#if 1
    for( i=nWriteLength-1;i>=0;i--){
   20ce8:	e0800217 	ldw	r2,8(fp)
   20cec:	10bfffc4 	addi	r2,r2,-1
   20cf0:	e0bfff15 	stw	r2,-4(fp)
   20cf4:	00001e06 	br	20d70 <OC_I2CL_Write+0x1d0>
        //set the txr reg data with the other data 8 bit LSB
        if (!Write32_Data( i2c_base, 3,*(pData+i)))
   20cf8:	e0bfff17 	ldw	r2,-4(fp)
   20cfc:	e0fffa17 	ldw	r3,-24(fp)
   20d00:	1885883a 	add	r2,r3,r2
   20d04:	10800003 	ldbu	r2,0(r2)
   20d08:	10803fcc 	andi	r2,r2,255
   20d0c:	100d883a 	mov	r6,r2
   20d10:	014000c4 	movi	r5,3
   20d14:	e13ffd17 	ldw	r4,-12(fp)
   20d18:	00202840 	call	20284 <Write32_Data>
   20d1c:	1000021e 	bne	r2,zero,20d28 <OC_I2CL_Write+0x188>
            return FALSE;
   20d20:	0005883a 	mov	r2,zero
   20d24:	00001e06 	br	20da0 <OC_I2CL_Write+0x200>

       //set STO and WR bits(bit7 and bit4)
        if (!Write32_Data( i2c_base, 4,0x10))
   20d28:	01800404 	movi	r6,16
   20d2c:	01400104 	movi	r5,4
   20d30:	e13ffd17 	ldw	r4,-12(fp)
   20d34:	00202840 	call	20284 <Write32_Data>
   20d38:	1000021e 	bne	r2,zero,20d44 <OC_I2CL_Write+0x1a4>
            return FALSE;
   20d3c:	0005883a 	mov	r2,zero
   20d40:	00001706 	br	20da0 <OC_I2CL_Write+0x200>

        //wait TIP bit go to 0 to end Tx
         if(!ACK_check( i2c_base)){
   20d44:	e13ffd17 	ldw	r4,-12(fp)
   20d48:	00205d00 	call	205d0 <ACK_check>
   20d4c:	1000051e 	bne	r2,zero,20d64 <OC_I2CL_Write+0x1c4>
             printf("OC_I2CL_Write error[3]\r\n");
   20d50:	010000f4 	movhi	r4,3
   20d54:	210d6004 	addi	r4,r4,13696
   20d58:	0023de80 	call	23de8 <puts>
             return FALSE;
   20d5c:	0005883a 	mov	r2,zero
   20d60:	00000f06 	br	20da0 <OC_I2CL_Write+0x200>
    for( i=nWriteLength-1;i>=0;i--){
   20d64:	e0bfff17 	ldw	r2,-4(fp)
   20d68:	10bfffc4 	addi	r2,r2,-1
   20d6c:	e0bfff15 	stw	r2,-4(fp)
   20d70:	e0bfff17 	ldw	r2,-4(fp)
   20d74:	103fe00e 	bge	r2,zero,20cf8 <OC_I2CL_Write+0x158>
   //wait TIP bit go to 0 to end Tx
    if(!ACK_check( i2c_base))
        return FALSE;

#endif
    if (!Write32_Data( i2c_base, 4,0x40))
   20d78:	01801004 	movi	r6,64
   20d7c:	01400104 	movi	r5,4
   20d80:	e13ffd17 	ldw	r4,-12(fp)
   20d84:	00202840 	call	20284 <Write32_Data>
   20d88:	1000021e 	bne	r2,zero,20d94 <OC_I2CL_Write+0x1f4>
         return FALSE;
   20d8c:	0005883a 	mov	r2,zero
   20d90:	00000306 	br	20da0 <OC_I2CL_Write+0x200>

     //OS_msleep(1);
      usleep(SLEEP_TIME);
   20d94:	01003e84 	movi	r4,250
   20d98:	0030e780 	call	30e78 <usleep>
  //  printf("\n receive ACK-data! \n");

     return TRUE;
   20d9c:	00800044 	movi	r2,1
}
   20da0:	e037883a 	mov	sp,fp
   20da4:	dfc00117 	ldw	ra,4(sp)
   20da8:	df000017 	ldw	fp,0(sp)
   20dac:	dec00204 	addi	sp,sp,8
   20db0:	f800283a 	ret

00020db4 <OC_I2CL_Read>:

   return TRUE;

} */

bool  OC_I2CL_Read(alt_32 i2c_base,alt_u8 device_address, alt_u16 sub_address, alt_u8 *pData8, int nReadLength){
   20db4:	defff704 	addi	sp,sp,-36
   20db8:	dfc00815 	stw	ra,32(sp)
   20dbc:	df000715 	stw	fp,28(sp)
   20dc0:	df000704 	addi	fp,sp,28
   20dc4:	e13ffc15 	stw	r4,-16(fp)
   20dc8:	2805883a 	mov	r2,r5
   20dcc:	3007883a 	mov	r3,r6
   20dd0:	e1fff915 	stw	r7,-28(fp)
   20dd4:	e0bffb05 	stb	r2,-20(fp)
   20dd8:	1805883a 	mov	r2,r3
   20ddc:	e0bffa0d 	sth	r2,-24(fp)
    int i;

    alt_u8 AddrHigh, AddrLow;
    alt_u8 DataHigh, DataLow;

    AddrHigh = (sub_address >> 8) & 0xFF;
   20de0:	e0bffa0b 	ldhu	r2,-24(fp)
   20de4:	1004d23a 	srli	r2,r2,8
   20de8:	e0bffec5 	stb	r2,-5(fp)
    AddrLow  = sub_address & 0xFF;
   20dec:	e0bffa0b 	ldhu	r2,-24(fp)
   20df0:	e0bffe85 	stb	r2,-6(fp)


   //set the tx reg audio chip dev address with write bit
   if (!Write32_Data( i2c_base, 3,device_address))
   20df4:	e0bffb03 	ldbu	r2,-20(fp)
   20df8:	100d883a 	mov	r6,r2
   20dfc:	014000c4 	movi	r5,3
   20e00:	e13ffc17 	ldw	r4,-16(fp)
   20e04:	00202840 	call	20284 <Write32_Data>
   20e08:	1000021e 	bne	r2,zero,20e14 <OC_I2CL_Read+0x60>
       return FALSE;
   20e0c:	0005883a 	mov	r2,zero
   20e10:	00008406 	br	21024 <OC_I2CL_Read+0x270>

   //set STA and WR bits(bit7 and bit4)
   if (!Write32_Data( i2c_base, 4,0x90))
   20e14:	01802404 	movi	r6,144
   20e18:	01400104 	movi	r5,4
   20e1c:	e13ffc17 	ldw	r4,-16(fp)
   20e20:	00202840 	call	20284 <Write32_Data>
   20e24:	1000021e 	bne	r2,zero,20e30 <OC_I2CL_Read+0x7c>
       return FALSE;
   20e28:	0005883a 	mov	r2,zero
   20e2c:	00007d06 	br	21024 <OC_I2CL_Read+0x270>

   //wait TIP bit go to 0 to end Tx
    if(!ACK_check( i2c_base)){
   20e30:	e13ffc17 	ldw	r4,-16(fp)
   20e34:	00205d00 	call	205d0 <ACK_check>
   20e38:	1000051e 	bne	r2,zero,20e50 <OC_I2CL_Read+0x9c>
        printf("OC_I2CL_Read error[0]\r\n");
   20e3c:	010000f4 	movhi	r4,3
   20e40:	210d6604 	addi	r4,r4,13720
   20e44:	0023de80 	call	23de8 <puts>
        return FALSE;
   20e48:	0005883a 	mov	r2,zero
   20e4c:	00007506 	br	21024 <OC_I2CL_Read+0x270>
 //  printf("\n receive ACK-device address! \n");


   //set the txr reg data with reg address + 0

   if (!Write32_Data( i2c_base, 3,AddrHigh))//reg_data&0xff);
   20e50:	e0bffec3 	ldbu	r2,-5(fp)
   20e54:	100d883a 	mov	r6,r2
   20e58:	014000c4 	movi	r5,3
   20e5c:	e13ffc17 	ldw	r4,-16(fp)
   20e60:	00202840 	call	20284 <Write32_Data>
   20e64:	1000021e 	bne	r2,zero,20e70 <OC_I2CL_Read+0xbc>
       return FALSE;
   20e68:	0005883a 	mov	r2,zero
   20e6c:	00006d06 	br	21024 <OC_I2CL_Read+0x270>

   //set WR bits(bit4)
    if (!Write32_Data( i2c_base, 4,0x10))
   20e70:	01800404 	movi	r6,16
   20e74:	01400104 	movi	r5,4
   20e78:	e13ffc17 	ldw	r4,-16(fp)
   20e7c:	00202840 	call	20284 <Write32_Data>
   20e80:	1000021e 	bne	r2,zero,20e8c <OC_I2CL_Read+0xd8>
        return FALSE;
   20e84:	0005883a 	mov	r2,zero
   20e88:	00006606 	br	21024 <OC_I2CL_Read+0x270>

   //wait TIP bit go to 0 to end Tx
    if(!ACK_check( i2c_base)){
   20e8c:	e13ffc17 	ldw	r4,-16(fp)
   20e90:	00205d00 	call	205d0 <ACK_check>
   20e94:	1000051e 	bne	r2,zero,20eac <OC_I2CL_Read+0xf8>
        printf("OC_I2CL_Read error[1]\r\n");
   20e98:	010000f4 	movhi	r4,3
   20e9c:	210d6c04 	addi	r4,r4,13744
   20ea0:	0023de80 	call	23de8 <puts>
        return FALSE;
   20ea4:	0005883a 	mov	r2,zero
   20ea8:	00005e06 	br	21024 <OC_I2CL_Read+0x270>
    }
//   printf("\n read receive ACK-reg High address! \n");

     //set the txr reg data with reg address + 0
   if (!Write32_Data( i2c_base, 3,AddrLow)) //;//reg_data&0xff);
   20eac:	e0bffe83 	ldbu	r2,-6(fp)
   20eb0:	100d883a 	mov	r6,r2
   20eb4:	014000c4 	movi	r5,3
   20eb8:	e13ffc17 	ldw	r4,-16(fp)
   20ebc:	00202840 	call	20284 <Write32_Data>
   20ec0:	1000021e 	bne	r2,zero,20ecc <OC_I2CL_Read+0x118>
       return FALSE;
   20ec4:	0005883a 	mov	r2,zero
   20ec8:	00005606 	br	21024 <OC_I2CL_Read+0x270>
   //set WR bits(bit4)
    if (!Write32_Data( i2c_base, 4,0x10))
   20ecc:	01800404 	movi	r6,16
   20ed0:	01400104 	movi	r5,4
   20ed4:	e13ffc17 	ldw	r4,-16(fp)
   20ed8:	00202840 	call	20284 <Write32_Data>
   20edc:	1000021e 	bne	r2,zero,20ee8 <OC_I2CL_Read+0x134>
        return FALSE;
   20ee0:	0005883a 	mov	r2,zero
   20ee4:	00004f06 	br	21024 <OC_I2CL_Read+0x270>

   //wait TIP bit go to 0 to end Tx
    if(!ACK_check( i2c_base)){
   20ee8:	e13ffc17 	ldw	r4,-16(fp)
   20eec:	00205d00 	call	205d0 <ACK_check>
   20ef0:	1000051e 	bne	r2,zero,20f08 <OC_I2CL_Read+0x154>
        printf("OC_I2CL_Read error[2]\r\n");
   20ef4:	010000f4 	movhi	r4,3
   20ef8:	210d7204 	addi	r4,r4,13768
   20efc:	0023de80 	call	23de8 <puts>
        return FALSE;
   20f00:	0005883a 	mov	r2,zero
   20f04:	00004706 	br	21024 <OC_I2CL_Read+0x270>

 //  printf("\n read receive ACK-reg Low address! \n");

   //read
    //set the tx reg audio chip dev address with read bit 1
     if (!Write32_Data( i2c_base, 3,device_address|0x01))
   20f08:	e0bffb03 	ldbu	r2,-20(fp)
   20f0c:	10800054 	ori	r2,r2,1
   20f10:	10803fcc 	andi	r2,r2,255
   20f14:	100d883a 	mov	r6,r2
   20f18:	014000c4 	movi	r5,3
   20f1c:	e13ffc17 	ldw	r4,-16(fp)
   20f20:	00202840 	call	20284 <Write32_Data>
   20f24:	1000021e 	bne	r2,zero,20f30 <OC_I2CL_Read+0x17c>
         return FALSE;
   20f28:	0005883a 	mov	r2,zero
   20f2c:	00003d06 	br	21024 <OC_I2CL_Read+0x270>

   //set STA and WR bits(bit7 and bit4)
     if (!Write32_Data( i2c_base, 4,0x90))
   20f30:	01802404 	movi	r6,144
   20f34:	01400104 	movi	r5,4
   20f38:	e13ffc17 	ldw	r4,-16(fp)
   20f3c:	00202840 	call	20284 <Write32_Data>
   20f40:	1000021e 	bne	r2,zero,20f4c <OC_I2CL_Read+0x198>
         return FALSE;
   20f44:	0005883a 	mov	r2,zero
   20f48:	00003606 	br	21024 <OC_I2CL_Read+0x270>

   //wait TIP bit go to 0 to end Tx
    if(!ACK_check( i2c_base)){
   20f4c:	e13ffc17 	ldw	r4,-16(fp)
   20f50:	00205d00 	call	205d0 <ACK_check>
   20f54:	1000051e 	bne	r2,zero,20f6c <OC_I2CL_Read+0x1b8>
        printf("OC_I2CL_Read error[3]\r\n");
   20f58:	010000f4 	movhi	r4,3
   20f5c:	210d7804 	addi	r4,r4,13792
   20f60:	0023de80 	call	23de8 <puts>
        return FALSE;
   20f64:	0005883a 	mov	r2,zero
   20f68:	00002e06 	br	21024 <OC_I2CL_Read+0x270>
//   printf("\n read receive ACK-device address(read)! \n");

       //read the rxr data

#if 1
    for(i=0;i<nReadLength;i++){
   20f6c:	e03fff15 	stw	zero,-4(fp)
   20f70:	00001f06 	br	20ff0 <OC_I2CL_Read+0x23c>
  // printf("\n read receive ACK-device address(read)! \n");
   //set the RD and ACK bit(bit5 and bit3)
    	IOWR( i2c_base, 4,((i+1) == nReadLength)?0x28:0x20);
   20f74:	e0bffc17 	ldw	r2,-16(fp)
   20f78:	10800404 	addi	r2,r2,16
   20f7c:	1009883a 	mov	r4,r2
   20f80:	e0bfff17 	ldw	r2,-4(fp)
   20f84:	10800044 	addi	r2,r2,1
   20f88:	e0c00217 	ldw	r3,8(fp)
   20f8c:	1880021e 	bne	r3,r2,20f98 <OC_I2CL_Read+0x1e4>
   20f90:	00800a04 	movi	r2,40
   20f94:	00000106 	br	20f9c <OC_I2CL_Read+0x1e8>
   20f98:	00800804 	movi	r2,32
   20f9c:	20800035 	stwio	r2,0(r4)

        if (!ACK_judge_for_read( i2c_base)){
   20fa0:	e13ffc17 	ldw	r4,-16(fp)
   20fa4:	00208340 	call	20834 <ACK_judge_for_read>
   20fa8:	1000051e 	bne	r2,zero,20fc0 <OC_I2CL_Read+0x20c>
            printf("OC_I2CL_Read error[4]\r\n");
   20fac:	010000f4 	movhi	r4,3
   20fb0:	210d7e04 	addi	r4,r4,13816
   20fb4:	0023de80 	call	23de8 <puts>
            return FALSE;
   20fb8:	0005883a 	mov	r2,zero
   20fbc:	00001906 	br	21024 <OC_I2CL_Read+0x270>
        }
   // printf("\n read receive ACK-device address(read)! \n");

        Data32=IORD( i2c_base, 3);
   20fc0:	e0bffc17 	ldw	r2,-16(fp)
   20fc4:	10800304 	addi	r2,r2,12
   20fc8:	10800037 	ldwio	r2,0(r2)
   20fcc:	e0bffd15 	stw	r2,-12(fp)
        *(pData8+i) =  Data32 & 0xff;
   20fd0:	e0bfff17 	ldw	r2,-4(fp)
   20fd4:	e0fff917 	ldw	r3,-28(fp)
   20fd8:	1885883a 	add	r2,r3,r2
   20fdc:	e0fffd17 	ldw	r3,-12(fp)
   20fe0:	10c00005 	stb	r3,0(r2)
    for(i=0;i<nReadLength;i++){
   20fe4:	e0bfff17 	ldw	r2,-4(fp)
   20fe8:	10800044 	addi	r2,r2,1
   20fec:	e0bfff15 	stw	r2,-4(fp)
   20ff0:	e0ffff17 	ldw	r3,-4(fp)
   20ff4:	e0800217 	ldw	r2,8(fp)
   20ff8:	18bfde16 	blt	r3,r2,20f74 <OC_I2CL_Read+0x1c0>
    DataLow =  Data32 & 0xff;

    pData16 = (DataHigh << 8) | DataLow;
#endif

   if (!Write32_Data( i2c_base, 4,0x40))
   20ffc:	01801004 	movi	r6,64
   21000:	01400104 	movi	r5,4
   21004:	e13ffc17 	ldw	r4,-16(fp)
   21008:	00202840 	call	20284 <Write32_Data>
   2100c:	1000021e 	bne	r2,zero,21018 <OC_I2CL_Read+0x264>
       return FALSE;
   21010:	0005883a 	mov	r2,zero
   21014:	00000306 	br	21024 <OC_I2CL_Read+0x270>

   //OS_msleep(1);
    usleep(SLEEP_TIME);
   21018:	01003e84 	movi	r4,250
   2101c:	0030e780 	call	30e78 <usleep>

   return TRUE;
   21020:	00800044 	movi	r2,1

}
   21024:	e037883a 	mov	sp,fp
   21028:	dfc00117 	ldw	ra,4(sp)
   2102c:	df000017 	ldw	fp,0(sp)
   21030:	dec00204 	addi	sp,sp,8
   21034:	f800283a 	ret

00021038 <Focus_Init>:
// please observe focus performance when change the scal ,scal_f. or when change camera frame rate
alt_u8  focus_scal   =   4;  // scan 0 -> 1023 , step: SCAL , to find STEP_UP
alt_u8  focus_scal_f =   1;  //  scan STEP_UP + - SCAL/2 , step: SCAL_F
alt_u8  focus_th     =   20;

void Focus_Init(void){
   21038:	defffe04 	addi	sp,sp,-8
   2103c:	dfc00115 	stw	ra,4(sp)
   21040:	df000015 	stw	fp,0(sp)
   21044:	d839883a 	mov	fp,sp
  // please look at TERASIC_AUTO_FOCUS IP to see register's detail.
  IOWR(TERASIC_AUTO_FOCUS_0_BASE,REG_CTRL, 0);// focus mode : 1: window-screen, 0: full-screen
   21048:	0007883a 	mov	r3,zero
   2104c:	00800134 	movhi	r2,4
   21050:	10c40935 	stwio	r3,4132(r2)
  IOWR(TERASIC_AUTO_FOCUS_0_BASE,REG_FOCUS_W, focus_width);// focus_width
   21054:	d0a0010b 	ldhu	r2,-32764(gp)
   21058:	10ffffcc 	andi	r3,r2,65535
   2105c:	00800134 	movhi	r2,4
   21060:	10c40a35 	stwio	r3,4136(r2)
  IOWR(TERASIC_AUTO_FOCUS_0_BASE,REG_FOCUS_H, focus_height);// focus_height
   21064:	d0a0018b 	ldhu	r2,-32762(gp)
   21068:	10ffffcc 	andi	r3,r2,65535
   2106c:	00800134 	movhi	r2,4
   21070:	10c40b35 	stwio	r3,4140(r2)
  IOWR(TERASIC_AUTO_FOCUS_0_BASE,REG_FOCUS_X_START, video_w/2-focus_width/2);//x_start
   21074:	d0a0000b 	ldhu	r2,-32768(gp)
   21078:	10bfffcc 	andi	r2,r2,65535
   2107c:	1004d07a 	srli	r2,r2,1
   21080:	10ffffcc 	andi	r3,r2,65535
   21084:	d0a0010b 	ldhu	r2,-32764(gp)
   21088:	10bfffcc 	andi	r2,r2,65535
   2108c:	1004d07a 	srli	r2,r2,1
   21090:	10bfffcc 	andi	r2,r2,65535
   21094:	1887c83a 	sub	r3,r3,r2
   21098:	00800134 	movhi	r2,4
   2109c:	10c40c35 	stwio	r3,4144(r2)
  IOWR(TERASIC_AUTO_FOCUS_0_BASE,REG_FOCUS_Y_START, video_h/2-focus_height/2);// y_start
   210a0:	d0a0008b 	ldhu	r2,-32766(gp)
   210a4:	10bfffcc 	andi	r2,r2,65535
   210a8:	1004d07a 	srli	r2,r2,1
   210ac:	10ffffcc 	andi	r3,r2,65535
   210b0:	d0a0018b 	ldhu	r2,-32762(gp)
   210b4:	10bfffcc 	andi	r2,r2,65535
   210b8:	1004d07a 	srli	r2,r2,1
   210bc:	10bfffcc 	andi	r2,r2,65535
   210c0:	1887c83a 	sub	r3,r3,r2
   210c4:	00800134 	movhi	r2,4
   210c8:	10c40d35 	stwio	r3,4148(r2)

  IOWR(TERASIC_AUTO_FOCUS_0_BASE,REG_SCAL, focus_scal*256 + focus_scal_f); // scan 0 -> 1023 , step: SCAL , to find STEP_UP
   210cc:	d0a00203 	ldbu	r2,-32760(gp)
   210d0:	10803fcc 	andi	r2,r2,255
   210d4:	1006923a 	slli	r3,r2,8
   210d8:	d0a00243 	ldbu	r2,-32759(gp)
   210dc:	10803fcc 	andi	r2,r2,255
   210e0:	1887883a 	add	r3,r3,r2
   210e4:	00800134 	movhi	r2,4
   210e8:	10c40e35 	stwio	r3,4152(r2)
                                                                          //  scan STEP_UP + - SCAL/2 , step: SCAL_F
  IOWR(TERASIC_AUTO_FOCUS_0_BASE,REG_TH, focus_th);
   210ec:	d0a00283 	ldbu	r2,-32758(gp)
   210f0:	10c03fcc 	andi	r3,r2,255
   210f4:	00800134 	movhi	r2,4
   210f8:	10c40f35 	stwio	r3,4156(r2)

  //////////// focus at initial time
  usleep(100);
   210fc:	01001904 	movi	r4,100
   21100:	0030e780 	call	30e78 <usleep>
  IOWR(TERASIC_AUTO_FOCUS_0_BASE,REG_GO, 1);
   21104:	00c00044 	movi	r3,1
   21108:	00800134 	movhi	r2,4
   2110c:	10c40835 	stwio	r3,4128(r2)
  usleep(2);
   21110:	01000084 	movi	r4,2
   21114:	0030e780 	call	30e78 <usleep>
  IOWR(TERASIC_AUTO_FOCUS_0_BASE,REG_GO, 0);
   21118:	0007883a 	mov	r3,zero
   2111c:	00800134 	movhi	r2,4
   21120:	10c40835 	stwio	r3,4128(r2)
}
   21124:	0001883a 	nop
   21128:	e037883a 	mov	sp,fp
   2112c:	dfc00117 	ldw	ra,4(sp)
   21130:	df000017 	ldw	fp,0(sp)
   21134:	dec00204 	addi	sp,sp,8
   21138:	f800283a 	ret

0002113c <Focus_Window>:

alt_u16 Focus_Window(int x,int y){
   2113c:	defffa04 	addi	sp,sp,-24
   21140:	dfc00515 	stw	ra,20(sp)
   21144:	df000415 	stw	fp,16(sp)
   21148:	df000404 	addi	fp,sp,16
   2114c:	e13ffd15 	stw	r4,-12(fp)
   21150:	e17ffc15 	stw	r5,-16(fp)
   alt_u16 x_start,y_start;
   alt_u16 end_focus;

   if(Focus_Released()) { // pre focus done
   21154:	00213040 	call	21304 <Focus_Released>
   21158:	10006426 	beq	r2,zero,212ec <Focus_Window+0x1b0>
	   IOWR(TERASIC_AUTO_FOCUS_0_BASE,REG_CTRL, 1);// focus mode : 1: window-screen, 0: full-screen
   2115c:	00c00044 	movi	r3,1
   21160:	00800134 	movhi	r2,4
   21164:	10c40935 	stwio	r3,4132(r2)

	   if(( x -  focus_width/2) < 0 ) x_start = 0;
   21168:	d0a0010b 	ldhu	r2,-32764(gp)
   2116c:	10bfffcc 	andi	r2,r2,65535
   21170:	1004d07a 	srli	r2,r2,1
   21174:	10bfffcc 	andi	r2,r2,65535
   21178:	e0fffd17 	ldw	r3,-12(fp)
   2117c:	1885c83a 	sub	r2,r3,r2
   21180:	1000020e 	bge	r2,zero,2118c <Focus_Window+0x50>
   21184:	e03fff8d 	sth	zero,-2(fp)
   21188:	00001606 	br	211e4 <Focus_Window+0xa8>
	   else if(( x + focus_width/2 ) > video_w )  x_start = video_w -1 -focus_width;
   2118c:	d0a0010b 	ldhu	r2,-32764(gp)
   21190:	10bfffcc 	andi	r2,r2,65535
   21194:	1004d07a 	srli	r2,r2,1
   21198:	10ffffcc 	andi	r3,r2,65535
   2119c:	e0bffd17 	ldw	r2,-12(fp)
   211a0:	1885883a 	add	r2,r3,r2
   211a4:	d0e0000b 	ldhu	r3,-32768(gp)
   211a8:	18ffffcc 	andi	r3,r3,65535
   211ac:	1880060e 	bge	r3,r2,211c8 <Focus_Window+0x8c>
   211b0:	d0e0000b 	ldhu	r3,-32768(gp)
   211b4:	d0a0010b 	ldhu	r2,-32764(gp)
   211b8:	1885c83a 	sub	r2,r3,r2
   211bc:	10bfffc4 	addi	r2,r2,-1
   211c0:	e0bfff8d 	sth	r2,-2(fp)
   211c4:	00000706 	br	211e4 <Focus_Window+0xa8>
	   else x_start = x - focus_width/2;
   211c8:	e0bffd17 	ldw	r2,-12(fp)
   211cc:	1007883a 	mov	r3,r2
   211d0:	d0a0010b 	ldhu	r2,-32764(gp)
   211d4:	10bfffcc 	andi	r2,r2,65535
   211d8:	1004d07a 	srli	r2,r2,1
   211dc:	1885c83a 	sub	r2,r3,r2
   211e0:	e0bfff8d 	sth	r2,-2(fp)

	   if(( y -  focus_height/2) < 0 ) y_start = 0;
   211e4:	d0a0018b 	ldhu	r2,-32762(gp)
   211e8:	10bfffcc 	andi	r2,r2,65535
   211ec:	1004d07a 	srli	r2,r2,1
   211f0:	10bfffcc 	andi	r2,r2,65535
   211f4:	e0fffc17 	ldw	r3,-16(fp)
   211f8:	1885c83a 	sub	r2,r3,r2
   211fc:	1000020e 	bge	r2,zero,21208 <Focus_Window+0xcc>
   21200:	e03fff0d 	sth	zero,-4(fp)
   21204:	00001606 	br	21260 <Focus_Window+0x124>
	   else if(( y + focus_height/2 ) > video_h )  y_start = video_h -1 -focus_height;
   21208:	d0a0018b 	ldhu	r2,-32762(gp)
   2120c:	10bfffcc 	andi	r2,r2,65535
   21210:	1004d07a 	srli	r2,r2,1
   21214:	10ffffcc 	andi	r3,r2,65535
   21218:	e0bffc17 	ldw	r2,-16(fp)
   2121c:	1885883a 	add	r2,r3,r2
   21220:	d0e0008b 	ldhu	r3,-32766(gp)
   21224:	18ffffcc 	andi	r3,r3,65535
   21228:	1880060e 	bge	r3,r2,21244 <Focus_Window+0x108>
   2122c:	d0e0008b 	ldhu	r3,-32766(gp)
   21230:	d0a0018b 	ldhu	r2,-32762(gp)
   21234:	1885c83a 	sub	r2,r3,r2
   21238:	10bfffc4 	addi	r2,r2,-1
   2123c:	e0bfff0d 	sth	r2,-4(fp)
   21240:	00000706 	br	21260 <Focus_Window+0x124>
	   else y_start = y - focus_height/2;
   21244:	e0bffc17 	ldw	r2,-16(fp)
   21248:	1007883a 	mov	r3,r2
   2124c:	d0a0018b 	ldhu	r2,-32762(gp)
   21250:	10bfffcc 	andi	r2,r2,65535
   21254:	1004d07a 	srli	r2,r2,1
   21258:	1885c83a 	sub	r2,r3,r2
   2125c:	e0bfff0d 	sth	r2,-4(fp)

	   printf("x_start= %d,y_start= %d\n",x_start,y_start);
   21260:	e0bfff8b 	ldhu	r2,-2(fp)
   21264:	e0ffff0b 	ldhu	r3,-4(fp)
   21268:	180d883a 	mov	r6,r3
   2126c:	100b883a 	mov	r5,r2
   21270:	010000f4 	movhi	r4,3
   21274:	210d8404 	addi	r4,r4,13840
   21278:	0023cc40 	call	23cc4 <printf>

	   IOWR(TERASIC_AUTO_FOCUS_0_BASE,REG_FOCUS_X_START, x_start);//x_start
   2127c:	e0ffff8b 	ldhu	r3,-2(fp)
   21280:	00800134 	movhi	r2,4
   21284:	10c40c35 	stwio	r3,4144(r2)
	   IOWR(TERASIC_AUTO_FOCUS_0_BASE,REG_FOCUS_Y_START, y_start);//y_start
   21288:	e0ffff0b 	ldhu	r3,-4(fp)
   2128c:	00800134 	movhi	r2,4
   21290:	10c40d35 	stwio	r3,4148(r2)

	   usleep(10);
   21294:	01000284 	movi	r4,10
   21298:	0030e780 	call	30e78 <usleep>

	   IOWR(TERASIC_AUTO_FOCUS_0_BASE,REG_GO, 1);
   2129c:	00c00044 	movi	r3,1
   212a0:	00800134 	movhi	r2,4
   212a4:	10c40835 	stwio	r3,4128(r2)
	   usleep(2);
   212a8:	01000084 	movi	r4,2
   212ac:	0030e780 	call	30e78 <usleep>
	   IOWR(TERASIC_AUTO_FOCUS_0_BASE,REG_GO, 0);
   212b0:	0007883a 	mov	r3,zero
   212b4:	00800134 	movhi	r2,4
   212b8:	10c40835 	stwio	r3,4128(r2)
	   Focus_Released();
   212bc:	00213040 	call	21304 <Focus_Released>

	   end_focus = IORD(TERASIC_AUTO_FOCUS_0_BASE,REG_STATUS)&0x0FFF;
   212c0:	00800134 	movhi	r2,4
   212c4:	10840837 	ldwio	r2,4128(r2)
   212c8:	1083ffcc 	andi	r2,r2,4095
   212cc:	e0bffe8d 	sth	r2,-6(fp)
	   printf("end_focus = %d \n",end_focus);
   212d0:	e0bffe8b 	ldhu	r2,-6(fp)
   212d4:	100b883a 	mov	r5,r2
   212d8:	010000f4 	movhi	r4,3
   212dc:	210d8b04 	addi	r4,r4,13868
   212e0:	0023cc40 	call	23cc4 <printf>

	   return end_focus;
   212e4:	e0bffe8b 	ldhu	r2,-6(fp)
   212e8:	00000106 	br	212f0 <Focus_Window+0x1b4>

   }
   return end_focus;
   212ec:	e0bffe8b 	ldhu	r2,-6(fp)

}
   212f0:	e037883a 	mov	sp,fp
   212f4:	dfc00117 	ldw	ra,4(sp)
   212f8:	df000017 	ldw	fp,0(sp)
   212fc:	dec00204 	addi	sp,sp,8
   21300:	f800283a 	ret

00021304 <Focus_Released>:

int Focus_Released(void){
   21304:	defffc04 	addi	sp,sp,-16
   21308:	dfc00315 	stw	ra,12(sp)
   2130c:	df000215 	stw	fp,8(sp)
   21310:	df000204 	addi	fp,sp,8
  int Released = FALSE;
   21314:	e03fff15 	stw	zero,-4(fp)
 * alt_nticks() returns the elapsed number of system clock ticks since reset.
 */

static ALT_INLINE alt_u32 ALT_ALWAYS_INLINE alt_nticks (void)
{
  return _alt_nticks;
   21318:	d0e92e17 	ldw	r3,-23368(gp)
  return _alt_tick_rate;
   2131c:	d0a92d17 	ldw	r2,-23372(gp)
  alt_u32 TimeOut;

  TimeOut = alt_nticks() + alt_ticks_per_second()*8;
   21320:	100490fa 	slli	r2,r2,3
   21324:	1885883a 	add	r2,r3,r2
   21328:	e0bffe15 	stw	r2,-8(fp)

  while((IORD(TERASIC_AUTO_FOCUS_0_BASE,REG_STATUS)&0x8000) ==0 && alt_nticks() < TimeOut ); // waiting for VCM release I2C bus
   2132c:	0001883a 	nop
   21330:	00800134 	movhi	r2,4
   21334:	10840837 	ldwio	r2,4128(r2)
   21338:	10a0000c 	andi	r2,r2,32768
   2133c:	1000031e 	bne	r2,zero,2134c <Focus_Released+0x48>
  return _alt_nticks;
   21340:	d0e92e17 	ldw	r3,-23368(gp)
   21344:	e0bffe17 	ldw	r2,-8(fp)
   21348:	18bff936 	bltu	r3,r2,21330 <Focus_Released+0x2c>
   2134c:	d0e92e17 	ldw	r3,-23368(gp)

  if(alt_nticks() < TimeOut ) Released = TRUE;
   21350:	e0bffe17 	ldw	r2,-8(fp)
   21354:	1880032e 	bgeu	r3,r2,21364 <Focus_Released+0x60>
   21358:	00800044 	movi	r2,1
   2135c:	e0bfff15 	stw	r2,-4(fp)
   21360:	00000306 	br	21370 <Focus_Released+0x6c>
  else printf("\n =>Released check TimeOut!\n");
   21364:	010000f4 	movhi	r4,3
   21368:	210d9004 	addi	r4,r4,13888
   2136c:	0023de80 	call	23de8 <puts>

  usleep(10000);
   21370:	0109c404 	movi	r4,10000
   21374:	0030e780 	call	30e78 <usleep>

  return Released;
   21378:	e0bfff17 	ldw	r2,-4(fp)
}
   2137c:	e037883a 	mov	sp,fp
   21380:	dfc00117 	ldw	ra,4(sp)
   21384:	df000017 	ldw	fp,0(sp)
   21388:	dec00204 	addi	sp,sp,8
   2138c:	f800283a 	ret

00021390 <mipi_clear_error>:
#define MIPI_REG_CSIErrEn		0x0066
#define MIPI_REG_MDLSynErr		0x0068
#define MIPI_REG_FrmErrCnt		0x0080
#define MIPI_REG_MDLErrCnt		0x0090

void mipi_clear_error(void){
   21390:	defffe04 	addi	sp,sp,-8
   21394:	dfc00115 	stw	ra,4(sp)
   21398:	df000015 	stw	fp,0(sp)
   2139c:	d839883a 	mov	fp,sp
	MipiBridgeRegWrite(MIPI_REG_CSIStatus,0x01FF); // clear error
   213a0:	01407fc4 	movi	r5,511
   213a4:	01001904 	movi	r4,100
   213a8:	0021b840 	call	21b84 <MipiBridgeRegWrite>
	MipiBridgeRegWrite(MIPI_REG_MDLSynErr,0x0000); // clear error
   213ac:	000b883a 	mov	r5,zero
   213b0:	01001a04 	movi	r4,104
   213b4:	0021b840 	call	21b84 <MipiBridgeRegWrite>
	MipiBridgeRegWrite(MIPI_REG_FrmErrCnt,0x0000); // clear error
   213b8:	000b883a 	mov	r5,zero
   213bc:	01002004 	movi	r4,128
   213c0:	0021b840 	call	21b84 <MipiBridgeRegWrite>
	MipiBridgeRegWrite(MIPI_REG_MDLErrCnt, 0x0000); // clear error
   213c4:	000b883a 	mov	r5,zero
   213c8:	01002404 	movi	r4,144
   213cc:	0021b840 	call	21b84 <MipiBridgeRegWrite>

  	MipiBridgeRegWrite(0x0082,0x00);
   213d0:	000b883a 	mov	r5,zero
   213d4:	01002084 	movi	r4,130
   213d8:	0021b840 	call	21b84 <MipiBridgeRegWrite>
  	MipiBridgeRegWrite(0x0084,0x00);
   213dc:	000b883a 	mov	r5,zero
   213e0:	01002104 	movi	r4,132
   213e4:	0021b840 	call	21b84 <MipiBridgeRegWrite>
  	MipiBridgeRegWrite(0x0086,0x00);
   213e8:	000b883a 	mov	r5,zero
   213ec:	01002184 	movi	r4,134
   213f0:	0021b840 	call	21b84 <MipiBridgeRegWrite>
  	MipiBridgeRegWrite(0x0088,0x00);
   213f4:	000b883a 	mov	r5,zero
   213f8:	01002204 	movi	r4,136
   213fc:	0021b840 	call	21b84 <MipiBridgeRegWrite>
  	MipiBridgeRegWrite(0x008A,0x00);
   21400:	000b883a 	mov	r5,zero
   21404:	01002284 	movi	r4,138
   21408:	0021b840 	call	21b84 <MipiBridgeRegWrite>
  	MipiBridgeRegWrite(0x008C,0x00);
   2140c:	000b883a 	mov	r5,zero
   21410:	01002304 	movi	r4,140
   21414:	0021b840 	call	21b84 <MipiBridgeRegWrite>
  	MipiBridgeRegWrite(0x008E,0x00);
   21418:	000b883a 	mov	r5,zero
   2141c:	01002384 	movi	r4,142
   21420:	0021b840 	call	21b84 <MipiBridgeRegWrite>
  	MipiBridgeRegWrite(0x0090,0x00);
   21424:	000b883a 	mov	r5,zero
   21428:	01002404 	movi	r4,144
   2142c:	0021b840 	call	21b84 <MipiBridgeRegWrite>
}
   21430:	0001883a 	nop
   21434:	e037883a 	mov	sp,fp
   21438:	dfc00117 	ldw	ra,4(sp)
   2143c:	df000017 	ldw	fp,0(sp)
   21440:	dec00204 	addi	sp,sp,8
   21444:	f800283a 	ret

00021448 <mipi_show_error_info>:

void mipi_show_error_info(void){
   21448:	defff904 	addi	sp,sp,-28
   2144c:	dfc00615 	stw	ra,24(sp)
   21450:	df000515 	stw	fp,20(sp)
   21454:	df000504 	addi	fp,sp,20

	alt_u16 PHY_status, SCI_status, MDLSynErr, FrmErrCnt, MDLErrCnt;

	PHY_status = MipiBridgeRegRead(MIPI_REG_PHYSta);
   21458:	01001884 	movi	r4,98
   2145c:	0021bf40 	call	21bf4 <MipiBridgeRegRead>
   21460:	e0bfff8d 	sth	r2,-2(fp)
	SCI_status = MipiBridgeRegRead(MIPI_REG_CSIStatus);
   21464:	01001904 	movi	r4,100
   21468:	0021bf40 	call	21bf4 <MipiBridgeRegRead>
   2146c:	e0bfff0d 	sth	r2,-4(fp)
	MDLSynErr = MipiBridgeRegRead(MIPI_REG_MDLSynErr);
   21470:	01001a04 	movi	r4,104
   21474:	0021bf40 	call	21bf4 <MipiBridgeRegRead>
   21478:	e0bffe8d 	sth	r2,-6(fp)
	FrmErrCnt = MipiBridgeRegRead(MIPI_REG_FrmErrCnt);
   2147c:	01002004 	movi	r4,128
   21480:	0021bf40 	call	21bf4 <MipiBridgeRegRead>
   21484:	e0bffe0d 	sth	r2,-8(fp)
	MDLErrCnt = MipiBridgeRegRead(MIPI_REG_MDLErrCnt);
   21488:	01002404 	movi	r4,144
   2148c:	0021bf40 	call	21bf4 <MipiBridgeRegRead>
   21490:	e0bffd8d 	sth	r2,-10(fp)
	printf("PHY_status=%xh, CSI_status=%xh, MDLSynErr=%xh, FrmErrCnt=%xh, MDLErrCnt=%xh\r\n", PHY_status, SCI_status, MDLSynErr,FrmErrCnt, MDLErrCnt);
   21494:	e13fff8b 	ldhu	r4,-2(fp)
   21498:	e17fff0b 	ldhu	r5,-4(fp)
   2149c:	e1bffe8b 	ldhu	r6,-6(fp)
   214a0:	e0bffe0b 	ldhu	r2,-8(fp)
   214a4:	e0fffd8b 	ldhu	r3,-10(fp)
   214a8:	d8c00115 	stw	r3,4(sp)
   214ac:	d8800015 	stw	r2,0(sp)
   214b0:	300f883a 	mov	r7,r6
   214b4:	280d883a 	mov	r6,r5
   214b8:	200b883a 	mov	r5,r4
   214bc:	010000f4 	movhi	r4,3
   214c0:	210d9804 	addi	r4,r4,13920
   214c4:	0023cc40 	call	23cc4 <printf>
}
   214c8:	0001883a 	nop
   214cc:	e037883a 	mov	sp,fp
   214d0:	dfc00117 	ldw	ra,4(sp)
   214d4:	df000017 	ldw	fp,0(sp)
   214d8:	dec00204 	addi	sp,sp,8
   214dc:	f800283a 	ret

000214e0 <mipi_show_error_info_more>:

void mipi_show_error_info_more(void){
   214e0:	defffe04 	addi	sp,sp,-8
   214e4:	dfc00115 	stw	ra,4(sp)
   214e8:	df000015 	stw	fp,0(sp)
   214ec:	d839883a 	mov	fp,sp
    printf("FrmErrCnt = %d\n",MipiBridgeRegRead(0x0080));
   214f0:	01002004 	movi	r4,128
   214f4:	0021bf40 	call	21bf4 <MipiBridgeRegRead>
   214f8:	10bfffcc 	andi	r2,r2,65535
   214fc:	100b883a 	mov	r5,r2
   21500:	010000f4 	movhi	r4,3
   21504:	210dac04 	addi	r4,r4,14000
   21508:	0023cc40 	call	23cc4 <printf>
    printf("CRCErrCnt = %d\n",MipiBridgeRegRead(0x0082));
   2150c:	01002084 	movi	r4,130
   21510:	0021bf40 	call	21bf4 <MipiBridgeRegRead>
   21514:	10bfffcc 	andi	r2,r2,65535
   21518:	100b883a 	mov	r5,r2
   2151c:	010000f4 	movhi	r4,3
   21520:	210db004 	addi	r4,r4,14016
   21524:	0023cc40 	call	23cc4 <printf>
    printf("CorErrCnt = %d\n",MipiBridgeRegRead(0x0084));
   21528:	01002104 	movi	r4,132
   2152c:	0021bf40 	call	21bf4 <MipiBridgeRegRead>
   21530:	10bfffcc 	andi	r2,r2,65535
   21534:	100b883a 	mov	r5,r2
   21538:	010000f4 	movhi	r4,3
   2153c:	210db404 	addi	r4,r4,14032
   21540:	0023cc40 	call	23cc4 <printf>
    printf("HdrErrCnt = %d\n",MipiBridgeRegRead(0x0086));
   21544:	01002184 	movi	r4,134
   21548:	0021bf40 	call	21bf4 <MipiBridgeRegRead>
   2154c:	10bfffcc 	andi	r2,r2,65535
   21550:	100b883a 	mov	r5,r2
   21554:	010000f4 	movhi	r4,3
   21558:	210db804 	addi	r4,r4,14048
   2155c:	0023cc40 	call	23cc4 <printf>
    printf("EIDErrCnt = %d\n",MipiBridgeRegRead(0x0088));
   21560:	01002204 	movi	r4,136
   21564:	0021bf40 	call	21bf4 <MipiBridgeRegRead>
   21568:	10bfffcc 	andi	r2,r2,65535
   2156c:	100b883a 	mov	r5,r2
   21570:	010000f4 	movhi	r4,3
   21574:	210dbc04 	addi	r4,r4,14064
   21578:	0023cc40 	call	23cc4 <printf>
    printf("CtlErrCnt = %d\n",MipiBridgeRegRead(0x008A));
   2157c:	01002284 	movi	r4,138
   21580:	0021bf40 	call	21bf4 <MipiBridgeRegRead>
   21584:	10bfffcc 	andi	r2,r2,65535
   21588:	100b883a 	mov	r5,r2
   2158c:	010000f4 	movhi	r4,3
   21590:	210dc004 	addi	r4,r4,14080
   21594:	0023cc40 	call	23cc4 <printf>
    printf("SoTErrCnt = %d\n",MipiBridgeRegRead(0x008C));
   21598:	01002304 	movi	r4,140
   2159c:	0021bf40 	call	21bf4 <MipiBridgeRegRead>
   215a0:	10bfffcc 	andi	r2,r2,65535
   215a4:	100b883a 	mov	r5,r2
   215a8:	010000f4 	movhi	r4,3
   215ac:	210dc404 	addi	r4,r4,14096
   215b0:	0023cc40 	call	23cc4 <printf>
    printf("SynErrCnt = %d\n",MipiBridgeRegRead(0x008E));
   215b4:	01002384 	movi	r4,142
   215b8:	0021bf40 	call	21bf4 <MipiBridgeRegRead>
   215bc:	10bfffcc 	andi	r2,r2,65535
   215c0:	100b883a 	mov	r5,r2
   215c4:	010000f4 	movhi	r4,3
   215c8:	210dc804 	addi	r4,r4,14112
   215cc:	0023cc40 	call	23cc4 <printf>
    printf("MDLErrCnt = %d\n",MipiBridgeRegRead(0x0090));
   215d0:	01002404 	movi	r4,144
   215d4:	0021bf40 	call	21bf4 <MipiBridgeRegRead>
   215d8:	10bfffcc 	andi	r2,r2,65535
   215dc:	100b883a 	mov	r5,r2
   215e0:	010000f4 	movhi	r4,3
   215e4:	210dcc04 	addi	r4,r4,14128
   215e8:	0023cc40 	call	23cc4 <printf>
    printf("FIFOSTATUS = %d\n",MipiBridgeRegRead(0x00F8));
   215ec:	01003e04 	movi	r4,248
   215f0:	0021bf40 	call	21bf4 <MipiBridgeRegRead>
   215f4:	10bfffcc 	andi	r2,r2,65535
   215f8:	100b883a 	mov	r5,r2
   215fc:	010000f4 	movhi	r4,3
   21600:	210dd004 	addi	r4,r4,14144
   21604:	0023cc40 	call	23cc4 <printf>
    printf("DataType = 0x%04x\n",MipiBridgeRegRead(0x006A));
   21608:	01001a84 	movi	r4,106
   2160c:	0021bf40 	call	21bf4 <MipiBridgeRegRead>
   21610:	10bfffcc 	andi	r2,r2,65535
   21614:	100b883a 	mov	r5,r2
   21618:	010000f4 	movhi	r4,3
   2161c:	210dd504 	addi	r4,r4,14164
   21620:	0023cc40 	call	23cc4 <printf>
    printf("CSIPktLen = %d\n",MipiBridgeRegRead(0x006E));
   21624:	01001b84 	movi	r4,110
   21628:	0021bf40 	call	21bf4 <MipiBridgeRegRead>
   2162c:	10bfffcc 	andi	r2,r2,65535
   21630:	100b883a 	mov	r5,r2
   21634:	010000f4 	movhi	r4,3
   21638:	210dda04 	addi	r4,r4,14184
   2163c:	0023cc40 	call	23cc4 <printf>
}
   21640:	0001883a 	nop
   21644:	e037883a 	mov	sp,fp
   21648:	dfc00117 	ldw	ra,4(sp)
   2164c:	df000017 	ldw	fp,0(sp)
   21650:	dec00204 	addi	sp,sp,8
   21654:	f800283a 	ret

00021658 <MIPI_Init>:



bool MIPI_Init(void){
   21658:	defffd04 	addi	sp,sp,-12
   2165c:	dfc00215 	stw	ra,8(sp)
   21660:	df000115 	stw	fp,4(sp)
   21664:	df000104 	addi	fp,sp,4
	bool bSuccess;


	bSuccess = oc_i2c_init_ex(I2C_OPENCORES_MIPI_BASE, 50*1000*1000,400*1000); //I2C: 400K
   21668:	018001b4 	movhi	r6,6
   2166c:	3186a004 	addi	r6,r6,6784
   21670:	0140bef4 	movhi	r5,763
   21674:	297c2004 	addi	r5,r5,-3968
   21678:	01000134 	movhi	r4,4
   2167c:	21041804 	addi	r4,r4,4192
   21680:	00203840 	call	20384 <oc_i2c_init_ex>
   21684:	e0bfff15 	stw	r2,-4(fp)
	if (!bSuccess)
   21688:	e0bfff17 	ldw	r2,-4(fp)
   2168c:	1000031e 	bne	r2,zero,2169c <MIPI_Init+0x44>
		printf("failed to init MIPI- Bridge i2c\r\n");
   21690:	010000f4 	movhi	r4,3
   21694:	210dde04 	addi	r4,r4,14200
   21698:	0023de80 	call	23de8 <puts>

    usleep(50*1000);
   2169c:	0130d414 	movui	r4,50000
   216a0:	0030e780 	call	30e78 <usleep>
    MipiBridgeInit();
   216a4:	0021c6c0 	call	21c6c <MipiBridgeInit>

    usleep(500*1000);
   216a8:	01000234 	movhi	r4,8
   216ac:	21284804 	addi	r4,r4,-24288
   216b0:	0030e780 	call	30e78 <usleep>

//	bSuccess = oc_i2c_init_ex(I2C_OPENCORES_CAMERA_BASE, 50*1000*1000,400*1000); //I2C: 400K
//	if (!bSuccess)
//		printf("failed to init MIPI- Camera i2c\r\n");

    MipiCameraInit();
   216b4:	00224340 	call	22434 <MipiCameraInit>
    MIPI_BIN_LEVEL(DEFAULT_LEVEL);
   216b8:	010000c4 	movi	r4,3
   216bc:	00222740 	call	22274 <MIPI_BIN_LEVEL>
//    OV8865_FOCUS_Move_to(340);

//    oc_i2c_uninit(I2C_OPENCORES_CAMERA_BASE);  // Release I2C bus , due to two I2C master shared!


 	usleep(1000);
   216c0:	0100fa04 	movi	r4,1000
   216c4:	0030e780 	call	30e78 <usleep>


//    oc_i2c_uninit(I2C_OPENCORES_MIPI_BASE);

	return bSuccess;
   216c8:	e0bfff17 	ldw	r2,-4(fp)
}
   216cc:	e037883a 	mov	sp,fp
   216d0:	dfc00117 	ldw	ra,4(sp)
   216d4:	df000017 	ldw	fp,0(sp)
   216d8:	dec00204 	addi	sp,sp,8
   216dc:	f800283a 	ret

000216e0 <main>:




int main()
{
   216e0:	defff704 	addi	sp,sp,-36
   216e4:	dfc00815 	stw	ra,32(sp)
   216e8:	df000715 	stw	fp,28(sp)
   216ec:	df000704 	addi	fp,sp,28

	fcntl(STDIN_FILENO, F_SETFL, O_NONBLOCK);
   216f0:	01900004 	movi	r6,16384
   216f4:	01400104 	movi	r5,4
   216f8:	0009883a 	mov	r4,zero
   216fc:	00301040 	call	30104 <fcntl>

  printf("DE10-LITE D8M VGA Demo\n");
   21700:	010000f4 	movhi	r4,3
   21704:	210de704 	addi	r4,r4,14236
   21708:	0023de80 	call	23de8 <puts>
  printf("Imperial College EEE2 Project version\n");
   2170c:	010000f4 	movhi	r4,3
   21710:	210ded04 	addi	r4,r4,14260
   21714:	0023de80 	call	23de8 <puts>
  IOWR(MIPI_PWDN_N_BASE, 0x00, 0x00);
   21718:	0007883a 	mov	r3,zero
   2171c:	00800134 	movhi	r2,4
   21720:	10c42035 	stwio	r3,4224(r2)
  IOWR(MIPI_RESET_N_BASE, 0x00, 0x00);
   21724:	0007883a 	mov	r3,zero
   21728:	00800134 	movhi	r2,4
   2172c:	10c42435 	stwio	r3,4240(r2)

  usleep(2000);
   21730:	0101f404 	movi	r4,2000
   21734:	0030e780 	call	30e78 <usleep>
  IOWR(MIPI_PWDN_N_BASE, 0x00, 0xFF);
   21738:	00c03fc4 	movi	r3,255
   2173c:	00800134 	movhi	r2,4
   21740:	10c42035 	stwio	r3,4224(r2)
  usleep(2000);
   21744:	0101f404 	movi	r4,2000
   21748:	0030e780 	call	30e78 <usleep>
  IOWR(MIPI_RESET_N_BASE, 0x00, 0xFF);
   2174c:	00c03fc4 	movi	r3,255
   21750:	00800134 	movhi	r2,4
   21754:	10c42435 	stwio	r3,4240(r2)

  printf("Image Processor ID: %x\n",IORD(0x42000,EEE_IMGPROC_ID));
   21758:	00800134 	movhi	r2,4
   2175c:	10880237 	ldwio	r2,8200(r2)
   21760:	100b883a 	mov	r5,r2
   21764:	010000f4 	movhi	r4,3
   21768:	210df704 	addi	r4,r4,14300
   2176c:	0023cc40 	call	23cc4 <printf>
  //printf("Image Processor ID: %x\n",IORD(EEE_IMGPROC_0_BASE,EEE_IMGPROC_ID)); //Don't know why this doesn't work - definition is in system.h in BSP


  usleep(2000);
   21770:	0101f404 	movi	r4,2000
   21774:	0030e780 	call	30e78 <usleep>


  // MIPI Init
   if (!MIPI_Init()){
   21778:	00216580 	call	21658 <MIPI_Init>
   2177c:	1000041e 	bne	r2,zero,21790 <main+0xb0>
	  printf("MIPI_Init Init failed!\r\n");
   21780:	010000f4 	movhi	r4,3
   21784:	210dfd04 	addi	r4,r4,14324
   21788:	0023de80 	call	23de8 <puts>
   2178c:	00000306 	br	2179c <main+0xbc>
  }else{
	  printf("MIPI_Init Init successfully!\r\n");
   21790:	010000f4 	movhi	r4,3
   21794:	210e0304 	addi	r4,r4,14348
   21798:	0023de80 	call	23de8 <puts>
  }

//   while(1){
 	    mipi_clear_error();
   2179c:	00213900 	call	21390 <mipi_clear_error>
	 	usleep(50*1000);
   217a0:	0130d414 	movui	r4,50000
   217a4:	0030e780 	call	30e78 <usleep>
 	    mipi_clear_error();
   217a8:	00213900 	call	21390 <mipi_clear_error>
	 	usleep(1000*1000);
   217ac:	010003f4 	movhi	r4,15
   217b0:	21109004 	addi	r4,r4,16960
   217b4:	0030e780 	call	30e78 <usleep>
	    mipi_show_error_info();
   217b8:	00214480 	call	21448 <mipi_show_error_info>
//	    mipi_show_error_info_more();
	    printf("\n");
   217bc:	01000284 	movi	r4,10
   217c0:	0023d040 	call	23d04 <putchar>




    //////////////////////////////////////////////////////////
        alt_u16 bin_level = DEFAULT_LEVEL;
   217c4:	008000c4 	movi	r2,3
   217c8:	e0bfff8d 	sth	r2,-2(fp)
        alt_u8  manual_focus_step = 10;
   217cc:	00800284 	movi	r2,10
   217d0:	e0bffc45 	stb	r2,-15(fp)
        alt_u16  current_focus = 300;
   217d4:	00804b04 	movi	r2,300
   217d8:	e0bfff0d 	sth	r2,-4(fp)
    	int boundingBoxColour = 0;
   217dc:	e03ffe15 	stw	zero,-8(fp)
    	alt_u32 exposureTime = EXPOSURE_INIT;
   217e0:	00880004 	movi	r2,8192
   217e4:	e0bffd15 	stw	r2,-12(fp)
    	alt_u16 gain = GAIN_INIT;
   217e8:	00802004 	movi	r2,128
   217ec:	e0bffc8d 	sth	r2,-14(fp)

        OV8865SetExposure(exposureTime);
   217f0:	e13ffd17 	ldw	r4,-12(fp)
   217f4:	00220080 	call	22008 <OV8865SetExposure>
        OV8865SetGain(gain);
   217f8:	e0bffc8b 	ldhu	r2,-14(fp)
   217fc:	1009883a 	mov	r4,r2
   21800:	00220ec0 	call	220ec <OV8865SetGain>
        Focus_Init();
   21804:	00210380 	call	21038 <Focus_Init>

        FILE* ser = fopen("/dev/uart_0", "rb+");
   21808:	014000f4 	movhi	r5,3
   2180c:	294e0b04 	addi	r5,r5,14380
   21810:	010000f4 	movhi	r4,3
   21814:	210e0c04 	addi	r4,r4,14384
   21818:	0022b500 	call	22b50 <fopen>
   2181c:	e0bffb15 	stw	r2,-20(fp)
        if(ser){
   21820:	e0bffb17 	ldw	r2,-20(fp)
   21824:	10000426 	beq	r2,zero,21838 <main+0x158>
        	printf("Opened UART\n");
   21828:	010000f4 	movhi	r4,3
   2182c:	210e0f04 	addi	r4,r4,14396
   21830:	0023de80 	call	23de8 <puts>
   21834:	00000406 	br	21848 <main+0x168>
        } else {
        	printf("Failed to open UART\n");
   21838:	010000f4 	movhi	r4,3
   2183c:	210e1204 	addi	r4,r4,14408
   21840:	0023de80 	call	23de8 <puts>
        	while (1);
   21844:	003fff06 	br	21844 <main+0x164>
        }

  while(1){

       // touch KEY0 to trigger Auto focus
	   if((IORD(KEY_BASE,0)&0x03) == 0x02){
   21848:	00800134 	movhi	r2,4
   2184c:	10842837 	ldwio	r2,4256(r2)
   21850:	108000cc 	andi	r2,r2,3
   21854:	10800098 	cmpnei	r2,r2,2
   21858:	1000041e 	bne	r2,zero,2186c <main+0x18c>

    	   current_focus = Focus_Window(320,240);
   2185c:	01403c04 	movi	r5,240
   21860:	01005004 	movi	r4,320
   21864:	002113c0 	call	2113c <Focus_Window>
   21868:	e0bfff0d 	sth	r2,-4(fp)
       }
	   // touch KEY1 to ZOOM
	         if((IORD(KEY_BASE,0)&0x03) == 0x01){
   2186c:	00800134 	movhi	r2,4
   21870:	10842837 	ldwio	r2,4256(r2)
   21874:	108000cc 	andi	r2,r2,3
   21878:	10800058 	cmpnei	r2,r2,1
   2187c:	10002f1e 	bne	r2,zero,2193c <main+0x25c>
	      	   if(bin_level == 3 )bin_level = 1;
   21880:	e0bfff8b 	ldhu	r2,-2(fp)
   21884:	108000d8 	cmpnei	r2,r2,3
   21888:	1000031e 	bne	r2,zero,21898 <main+0x1b8>
   2188c:	00800044 	movi	r2,1
   21890:	e0bfff8d 	sth	r2,-2(fp)
   21894:	00000306 	br	218a4 <main+0x1c4>
	      	   else bin_level ++;
   21898:	e0bfff8b 	ldhu	r2,-2(fp)
   2189c:	10800044 	addi	r2,r2,1
   218a0:	e0bfff8d 	sth	r2,-2(fp)
	      	   printf("set bin level to %d\n",bin_level);
   218a4:	e0bfff8b 	ldhu	r2,-2(fp)
   218a8:	100b883a 	mov	r5,r2
   218ac:	010000f4 	movhi	r4,3
   218b0:	210e1704 	addi	r4,r4,14428
   218b4:	0023cc40 	call	23cc4 <printf>
	      	   MIPI_BIN_LEVEL(bin_level);
   218b8:	e0bfff8b 	ldhu	r2,-2(fp)
   218bc:	10803fcc 	andi	r2,r2,255
   218c0:	1009883a 	mov	r4,r2
   218c4:	00222740 	call	22274 <MIPI_BIN_LEVEL>
	      	 	usleep(500000);
   218c8:	01000234 	movhi	r4,8
   218cc:	21284804 	addi	r4,r4,-24288
   218d0:	0030e780 	call	30e78 <usleep>

       }
	#endif

       //Read messages from the image processor and print them on the terminal
       while ((IORD(0x42000,EEE_IMGPROC_STATUS)>>8) & 0xff) { 	//Find out if there are words to read
   218d4:	00001906 	br	2193c <main+0x25c>
           int word = IORD(0x42000,EEE_IMGPROC_MSG); 			//Get next word from message buffer
   218d8:	00800134 	movhi	r2,4
   218dc:	10880137 	ldwio	r2,8196(r2)
   218e0:	e0bff915 	stw	r2,-28(fp)
    	   if (fwrite(&word, 4, 1, ser) != 1)
   218e4:	e0bff904 	addi	r2,fp,-28
   218e8:	e1fffb17 	ldw	r7,-20(fp)
   218ec:	01800044 	movi	r6,1
   218f0:	01400104 	movi	r5,4
   218f4:	1009883a 	mov	r4,r2
   218f8:	002311c0 	call	2311c <fwrite>
   218fc:	10800060 	cmpeqi	r2,r2,1
   21900:	1000031e 	bne	r2,zero,21910 <main+0x230>
    		   printf("Error writing to UART");
   21904:	010000f4 	movhi	r4,3
   21908:	210e1d04 	addi	r4,r4,14452
   2190c:	0023cc40 	call	23cc4 <printf>
           if (word == EEE_IMGPROC_MSG_START)				//Newline on message identifier
   21910:	e0fff917 	ldw	r3,-28(fp)
   21914:	008014b4 	movhi	r2,82
   21918:	10909084 	addi	r2,r2,16962
   2191c:	1880021e 	bne	r3,r2,21928 <main+0x248>
    		   printf("\n");
   21920:	01000284 	movi	r4,10
   21924:	0023d040 	call	23d04 <putchar>
    	   printf("%08x\n",word);
   21928:	e0bff917 	ldw	r2,-28(fp)
   2192c:	100b883a 	mov	r5,r2
   21930:	010000f4 	movhi	r4,3
   21934:	210e2304 	addi	r4,r4,14476
   21938:	0023cc40 	call	23cc4 <printf>
       while ((IORD(0x42000,EEE_IMGPROC_STATUS)>>8) & 0xff) { 	//Find out if there are words to read
   2193c:	00800134 	movhi	r2,4
   21940:	10880037 	ldwio	r2,8192(r2)
   21944:	1005d23a 	srai	r2,r2,8
   21948:	10803fcc 	andi	r2,r2,255
   2194c:	103fe21e 	bne	r2,zero,218d8 <main+0x1f8>
       }

       //Update the bounding box colour
       boundingBoxColour = ((boundingBoxColour + 1) & 0xff);
   21950:	e0bffe17 	ldw	r2,-8(fp)
   21954:	10800044 	addi	r2,r2,1
   21958:	10803fcc 	andi	r2,r2,255
   2195c:	e0bffe15 	stw	r2,-8(fp)
       IOWR(0x42000, EEE_IMGPROC_BBCOL, (boundingBoxColour << 8) | (0xff - boundingBoxColour));
   21960:	e0bffe17 	ldw	r2,-8(fp)
   21964:	1006923a 	slli	r3,r2,8
   21968:	01003fc4 	movi	r4,255
   2196c:	e0bffe17 	ldw	r2,-8(fp)
   21970:	2085c83a 	sub	r2,r4,r2
   21974:	1886b03a 	or	r3,r3,r2
   21978:	00800134 	movhi	r2,4
   2197c:	10c80335 	stwio	r3,8204(r2)

       //Process input commands
       int in = getchar();
   21980:	00231580 	call	23158 <getchar>
   21984:	e0bffa15 	stw	r2,-24(fp)
   21988:	e0bffa17 	ldw	r2,-24(fp)
   2198c:	10bfe704 	addi	r2,r2,-100
   21990:	10c00468 	cmpgeui	r3,r2,17
   21994:	1800651e 	bne	r3,zero,21b2c <main+0x44c>
   21998:	100690ba 	slli	r3,r2,2
   2199c:	008000b4 	movhi	r2,2
   219a0:	1885883a 	add	r2,r3,r2
   219a4:	10866b17 	ldw	r2,6572(r2)
   219a8:	1000683a 	jmp	r2
   219ac:	00021a18 	cmpnei	zero,zero,2152
   219b0:	000219f0 	cmpltui	zero,zero,2151
   219b4:	00021ae8 	cmpgeui	zero,zero,2155
   219b8:	00021a70 	cmpltui	zero,zero,2153
   219bc:	00021b2c 	andhi	zero,zero,2156
   219c0:	00021b2c 	andhi	zero,zero,2156
   219c4:	00021b2c 	andhi	zero,zero,2156
   219c8:	00021b2c 	andhi	zero,zero,2156
   219cc:	00021b2c 	andhi	zero,zero,2156
   219d0:	00021b2c 	andhi	zero,zero,2156
   219d4:	00021b2c 	andhi	zero,zero,2156
   219d8:	00021b2c 	andhi	zero,zero,2156
   219dc:	00021b2c 	andhi	zero,zero,2156
   219e0:	00021b2c 	andhi	zero,zero,2156
   219e4:	00021aa0 	cmpeqi	zero,zero,2154
   219e8:	00021b2c 	andhi	zero,zero,2156
   219ec:	00021a40 	call	21a4 <__alt_mem_onchip_memory2_0-0x1de5c>
       switch (in) {
       	   case 'e': {
       		   exposureTime += EXPOSURE_STEP;
   219f0:	e0bffd17 	ldw	r2,-12(fp)
   219f4:	10804004 	addi	r2,r2,256
   219f8:	e0bffd15 	stw	r2,-12(fp)
       		   OV8865SetExposure(exposureTime);
   219fc:	e13ffd17 	ldw	r4,-12(fp)
   21a00:	00220080 	call	22008 <OV8865SetExposure>
       		   printf("\nExposure = %x ", exposureTime);
   21a04:	e17ffd17 	ldw	r5,-12(fp)
   21a08:	010000f4 	movhi	r4,3
   21a0c:	210e2504 	addi	r4,r4,14484
   21a10:	0023cc40 	call	23cc4 <printf>
       	   	   break;}
   21a14:	00004506 	br	21b2c <main+0x44c>
       	   case 'd': {
       		   exposureTime -= EXPOSURE_STEP;
   21a18:	e0bffd17 	ldw	r2,-12(fp)
   21a1c:	10bfc004 	addi	r2,r2,-256
   21a20:	e0bffd15 	stw	r2,-12(fp)
       		   OV8865SetExposure(exposureTime);
   21a24:	e13ffd17 	ldw	r4,-12(fp)
   21a28:	00220080 	call	22008 <OV8865SetExposure>
       		   printf("\nExposure = %x ", exposureTime);
   21a2c:	e17ffd17 	ldw	r5,-12(fp)
   21a30:	010000f4 	movhi	r4,3
   21a34:	210e2504 	addi	r4,r4,14484
   21a38:	0023cc40 	call	23cc4 <printf>
       	   	   break;}
   21a3c:	00003b06 	br	21b2c <main+0x44c>
       	   case 't': {
       		   gain += GAIN_STEP;
   21a40:	e0bffc8b 	ldhu	r2,-14(fp)
   21a44:	10801004 	addi	r2,r2,64
   21a48:	e0bffc8d 	sth	r2,-14(fp)
       		   OV8865SetGain(gain);
   21a4c:	e0bffc8b 	ldhu	r2,-14(fp)
   21a50:	1009883a 	mov	r4,r2
   21a54:	00220ec0 	call	220ec <OV8865SetGain>
       		   printf("\nGain = %x ", gain);
   21a58:	e0bffc8b 	ldhu	r2,-14(fp)
   21a5c:	100b883a 	mov	r5,r2
   21a60:	010000f4 	movhi	r4,3
   21a64:	210e2904 	addi	r4,r4,14500
   21a68:	0023cc40 	call	23cc4 <printf>
       	   	   break;}
   21a6c:	00002f06 	br	21b2c <main+0x44c>
       	   case 'g': {
       		   gain -= GAIN_STEP;
   21a70:	e0bffc8b 	ldhu	r2,-14(fp)
   21a74:	10bff004 	addi	r2,r2,-64
   21a78:	e0bffc8d 	sth	r2,-14(fp)
       		   OV8865SetGain(gain);
   21a7c:	e0bffc8b 	ldhu	r2,-14(fp)
   21a80:	1009883a 	mov	r4,r2
   21a84:	00220ec0 	call	220ec <OV8865SetGain>
       		   printf("\nGain = %x ", gain);
   21a88:	e0bffc8b 	ldhu	r2,-14(fp)
   21a8c:	100b883a 	mov	r5,r2
   21a90:	010000f4 	movhi	r4,3
   21a94:	210e2904 	addi	r4,r4,14500
   21a98:	0023cc40 	call	23cc4 <printf>
       	   	   break;}
   21a9c:	00002306 	br	21b2c <main+0x44c>
       	   case 'r': {
        	   current_focus += manual_focus_step;
   21aa0:	e0bffc43 	ldbu	r2,-15(fp)
   21aa4:	e0ffff0b 	ldhu	r3,-4(fp)
   21aa8:	1885883a 	add	r2,r3,r2
   21aac:	e0bfff0d 	sth	r2,-4(fp)
        	   if(current_focus >1023) current_focus = 1023;
   21ab0:	e0bfff0b 	ldhu	r2,-4(fp)
   21ab4:	10810030 	cmpltui	r2,r2,1024
   21ab8:	1000021e 	bne	r2,zero,21ac4 <main+0x3e4>
   21abc:	0080ffc4 	movi	r2,1023
   21ac0:	e0bfff0d 	sth	r2,-4(fp)
        	   OV8865_FOCUS_Move_to(current_focus);
   21ac4:	e0bfff0b 	ldhu	r2,-4(fp)
   21ac8:	1009883a 	mov	r4,r2
   21acc:	0021f380 	call	21f38 <OV8865_FOCUS_Move_to>
        	   printf("\nFocus = %x ",current_focus);
   21ad0:	e0bfff0b 	ldhu	r2,-4(fp)
   21ad4:	100b883a 	mov	r5,r2
   21ad8:	010000f4 	movhi	r4,3
   21adc:	210e2c04 	addi	r4,r4,14512
   21ae0:	0023cc40 	call	23cc4 <printf>
       	   	   break;}
   21ae4:	00001106 	br	21b2c <main+0x44c>
       	   case 'f': {
        	   if(current_focus > manual_focus_step) current_focus -= manual_focus_step;
   21ae8:	e0fffc43 	ldbu	r3,-15(fp)
   21aec:	e0bfff0b 	ldhu	r2,-4(fp)
   21af0:	18ffffcc 	andi	r3,r3,65535
   21af4:	1880042e 	bgeu	r3,r2,21b08 <main+0x428>
   21af8:	e0bffc43 	ldbu	r2,-15(fp)
   21afc:	e0ffff0b 	ldhu	r3,-4(fp)
   21b00:	1885c83a 	sub	r2,r3,r2
   21b04:	e0bfff0d 	sth	r2,-4(fp)
        	   OV8865_FOCUS_Move_to(current_focus);
   21b08:	e0bfff0b 	ldhu	r2,-4(fp)
   21b0c:	1009883a 	mov	r4,r2
   21b10:	0021f380 	call	21f38 <OV8865_FOCUS_Move_to>
        	   printf("\nFocus = %x ",current_focus);
   21b14:	e0bfff0b 	ldhu	r2,-4(fp)
   21b18:	100b883a 	mov	r5,r2
   21b1c:	010000f4 	movhi	r4,3
   21b20:	210e2c04 	addi	r4,r4,14512
   21b24:	0023cc40 	call	23cc4 <printf>
       	   	   break;}
   21b28:	0001883a 	nop
       }


	   //Main loop delay
	   usleep(10000);
   21b2c:	0109c404 	movi	r4,10000
   21b30:	0030e780 	call	30e78 <usleep>
  while(1){
   21b34:	003f4406 	br	21848 <main+0x168>

00021b38 <nSWAP16>:
	{0x0004,0x8047} // Configuration Control Register

};


alt_u16 nSWAP16(alt_u16 x){
   21b38:	defffd04 	addi	sp,sp,-12
   21b3c:	df000215 	stw	fp,8(sp)
   21b40:	df000204 	addi	fp,sp,8
   21b44:	2005883a 	mov	r2,r4
   21b48:	e0bffe0d 	sth	r2,-8(fp)
	alt_u16 y;
	//y =  (((x) >> 8) & 0xff) | (((x) & 0xff) << 8);

//	y = x;
	y = (x >> 8) & 0x00ff;
   21b4c:	e0bffe0b 	ldhu	r2,-8(fp)
   21b50:	1004d23a 	srli	r2,r2,8
   21b54:	e0bfff8d 	sth	r2,-2(fp)
	y |= (x << 8) & 0xff00;
   21b58:	e0bffe0b 	ldhu	r2,-8(fp)
   21b5c:	1004923a 	slli	r2,r2,8
   21b60:	1007883a 	mov	r3,r2
   21b64:	e0bfff8b 	ldhu	r2,-2(fp)
   21b68:	1884b03a 	or	r2,r3,r2
   21b6c:	e0bfff8d 	sth	r2,-2(fp)
	return y;
   21b70:	e0bfff8b 	ldhu	r2,-2(fp)
}
   21b74:	e037883a 	mov	sp,fp
   21b78:	df000017 	ldw	fp,0(sp)
   21b7c:	dec00104 	addi	sp,sp,4
   21b80:	f800283a 	ret

00021b84 <MipiBridgeRegWrite>:


void MipiBridgeRegWrite(alt_u16 Addr, alt_u16 Value){
   21b84:	defffa04 	addi	sp,sp,-24
   21b88:	dfc00515 	stw	ra,20(sp)
   21b8c:	df000415 	stw	fp,16(sp)
   21b90:	df000404 	addi	fp,sp,16
   21b94:	2005883a 	mov	r2,r4
   21b98:	2807883a 	mov	r3,r5
   21b9c:	e0bffe0d 	sth	r2,-8(fp)
   21ba0:	1805883a 	mov	r2,r3
   21ba4:	e0bffd0d 	sth	r2,-12(fp)
	const alt_u8 device_address = MIPI_BRIDGE_I2C_ADDR;
   21ba8:	00800704 	movi	r2,28
   21bac:	e0bfffc5 	stb	r2,-1(fp)
	OC_I2CL_Write(I2C_OPENCORES_MIPI_BASE, device_address, Addr, (alt_u8 *)&Value, sizeof(Value));
   21bb0:	e0ffffc3 	ldbu	r3,-1(fp)
   21bb4:	e13ffe0b 	ldhu	r4,-8(fp)
   21bb8:	e17ffd04 	addi	r5,fp,-12
   21bbc:	00800084 	movi	r2,2
   21bc0:	d8800015 	stw	r2,0(sp)
   21bc4:	280f883a 	mov	r7,r5
   21bc8:	200d883a 	mov	r6,r4
   21bcc:	180b883a 	mov	r5,r3
   21bd0:	01000134 	movhi	r4,4
   21bd4:	21041804 	addi	r4,r4,4192
   21bd8:	0020ba00 	call	20ba0 <OC_I2CL_Write>
}
   21bdc:	0001883a 	nop
   21be0:	e037883a 	mov	sp,fp
   21be4:	dfc00117 	ldw	ra,4(sp)
   21be8:	df000017 	ldw	fp,0(sp)
   21bec:	dec00204 	addi	sp,sp,8
   21bf0:	f800283a 	ret

00021bf4 <MipiBridgeRegRead>:

alt_u16 MipiBridgeRegRead(alt_u16 Addr){
   21bf4:	defffa04 	addi	sp,sp,-24
   21bf8:	dfc00515 	stw	ra,20(sp)
   21bfc:	df000415 	stw	fp,16(sp)
   21c00:	df000404 	addi	fp,sp,16
   21c04:	2005883a 	mov	r2,r4
   21c08:	e0bffd0d 	sth	r2,-12(fp)
	alt_u16 Value,tValue;
	const alt_u8 device_address = MIPI_BRIDGE_I2C_ADDR;
   21c0c:	00800704 	movi	r2,28
   21c10:	e0bfffc5 	stb	r2,-1(fp)

	OC_I2CL_Read(I2C_OPENCORES_MIPI_BASE,device_address, Addr,(alt_u8 *)&Value,sizeof(Value));
   21c14:	e0ffffc3 	ldbu	r3,-1(fp)
   21c18:	e13ffd0b 	ldhu	r4,-12(fp)
   21c1c:	e17ffe84 	addi	r5,fp,-6
   21c20:	00800084 	movi	r2,2
   21c24:	d8800015 	stw	r2,0(sp)
   21c28:	280f883a 	mov	r7,r5
   21c2c:	200d883a 	mov	r6,r4
   21c30:	180b883a 	mov	r5,r3
   21c34:	01000134 	movhi	r4,4
   21c38:	21041804 	addi	r4,r4,4192
   21c3c:	0020db40 	call	20db4 <OC_I2CL_Read>

	tValue = nSWAP16(Value);
   21c40:	e0bffe8b 	ldhu	r2,-6(fp)
   21c44:	10bfffcc 	andi	r2,r2,65535
   21c48:	1009883a 	mov	r4,r2
   21c4c:	0021b380 	call	21b38 <nSWAP16>
   21c50:	e0bfff0d 	sth	r2,-4(fp)

	return (tValue);
   21c54:	e0bfff0b 	ldhu	r2,-4(fp)
}
   21c58:	e037883a 	mov	sp,fp
   21c5c:	dfc00117 	ldw	ra,4(sp)
   21c60:	df000017 	ldw	fp,0(sp)
   21c64:	dec00204 	addi	sp,sp,8
   21c68:	f800283a 	ret

00021c6c <MipiBridgeInit>:




void MipiBridgeInit(void){
   21c6c:	defffb04 	addi	sp,sp,-20
   21c70:	dfc00415 	stw	ra,16(sp)
   21c74:	df000315 	stw	fp,12(sp)
   21c78:	df000304 	addi	fp,sp,12

	alt_u16 data;
    int i, num;

	printf("\nStart MipiBridgeInit!\n");
   21c7c:	010000f4 	movhi	r4,3
   21c80:	210e3004 	addi	r4,r4,14528
   21c84:	0023de80 	call	23de8 <puts>

	data = MipiBridgeRegRead(0x0000); // read chip and revision id;
   21c88:	0009883a 	mov	r4,zero
   21c8c:	0021bf40 	call	21bf4 <MipiBridgeRegRead>
   21c90:	e0bffe8d 	sth	r2,-6(fp)

	printf("Chip and Revision ID is 0x%04xh(expected: 0x4401);\n",data);
   21c94:	e0bffe8b 	ldhu	r2,-6(fp)
   21c98:	100b883a 	mov	r5,r2
   21c9c:	010000f4 	movhi	r4,3
   21ca0:	210e3604 	addi	r4,r4,14552
   21ca4:	0023cc40 	call	23cc4 <printf>


    num = sizeof(MipiBridgeReg)/sizeof(MipiBridgeReg[0]);
   21ca8:	00800344 	movi	r2,13
   21cac:	e0bffd15 	stw	r2,-12(fp)

    for(i=0;i<num;i++){
   21cb0:	e03fff15 	stw	zero,-4(fp)
   21cb4:	00002306 	br	21d44 <MipiBridgeInit+0xd8>
   	 if (MipiBridgeReg[i].Addr == 0xFFFF)   usleep(MipiBridgeReg[i].Data*1000);
   21cb8:	e0bfff17 	ldw	r2,-4(fp)
   21cbc:	100690ba 	slli	r3,r2,2
   21cc0:	008000f4 	movhi	r2,3
   21cc4:	1885883a 	add	r2,r3,r2
   21cc8:	1090050b 	ldhu	r2,16404(r2)
   21ccc:	10ffffcc 	andi	r3,r2,65535
   21cd0:	00bfffd4 	movui	r2,65535
   21cd4:	18800a1e 	bne	r3,r2,21d00 <MipiBridgeInit+0x94>
   21cd8:	e0bfff17 	ldw	r2,-4(fp)
   21cdc:	100690ba 	slli	r3,r2,2
   21ce0:	008000f4 	movhi	r2,3
   21ce4:	1885883a 	add	r2,r3,r2
   21ce8:	1090058b 	ldhu	r2,16406(r2)
   21cec:	10bfffcc 	andi	r2,r2,65535
   21cf0:	1080fa24 	muli	r2,r2,1000
   21cf4:	1009883a 	mov	r4,r2
   21cf8:	0030e780 	call	30e78 <usleep>
   21cfc:	00000e06 	br	21d38 <MipiBridgeInit+0xcc>
        else MipiBridgeRegWrite(MipiBridgeReg[i].Addr,  MipiBridgeReg[i].Data);
   21d00:	e0bfff17 	ldw	r2,-4(fp)
   21d04:	100690ba 	slli	r3,r2,2
   21d08:	008000f4 	movhi	r2,3
   21d0c:	1885883a 	add	r2,r3,r2
   21d10:	1090050b 	ldhu	r2,16404(r2)
   21d14:	113fffcc 	andi	r4,r2,65535
   21d18:	e0bfff17 	ldw	r2,-4(fp)
   21d1c:	100690ba 	slli	r3,r2,2
   21d20:	008000f4 	movhi	r2,3
   21d24:	1885883a 	add	r2,r3,r2
   21d28:	1090058b 	ldhu	r2,16406(r2)
   21d2c:	10bfffcc 	andi	r2,r2,65535
   21d30:	100b883a 	mov	r5,r2
   21d34:	0021b840 	call	21b84 <MipiBridgeRegWrite>
    for(i=0;i<num;i++){
   21d38:	e0bfff17 	ldw	r2,-4(fp)
   21d3c:	10800044 	addi	r2,r2,1
   21d40:	e0bfff15 	stw	r2,-4(fp)
   21d44:	e0ffff17 	ldw	r3,-4(fp)
   21d48:	e0bffd17 	ldw	r2,-12(fp)
   21d4c:	18bfda16 	blt	r3,r2,21cb8 <MipiBridgeInit+0x4c>
//     MipiBridgeRegWrite(0x005A,((cap<<6) + (HsRxRs<<4) + ClkDly_data));
//     MipiBridgeRegWrite(0x005C,((cap<<6) + (HsRxRs<<4) + ClkDly_data));
//     MipiBridgeRegWrite(0x005E,((cap<<6) + (HsRxRs<<4) + ClkDly_data));
//

    printf("End MipiBridgeInit!\n\n");
   21d50:	010000f4 	movhi	r4,3
   21d54:	210e4304 	addi	r4,r4,14604
   21d58:	0023de80 	call	23de8 <puts>

}
   21d5c:	0001883a 	nop
   21d60:	e037883a 	mov	sp,fp
   21d64:	dfc00117 	ldw	ra,4(sp)
   21d68:	df000017 	ldw	fp,0(sp)
   21d6c:	dec00204 	addi	sp,sp,8
   21d70:	f800283a 	ret

00021d74 <OV8865_read_cmos_sensor_8>:
   };




alt_u8 OV8865_read_cmos_sensor_8(alt_u16 Addr){
   21d74:	defffb04 	addi	sp,sp,-20
   21d78:	dfc00415 	stw	ra,16(sp)
   21d7c:	df000315 	stw	fp,12(sp)
   21d80:	df000304 	addi	fp,sp,12
   21d84:	2005883a 	mov	r2,r4
   21d88:	e0bffe0d 	sth	r2,-8(fp)
	const alt_u8 device_address = MIPI_I2C_ADDR;
   21d8c:	00801b04 	movi	r2,108
   21d90:	e0bfffc5 	stb	r2,-1(fp)
	alt_u8 Value;

	//OC_I2CL_Write(I2C_OPENCORES_CAMERA_BASE, device_address, SWAP16(Addr), (alt_u8 *)&Value, sizeof(Value));
	OC_I2CL_Read(I2C_OPENCORES_CAMERA_BASE, device_address, Addr, (alt_u8 *)&Value, sizeof(Value));
   21d94:	e0ffffc3 	ldbu	r3,-1(fp)
   21d98:	e13ffe0b 	ldhu	r4,-8(fp)
   21d9c:	e17fff84 	addi	r5,fp,-2
   21da0:	00800044 	movi	r2,1
   21da4:	d8800015 	stw	r2,0(sp)
   21da8:	280f883a 	mov	r7,r5
   21dac:	200d883a 	mov	r6,r4
   21db0:	180b883a 	mov	r5,r3
   21db4:	01000134 	movhi	r4,4
   21db8:	21041004 	addi	r4,r4,4160
   21dbc:	0020db40 	call	20db4 <OC_I2CL_Read>

	return (Value);
   21dc0:	e0bfff83 	ldbu	r2,-2(fp)
}
   21dc4:	e037883a 	mov	sp,fp
   21dc8:	dfc00117 	ldw	ra,4(sp)
   21dcc:	df000017 	ldw	fp,0(sp)
   21dd0:	dec00204 	addi	sp,sp,8
   21dd4:	f800283a 	ret

00021dd8 <OV8865_write_cmos_sensor_8>:


void OV8865_write_cmos_sensor_8(alt_u16 Addr, alt_u8 Value){
   21dd8:	defffa04 	addi	sp,sp,-24
   21ddc:	dfc00515 	stw	ra,20(sp)
   21de0:	df000415 	stw	fp,16(sp)
   21de4:	df000404 	addi	fp,sp,16
   21de8:	2005883a 	mov	r2,r4
   21dec:	2807883a 	mov	r3,r5
   21df0:	e0bffe0d 	sth	r2,-8(fp)
   21df4:	1805883a 	mov	r2,r3
   21df8:	e0bffd05 	stb	r2,-12(fp)
	const alt_u8 device_address = MIPI_I2C_ADDR;
   21dfc:	00801b04 	movi	r2,108
   21e00:	e0bfffc5 	stb	r2,-1(fp)
	//OC_I2CL_Write(I2C_OPENCORES_CAMERA_BASE, device_address, SWAP16(Addr), (alt_u8 *)&Value, sizeof(Value));
	OC_I2CL_Write(I2C_OPENCORES_CAMERA_BASE, device_address, Addr, (alt_u8 *)&Value, sizeof(Value));
   21e04:	e0ffffc3 	ldbu	r3,-1(fp)
   21e08:	e13ffe0b 	ldhu	r4,-8(fp)
   21e0c:	e17ffd04 	addi	r5,fp,-12
   21e10:	00800044 	movi	r2,1
   21e14:	d8800015 	stw	r2,0(sp)
   21e18:	280f883a 	mov	r7,r5
   21e1c:	200d883a 	mov	r6,r4
   21e20:	180b883a 	mov	r5,r3
   21e24:	01000134 	movhi	r4,4
   21e28:	21041004 	addi	r4,r4,4160
   21e2c:	0020ba00 	call	20ba0 <OC_I2CL_Write>
}
   21e30:	0001883a 	nop
   21e34:	e037883a 	mov	sp,fp
   21e38:	dfc00117 	ldw	ra,4(sp)
   21e3c:	df000017 	ldw	fp,0(sp)
   21e40:	dec00204 	addi	sp,sp,8
   21e44:	f800283a 	ret

00021e48 <OV8865_write_AF>:


void OV8865_write_AF(alt_u8 msb, alt_u8 lsb){
   21e48:	defffa04 	addi	sp,sp,-24
   21e4c:	dfc00515 	stw	ra,20(sp)
   21e50:	df000415 	stw	fp,16(sp)
   21e54:	df000404 	addi	fp,sp,16
   21e58:	2005883a 	mov	r2,r4
   21e5c:	2807883a 	mov	r3,r5
   21e60:	e0bffe05 	stb	r2,-8(fp)
   21e64:	1805883a 	mov	r2,r3
   21e68:	e0bffd05 	stb	r2,-12(fp)
	// VCM149C
	const alt_u8 device_address = MIPI_AF_I2C_ADDR;
   21e6c:	00800604 	movi	r2,24
   21e70:	e0bfffc5 	stb	r2,-1(fp)
	OC_I2C_Write(I2C_OPENCORES_CAMERA_BASE, device_address, msb, (alt_u8 *)&lsb, sizeof(lsb));
   21e74:	e0ffffc3 	ldbu	r3,-1(fp)
   21e78:	e13ffe03 	ldbu	r4,-8(fp)
   21e7c:	e17ffd04 	addi	r5,fp,-12
   21e80:	00800044 	movi	r2,1
   21e84:	d8800015 	stw	r2,0(sp)
   21e88:	280f883a 	mov	r7,r5
   21e8c:	200d883a 	mov	r6,r4
   21e90:	180b883a 	mov	r5,r3
   21e94:	01000134 	movhi	r4,4
   21e98:	21041004 	addi	r4,r4,4160
   21e9c:	00206300 	call	20630 <OC_I2C_Write>
}
   21ea0:	0001883a 	nop
   21ea4:	e037883a 	mov	sp,fp
   21ea8:	dfc00117 	ldw	ra,4(sp)
   21eac:	df000017 	ldw	fp,0(sp)
   21eb0:	dec00204 	addi	sp,sp,8
   21eb4:	f800283a 	ret

00021eb8 <OV8865_read_AF>:

void OV8865_read_AF(void){
   21eb8:	defffb04 	addi	sp,sp,-20
   21ebc:	dfc00415 	stw	ra,16(sp)
   21ec0:	df000315 	stw	fp,12(sp)
   21ec4:	df000304 	addi	fp,sp,12
	// VCM149C
	const alt_u8 device_address = MIPI_AF_I2C_ADDR;
   21ec8:	00800604 	movi	r2,24
   21ecc:	e0bfffc5 	stb	r2,-1(fp)
	alt_u8 szData8[2];
	bool bSuccess;

		bSuccess = OC_I2C_Read_Continue(I2C_OPENCORES_CAMERA_BASE, device_address, szData8, sizeof(szData8));
   21ed0:	e0bfffc3 	ldbu	r2,-1(fp)
   21ed4:	e0fffd84 	addi	r3,fp,-10
   21ed8:	01c00084 	movi	r7,2
   21edc:	180d883a 	mov	r6,r3
   21ee0:	100b883a 	mov	r5,r2
   21ee4:	01000134 	movhi	r4,4
   21ee8:	21041004 	addi	r4,r4,4160
   21eec:	0020a680 	call	20a68 <OC_I2C_Read_Continue>
   21ef0:	e0bffe15 	stw	r2,-8(fp)
		if (bSuccess)
   21ef4:	e0bffe17 	ldw	r2,-8(fp)
   21ef8:	10000926 	beq	r2,zero,21f20 <OV8865_read_AF+0x68>
			printf("Read MSB=%xh, LSB=%xh\r\n", szData8[0], szData8[1]);
   21efc:	e0bffd83 	ldbu	r2,-10(fp)
   21f00:	10803fcc 	andi	r2,r2,255
   21f04:	e0fffdc3 	ldbu	r3,-9(fp)
   21f08:	18c03fcc 	andi	r3,r3,255
   21f0c:	180d883a 	mov	r6,r3
   21f10:	100b883a 	mov	r5,r2
   21f14:	010000f4 	movhi	r4,3
   21f18:	210e4904 	addi	r4,r4,14628
   21f1c:	0023cc40 	call	23cc4 <printf>
}
   21f20:	0001883a 	nop
   21f24:	e037883a 	mov	sp,fp
   21f28:	dfc00117 	ldw	ra,4(sp)
   21f2c:	df000017 	ldw	fp,0(sp)
   21f30:	dec00204 	addi	sp,sp,8
   21f34:	f800283a 	ret

00021f38 <OV8865_FOCUS_Move_to>:

void OV8865_FOCUS_Move_to(alt_u16 a_u2MovePosition)
{
   21f38:	defffb04 	addi	sp,sp,-20
   21f3c:	dfc00415 	stw	ra,16(sp)
   21f40:	df000315 	stw	fp,12(sp)
   21f44:	df000304 	addi	fp,sp,12
   21f48:	2005883a 	mov	r2,r4
   21f4c:	e0bffd0d 	sth	r2,-12(fp)
  if (a_u2MovePosition > 1023)   {a_u2MovePosition = 1023;}
   21f50:	e0bffd0b 	ldhu	r2,-12(fp)
   21f54:	10810030 	cmpltui	r2,r2,1024
   21f58:	1000021e 	bne	r2,zero,21f64 <OV8865_FOCUS_Move_to+0x2c>
   21f5c:	0080ffc4 	movi	r2,1023
   21f60:	e0bffd0d 	sth	r2,-12(fp)
  if (a_u2MovePosition < 0)     {a_u2MovePosition = 0;}
  int bSuccess;

  Focus_Released(); // waiting for VCM release I2C bus
   21f64:	00213040 	call	21304 <Focus_Released>

	bSuccess = oc_i2c_init_ex(I2C_OPENCORES_CAMERA_BASE, 50*1000*1000,400*1000); //I2C: 400K
   21f68:	018001b4 	movhi	r6,6
   21f6c:	3186a004 	addi	r6,r6,6784
   21f70:	0140bef4 	movhi	r5,763
   21f74:	297c2004 	addi	r5,r5,-3968
   21f78:	01000134 	movhi	r4,4
   21f7c:	21041004 	addi	r4,r4,4160
   21f80:	00203840 	call	20384 <oc_i2c_init_ex>
   21f84:	e0bfff15 	stw	r2,-4(fp)
	if (!bSuccess)
   21f88:	e0bfff17 	ldw	r2,-4(fp)
   21f8c:	1000031e 	bne	r2,zero,21f9c <OV8865_FOCUS_Move_to+0x64>
		printf("failed to init MIPI- Camera i2c\r\n");
   21f90:	010000f4 	movhi	r4,3
   21f94:	210e4f04 	addi	r4,r4,14652
   21f98:	0023de80 	call	23de8 <puts>

	//printf("Manual set focus to %d\r\n",a_u2MovePosition);
  alt_u8 msb,lsb;
  msb = (a_u2MovePosition >> 4)&0x00FF;
   21f9c:	e0bffd0b 	ldhu	r2,-12(fp)
   21fa0:	1004d13a 	srli	r2,r2,4
   21fa4:	e0bffec5 	stb	r2,-5(fp)
  lsb = (a_u2MovePosition << 4 )&0x00F0;
   21fa8:	e0bffd0b 	ldhu	r2,-12(fp)
   21fac:	1004913a 	slli	r2,r2,4
   21fb0:	e0bffe85 	stb	r2,-6(fp)
  lsb += 0x06;
   21fb4:	e0bffe83 	ldbu	r2,-6(fp)
   21fb8:	10800184 	addi	r2,r2,6
   21fbc:	e0bffe85 	stb	r2,-6(fp)
//	printf("Write MSB=%xh, LSB=%xh\r\n", msb, lsb);
	OV8865_write_AF(msb, lsb+0x6);
   21fc0:	e0fffec3 	ldbu	r3,-5(fp)
   21fc4:	e0bffe83 	ldbu	r2,-6(fp)
   21fc8:	10800184 	addi	r2,r2,6
   21fcc:	10803fcc 	andi	r2,r2,255
   21fd0:	100b883a 	mov	r5,r2
   21fd4:	1809883a 	mov	r4,r3
   21fd8:	0021e480 	call	21e48 <OV8865_write_AF>
	usleep(1000);
   21fdc:	0100fa04 	movi	r4,1000
   21fe0:	0030e780 	call	30e78 <usleep>
//	OV8865_read_AF();

	oc_i2c_uninit(I2C_OPENCORES_CAMERA_BASE);  // Release I2C bus , due to two I2C master shared!
   21fe4:	01000134 	movhi	r4,4
   21fe8:	21041004 	addi	r4,r4,4160
   21fec:	00204c00 	call	204c0 <oc_i2c_uninit>

}
   21ff0:	0001883a 	nop
   21ff4:	e037883a 	mov	sp,fp
   21ff8:	dfc00117 	ldw	ra,4(sp)
   21ffc:	df000017 	ldw	fp,0(sp)
   22000:	dec00204 	addi	sp,sp,8
   22004:	f800283a 	ret

00022008 <OV8865SetExposure>:

void OV8865SetExposure(alt_u32 exposure){
   22008:	defffc04 	addi	sp,sp,-16
   2200c:	dfc00315 	stw	ra,12(sp)
   22010:	df000215 	stw	fp,8(sp)
   22014:	df000204 	addi	fp,sp,8
   22018:	e13ffe15 	stw	r4,-8(fp)

	Focus_Released(); // waiting for VCM release I2C bus
   2201c:	00213040 	call	21304 <Focus_Released>

	int bSuccess = oc_i2c_init_ex(I2C_OPENCORES_CAMERA_BASE, 50*1000*1000,400*1000); //I2C: 400K
   22020:	018001b4 	movhi	r6,6
   22024:	3186a004 	addi	r6,r6,6784
   22028:	0140bef4 	movhi	r5,763
   2202c:	297c2004 	addi	r5,r5,-3968
   22030:	01000134 	movhi	r4,4
   22034:	21041004 	addi	r4,r4,4160
   22038:	00203840 	call	20384 <oc_i2c_init_ex>
   2203c:	e0bfff15 	stw	r2,-4(fp)
	if (!bSuccess)
   22040:	e0bfff17 	ldw	r2,-4(fp)
   22044:	1000031e 	bne	r2,zero,22054 <OV8865SetExposure+0x4c>
		printf("failed to init MIPI- Camera i2c\r\n");
   22048:	010000f4 	movhi	r4,3
   2204c:	210e4f04 	addi	r4,r4,14652
   22050:	0023de80 	call	23de8 <puts>

	if (exposure > 0xFFFFF) exposure = 0xFFFFF;
   22054:	e0fffe17 	ldw	r3,-8(fp)
   22058:	00800434 	movhi	r2,16
   2205c:	18800336 	bltu	r3,r2,2206c <OV8865SetExposure+0x64>
   22060:	00800434 	movhi	r2,16
   22064:	10bfffc4 	addi	r2,r2,-1
   22068:	e0bffe15 	stw	r2,-8(fp)
	if (exposure < 0x20) exposure = 0x20;
   2206c:	e0bffe17 	ldw	r2,-8(fp)
   22070:	10800828 	cmpgeui	r2,r2,32
   22074:	1000021e 	bne	r2,zero,22080 <OV8865SetExposure+0x78>
   22078:	00800804 	movi	r2,32
   2207c:	e0bffe15 	stw	r2,-8(fp)

	OV8865_write_cmos_sensor_8(0x3500, (exposure >> 16) & 0x0F);
   22080:	e0bffe17 	ldw	r2,-8(fp)
   22084:	1004d43a 	srli	r2,r2,16
   22088:	10803fcc 	andi	r2,r2,255
   2208c:	108003cc 	andi	r2,r2,15
   22090:	100b883a 	mov	r5,r2
   22094:	010d4004 	movi	r4,13568
   22098:	0021dd80 	call	21dd8 <OV8865_write_cmos_sensor_8>
	OV8865_write_cmos_sensor_8(0x3501, (exposure >> 8) & 0xFF);
   2209c:	e0bffe17 	ldw	r2,-8(fp)
   220a0:	1004d23a 	srli	r2,r2,8
   220a4:	10803fcc 	andi	r2,r2,255
   220a8:	100b883a 	mov	r5,r2
   220ac:	010d4044 	movi	r4,13569
   220b0:	0021dd80 	call	21dd8 <OV8865_write_cmos_sensor_8>
	OV8865_write_cmos_sensor_8(0x3502, exposure & 0xFF);
   220b4:	e0bffe17 	ldw	r2,-8(fp)
   220b8:	10803fcc 	andi	r2,r2,255
   220bc:	100b883a 	mov	r5,r2
   220c0:	010d4084 	movi	r4,13570
   220c4:	0021dd80 	call	21dd8 <OV8865_write_cmos_sensor_8>


	oc_i2c_uninit(I2C_OPENCORES_CAMERA_BASE);
   220c8:	01000134 	movhi	r4,4
   220cc:	21041004 	addi	r4,r4,4160
   220d0:	00204c00 	call	204c0 <oc_i2c_uninit>
}
   220d4:	0001883a 	nop
   220d8:	e037883a 	mov	sp,fp
   220dc:	dfc00117 	ldw	ra,4(sp)
   220e0:	df000017 	ldw	fp,0(sp)
   220e4:	dec00204 	addi	sp,sp,8
   220e8:	f800283a 	ret

000220ec <OV8865SetGain>:

void OV8865SetGain(alt_u16 gain){
   220ec:	defffc04 	addi	sp,sp,-16
   220f0:	dfc00315 	stw	ra,12(sp)
   220f4:	df000215 	stw	fp,8(sp)
   220f8:	df000204 	addi	fp,sp,8
   220fc:	2005883a 	mov	r2,r4
   22100:	e0bffe0d 	sth	r2,-8(fp)

	Focus_Released(); // waiting for VCM release I2C bus
   22104:	00213040 	call	21304 <Focus_Released>

	int bSuccess = oc_i2c_init_ex(I2C_OPENCORES_CAMERA_BASE, 50*1000*1000,400*1000); //I2C: 400K
   22108:	018001b4 	movhi	r6,6
   2210c:	3186a004 	addi	r6,r6,6784
   22110:	0140bef4 	movhi	r5,763
   22114:	297c2004 	addi	r5,r5,-3968
   22118:	01000134 	movhi	r4,4
   2211c:	21041004 	addi	r4,r4,4160
   22120:	00203840 	call	20384 <oc_i2c_init_ex>
   22124:	e0bfff15 	stw	r2,-4(fp)
	if (!bSuccess)
   22128:	e0bfff17 	ldw	r2,-4(fp)
   2212c:	1000031e 	bne	r2,zero,2213c <OV8865SetGain+0x50>
		printf("failed to init MIPI- Camera i2c\r\n");
   22130:	010000f4 	movhi	r4,3
   22134:	210e4f04 	addi	r4,r4,14652
   22138:	0023de80 	call	23de8 <puts>

	if (gain > 0x7FF) gain = 0x7FF;
   2213c:	e0bffe0b 	ldhu	r2,-8(fp)
   22140:	10820030 	cmpltui	r2,r2,2048
   22144:	1000021e 	bne	r2,zero,22150 <OV8865SetGain+0x64>
   22148:	0081ffc4 	movi	r2,2047
   2214c:	e0bffe0d 	sth	r2,-8(fp)
	if (gain < 0x080) gain = 0x080;
   22150:	e0bffe0b 	ldhu	r2,-8(fp)
   22154:	10802028 	cmpgeui	r2,r2,128
   22158:	1000021e 	bne	r2,zero,22164 <OV8865SetGain+0x78>
   2215c:	00802004 	movi	r2,128
   22160:	e0bffe0d 	sth	r2,-8(fp)

	OV8865_write_cmos_sensor_8(0x3508, (gain >> 8) & 0x0F);
   22164:	e0bffe0b 	ldhu	r2,-8(fp)
   22168:	1004d23a 	srli	r2,r2,8
   2216c:	10803fcc 	andi	r2,r2,255
   22170:	108003cc 	andi	r2,r2,15
   22174:	100b883a 	mov	r5,r2
   22178:	010d4204 	movi	r4,13576
   2217c:	0021dd80 	call	21dd8 <OV8865_write_cmos_sensor_8>
	OV8865_write_cmos_sensor_8(0x3509, gain & 0xFF);
   22180:	e0bffe0b 	ldhu	r2,-8(fp)
   22184:	10803fcc 	andi	r2,r2,255
   22188:	100b883a 	mov	r5,r2
   2218c:	010d4244 	movi	r4,13577
   22190:	0021dd80 	call	21dd8 <OV8865_write_cmos_sensor_8>


	oc_i2c_uninit(I2C_OPENCORES_CAMERA_BASE);
   22194:	01000134 	movhi	r4,4
   22198:	21041004 	addi	r4,r4,4160
   2219c:	00204c00 	call	204c0 <oc_i2c_uninit>
}
   221a0:	0001883a 	nop
   221a4:	e037883a 	mov	sp,fp
   221a8:	dfc00117 	ldw	ra,4(sp)
   221ac:	df000017 	ldw	fp,0(sp)
   221b0:	dec00204 	addi	sp,sp,8
   221b4:	f800283a 	ret

000221b8 <OV8865ReadExposure>:

alt_u32 OV8865ReadExposure(){
   221b8:	defffb04 	addi	sp,sp,-20
   221bc:	dfc00415 	stw	ra,16(sp)
   221c0:	df000315 	stw	fp,12(sp)
   221c4:	dc000215 	stw	r16,8(sp)
   221c8:	df000304 	addi	fp,sp,12

	alt_u32 exposure;

	Focus_Released(); // waiting for VCM release I2C bus
   221cc:	00213040 	call	21304 <Focus_Released>

	int bSuccess = oc_i2c_init_ex(I2C_OPENCORES_CAMERA_BASE, 50*1000*1000,400*1000); //I2C: 400K
   221d0:	018001b4 	movhi	r6,6
   221d4:	3186a004 	addi	r6,r6,6784
   221d8:	0140bef4 	movhi	r5,763
   221dc:	297c2004 	addi	r5,r5,-3968
   221e0:	01000134 	movhi	r4,4
   221e4:	21041004 	addi	r4,r4,4160
   221e8:	00203840 	call	20384 <oc_i2c_init_ex>
   221ec:	e0bffe15 	stw	r2,-8(fp)
	if (!bSuccess)
   221f0:	e0bffe17 	ldw	r2,-8(fp)
   221f4:	1000031e 	bne	r2,zero,22204 <OV8865ReadExposure+0x4c>
		printf("failed to init MIPI- Camera i2c\r\n");
   221f8:	010000f4 	movhi	r4,3
   221fc:	210e4f04 	addi	r4,r4,14652
   22200:	0023de80 	call	23de8 <puts>

	exposure = OV8865_read_cmos_sensor_8(0x3500);
   22204:	010d4004 	movi	r4,13568
   22208:	0021d740 	call	21d74 <OV8865_read_cmos_sensor_8>
   2220c:	10803fcc 	andi	r2,r2,255
   22210:	e0bffd15 	stw	r2,-12(fp)
	exposure = (exposure <<8) | OV8865_read_cmos_sensor_8(0x3501);
   22214:	e0bffd17 	ldw	r2,-12(fp)
   22218:	1020923a 	slli	r16,r2,8
   2221c:	010d4044 	movi	r4,13569
   22220:	0021d740 	call	21d74 <OV8865_read_cmos_sensor_8>
   22224:	10803fcc 	andi	r2,r2,255
   22228:	8084b03a 	or	r2,r16,r2
   2222c:	e0bffd15 	stw	r2,-12(fp)
	exposure = (exposure <<8) | OV8865_read_cmos_sensor_8(0x3502);
   22230:	e0bffd17 	ldw	r2,-12(fp)
   22234:	1020923a 	slli	r16,r2,8
   22238:	010d4084 	movi	r4,13570
   2223c:	0021d740 	call	21d74 <OV8865_read_cmos_sensor_8>
   22240:	10803fcc 	andi	r2,r2,255
   22244:	8084b03a 	or	r2,r16,r2
   22248:	e0bffd15 	stw	r2,-12(fp)

	oc_i2c_uninit(I2C_OPENCORES_CAMERA_BASE);
   2224c:	01000134 	movhi	r4,4
   22250:	21041004 	addi	r4,r4,4160
   22254:	00204c00 	call	204c0 <oc_i2c_uninit>

	return exposure;
   22258:	e0bffd17 	ldw	r2,-12(fp)
}
   2225c:	e6ffff04 	addi	sp,fp,-4
   22260:	dfc00217 	ldw	ra,8(sp)
   22264:	df000117 	ldw	fp,4(sp)
   22268:	dc000017 	ldw	r16,0(sp)
   2226c:	dec00304 	addi	sp,sp,12
   22270:	f800283a 	ret

00022274 <MIPI_BIN_LEVEL>:




//ZOOM
void MIPI_BIN_LEVEL(alt_u8 level){
   22274:	defffc04 	addi	sp,sp,-16
   22278:	dfc00315 	stw	ra,12(sp)
   2227c:	df000215 	stw	fp,8(sp)
   22280:	df000204 	addi	fp,sp,8
   22284:	2005883a 	mov	r2,r4
   22288:	e0bffe05 	stb	r2,-8(fp)
	if(level <= 1) level = 1;
   2228c:	e0bffe03 	ldbu	r2,-8(fp)
   22290:	108000a8 	cmpgeui	r2,r2,2
   22294:	1000021e 	bne	r2,zero,222a0 <MIPI_BIN_LEVEL+0x2c>
   22298:	00800044 	movi	r2,1
   2229c:	e0bffe05 	stb	r2,-8(fp)
	if(level >= 3) level = 3;
   222a0:	e0bffe03 	ldbu	r2,-8(fp)
   222a4:	108000f0 	cmpltui	r2,r2,3
   222a8:	1000021e 	bne	r2,zero,222b4 <MIPI_BIN_LEVEL+0x40>
   222ac:	008000c4 	movi	r2,3
   222b0:	e0bffe05 	stb	r2,-8(fp)

	  Focus_Released(); // waiting for VCM release I2C bus
   222b4:	00213040 	call	21304 <Focus_Released>

	  int bSuccess;
		bSuccess = oc_i2c_init_ex(I2C_OPENCORES_CAMERA_BASE, 50*1000*1000,400*1000); //I2C: 400K
   222b8:	018001b4 	movhi	r6,6
   222bc:	3186a004 	addi	r6,r6,6784
   222c0:	0140bef4 	movhi	r5,763
   222c4:	297c2004 	addi	r5,r5,-3968
   222c8:	01000134 	movhi	r4,4
   222cc:	21041004 	addi	r4,r4,4160
   222d0:	00203840 	call	20384 <oc_i2c_init_ex>
   222d4:	e0bfff15 	stw	r2,-4(fp)
		if (!bSuccess)
   222d8:	e0bfff17 	ldw	r2,-4(fp)
   222dc:	1000031e 	bne	r2,zero,222ec <MIPI_BIN_LEVEL+0x78>
			printf("failed to init MIPI- Camera i2c\r\n");
   222e0:	010000f4 	movhi	r4,3
   222e4:	210e4f04 	addi	r4,r4,14652
   222e8:	0023de80 	call	23de8 <puts>


	OV8865_write_cmos_sensor_8(0x0100, 0x00);
   222ec:	000b883a 	mov	r5,zero
   222f0:	01004004 	movi	r4,256
   222f4:	0021dd80 	call	21dd8 <OV8865_write_cmos_sensor_8>

	if(level == 1){
   222f8:	e0bffe03 	ldbu	r2,-8(fp)
   222fc:	10800058 	cmpnei	r2,r2,1
   22300:	1000131e 	bne	r2,zero,22350 <MIPI_BIN_LEVEL+0xdc>

		OV8865_write_cmos_sensor_8(0x3814, 0x01);
   22304:	01400044 	movi	r5,1
   22308:	010e0504 	movi	r4,14356
   2230c:	0021dd80 	call	21dd8 <OV8865_write_cmos_sensor_8>
		OV8865_write_cmos_sensor_8(0x3815, 0x01);
   22310:	01400044 	movi	r5,1
   22314:	010e0544 	movi	r4,14357
   22318:	0021dd80 	call	21dd8 <OV8865_write_cmos_sensor_8>
		OV8865_write_cmos_sensor_8(0x382a, 0x01);
   2231c:	01400044 	movi	r5,1
   22320:	010e0a84 	movi	r4,14378
   22324:	0021dd80 	call	21dd8 <OV8865_write_cmos_sensor_8>
		OV8865_write_cmos_sensor_8(0x382b, 0x01);
   22328:	01400044 	movi	r5,1
   2232c:	010e0ac4 	movi	r4,14379
   22330:	0021dd80 	call	21dd8 <OV8865_write_cmos_sensor_8>

		OV8865_write_cmos_sensor_8(0x3830, 8);
   22334:	01400204 	movi	r5,8
   22338:	010e0c04 	movi	r4,14384
   2233c:	0021dd80 	call	21dd8 <OV8865_write_cmos_sensor_8>
		OV8865_write_cmos_sensor_8(0x3836, 2);
   22340:	01400084 	movi	r5,2
   22344:	010e0d84 	movi	r4,14390
   22348:	0021dd80 	call	21dd8 <OV8865_write_cmos_sensor_8>
   2234c:	00002b06 	br	223fc <MIPI_BIN_LEVEL+0x188>
	}
	else if(level == 2){
   22350:	e0bffe03 	ldbu	r2,-8(fp)
   22354:	10800098 	cmpnei	r2,r2,2
   22358:	1000131e 	bne	r2,zero,223a8 <MIPI_BIN_LEVEL+0x134>

		OV8865_write_cmos_sensor_8(0x3814, 0x03);
   2235c:	014000c4 	movi	r5,3
   22360:	010e0504 	movi	r4,14356
   22364:	0021dd80 	call	21dd8 <OV8865_write_cmos_sensor_8>
		OV8865_write_cmos_sensor_8(0x3815, 0x01);
   22368:	01400044 	movi	r5,1
   2236c:	010e0544 	movi	r4,14357
   22370:	0021dd80 	call	21dd8 <OV8865_write_cmos_sensor_8>
		OV8865_write_cmos_sensor_8(0x382a, 0x03);
   22374:	014000c4 	movi	r5,3
   22378:	010e0a84 	movi	r4,14378
   2237c:	0021dd80 	call	21dd8 <OV8865_write_cmos_sensor_8>
		OV8865_write_cmos_sensor_8(0x382b, 0x01);
   22380:	01400044 	movi	r5,1
   22384:	010e0ac4 	movi	r4,14379
   22388:	0021dd80 	call	21dd8 <OV8865_write_cmos_sensor_8>

		OV8865_write_cmos_sensor_8(0x3830, 4);
   2238c:	01400104 	movi	r5,4
   22390:	010e0c04 	movi	r4,14384
   22394:	0021dd80 	call	21dd8 <OV8865_write_cmos_sensor_8>
		OV8865_write_cmos_sensor_8(0x3836, 1);
   22398:	01400044 	movi	r5,1
   2239c:	010e0d84 	movi	r4,14390
   223a0:	0021dd80 	call	21dd8 <OV8865_write_cmos_sensor_8>
   223a4:	00001506 	br	223fc <MIPI_BIN_LEVEL+0x188>

	}
	else if(level == 3){
   223a8:	e0bffe03 	ldbu	r2,-8(fp)
   223ac:	108000d8 	cmpnei	r2,r2,3
   223b0:	1000121e 	bne	r2,zero,223fc <MIPI_BIN_LEVEL+0x188>

		OV8865_write_cmos_sensor_8(0x3814, 0x07);
   223b4:	014001c4 	movi	r5,7
   223b8:	010e0504 	movi	r4,14356
   223bc:	0021dd80 	call	21dd8 <OV8865_write_cmos_sensor_8>
		OV8865_write_cmos_sensor_8(0x3815, 0x01);
   223c0:	01400044 	movi	r5,1
   223c4:	010e0544 	movi	r4,14357
   223c8:	0021dd80 	call	21dd8 <OV8865_write_cmos_sensor_8>
		OV8865_write_cmos_sensor_8(0x382a, 0x07);
   223cc:	014001c4 	movi	r5,7
   223d0:	010e0a84 	movi	r4,14378
   223d4:	0021dd80 	call	21dd8 <OV8865_write_cmos_sensor_8>
		OV8865_write_cmos_sensor_8(0x382b, 0x01);
   223d8:	01400044 	movi	r5,1
   223dc:	010e0ac4 	movi	r4,14379
   223e0:	0021dd80 	call	21dd8 <OV8865_write_cmos_sensor_8>

		OV8865_write_cmos_sensor_8(0x3830, 8);
   223e4:	01400204 	movi	r5,8
   223e8:	010e0c04 	movi	r4,14384
   223ec:	0021dd80 	call	21dd8 <OV8865_write_cmos_sensor_8>
		OV8865_write_cmos_sensor_8(0x3836, 2);
   223f0:	01400084 	movi	r5,2
   223f4:	010e0d84 	movi	r4,14390
   223f8:	0021dd80 	call	21dd8 <OV8865_write_cmos_sensor_8>
	}
    usleep(10000);
   223fc:	0109c404 	movi	r4,10000
   22400:	0030e780 	call	30e78 <usleep>
	OV8865_write_cmos_sensor_8(0x0100, 0x01);
   22404:	01400044 	movi	r5,1
   22408:	01004004 	movi	r4,256
   2240c:	0021dd80 	call	21dd8 <OV8865_write_cmos_sensor_8>

	oc_i2c_uninit(I2C_OPENCORES_CAMERA_BASE);  // Release I2C bus , due to two I2C master shared!
   22410:	01000134 	movhi	r4,4
   22414:	21041004 	addi	r4,r4,4160
   22418:	00204c00 	call	204c0 <oc_i2c_uninit>

}
   2241c:	0001883a 	nop
   22420:	e037883a 	mov	sp,fp
   22424:	dfc00117 	ldw	ra,4(sp)
   22428:	df000017 	ldw	fp,0(sp)
   2242c:	dec00204 	addi	sp,sp,8
   22430:	f800283a 	ret

00022434 <MipiCameraInit>:
//		OV8865_write_cmos_sensor_8(0x0100, 0x01);
//}


void MipiCameraInit(void)
{
   22434:	defffb04 	addi	sp,sp,-20
   22438:	dfc00415 	stw	ra,16(sp)
   2243c:	df000315 	stw	fp,12(sp)
   22440:	df000304 	addi	fp,sp,12

    int i, num;
    int bSuccess;

    Focus_Released(); // waiting for VCM release I2C bus
   22444:	00213040 	call	21304 <Focus_Released>


		bSuccess = oc_i2c_init_ex(I2C_OPENCORES_CAMERA_BASE, 50*1000*1000,400*1000); //I2C: 400K
   22448:	018001b4 	movhi	r6,6
   2244c:	3186a004 	addi	r6,r6,6784
   22450:	0140bef4 	movhi	r5,763
   22454:	297c2004 	addi	r5,r5,-3968
   22458:	01000134 	movhi	r4,4
   2245c:	21041004 	addi	r4,r4,4160
   22460:	00203840 	call	20384 <oc_i2c_init_ex>
   22464:	e0bffe15 	stw	r2,-8(fp)
		if (!bSuccess)
   22468:	e0bffe17 	ldw	r2,-8(fp)
   2246c:	1000031e 	bne	r2,zero,2247c <MipiCameraInit+0x48>
			printf("failed to init MIPI- Camera i2c\r\n");
   22470:	010000f4 	movhi	r4,3
   22474:	210e4f04 	addi	r4,r4,14652
   22478:	0023de80 	call	23de8 <puts>
//        usleep(10000);
//    }
//


	 OV8865DB("\nStart MipiCameraInit -OV8865!\r\n");
   2247c:	010000f4 	movhi	r4,3
   22480:	210e5804 	addi	r4,r4,14688
   22484:	0023de80 	call	23de8 <puts>
	 OV8865DB("Write Read Test!\n");
   22488:	010000f4 	movhi	r4,3
   2248c:	210e6004 	addi	r4,r4,14720
   22490:	0023de80 	call	23de8 <puts>

	    for(i=0;i<10;i++){
   22494:	e03fff15 	stw	zero,-4(fp)
   22498:	00001406 	br	224ec <MipiCameraInit+0xb8>
	       OV8865_write_cmos_sensor_8(0x3809,i);
   2249c:	e0bfff17 	ldw	r2,-4(fp)
   224a0:	10803fcc 	andi	r2,r2,255
   224a4:	100b883a 	mov	r5,r2
   224a8:	010e0244 	movi	r4,14345
   224ac:	0021dd80 	call	21dd8 <OV8865_write_cmos_sensor_8>
	      usleep(100);
   224b0:	01001904 	movi	r4,100
   224b4:	0030e780 	call	30e78 <usleep>
	        printf("%d (%d)\n",OV8865_read_cmos_sensor_8(0x3809),i);
   224b8:	010e0244 	movi	r4,14345
   224bc:	0021d740 	call	21d74 <OV8865_read_cmos_sensor_8>
   224c0:	10803fcc 	andi	r2,r2,255
   224c4:	e1bfff17 	ldw	r6,-4(fp)
   224c8:	100b883a 	mov	r5,r2
   224cc:	010000f4 	movhi	r4,3
   224d0:	210e6504 	addi	r4,r4,14740
   224d4:	0023cc40 	call	23cc4 <printf>
	      usleep(100);
   224d8:	01001904 	movi	r4,100
   224dc:	0030e780 	call	30e78 <usleep>
	    for(i=0;i<10;i++){
   224e0:	e0bfff17 	ldw	r2,-4(fp)
   224e4:	10800044 	addi	r2,r2,1
   224e8:	e0bfff15 	stw	r2,-4(fp)
   224ec:	e0bfff17 	ldw	r2,-4(fp)
   224f0:	10800290 	cmplti	r2,r2,10
   224f4:	103fe91e 	bne	r2,zero,2249c <MipiCameraInit+0x68>
	    }
	 num = sizeof(MipiCameraReg)/sizeof(MipiCameraReg[0]);
   224f8:	00804f84 	movi	r2,318
   224fc:	e0bffd15 	stw	r2,-12(fp)
     for(i=0;i<num;i++){
   22500:	e03fff15 	stw	zero,-4(fp)
   22504:	00003306 	br	225d4 <MipiCameraInit+0x1a0>

    	 if (MipiCameraReg[i].Type == TIME_DELAY)   usleep(MipiCameraReg[i].Data*100);
   22508:	e0bfff17 	ldw	r2,-4(fp)
   2250c:	10c001a4 	muli	r3,r2,6
   22510:	008000f4 	movhi	r2,3
   22514:	1885883a 	add	r2,r3,r2
   22518:	10901203 	ldbu	r2,16456(r2)
   2251c:	10803fcc 	andi	r2,r2,255
   22520:	108000d8 	cmpnei	r2,r2,3
   22524:	10000a1e 	bne	r2,zero,22550 <MipiCameraInit+0x11c>
   22528:	e0bfff17 	ldw	r2,-4(fp)
   2252c:	10c001a4 	muli	r3,r2,6
   22530:	008000f4 	movhi	r2,3
   22534:	1885883a 	add	r2,r3,r2
   22538:	10901303 	ldbu	r2,16460(r2)
   2253c:	10803fcc 	andi	r2,r2,255
   22540:	10801924 	muli	r2,r2,100
   22544:	1009883a 	mov	r4,r2
   22548:	0030e780 	call	30e78 <usleep>
   2254c:	00001e06 	br	225c8 <MipiCameraInit+0x194>
    	 else if(MipiCameraReg[i].Type == END_OF_SCRIPT)   break;
   22550:	e0bfff17 	ldw	r2,-4(fp)
   22554:	10c001a4 	muli	r3,r2,6
   22558:	008000f4 	movhi	r2,3
   2255c:	1885883a 	add	r2,r3,r2
   22560:	10901203 	ldbu	r2,16456(r2)
   22564:	10803fcc 	andi	r2,r2,255
   22568:	10800118 	cmpnei	r2,r2,4
   2256c:	10001d26 	beq	r2,zero,225e4 <MipiCameraInit+0x1b0>
    	 else if(MipiCameraReg[i].Type == 0x6c)   OV8865_write_cmos_sensor_8(MipiCameraReg[i].Addr, MipiCameraReg[i].Data);
   22570:	e0bfff17 	ldw	r2,-4(fp)
   22574:	10c001a4 	muli	r3,r2,6
   22578:	008000f4 	movhi	r2,3
   2257c:	1885883a 	add	r2,r3,r2
   22580:	10901203 	ldbu	r2,16456(r2)
   22584:	10803fcc 	andi	r2,r2,255
   22588:	10801b18 	cmpnei	r2,r2,108
   2258c:	10000e1e 	bne	r2,zero,225c8 <MipiCameraInit+0x194>
   22590:	e0bfff17 	ldw	r2,-4(fp)
   22594:	10c001a4 	muli	r3,r2,6
   22598:	008000f4 	movhi	r2,3
   2259c:	1885883a 	add	r2,r3,r2
   225a0:	1090128b 	ldhu	r2,16458(r2)
   225a4:	113fffcc 	andi	r4,r2,65535
   225a8:	e0bfff17 	ldw	r2,-4(fp)
   225ac:	10c001a4 	muli	r3,r2,6
   225b0:	008000f4 	movhi	r2,3
   225b4:	1885883a 	add	r2,r3,r2
   225b8:	10901303 	ldbu	r2,16460(r2)
   225bc:	10803fcc 	andi	r2,r2,255
   225c0:	100b883a 	mov	r5,r2
   225c4:	0021dd80 	call	21dd8 <OV8865_write_cmos_sensor_8>
     for(i=0;i<num;i++){
   225c8:	e0bfff17 	ldw	r2,-4(fp)
   225cc:	10800044 	addi	r2,r2,1
   225d0:	e0bfff15 	stw	r2,-4(fp)
   225d4:	e0ffff17 	ldw	r3,-4(fp)
   225d8:	e0bffd17 	ldw	r2,-12(fp)
   225dc:	18bfca16 	blt	r3,r2,22508 <MipiCameraInit+0xd4>
   225e0:	00000106 	br	225e8 <MipiCameraInit+0x1b4>
    	 else if(MipiCameraReg[i].Type == END_OF_SCRIPT)   break;
   225e4:	0001883a 	nop
     }


 	oc_i2c_uninit(I2C_OPENCORES_CAMERA_BASE);  // Release I2C bus , due to two I2C master shared!
   225e8:	01000134 	movhi	r4,4
   225ec:	21041004 	addi	r4,r4,4160
   225f0:	00204c00 	call	204c0 <oc_i2c_uninit>



	 OV8865DB("\nEnd MipiCameraInit! -OV8865!\r\n\n");
   225f4:	010000f4 	movhi	r4,3
   225f8:	210e6804 	addi	r4,r4,14752
   225fc:	0023de80 	call	23de8 <puts>

}
   22600:	0001883a 	nop
   22604:	e037883a 	mov	sp,fp
   22608:	dfc00117 	ldw	ra,4(sp)
   2260c:	df000017 	ldw	fp,0(sp)
   22610:	dec00204 	addi	sp,sp,8
   22614:	f800283a 	ret

00022618 <QUEUE_New>:
#include "queue.h"




QUEUE_STRUCT* QUEUE_New(int nQueueNum){
   22618:	defffb04 	addi	sp,sp,-20
   2261c:	dfc00415 	stw	ra,16(sp)
   22620:	df000315 	stw	fp,12(sp)
   22624:	df000304 	addi	fp,sp,12
   22628:	e13ffd15 	stw	r4,-12(fp)
    int nSize;
    QUEUE_STRUCT *pQueue;
    nSize = sizeof(QUEUE_STRUCT)+nQueueNum*sizeof(alt_u32);
   2262c:	e0bffd17 	ldw	r2,-12(fp)
   22630:	10800144 	addi	r2,r2,5
   22634:	100490ba 	slli	r2,r2,2
   22638:	e0bfff15 	stw	r2,-4(fp)
    pQueue = (QUEUE_STRUCT *)malloc(nSize);
   2263c:	e0bfff17 	ldw	r2,-4(fp)
   22640:	1009883a 	mov	r4,r2
   22644:	00233400 	call	23340 <malloc>
   22648:	e0bffe15 	stw	r2,-8(fp)
    memset((void *)pQueue, 0, nSize);
   2264c:	e0bfff17 	ldw	r2,-4(fp)
   22650:	100d883a 	mov	r6,r2
   22654:	000b883a 	mov	r5,zero
   22658:	e13ffe17 	ldw	r4,-8(fp)
   2265c:	0023b400 	call	23b40 <memset>
    pQueue->num = nQueueNum;
   22660:	e0fffd17 	ldw	r3,-12(fp)
   22664:	e0bffe17 	ldw	r2,-8(fp)
   22668:	10c00015 	stw	r3,0(r2)
    return pQueue;
   2266c:	e0bffe17 	ldw	r2,-8(fp)
}
   22670:	e037883a 	mov	sp,fp
   22674:	dfc00117 	ldw	ra,4(sp)
   22678:	df000017 	ldw	fp,0(sp)
   2267c:	dec00204 	addi	sp,sp,8
   22680:	f800283a 	ret

00022684 <QUEUE_Delete>:

void QUEUE_Delete(QUEUE_STRUCT *pQueue){
   22684:	defffd04 	addi	sp,sp,-12
   22688:	dfc00215 	stw	ra,8(sp)
   2268c:	df000115 	stw	fp,4(sp)
   22690:	df000104 	addi	fp,sp,4
   22694:	e13fff15 	stw	r4,-4(fp)
    free(pQueue);
   22698:	e13fff17 	ldw	r4,-4(fp)
   2269c:	00233500 	call	23350 <free>
}
   226a0:	0001883a 	nop
   226a4:	e037883a 	mov	sp,fp
   226a8:	dfc00117 	ldw	ra,4(sp)
   226ac:	df000017 	ldw	fp,0(sp)
   226b0:	dec00204 	addi	sp,sp,8
   226b4:	f800283a 	ret

000226b8 <QUEUE_IsEmpty>:

bool QUEUE_IsEmpty(QUEUE_STRUCT *pQueue){
   226b8:	defffe04 	addi	sp,sp,-8
   226bc:	df000115 	stw	fp,4(sp)
   226c0:	df000104 	addi	fp,sp,4
   226c4:	e13fff15 	stw	r4,-4(fp)
    if (pQueue->front == pQueue->rear)
   226c8:	e0bfff17 	ldw	r2,-4(fp)
   226cc:	10c00117 	ldw	r3,4(r2)
   226d0:	e0bfff17 	ldw	r2,-4(fp)
   226d4:	10800217 	ldw	r2,8(r2)
   226d8:	1880021e 	bne	r3,r2,226e4 <QUEUE_IsEmpty+0x2c>
        return TRUE;
   226dc:	00800044 	movi	r2,1
   226e0:	00000106 	br	226e8 <QUEUE_IsEmpty+0x30>
    return FALSE;
   226e4:	0005883a 	mov	r2,zero
}
   226e8:	e037883a 	mov	sp,fp
   226ec:	df000017 	ldw	fp,0(sp)
   226f0:	dec00104 	addi	sp,sp,4
   226f4:	f800283a 	ret

000226f8 <QUEUE_IsFull>:

bool QUEUE_IsFull(QUEUE_STRUCT *pQueue){
   226f8:	defffd04 	addi	sp,sp,-12
   226fc:	dfc00215 	stw	ra,8(sp)
   22700:	df000115 	stw	fp,4(sp)
   22704:	df000104 	addi	fp,sp,4
   22708:	e13fff15 	stw	r4,-4(fp)
    if (((pQueue->front+1)%pQueue->num) == pQueue->rear)
   2270c:	e0bfff17 	ldw	r2,-4(fp)
   22710:	10800117 	ldw	r2,4(r2)
   22714:	10c00044 	addi	r3,r2,1
   22718:	e0bfff17 	ldw	r2,-4(fp)
   2271c:	10800017 	ldw	r2,0(r2)
   22720:	100b883a 	mov	r5,r2
   22724:	1809883a 	mov	r4,r3
   22728:	0022a040 	call	22a04 <__umodsi3>
   2272c:	1007883a 	mov	r3,r2
   22730:	e0bfff17 	ldw	r2,-4(fp)
   22734:	10800217 	ldw	r2,8(r2)
   22738:	1880021e 	bne	r3,r2,22744 <QUEUE_IsFull+0x4c>
        return TRUE;
   2273c:	00800044 	movi	r2,1
   22740:	00000106 	br	22748 <QUEUE_IsFull+0x50>
    return FALSE;
   22744:	0005883a 	mov	r2,zero
}
   22748:	e037883a 	mov	sp,fp
   2274c:	dfc00117 	ldw	ra,4(sp)
   22750:	df000017 	ldw	fp,0(sp)
   22754:	dec00204 	addi	sp,sp,8
   22758:	f800283a 	ret

0002275c <QUEUE_Push>:

bool QUEUE_Push(QUEUE_STRUCT *pQueue, alt_u32 data32){
   2275c:	defffc04 	addi	sp,sp,-16
   22760:	dfc00315 	stw	ra,12(sp)
   22764:	df000215 	stw	fp,8(sp)
   22768:	df000204 	addi	fp,sp,8
   2276c:	e13fff15 	stw	r4,-4(fp)
   22770:	e17ffe15 	stw	r5,-8(fp)
    if (QUEUE_IsFull(pQueue))
   22774:	e13fff17 	ldw	r4,-4(fp)
   22778:	00226f80 	call	226f8 <QUEUE_IsFull>
   2277c:	10000226 	beq	r2,zero,22788 <QUEUE_Push+0x2c>
        return FALSE;
   22780:	0005883a 	mov	r2,zero
   22784:	00001406 	br	227d8 <QUEUE_Push+0x7c>
    pQueue->data[pQueue->front] = data32;
   22788:	e0bfff17 	ldw	r2,-4(fp)
   2278c:	10800117 	ldw	r2,4(r2)
   22790:	e0ffff17 	ldw	r3,-4(fp)
   22794:	108000c4 	addi	r2,r2,3
   22798:	100490ba 	slli	r2,r2,2
   2279c:	1885883a 	add	r2,r3,r2
   227a0:	e0fffe17 	ldw	r3,-8(fp)
   227a4:	10c00015 	stw	r3,0(r2)
    pQueue->front = (pQueue->front+1)%pQueue->num;        
   227a8:	e0bfff17 	ldw	r2,-4(fp)
   227ac:	10800117 	ldw	r2,4(r2)
   227b0:	10c00044 	addi	r3,r2,1
   227b4:	e0bfff17 	ldw	r2,-4(fp)
   227b8:	10800017 	ldw	r2,0(r2)
   227bc:	100b883a 	mov	r5,r2
   227c0:	1809883a 	mov	r4,r3
   227c4:	0022a040 	call	22a04 <__umodsi3>
   227c8:	1007883a 	mov	r3,r2
   227cc:	e0bfff17 	ldw	r2,-4(fp)
   227d0:	10c00115 	stw	r3,4(r2)
    return TRUE;
   227d4:	00800044 	movi	r2,1
}
   227d8:	e037883a 	mov	sp,fp
   227dc:	dfc00117 	ldw	ra,4(sp)
   227e0:	df000017 	ldw	fp,0(sp)
   227e4:	dec00204 	addi	sp,sp,8
   227e8:	f800283a 	ret

000227ec <QUEUE_Pop>:

alt_u32 QUEUE_Pop(QUEUE_STRUCT *pQueue){
   227ec:	defffc04 	addi	sp,sp,-16
   227f0:	dfc00315 	stw	ra,12(sp)
   227f4:	df000215 	stw	fp,8(sp)
   227f8:	df000204 	addi	fp,sp,8
   227fc:	e13ffe15 	stw	r4,-8(fp)
    alt_u32 data32;
    if (QUEUE_IsEmpty(pQueue))
   22800:	e13ffe17 	ldw	r4,-8(fp)
   22804:	00226b80 	call	226b8 <QUEUE_IsEmpty>
   22808:	10000226 	beq	r2,zero,22814 <QUEUE_Pop+0x28>
        return 0;
   2280c:	0005883a 	mov	r2,zero
   22810:	00001406 	br	22864 <QUEUE_Pop+0x78>
    data32 = pQueue->data[pQueue->rear];
   22814:	e0bffe17 	ldw	r2,-8(fp)
   22818:	10800217 	ldw	r2,8(r2)
   2281c:	e0fffe17 	ldw	r3,-8(fp)
   22820:	108000c4 	addi	r2,r2,3
   22824:	100490ba 	slli	r2,r2,2
   22828:	1885883a 	add	r2,r3,r2
   2282c:	10800017 	ldw	r2,0(r2)
   22830:	e0bfff15 	stw	r2,-4(fp)
    pQueue->rear = (pQueue->rear+1)%pQueue->num;        
   22834:	e0bffe17 	ldw	r2,-8(fp)
   22838:	10800217 	ldw	r2,8(r2)
   2283c:	10c00044 	addi	r3,r2,1
   22840:	e0bffe17 	ldw	r2,-8(fp)
   22844:	10800017 	ldw	r2,0(r2)
   22848:	100b883a 	mov	r5,r2
   2284c:	1809883a 	mov	r4,r3
   22850:	0022a040 	call	22a04 <__umodsi3>
   22854:	1007883a 	mov	r3,r2
   22858:	e0bffe17 	ldw	r2,-8(fp)
   2285c:	10c00215 	stw	r3,8(r2)
    return data32;
   22860:	e0bfff17 	ldw	r2,-4(fp)
}
   22864:	e037883a 	mov	sp,fp
   22868:	dfc00117 	ldw	ra,4(sp)
   2286c:	df000017 	ldw	fp,0(sp)
   22870:	dec00204 	addi	sp,sp,8
   22874:	f800283a 	ret

00022878 <QUEUE_Empty>:

void QUEUE_Empty(QUEUE_STRUCT *pQueue){
   22878:	defffe04 	addi	sp,sp,-8
   2287c:	df000115 	stw	fp,4(sp)
   22880:	df000104 	addi	fp,sp,4
   22884:	e13fff15 	stw	r4,-4(fp)
    pQueue->front = 0;
   22888:	e0bfff17 	ldw	r2,-4(fp)
   2288c:	10000115 	stw	zero,4(r2)
    pQueue->rear = 0;
   22890:	e0bfff17 	ldw	r2,-4(fp)
   22894:	10000215 	stw	zero,8(r2)
}
   22898:	0001883a 	nop
   2289c:	e037883a 	mov	sp,fp
   228a0:	df000017 	ldw	fp,0(sp)
   228a4:	dec00104 	addi	sp,sp,4
   228a8:	f800283a 	ret

000228ac <__divsi3>:
   228ac:	20001a16 	blt	r4,zero,22918 <__divsi3+0x6c>
   228b0:	000f883a 	mov	r7,zero
   228b4:	2800020e 	bge	r5,zero,228c0 <__divsi3+0x14>
   228b8:	014bc83a 	sub	r5,zero,r5
   228bc:	39c0005c 	xori	r7,r7,1
   228c0:	200d883a 	mov	r6,r4
   228c4:	00c00044 	movi	r3,1
   228c8:	2900092e 	bgeu	r5,r4,228f0 <__divsi3+0x44>
   228cc:	00800804 	movi	r2,32
   228d0:	00c00044 	movi	r3,1
   228d4:	00000106 	br	228dc <__divsi3+0x30>
   228d8:	10001226 	beq	r2,zero,22924 <__divsi3+0x78>
   228dc:	294b883a 	add	r5,r5,r5
   228e0:	10bfffc4 	addi	r2,r2,-1
   228e4:	18c7883a 	add	r3,r3,r3
   228e8:	293ffb36 	bltu	r5,r4,228d8 <__divsi3+0x2c>
   228ec:	18000d26 	beq	r3,zero,22924 <__divsi3+0x78>
   228f0:	0005883a 	mov	r2,zero
   228f4:	31400236 	bltu	r6,r5,22900 <__divsi3+0x54>
   228f8:	314dc83a 	sub	r6,r6,r5
   228fc:	10c4b03a 	or	r2,r2,r3
   22900:	1806d07a 	srli	r3,r3,1
   22904:	280ad07a 	srli	r5,r5,1
   22908:	183ffa1e 	bne	r3,zero,228f4 <__divsi3+0x48>
   2290c:	38000126 	beq	r7,zero,22914 <__divsi3+0x68>
   22910:	0085c83a 	sub	r2,zero,r2
   22914:	f800283a 	ret
   22918:	0109c83a 	sub	r4,zero,r4
   2291c:	01c00044 	movi	r7,1
   22920:	003fe406 	br	228b4 <__divsi3+0x8>
   22924:	0005883a 	mov	r2,zero
   22928:	003ff806 	br	2290c <__divsi3+0x60>

0002292c <__modsi3>:
   2292c:	20001916 	blt	r4,zero,22994 <__modsi3+0x68>
   22930:	000f883a 	mov	r7,zero
   22934:	2005883a 	mov	r2,r4
   22938:	2800010e 	bge	r5,zero,22940 <__modsi3+0x14>
   2293c:	014bc83a 	sub	r5,zero,r5
   22940:	00c00044 	movi	r3,1
   22944:	2900092e 	bgeu	r5,r4,2296c <__modsi3+0x40>
   22948:	01800804 	movi	r6,32
   2294c:	00c00044 	movi	r3,1
   22950:	00000106 	br	22958 <__modsi3+0x2c>
   22954:	30000d26 	beq	r6,zero,2298c <__modsi3+0x60>
   22958:	294b883a 	add	r5,r5,r5
   2295c:	31bfffc4 	addi	r6,r6,-1
   22960:	18c7883a 	add	r3,r3,r3
   22964:	293ffb36 	bltu	r5,r4,22954 <__modsi3+0x28>
   22968:	18000826 	beq	r3,zero,2298c <__modsi3+0x60>
   2296c:	1806d07a 	srli	r3,r3,1
   22970:	11400136 	bltu	r2,r5,22978 <__modsi3+0x4c>
   22974:	1145c83a 	sub	r2,r2,r5
   22978:	280ad07a 	srli	r5,r5,1
   2297c:	183ffb1e 	bne	r3,zero,2296c <__modsi3+0x40>
   22980:	38000126 	beq	r7,zero,22988 <__modsi3+0x5c>
   22984:	0085c83a 	sub	r2,zero,r2
   22988:	f800283a 	ret
   2298c:	2005883a 	mov	r2,r4
   22990:	003ffb06 	br	22980 <__modsi3+0x54>
   22994:	0109c83a 	sub	r4,zero,r4
   22998:	01c00044 	movi	r7,1
   2299c:	003fe506 	br	22934 <__modsi3+0x8>

000229a0 <__udivsi3>:
   229a0:	200d883a 	mov	r6,r4
   229a4:	2900152e 	bgeu	r5,r4,229fc <__udivsi3+0x5c>
   229a8:	28001416 	blt	r5,zero,229fc <__udivsi3+0x5c>
   229ac:	00800804 	movi	r2,32
   229b0:	00c00044 	movi	r3,1
   229b4:	00000206 	br	229c0 <__udivsi3+0x20>
   229b8:	10000e26 	beq	r2,zero,229f4 <__udivsi3+0x54>
   229bc:	28000516 	blt	r5,zero,229d4 <__udivsi3+0x34>
   229c0:	294b883a 	add	r5,r5,r5
   229c4:	10bfffc4 	addi	r2,r2,-1
   229c8:	18c7883a 	add	r3,r3,r3
   229cc:	293ffa36 	bltu	r5,r4,229b8 <__udivsi3+0x18>
   229d0:	18000826 	beq	r3,zero,229f4 <__udivsi3+0x54>
   229d4:	0005883a 	mov	r2,zero
   229d8:	31400236 	bltu	r6,r5,229e4 <__udivsi3+0x44>
   229dc:	314dc83a 	sub	r6,r6,r5
   229e0:	10c4b03a 	or	r2,r2,r3
   229e4:	1806d07a 	srli	r3,r3,1
   229e8:	280ad07a 	srli	r5,r5,1
   229ec:	183ffa1e 	bne	r3,zero,229d8 <__udivsi3+0x38>
   229f0:	f800283a 	ret
   229f4:	0005883a 	mov	r2,zero
   229f8:	f800283a 	ret
   229fc:	00c00044 	movi	r3,1
   22a00:	003ff406 	br	229d4 <__udivsi3+0x34>

00022a04 <__umodsi3>:
   22a04:	2005883a 	mov	r2,r4
   22a08:	2900132e 	bgeu	r5,r4,22a58 <__umodsi3+0x54>
   22a0c:	28001216 	blt	r5,zero,22a58 <__umodsi3+0x54>
   22a10:	01800804 	movi	r6,32
   22a14:	00c00044 	movi	r3,1
   22a18:	00000206 	br	22a24 <__umodsi3+0x20>
   22a1c:	30000c26 	beq	r6,zero,22a50 <__umodsi3+0x4c>
   22a20:	28000516 	blt	r5,zero,22a38 <__umodsi3+0x34>
   22a24:	294b883a 	add	r5,r5,r5
   22a28:	31bfffc4 	addi	r6,r6,-1
   22a2c:	18c7883a 	add	r3,r3,r3
   22a30:	293ffa36 	bltu	r5,r4,22a1c <__umodsi3+0x18>
   22a34:	18000626 	beq	r3,zero,22a50 <__umodsi3+0x4c>
   22a38:	1806d07a 	srli	r3,r3,1
   22a3c:	11400136 	bltu	r2,r5,22a44 <__umodsi3+0x40>
   22a40:	1145c83a 	sub	r2,r2,r5
   22a44:	280ad07a 	srli	r5,r5,1
   22a48:	183ffb1e 	bne	r3,zero,22a38 <__umodsi3+0x34>
   22a4c:	f800283a 	ret
   22a50:	2005883a 	mov	r2,r4
   22a54:	f800283a 	ret
   22a58:	00c00044 	movi	r3,1
   22a5c:	003ff606 	br	22a38 <__umodsi3+0x34>

00022a60 <_fopen_r>:
   22a60:	defffa04 	addi	sp,sp,-24
   22a64:	3007883a 	mov	r3,r6
   22a68:	dcc00415 	stw	r19,16(sp)
   22a6c:	d80d883a 	mov	r6,sp
   22a70:	2827883a 	mov	r19,r5
   22a74:	180b883a 	mov	r5,r3
   22a78:	dc800315 	stw	r18,12(sp)
   22a7c:	dfc00515 	stw	ra,20(sp)
   22a80:	dc400215 	stw	r17,8(sp)
   22a84:	dc000115 	stw	r16,4(sp)
   22a88:	2025883a 	mov	r18,r4
   22a8c:	00285200 	call	28520 <__sflags>
   22a90:	10002726 	beq	r2,zero,22b30 <_fopen_r+0xd0>
   22a94:	9009883a 	mov	r4,r18
   22a98:	1023883a 	mov	r17,r2
   22a9c:	00283c80 	call	283c8 <__sfp>
   22aa0:	1021883a 	mov	r16,r2
   22aa4:	10002226 	beq	r2,zero,22b30 <_fopen_r+0xd0>
   22aa8:	d9800017 	ldw	r6,0(sp)
   22aac:	01c06d84 	movi	r7,438
   22ab0:	980b883a 	mov	r5,r19
   22ab4:	9009883a 	mov	r4,r18
   22ab8:	0023c300 	call	23c30 <_open_r>
   22abc:	10001916 	blt	r2,zero,22b24 <_fopen_r+0xc4>
   22ac0:	018000b4 	movhi	r6,2
   22ac4:	014000b4 	movhi	r5,2
   22ac8:	010000b4 	movhi	r4,2
   22acc:	00c000b4 	movhi	r3,2
   22ad0:	31900e04 	addi	r6,r6,16440
   22ad4:	29502504 	addi	r5,r5,16532
   22ad8:	21104504 	addi	r4,r4,16660
   22adc:	18d05c04 	addi	r3,r3,16752
   22ae0:	8440030d 	sth	r17,12(r16)
   22ae4:	8080038d 	sth	r2,14(r16)
   22ae8:	84000715 	stw	r16,28(r16)
   22aec:	81800815 	stw	r6,32(r16)
   22af0:	81400915 	stw	r5,36(r16)
   22af4:	81000a15 	stw	r4,40(r16)
   22af8:	80c00b15 	stw	r3,44(r16)
   22afc:	8c40400c 	andi	r17,r17,256
   22b00:	88000d1e 	bne	r17,zero,22b38 <_fopen_r+0xd8>
   22b04:	8005883a 	mov	r2,r16
   22b08:	dfc00517 	ldw	ra,20(sp)
   22b0c:	dcc00417 	ldw	r19,16(sp)
   22b10:	dc800317 	ldw	r18,12(sp)
   22b14:	dc400217 	ldw	r17,8(sp)
   22b18:	dc000117 	ldw	r16,4(sp)
   22b1c:	dec00604 	addi	sp,sp,24
   22b20:	f800283a 	ret
   22b24:	00284e80 	call	284e8 <__sfp_lock_acquire>
   22b28:	8000030d 	sth	zero,12(r16)
   22b2c:	00284ec0 	call	284ec <__sfp_lock_release>
   22b30:	0021883a 	mov	r16,zero
   22b34:	003ff306 	br	22b04 <_fopen_r+0xa4>
   22b38:	01c00084 	movi	r7,2
   22b3c:	000d883a 	mov	r6,zero
   22b40:	800b883a 	mov	r5,r16
   22b44:	9009883a 	mov	r4,r18
   22b48:	0022b680 	call	22b68 <_fseek_r>
   22b4c:	003fed06 	br	22b04 <_fopen_r+0xa4>

00022b50 <fopen>:
   22b50:	00c000f4 	movhi	r3,3
   22b54:	2005883a 	mov	r2,r4
   22b58:	19190c17 	ldw	r4,25648(r3)
   22b5c:	280d883a 	mov	r6,r5
   22b60:	100b883a 	mov	r5,r2
   22b64:	0022a601 	jmpi	22a60 <_fopen_r>

00022b68 <_fseek_r>:
   22b68:	0022b881 	jmpi	22b88 <_fseeko_r>

00022b6c <fseek>:
   22b6c:	00c000f4 	movhi	r3,3
   22b70:	2005883a 	mov	r2,r4
   22b74:	19190c17 	ldw	r4,25648(r3)
   22b78:	300f883a 	mov	r7,r6
   22b7c:	280d883a 	mov	r6,r5
   22b80:	100b883a 	mov	r5,r2
   22b84:	0022b881 	jmpi	22b88 <_fseeko_r>

00022b88 <_fseeko_r>:
   22b88:	deffe504 	addi	sp,sp,-108
   22b8c:	dd401715 	stw	r21,92(sp)
   22b90:	dcc01515 	stw	r19,84(sp)
   22b94:	dc401315 	stw	r17,76(sp)
   22b98:	dc001215 	stw	r16,72(sp)
   22b9c:	dfc01a15 	stw	ra,104(sp)
   22ba0:	ddc01915 	stw	r23,100(sp)
   22ba4:	dd801815 	stw	r22,96(sp)
   22ba8:	dd001615 	stw	r20,88(sp)
   22bac:	dc801415 	stw	r18,80(sp)
   22bb0:	2023883a 	mov	r17,r4
   22bb4:	2821883a 	mov	r16,r5
   22bb8:	3027883a 	mov	r19,r6
   22bbc:	382b883a 	mov	r21,r7
   22bc0:	20000226 	beq	r4,zero,22bcc <_fseeko_r+0x44>
   22bc4:	20800e17 	ldw	r2,56(r4)
   22bc8:	10001a26 	beq	r2,zero,22c34 <_fseeko_r+0xac>
   22bcc:	8080030b 	ldhu	r2,12(r16)
   22bd0:	1080420c 	andi	r2,r2,264
   22bd4:	10804218 	cmpnei	r2,r2,264
   22bd8:	10001b26 	beq	r2,zero,22c48 <_fseeko_r+0xc0>
   22bdc:	85000a17 	ldw	r20,40(r16)
   22be0:	a000fa26 	beq	r20,zero,22fcc <_fseeko_r+0x444>
   22be4:	a8800060 	cmpeqi	r2,r21,1
   22be8:	10004a1e 	bne	r2,zero,22d14 <_fseeko_r+0x18c>
   22bec:	04bfff44 	movi	r18,-3
   22bf0:	aca4703a 	and	r18,r21,r18
   22bf4:	90001826 	beq	r18,zero,22c58 <_fseeko_r+0xd0>
   22bf8:	00800584 	movi	r2,22
   22bfc:	88800015 	stw	r2,0(r17)
   22c00:	04bfffc4 	movi	r18,-1
   22c04:	9005883a 	mov	r2,r18
   22c08:	dfc01a17 	ldw	ra,104(sp)
   22c0c:	ddc01917 	ldw	r23,100(sp)
   22c10:	dd801817 	ldw	r22,96(sp)
   22c14:	dd401717 	ldw	r21,92(sp)
   22c18:	dd001617 	ldw	r20,88(sp)
   22c1c:	dcc01517 	ldw	r19,84(sp)
   22c20:	dc801417 	ldw	r18,80(sp)
   22c24:	dc401317 	ldw	r17,76(sp)
   22c28:	dc001217 	ldw	r16,72(sp)
   22c2c:	dec01b04 	addi	sp,sp,108
   22c30:	f800283a 	ret
   22c34:	00284d80 	call	284d8 <__sinit>
   22c38:	8080030b 	ldhu	r2,12(r16)
   22c3c:	1080420c 	andi	r2,r2,264
   22c40:	10804218 	cmpnei	r2,r2,264
   22c44:	103fe51e 	bne	r2,zero,22bdc <_fseeko_r+0x54>
   22c48:	800b883a 	mov	r5,r16
   22c4c:	8809883a 	mov	r4,r17
   22c50:	00281540 	call	28154 <_fflush_r>
   22c54:	003fe106 	br	22bdc <_fseeko_r+0x54>
   22c58:	81000417 	ldw	r4,16(r16)
   22c5c:	002f883a 	mov	r23,zero
   22c60:	20004826 	beq	r4,zero,22d84 <_fseeko_r+0x1fc>
   22c64:	8080030b 	ldhu	r2,12(r16)
   22c68:	10c2068c 	andi	r3,r2,2074
   22c6c:	1800071e 	bne	r3,zero,22c8c <_fseeko_r+0x104>
   22c70:	10c1000c 	andi	r3,r2,1024
   22c74:	1800561e 	bne	r3,zero,22dd0 <_fseeko_r+0x248>
   22c78:	00c000b4 	movhi	r3,2
   22c7c:	18d04504 	addi	r3,r3,16660
   22c80:	a0c04426 	beq	r20,r3,22d94 <_fseeko_r+0x20c>
   22c84:	10820014 	ori	r2,r2,2048
   22c88:	8080030d 	sth	r2,12(r16)
   22c8c:	800b883a 	mov	r5,r16
   22c90:	8809883a 	mov	r4,r17
   22c94:	00281540 	call	28154 <_fflush_r>
   22c98:	1025883a 	mov	r18,r2
   22c9c:	103fd81e 	bne	r2,zero,22c00 <_fseeko_r+0x78>
   22ca0:	81400717 	ldw	r5,28(r16)
   22ca4:	a80f883a 	mov	r7,r21
   22ca8:	980d883a 	mov	r6,r19
   22cac:	8809883a 	mov	r4,r17
   22cb0:	a03ee83a 	callr	r20
   22cb4:	10bfffe0 	cmpeqi	r2,r2,-1
   22cb8:	103fd11e 	bne	r2,zero,22c00 <_fseeko_r+0x78>
   22cbc:	81400c17 	ldw	r5,48(r16)
   22cc0:	28000526 	beq	r5,zero,22cd8 <_fseeko_r+0x150>
   22cc4:	80801004 	addi	r2,r16,64
   22cc8:	28800226 	beq	r5,r2,22cd4 <_fseeko_r+0x14c>
   22ccc:	8809883a 	mov	r4,r17
   22cd0:	00286f40 	call	286f4 <_free_r>
   22cd4:	80000c15 	stw	zero,48(r16)
   22cd8:	8080030b 	ldhu	r2,12(r16)
   22cdc:	80c00417 	ldw	r3,16(r16)
   22ce0:	80000115 	stw	zero,4(r16)
   22ce4:	10bdf7cc 	andi	r2,r2,63455
   22ce8:	80c00015 	stw	r3,0(r16)
   22cec:	8080030d 	sth	r2,12(r16)
   22cf0:	80001705 	stb	zero,92(r16)
   22cf4:	80001745 	stb	zero,93(r16)
   22cf8:	80001785 	stb	zero,94(r16)
   22cfc:	800017c5 	stb	zero,95(r16)
   22d00:	80001805 	stb	zero,96(r16)
   22d04:	80001845 	stb	zero,97(r16)
   22d08:	80001885 	stb	zero,98(r16)
   22d0c:	800018c5 	stb	zero,99(r16)
   22d10:	003fbc06 	br	22c04 <_fseeko_r+0x7c>
   22d14:	800b883a 	mov	r5,r16
   22d18:	8809883a 	mov	r4,r17
   22d1c:	00281540 	call	28154 <_fflush_r>
   22d20:	8080030b 	ldhu	r2,12(r16)
   22d24:	10c4000c 	andi	r3,r2,4096
   22d28:	18006e1e 	bne	r3,zero,22ee4 <_fseeko_r+0x35c>
   22d2c:	81400717 	ldw	r5,28(r16)
   22d30:	01c00044 	movi	r7,1
   22d34:	000d883a 	mov	r6,zero
   22d38:	8809883a 	mov	r4,r17
   22d3c:	a03ee83a 	callr	r20
   22d40:	1025883a 	mov	r18,r2
   22d44:	10bfffd8 	cmpnei	r2,r2,-1
   22d48:	103fad26 	beq	r2,zero,22c00 <_fseeko_r+0x78>
   22d4c:	8080030b 	ldhu	r2,12(r16)
   22d50:	81000417 	ldw	r4,16(r16)
   22d54:	10c0010c 	andi	r3,r2,4
   22d58:	18006626 	beq	r3,zero,22ef4 <_fseeko_r+0x36c>
   22d5c:	80c00117 	ldw	r3,4(r16)
   22d60:	80800c17 	ldw	r2,48(r16)
   22d64:	90e5c83a 	sub	r18,r18,r3
   22d68:	10000226 	beq	r2,zero,22d74 <_fseeko_r+0x1ec>
   22d6c:	81800f17 	ldw	r6,60(r16)
   22d70:	91a5c83a 	sub	r18,r18,r6
   22d74:	9ca7883a 	add	r19,r19,r18
   22d78:	05c00044 	movi	r23,1
   22d7c:	002b883a 	mov	r21,zero
   22d80:	203fb81e 	bne	r4,zero,22c64 <_fseeko_r+0xdc>
   22d84:	800b883a 	mov	r5,r16
   22d88:	8809883a 	mov	r4,r17
   22d8c:	00232000 	call	23200 <__smakebuf_r>
   22d90:	003fb406 	br	22c64 <_fseeko_r+0xdc>
   22d94:	8140038f 	ldh	r5,14(r16)
   22d98:	283fba16 	blt	r5,zero,22c84 <_fseeko_r+0xfc>
   22d9c:	d80d883a 	mov	r6,sp
   22da0:	8809883a 	mov	r4,r17
   22da4:	0022ff80 	call	22ff8 <_fstat_r>
   22da8:	1000761e 	bne	r2,zero,22f84 <_fseeko_r+0x3fc>
   22dac:	d8c00117 	ldw	r3,4(sp)
   22db0:	01200014 	movui	r4,32768
   22db4:	8080030b 	ldhu	r2,12(r16)
   22db8:	18fc000c 	andi	r3,r3,61440
   22dbc:	193fb11e 	bne	r3,r4,22c84 <_fseeko_r+0xfc>
   22dc0:	10810014 	ori	r2,r2,1024
   22dc4:	00c10004 	movi	r3,1024
   22dc8:	80c01315 	stw	r3,76(r16)
   22dcc:	8080030d 	sth	r2,12(r16)
   22dd0:	a8004f1e 	bne	r21,zero,22f10 <_fseeko_r+0x388>
   22dd4:	982d883a 	mov	r22,r19
   22dd8:	b800551e 	bne	r23,zero,22f30 <_fseeko_r+0x3a8>
   22ddc:	8080030b 	ldhu	r2,12(r16)
   22de0:	1084000c 	andi	r2,r2,4096
   22de4:	10005f26 	beq	r2,zero,22f64 <_fseeko_r+0x3dc>
   22de8:	80801417 	ldw	r2,80(r16)
   22dec:	80c00117 	ldw	r3,4(r16)
   22df0:	81400c17 	ldw	r5,48(r16)
   22df4:	1809883a 	mov	r4,r3
   22df8:	10e5c83a 	sub	r18,r2,r3
   22dfc:	28005226 	beq	r5,zero,22f48 <_fseeko_r+0x3c0>
   22e00:	81800f17 	ldw	r6,60(r16)
   22e04:	91a5c83a 	sub	r18,r18,r6
   22e08:	80800e17 	ldw	r2,56(r16)
   22e0c:	81c00417 	ldw	r7,16(r16)
   22e10:	90e5883a 	add	r18,r18,r3
   22e14:	11c5c83a 	sub	r2,r2,r7
   22e18:	90a5c83a 	sub	r18,r18,r2
   22e1c:	1185883a 	add	r2,r2,r6
   22e20:	b4800216 	blt	r22,r18,22e2c <_fseeko_r+0x2a4>
   22e24:	9087883a 	add	r3,r18,r2
   22e28:	b0c05836 	bltu	r22,r3,22f8c <_fseeko_r+0x404>
   22e2c:	84801317 	ldw	r18,76(r16)
   22e30:	81400717 	ldw	r5,28(r16)
   22e34:	000f883a 	mov	r7,zero
   22e38:	04a5c83a 	sub	r18,zero,r18
   22e3c:	95a4703a 	and	r18,r18,r22
   22e40:	900d883a 	mov	r6,r18
   22e44:	8809883a 	mov	r4,r17
   22e48:	a03ee83a 	callr	r20
   22e4c:	10bfffe0 	cmpeqi	r2,r2,-1
   22e50:	103f8e1e 	bne	r2,zero,22c8c <_fseeko_r+0x104>
   22e54:	80800417 	ldw	r2,16(r16)
   22e58:	81400c17 	ldw	r5,48(r16)
   22e5c:	80000115 	stw	zero,4(r16)
   22e60:	80800015 	stw	r2,0(r16)
   22e64:	28000526 	beq	r5,zero,22e7c <_fseeko_r+0x2f4>
   22e68:	80801004 	addi	r2,r16,64
   22e6c:	28800226 	beq	r5,r2,22e78 <_fseeko_r+0x2f0>
   22e70:	8809883a 	mov	r4,r17
   22e74:	00286f40 	call	286f4 <_free_r>
   22e78:	80000c15 	stw	zero,48(r16)
   22e7c:	8080030b 	ldhu	r2,12(r16)
   22e80:	b4afc83a 	sub	r23,r22,r18
   22e84:	10bff7cc 	andi	r2,r2,65503
   22e88:	8080030d 	sth	r2,12(r16)
   22e8c:	b4800b26 	beq	r22,r18,22ebc <_fseeko_r+0x334>
   22e90:	800b883a 	mov	r5,r16
   22e94:	8809883a 	mov	r4,r17
   22e98:	0023e140 	call	23e14 <__srefill_r>
   22e9c:	103f7b1e 	bne	r2,zero,22c8c <_fseeko_r+0x104>
   22ea0:	80800117 	ldw	r2,4(r16)
   22ea4:	15ff7936 	bltu	r2,r23,22c8c <_fseeko_r+0x104>
   22ea8:	80c00017 	ldw	r3,0(r16)
   22eac:	15c5c83a 	sub	r2,r2,r23
   22eb0:	80800115 	stw	r2,4(r16)
   22eb4:	1def883a 	add	r23,r3,r23
   22eb8:	85c00015 	stw	r23,0(r16)
   22ebc:	80001705 	stb	zero,92(r16)
   22ec0:	80001745 	stb	zero,93(r16)
   22ec4:	80001785 	stb	zero,94(r16)
   22ec8:	800017c5 	stb	zero,95(r16)
   22ecc:	80001805 	stb	zero,96(r16)
   22ed0:	80001845 	stb	zero,97(r16)
   22ed4:	80001885 	stb	zero,98(r16)
   22ed8:	800018c5 	stb	zero,99(r16)
   22edc:	0025883a 	mov	r18,zero
   22ee0:	003f4806 	br	22c04 <_fseeko_r+0x7c>
   22ee4:	10c0010c 	andi	r3,r2,4
   22ee8:	84801417 	ldw	r18,80(r16)
   22eec:	81000417 	ldw	r4,16(r16)
   22ef0:	183f9a1e 	bne	r3,zero,22d5c <_fseeko_r+0x1d4>
   22ef4:	1080020c 	andi	r2,r2,8
   22ef8:	103f9e26 	beq	r2,zero,22d74 <_fseeko_r+0x1ec>
   22efc:	80800017 	ldw	r2,0(r16)
   22f00:	103f9c26 	beq	r2,zero,22d74 <_fseeko_r+0x1ec>
   22f04:	1105c83a 	sub	r2,r2,r4
   22f08:	90a5883a 	add	r18,r18,r2
   22f0c:	003f9906 	br	22d74 <_fseeko_r+0x1ec>
   22f10:	8140038f 	ldh	r5,14(r16)
   22f14:	d80d883a 	mov	r6,sp
   22f18:	8809883a 	mov	r4,r17
   22f1c:	0022ff80 	call	22ff8 <_fstat_r>
   22f20:	103f5a1e 	bne	r2,zero,22c8c <_fseeko_r+0x104>
   22f24:	dd800417 	ldw	r22,16(sp)
   22f28:	9dad883a 	add	r22,r19,r22
   22f2c:	b83fab26 	beq	r23,zero,22ddc <_fseeko_r+0x254>
   22f30:	81400c17 	ldw	r5,48(r16)
   22f34:	28000326 	beq	r5,zero,22f44 <_fseeko_r+0x3bc>
   22f38:	80c00117 	ldw	r3,4(r16)
   22f3c:	81800f17 	ldw	r6,60(r16)
   22f40:	003fb106 	br	22e08 <_fseeko_r+0x280>
   22f44:	81000117 	ldw	r4,4(r16)
   22f48:	80800017 	ldw	r2,0(r16)
   22f4c:	81c00417 	ldw	r7,16(r16)
   22f50:	000b883a 	mov	r5,zero
   22f54:	11c5c83a 	sub	r2,r2,r7
   22f58:	90a5c83a 	sub	r18,r18,r2
   22f5c:	2085883a 	add	r2,r4,r2
   22f60:	003faf06 	br	22e20 <_fseeko_r+0x298>
   22f64:	81400717 	ldw	r5,28(r16)
   22f68:	01c00044 	movi	r7,1
   22f6c:	000d883a 	mov	r6,zero
   22f70:	8809883a 	mov	r4,r17
   22f74:	a03ee83a 	callr	r20
   22f78:	10ffffe0 	cmpeqi	r3,r2,-1
   22f7c:	183f9b26 	beq	r3,zero,22dec <_fseeko_r+0x264>
   22f80:	003f4206 	br	22c8c <_fseeko_r+0x104>
   22f84:	8080030b 	ldhu	r2,12(r16)
   22f88:	003f3e06 	br	22c84 <_fseeko_r+0xfc>
   22f8c:	b4a5c83a 	sub	r18,r22,r18
   22f90:	3c8f883a 	add	r7,r7,r18
   22f94:	14a5c83a 	sub	r18,r2,r18
   22f98:	81c00015 	stw	r7,0(r16)
   22f9c:	84800115 	stw	r18,4(r16)
   22fa0:	28000526 	beq	r5,zero,22fb8 <_fseeko_r+0x430>
   22fa4:	80801004 	addi	r2,r16,64
   22fa8:	28800226 	beq	r5,r2,22fb4 <_fseeko_r+0x42c>
   22fac:	8809883a 	mov	r4,r17
   22fb0:	00286f40 	call	286f4 <_free_r>
   22fb4:	80000c15 	stw	zero,48(r16)
   22fb8:	80c0030b 	ldhu	r3,12(r16)
   22fbc:	80001705 	stb	zero,92(r16)
   22fc0:	18fff7cc 	andi	r3,r3,65503
   22fc4:	80c0030d 	sth	r3,12(r16)
   22fc8:	003fbd06 	br	22ec0 <_fseeko_r+0x338>
   22fcc:	00800744 	movi	r2,29
   22fd0:	88800015 	stw	r2,0(r17)
   22fd4:	04bfffc4 	movi	r18,-1
   22fd8:	003f0a06 	br	22c04 <_fseeko_r+0x7c>

00022fdc <fseeko>:
   22fdc:	00c000f4 	movhi	r3,3
   22fe0:	2005883a 	mov	r2,r4
   22fe4:	19190c17 	ldw	r4,25648(r3)
   22fe8:	300f883a 	mov	r7,r6
   22fec:	280d883a 	mov	r6,r5
   22ff0:	100b883a 	mov	r5,r2
   22ff4:	0022b881 	jmpi	22b88 <_fseeko_r>

00022ff8 <_fstat_r>:
   22ff8:	2807883a 	mov	r3,r5
   22ffc:	defffe04 	addi	sp,sp,-8
   23000:	dc000015 	stw	r16,0(sp)
   23004:	00800134 	movhi	r2,4
   23008:	300b883a 	mov	r5,r6
   2300c:	2021883a 	mov	r16,r4
   23010:	1809883a 	mov	r4,r3
   23014:	dfc00115 	stw	ra,4(sp)
   23018:	10222d15 	stw	zero,-30540(r2)
   2301c:	00302640 	call	30264 <fstat>
   23020:	10ffffd8 	cmpnei	r3,r2,-1
   23024:	18000426 	beq	r3,zero,23038 <_fstat_r+0x40>
   23028:	dfc00117 	ldw	ra,4(sp)
   2302c:	dc000017 	ldw	r16,0(sp)
   23030:	dec00204 	addi	sp,sp,8
   23034:	f800283a 	ret
   23038:	00c00134 	movhi	r3,4
   2303c:	18e22d17 	ldw	r3,-30540(r3)
   23040:	183ff926 	beq	r3,zero,23028 <_fstat_r+0x30>
   23044:	80c00015 	stw	r3,0(r16)
   23048:	dfc00117 	ldw	ra,4(sp)
   2304c:	dc000017 	ldw	r16,0(sp)
   23050:	dec00204 	addi	sp,sp,8
   23054:	f800283a 	ret

00023058 <_fwrite_r>:
   23058:	defff604 	addi	sp,sp,-40
   2305c:	dcc00815 	stw	r19,32(sp)
   23060:	39a7383a 	mul	r19,r7,r6
   23064:	00800044 	movi	r2,1
   23068:	dc800715 	stw	r18,28(sp)
   2306c:	dc400615 	stw	r17,24(sp)
   23070:	dc000515 	stw	r16,20(sp)
   23074:	d9400015 	stw	r5,0(sp)
   23078:	dfc00915 	stw	ra,36(sp)
   2307c:	dcc00115 	stw	r19,4(sp)
   23080:	dcc00415 	stw	r19,16(sp)
   23084:	dec00215 	stw	sp,8(sp)
   23088:	d8800315 	stw	r2,12(sp)
   2308c:	d9400a17 	ldw	r5,40(sp)
   23090:	3025883a 	mov	r18,r6
   23094:	3821883a 	mov	r16,r7
   23098:	2023883a 	mov	r17,r4
   2309c:	20000226 	beq	r4,zero,230a8 <_fwrite_r+0x50>
   230a0:	20800e17 	ldw	r2,56(r4)
   230a4:	10001826 	beq	r2,zero,23108 <_fwrite_r+0xb0>
   230a8:	2880030b 	ldhu	r2,12(r5)
   230ac:	10c8000c 	andi	r3,r2,8192
   230b0:	1800061e 	bne	r3,zero,230cc <_fwrite_r+0x74>
   230b4:	28c01917 	ldw	r3,100(r5)
   230b8:	0137ffc4 	movi	r4,-8193
   230bc:	10880014 	ori	r2,r2,8192
   230c0:	1906703a 	and	r3,r3,r4
   230c4:	2880030d 	sth	r2,12(r5)
   230c8:	28c01915 	stw	r3,100(r5)
   230cc:	d9800204 	addi	r6,sp,8
   230d0:	8809883a 	mov	r4,r17
   230d4:	00289f00 	call	289f0 <__sfvwrite_r>
   230d8:	10000e26 	beq	r2,zero,23114 <_fwrite_r+0xbc>
   230dc:	d9000417 	ldw	r4,16(sp)
   230e0:	900b883a 	mov	r5,r18
   230e4:	9909c83a 	sub	r4,r19,r4
   230e8:	00229a00 	call	229a0 <__udivsi3>
   230ec:	dfc00917 	ldw	ra,36(sp)
   230f0:	dcc00817 	ldw	r19,32(sp)
   230f4:	dc800717 	ldw	r18,28(sp)
   230f8:	dc400617 	ldw	r17,24(sp)
   230fc:	dc000517 	ldw	r16,20(sp)
   23100:	dec00a04 	addi	sp,sp,40
   23104:	f800283a 	ret
   23108:	00284d80 	call	284d8 <__sinit>
   2310c:	d9400a17 	ldw	r5,40(sp)
   23110:	003fe506 	br	230a8 <_fwrite_r+0x50>
   23114:	8005883a 	mov	r2,r16
   23118:	003ff406 	br	230ec <_fwrite_r+0x94>

0002311c <fwrite>:
   2311c:	00c000f4 	movhi	r3,3
   23120:	2005883a 	mov	r2,r4
   23124:	19190c17 	ldw	r4,25648(r3)
   23128:	defffe04 	addi	sp,sp,-8
   2312c:	d9c00015 	stw	r7,0(sp)
   23130:	300f883a 	mov	r7,r6
   23134:	280d883a 	mov	r6,r5
   23138:	100b883a 	mov	r5,r2
   2313c:	dfc00115 	stw	ra,4(sp)
   23140:	00230580 	call	23058 <_fwrite_r>
   23144:	dfc00117 	ldw	ra,4(sp)
   23148:	dec00204 	addi	sp,sp,8
   2314c:	f800283a 	ret

00023150 <_getchar_r>:
   23150:	21400117 	ldw	r5,4(r4)
   23154:	0028fec1 	jmpi	28fec <_getc_r>

00023158 <getchar>:
   23158:	008000f4 	movhi	r2,3
   2315c:	11190c17 	ldw	r4,25648(r2)
   23160:	21400117 	ldw	r5,4(r4)
   23164:	0028fec1 	jmpi	28fec <_getc_r>

00023168 <__swhatbuf_r>:
   23168:	deffea04 	addi	sp,sp,-88
   2316c:	dc001215 	stw	r16,72(sp)
   23170:	2821883a 	mov	r16,r5
   23174:	2940038f 	ldh	r5,14(r5)
   23178:	dc801415 	stw	r18,80(sp)
   2317c:	dc401315 	stw	r17,76(sp)
   23180:	dfc01515 	stw	ra,84(sp)
   23184:	3023883a 	mov	r17,r6
   23188:	3825883a 	mov	r18,r7
   2318c:	28001016 	blt	r5,zero,231d0 <__swhatbuf_r+0x68>
   23190:	d80d883a 	mov	r6,sp
   23194:	0022ff80 	call	22ff8 <_fstat_r>
   23198:	10000d16 	blt	r2,zero,231d0 <__swhatbuf_r+0x68>
   2319c:	d8c00117 	ldw	r3,4(sp)
   231a0:	00820004 	movi	r2,2048
   231a4:	18fc000c 	andi	r3,r3,61440
   231a8:	18c80020 	cmpeqi	r3,r3,8192
   231ac:	90c00015 	stw	r3,0(r18)
   231b0:	00c10004 	movi	r3,1024
   231b4:	88c00015 	stw	r3,0(r17)
   231b8:	dfc01517 	ldw	ra,84(sp)
   231bc:	dc801417 	ldw	r18,80(sp)
   231c0:	dc401317 	ldw	r17,76(sp)
   231c4:	dc001217 	ldw	r16,72(sp)
   231c8:	dec01604 	addi	sp,sp,88
   231cc:	f800283a 	ret
   231d0:	8080030b 	ldhu	r2,12(r16)
   231d4:	90000015 	stw	zero,0(r18)
   231d8:	1080200c 	andi	r2,r2,128
   231dc:	10000426 	beq	r2,zero,231f0 <__swhatbuf_r+0x88>
   231e0:	00801004 	movi	r2,64
   231e4:	88800015 	stw	r2,0(r17)
   231e8:	0005883a 	mov	r2,zero
   231ec:	003ff206 	br	231b8 <__swhatbuf_r+0x50>
   231f0:	00810004 	movi	r2,1024
   231f4:	88800015 	stw	r2,0(r17)
   231f8:	0005883a 	mov	r2,zero
   231fc:	003fee06 	br	231b8 <__swhatbuf_r+0x50>

00023200 <__smakebuf_r>:
   23200:	2880030b 	ldhu	r2,12(r5)
   23204:	defffa04 	addi	sp,sp,-24
   23208:	dc000215 	stw	r16,8(sp)
   2320c:	dfc00515 	stw	ra,20(sp)
   23210:	dc800415 	stw	r18,16(sp)
   23214:	dc400315 	stw	r17,12(sp)
   23218:	1080008c 	andi	r2,r2,2
   2321c:	2821883a 	mov	r16,r5
   23220:	10000b26 	beq	r2,zero,23250 <__smakebuf_r+0x50>
   23224:	288010c4 	addi	r2,r5,67
   23228:	28800015 	stw	r2,0(r5)
   2322c:	28800415 	stw	r2,16(r5)
   23230:	00800044 	movi	r2,1
   23234:	28800515 	stw	r2,20(r5)
   23238:	dfc00517 	ldw	ra,20(sp)
   2323c:	dc800417 	ldw	r18,16(sp)
   23240:	dc400317 	ldw	r17,12(sp)
   23244:	dc000217 	ldw	r16,8(sp)
   23248:	dec00604 	addi	sp,sp,24
   2324c:	f800283a 	ret
   23250:	d9c00104 	addi	r7,sp,4
   23254:	d80d883a 	mov	r6,sp
   23258:	2023883a 	mov	r17,r4
   2325c:	00231680 	call	23168 <__swhatbuf_r>
   23260:	d9000117 	ldw	r4,4(sp)
   23264:	1025883a 	mov	r18,r2
   23268:	2000131e 	bne	r4,zero,232b8 <__smakebuf_r+0xb8>
   2326c:	d9400017 	ldw	r5,0(sp)
   23270:	8809883a 	mov	r4,r17
   23274:	00233600 	call	23360 <_malloc_r>
   23278:	10001c26 	beq	r2,zero,232ec <__smakebuf_r+0xec>
   2327c:	010000f4 	movhi	r4,3
   23280:	21207904 	addi	r4,r4,-32284
   23284:	80c0030b 	ldhu	r3,12(r16)
   23288:	89000f15 	stw	r4,60(r17)
   2328c:	80800015 	stw	r2,0(r16)
   23290:	80800415 	stw	r2,16(r16)
   23294:	d8800017 	ldw	r2,0(sp)
   23298:	d9400117 	ldw	r5,4(sp)
   2329c:	18c02014 	ori	r3,r3,128
   232a0:	80c0030d 	sth	r3,12(r16)
   232a4:	80800515 	stw	r2,20(r16)
   232a8:	28001d1e 	bne	r5,zero,23320 <__smakebuf_r+0x120>
   232ac:	90c6b03a 	or	r3,r18,r3
   232b0:	80c0030d 	sth	r3,12(r16)
   232b4:	003fe006 	br	23238 <__smakebuf_r+0x38>
   232b8:	8140038f 	ldh	r5,14(r16)
   232bc:	8809883a 	mov	r4,r17
   232c0:	00290f80 	call	290f8 <_isatty_r>
   232c4:	103fe926 	beq	r2,zero,2326c <__smakebuf_r+0x6c>
   232c8:	8080030b 	ldhu	r2,12(r16)
   232cc:	80c010c4 	addi	r3,r16,67
   232d0:	80c00015 	stw	r3,0(r16)
   232d4:	10800054 	ori	r2,r2,1
   232d8:	8080030d 	sth	r2,12(r16)
   232dc:	00800044 	movi	r2,1
   232e0:	80c00415 	stw	r3,16(r16)
   232e4:	80800515 	stw	r2,20(r16)
   232e8:	003fe006 	br	2326c <__smakebuf_r+0x6c>
   232ec:	8080030b 	ldhu	r2,12(r16)
   232f0:	10c0800c 	andi	r3,r2,512
   232f4:	183fd01e 	bne	r3,zero,23238 <__smakebuf_r+0x38>
   232f8:	00ffff04 	movi	r3,-4
   232fc:	10c4703a 	and	r2,r2,r3
   23300:	10800094 	ori	r2,r2,2
   23304:	80c010c4 	addi	r3,r16,67
   23308:	8080030d 	sth	r2,12(r16)
   2330c:	00800044 	movi	r2,1
   23310:	80c00015 	stw	r3,0(r16)
   23314:	80c00415 	stw	r3,16(r16)
   23318:	80800515 	stw	r2,20(r16)
   2331c:	003fc606 	br	23238 <__smakebuf_r+0x38>
   23320:	8140038f 	ldh	r5,14(r16)
   23324:	8809883a 	mov	r4,r17
   23328:	00290f80 	call	290f8 <_isatty_r>
   2332c:	80c0030b 	ldhu	r3,12(r16)
   23330:	103fde26 	beq	r2,zero,232ac <__smakebuf_r+0xac>
   23334:	18ffff0c 	andi	r3,r3,65532
   23338:	18c00054 	ori	r3,r3,1
   2333c:	003fdb06 	br	232ac <__smakebuf_r+0xac>

00023340 <malloc>:
   23340:	008000f4 	movhi	r2,3
   23344:	200b883a 	mov	r5,r4
   23348:	11190c17 	ldw	r4,25648(r2)
   2334c:	00233601 	jmpi	23360 <_malloc_r>

00023350 <free>:
   23350:	008000f4 	movhi	r2,3
   23354:	200b883a 	mov	r5,r4
   23358:	11190c17 	ldw	r4,25648(r2)
   2335c:	00286f41 	jmpi	286f4 <_free_r>

00023360 <_malloc_r>:
   23360:	defff604 	addi	sp,sp,-40
   23364:	dc400115 	stw	r17,4(sp)
   23368:	2c4002c4 	addi	r17,r5,11
   2336c:	dc800215 	stw	r18,8(sp)
   23370:	dfc00915 	stw	ra,36(sp)
   23374:	df000815 	stw	fp,32(sp)
   23378:	ddc00715 	stw	r23,28(sp)
   2337c:	dd800615 	stw	r22,24(sp)
   23380:	dd400515 	stw	r21,20(sp)
   23384:	dd000415 	stw	r20,16(sp)
   23388:	dcc00315 	stw	r19,12(sp)
   2338c:	dc000015 	stw	r16,0(sp)
   23390:	888005e8 	cmpgeui	r2,r17,23
   23394:	2025883a 	mov	r18,r4
   23398:	10001b1e 	bne	r2,zero,23408 <_malloc_r+0xa8>
   2339c:	29400468 	cmpgeui	r5,r5,17
   233a0:	2800821e 	bne	r5,zero,235ac <_malloc_r+0x24c>
   233a4:	00307f40 	call	307f4 <__malloc_lock>
   233a8:	04400404 	movi	r17,16
   233ac:	01c00084 	movi	r7,2
   233b0:	00800604 	movi	r2,24
   233b4:	04c000f4 	movhi	r19,3
   233b8:	9cd2f804 	addi	r19,r19,19424
   233bc:	9885883a 	add	r2,r19,r2
   233c0:	14000117 	ldw	r16,4(r2)
   233c4:	10fffe04 	addi	r3,r2,-8
   233c8:	80c08b26 	beq	r16,r3,235f8 <_malloc_r+0x298>
   233cc:	80800117 	ldw	r2,4(r16)
   233d0:	81000317 	ldw	r4,12(r16)
   233d4:	00ffff04 	movi	r3,-4
   233d8:	10c4703a 	and	r2,r2,r3
   233dc:	81400217 	ldw	r5,8(r16)
   233e0:	8085883a 	add	r2,r16,r2
   233e4:	10c00117 	ldw	r3,4(r2)
   233e8:	29000315 	stw	r4,12(r5)
   233ec:	21400215 	stw	r5,8(r4)
   233f0:	18c00054 	ori	r3,r3,1
   233f4:	10c00115 	stw	r3,4(r2)
   233f8:	9009883a 	mov	r4,r18
   233fc:	00308180 	call	30818 <__malloc_unlock>
   23400:	80800204 	addi	r2,r16,8
   23404:	00006c06 	br	235b8 <_malloc_r+0x258>
   23408:	00bffe04 	movi	r2,-8
   2340c:	88a2703a 	and	r17,r17,r2
   23410:	88006616 	blt	r17,zero,235ac <_malloc_r+0x24c>
   23414:	89406536 	bltu	r17,r5,235ac <_malloc_r+0x24c>
   23418:	00307f40 	call	307f4 <__malloc_lock>
   2341c:	88807e28 	cmpgeui	r2,r17,504
   23420:	10012226 	beq	r2,zero,238ac <_malloc_r+0x54c>
   23424:	8804d27a 	srli	r2,r17,9
   23428:	10006f26 	beq	r2,zero,235e8 <_malloc_r+0x288>
   2342c:	10c00168 	cmpgeui	r3,r2,5
   23430:	1800fe1e 	bne	r3,zero,2382c <_malloc_r+0x4cc>
   23434:	8804d1ba 	srli	r2,r17,6
   23438:	11c00e44 	addi	r7,r2,57
   2343c:	380890fa 	slli	r4,r7,3
   23440:	12000e04 	addi	r8,r2,56
   23444:	04c000f4 	movhi	r19,3
   23448:	9cd2f804 	addi	r19,r19,19424
   2344c:	9909883a 	add	r4,r19,r4
   23450:	24000117 	ldw	r16,4(r4)
   23454:	213ffe04 	addi	r4,r4,-8
   23458:	24000b26 	beq	r4,r16,23488 <_malloc_r+0x128>
   2345c:	01bfff04 	movi	r6,-4
   23460:	00000306 	br	23470 <_malloc_r+0x110>
   23464:	1800d60e 	bge	r3,zero,237c0 <_malloc_r+0x460>
   23468:	84000317 	ldw	r16,12(r16)
   2346c:	24000626 	beq	r4,r16,23488 <_malloc_r+0x128>
   23470:	80800117 	ldw	r2,4(r16)
   23474:	1184703a 	and	r2,r2,r6
   23478:	1447c83a 	sub	r3,r2,r17
   2347c:	19400408 	cmpgei	r5,r3,16
   23480:	283ff826 	beq	r5,zero,23464 <_malloc_r+0x104>
   23484:	400f883a 	mov	r7,r8
   23488:	9c000417 	ldw	r16,16(r19)
   2348c:	024000f4 	movhi	r9,3
   23490:	4a52fa04 	addi	r9,r9,19432
   23494:	82405f26 	beq	r16,r9,23614 <_malloc_r+0x2b4>
   23498:	80c00117 	ldw	r3,4(r16)
   2349c:	00bfff04 	movi	r2,-4
   234a0:	1884703a 	and	r2,r3,r2
   234a4:	1447c83a 	sub	r3,r2,r17
   234a8:	19000410 	cmplti	r4,r3,16
   234ac:	20010a26 	beq	r4,zero,238d8 <_malloc_r+0x578>
   234b0:	9a400515 	stw	r9,20(r19)
   234b4:	9a400415 	stw	r9,16(r19)
   234b8:	1800ff0e 	bge	r3,zero,238b8 <_malloc_r+0x558>
   234bc:	10c08028 	cmpgeui	r3,r2,512
   234c0:	1800c11e 	bne	r3,zero,237c8 <_malloc_r+0x468>
   234c4:	1006d0fa 	srli	r3,r2,3
   234c8:	1008d17a 	srli	r4,r2,5
   234cc:	00800044 	movi	r2,1
   234d0:	18c00044 	addi	r3,r3,1
   234d4:	180690fa 	slli	r3,r3,3
   234d8:	99400117 	ldw	r5,4(r19)
   234dc:	1104983a 	sll	r2,r2,r4
   234e0:	98c7883a 	add	r3,r19,r3
   234e4:	19000017 	ldw	r4,0(r3)
   234e8:	1144b03a 	or	r2,r2,r5
   234ec:	197ffe04 	addi	r5,r3,-8
   234f0:	81400315 	stw	r5,12(r16)
   234f4:	81000215 	stw	r4,8(r16)
   234f8:	98800115 	stw	r2,4(r19)
   234fc:	1c000015 	stw	r16,0(r3)
   23500:	24000315 	stw	r16,12(r4)
   23504:	3807d0ba 	srai	r3,r7,2
   23508:	01000044 	movi	r4,1
   2350c:	20c8983a 	sll	r4,r4,r3
   23510:	11004536 	bltu	r2,r4,23628 <_malloc_r+0x2c8>
   23514:	2086703a 	and	r3,r4,r2
   23518:	18000a1e 	bne	r3,zero,23544 <_malloc_r+0x1e4>
   2351c:	00ffff04 	movi	r3,-4
   23520:	2109883a 	add	r4,r4,r4
   23524:	38ce703a 	and	r7,r7,r3
   23528:	2086703a 	and	r3,r4,r2
   2352c:	39c00104 	addi	r7,r7,4
   23530:	1800041e 	bne	r3,zero,23544 <_malloc_r+0x1e4>
   23534:	2109883a 	add	r4,r4,r4
   23538:	2086703a 	and	r3,r4,r2
   2353c:	39c00104 	addi	r7,r7,4
   23540:	183ffc26 	beq	r3,zero,23534 <_malloc_r+0x1d4>
   23544:	02bfff04 	movi	r10,-4
   23548:	381690fa 	slli	r11,r7,3
   2354c:	3819883a 	mov	r12,r7
   23550:	9ad7883a 	add	r11,r19,r11
   23554:	5811883a 	mov	r8,r11
   23558:	40800317 	ldw	r2,12(r8)
   2355c:	4080bc26 	beq	r8,r2,23850 <_malloc_r+0x4f0>
   23560:	10c00117 	ldw	r3,4(r2)
   23564:	1021883a 	mov	r16,r2
   23568:	10800317 	ldw	r2,12(r2)
   2356c:	1a86703a 	and	r3,r3,r10
   23570:	1c4bc83a 	sub	r5,r3,r17
   23574:	29800410 	cmplti	r6,r5,16
   23578:	3000ba26 	beq	r6,zero,23864 <_malloc_r+0x504>
   2357c:	283ff716 	blt	r5,zero,2355c <_malloc_r+0x1fc>
   23580:	80c7883a 	add	r3,r16,r3
   23584:	19400117 	ldw	r5,4(r3)
   23588:	81800217 	ldw	r6,8(r16)
   2358c:	9009883a 	mov	r4,r18
   23590:	29400054 	ori	r5,r5,1
   23594:	19400115 	stw	r5,4(r3)
   23598:	30800315 	stw	r2,12(r6)
   2359c:	11800215 	stw	r6,8(r2)
   235a0:	00308180 	call	30818 <__malloc_unlock>
   235a4:	80800204 	addi	r2,r16,8
   235a8:	00000306 	br	235b8 <_malloc_r+0x258>
   235ac:	00800304 	movi	r2,12
   235b0:	90800015 	stw	r2,0(r18)
   235b4:	0005883a 	mov	r2,zero
   235b8:	dfc00917 	ldw	ra,36(sp)
   235bc:	df000817 	ldw	fp,32(sp)
   235c0:	ddc00717 	ldw	r23,28(sp)
   235c4:	dd800617 	ldw	r22,24(sp)
   235c8:	dd400517 	ldw	r21,20(sp)
   235cc:	dd000417 	ldw	r20,16(sp)
   235d0:	dcc00317 	ldw	r19,12(sp)
   235d4:	dc800217 	ldw	r18,8(sp)
   235d8:	dc400117 	ldw	r17,4(sp)
   235dc:	dc000017 	ldw	r16,0(sp)
   235e0:	dec00a04 	addi	sp,sp,40
   235e4:	f800283a 	ret
   235e8:	01008004 	movi	r4,512
   235ec:	01c01004 	movi	r7,64
   235f0:	02000fc4 	movi	r8,63
   235f4:	003f9306 	br	23444 <_malloc_r+0xe4>
   235f8:	14000317 	ldw	r16,12(r2)
   235fc:	39c00084 	addi	r7,r7,2
   23600:	143f721e 	bne	r2,r16,233cc <_malloc_r+0x6c>
   23604:	9c000417 	ldw	r16,16(r19)
   23608:	024000f4 	movhi	r9,3
   2360c:	4a52fa04 	addi	r9,r9,19432
   23610:	827fa11e 	bne	r16,r9,23498 <_malloc_r+0x138>
   23614:	3807d0ba 	srai	r3,r7,2
   23618:	01000044 	movi	r4,1
   2361c:	98800117 	ldw	r2,4(r19)
   23620:	20c8983a 	sll	r4,r4,r3
   23624:	113fbb2e 	bgeu	r2,r4,23514 <_malloc_r+0x1b4>
   23628:	9c000217 	ldw	r16,8(r19)
   2362c:	00bfff04 	movi	r2,-4
   23630:	85400117 	ldw	r21,4(r16)
   23634:	a8ac703a 	and	r22,r21,r2
   23638:	b4400336 	bltu	r22,r17,23648 <_malloc_r+0x2e8>
   2363c:	b445c83a 	sub	r2,r22,r17
   23640:	10c00408 	cmpgei	r3,r2,16
   23644:	1800541e 	bne	r3,zero,23798 <_malloc_r+0x438>
   23648:	008000f4 	movhi	r2,3
   2364c:	10990d17 	ldw	r2,25652(r2)
   23650:	00c00134 	movhi	r3,4
   23654:	1d623017 	ldw	r21,-30528(r3)
   23658:	10bfffd8 	cmpnei	r2,r2,-1
   2365c:	85b9883a 	add	fp,r16,r22
   23660:	8d6b883a 	add	r21,r17,r21
   23664:	1000d626 	beq	r2,zero,239c0 <_malloc_r+0x660>
   23668:	ad4403c4 	addi	r21,r21,4111
   2366c:	00bc0004 	movi	r2,-4096
   23670:	a8aa703a 	and	r21,r21,r2
   23674:	a80b883a 	mov	r5,r21
   23678:	9009883a 	mov	r4,r18
   2367c:	0023fe00 	call	23fe0 <_sbrk_r>
   23680:	102f883a 	mov	r23,r2
   23684:	10bfffd8 	cmpnei	r2,r2,-1
   23688:	1000a826 	beq	r2,zero,2392c <_malloc_r+0x5cc>
   2368c:	bf00a636 	bltu	r23,fp,23928 <_malloc_r+0x5c8>
   23690:	00800134 	movhi	r2,4
   23694:	15223917 	ldw	r20,-30492(r2)
   23698:	ad29883a 	add	r20,r21,r20
   2369c:	15223915 	stw	r20,-30492(r2)
   236a0:	a007883a 	mov	r3,r20
   236a4:	e5c0ec26 	beq	fp,r23,23a58 <_malloc_r+0x6f8>
   236a8:	008000f4 	movhi	r2,3
   236ac:	10990d17 	ldw	r2,25652(r2)
   236b0:	10bfffd8 	cmpnei	r2,r2,-1
   236b4:	1000ef26 	beq	r2,zero,23a74 <_malloc_r+0x714>
   236b8:	bf39c83a 	sub	fp,r23,fp
   236bc:	e0c7883a 	add	r3,fp,r3
   236c0:	00800134 	movhi	r2,4
   236c4:	10e23915 	stw	r3,-30492(r2)
   236c8:	bf0001cc 	andi	fp,r23,7
   236cc:	e000c526 	beq	fp,zero,239e4 <_malloc_r+0x684>
   236d0:	bf2fc83a 	sub	r23,r23,fp
   236d4:	bdc00204 	addi	r23,r23,8
   236d8:	05040204 	movi	r20,4104
   236dc:	a729c83a 	sub	r20,r20,fp
   236e0:	bd6b883a 	add	r21,r23,r21
   236e4:	a569c83a 	sub	r20,r20,r21
   236e8:	a503ffcc 	andi	r20,r20,4095
   236ec:	a00b883a 	mov	r5,r20
   236f0:	9009883a 	mov	r4,r18
   236f4:	0023fe00 	call	23fe0 <_sbrk_r>
   236f8:	10ffffe0 	cmpeqi	r3,r2,-1
   236fc:	1800f31e 	bne	r3,zero,23acc <_malloc_r+0x76c>
   23700:	15c5c83a 	sub	r2,r2,r23
   23704:	152b883a 	add	r21,r2,r20
   23708:	00800134 	movhi	r2,4
   2370c:	11623917 	ldw	r5,-30492(r2)
   23710:	9dc00215 	stw	r23,8(r19)
   23714:	ad400054 	ori	r21,r21,1
   23718:	a169883a 	add	r20,r20,r5
   2371c:	15223915 	stw	r20,-30492(r2)
   23720:	bd400115 	stw	r21,4(r23)
   23724:	84c0d626 	beq	r16,r19,23a80 <_malloc_r+0x720>
   23728:	b0800428 	cmpgeui	r2,r22,16
   2372c:	1000d626 	beq	r2,zero,23a88 <_malloc_r+0x728>
   23730:	80c00117 	ldw	r3,4(r16)
   23734:	013ffe04 	movi	r4,-8
   23738:	b0bffd04 	addi	r2,r22,-12
   2373c:	1104703a 	and	r2,r2,r4
   23740:	18c0004c 	andi	r3,r3,1
   23744:	1886b03a 	or	r3,r3,r2
   23748:	80c00115 	stw	r3,4(r16)
   2374c:	01000144 	movi	r4,5
   23750:	8087883a 	add	r3,r16,r2
   23754:	19000115 	stw	r4,4(r3)
   23758:	19000215 	stw	r4,8(r3)
   2375c:	10800428 	cmpgeui	r2,r2,16
   23760:	1000df1e 	bne	r2,zero,23ae0 <_malloc_r+0x780>
   23764:	bd400117 	ldw	r21,4(r23)
   23768:	b821883a 	mov	r16,r23
   2376c:	00800134 	movhi	r2,4
   23770:	10a22f17 	ldw	r2,-30532(r2)
   23774:	1500022e 	bgeu	r2,r20,23780 <_malloc_r+0x420>
   23778:	00800134 	movhi	r2,4
   2377c:	15222f15 	stw	r20,-30532(r2)
   23780:	00800134 	movhi	r2,4
   23784:	10a22e17 	ldw	r2,-30536(r2)
   23788:	15006a2e 	bgeu	r2,r20,23934 <_malloc_r+0x5d4>
   2378c:	00800134 	movhi	r2,4
   23790:	15222e15 	stw	r20,-30536(r2)
   23794:	00006706 	br	23934 <_malloc_r+0x5d4>
   23798:	88c00054 	ori	r3,r17,1
   2379c:	80c00115 	stw	r3,4(r16)
   237a0:	8463883a 	add	r17,r16,r17
   237a4:	10800054 	ori	r2,r2,1
   237a8:	9c400215 	stw	r17,8(r19)
   237ac:	88800115 	stw	r2,4(r17)
   237b0:	9009883a 	mov	r4,r18
   237b4:	00308180 	call	30818 <__malloc_unlock>
   237b8:	80800204 	addi	r2,r16,8
   237bc:	003f7e06 	br	235b8 <_malloc_r+0x258>
   237c0:	81000317 	ldw	r4,12(r16)
   237c4:	003f0506 	br	233dc <_malloc_r+0x7c>
   237c8:	1006d27a 	srli	r3,r2,9
   237cc:	19000168 	cmpgeui	r4,r3,5
   237d0:	20005026 	beq	r4,zero,23914 <_malloc_r+0x5b4>
   237d4:	19000568 	cmpgeui	r4,r3,21
   237d8:	20008c1e 	bne	r4,zero,23a0c <_malloc_r+0x6ac>
   237dc:	19401704 	addi	r5,r3,92
   237e0:	280a90fa 	slli	r5,r5,3
   237e4:	190016c4 	addi	r4,r3,91
   237e8:	994b883a 	add	r5,r19,r5
   237ec:	28c00017 	ldw	r3,0(r5)
   237f0:	297ffe04 	addi	r5,r5,-8
   237f4:	28c07426 	beq	r5,r3,239c8 <_malloc_r+0x668>
   237f8:	01bfff04 	movi	r6,-4
   237fc:	19000117 	ldw	r4,4(r3)
   23800:	2188703a 	and	r4,r4,r6
   23804:	1100022e 	bgeu	r2,r4,23810 <_malloc_r+0x4b0>
   23808:	18c00217 	ldw	r3,8(r3)
   2380c:	28fffb1e 	bne	r5,r3,237fc <_malloc_r+0x49c>
   23810:	19400317 	ldw	r5,12(r3)
   23814:	98800117 	ldw	r2,4(r19)
   23818:	81400315 	stw	r5,12(r16)
   2381c:	80c00215 	stw	r3,8(r16)
   23820:	2c000215 	stw	r16,8(r5)
   23824:	1c000315 	stw	r16,12(r3)
   23828:	003f3606 	br	23504 <_malloc_r+0x1a4>
   2382c:	10c00568 	cmpgeui	r3,r2,21
   23830:	18004a26 	beq	r3,zero,2395c <_malloc_r+0x5fc>
   23834:	10c01568 	cmpgeui	r3,r2,85
   23838:	18007b1e 	bne	r3,zero,23a28 <_malloc_r+0x6c8>
   2383c:	8804d33a 	srli	r2,r17,12
   23840:	11c01bc4 	addi	r7,r2,111
   23844:	380890fa 	slli	r4,r7,3
   23848:	12001b84 	addi	r8,r2,110
   2384c:	003efd06 	br	23444 <_malloc_r+0xe4>
   23850:	63000044 	addi	r12,r12,1
   23854:	608000cc 	andi	r2,r12,3
   23858:	42000204 	addi	r8,r8,8
   2385c:	103f3e1e 	bne	r2,zero,23558 <_malloc_r+0x1f8>
   23860:	00004506 	br	23978 <_malloc_r+0x618>
   23864:	81000217 	ldw	r4,8(r16)
   23868:	89800054 	ori	r6,r17,1
   2386c:	81800115 	stw	r6,4(r16)
   23870:	20800315 	stw	r2,12(r4)
   23874:	11000215 	stw	r4,8(r2)
   23878:	8463883a 	add	r17,r16,r17
   2387c:	9c400515 	stw	r17,20(r19)
   23880:	9c400415 	stw	r17,16(r19)
   23884:	28800054 	ori	r2,r5,1
   23888:	88800115 	stw	r2,4(r17)
   2388c:	8a400315 	stw	r9,12(r17)
   23890:	8a400215 	stw	r9,8(r17)
   23894:	80c7883a 	add	r3,r16,r3
   23898:	19400015 	stw	r5,0(r3)
   2389c:	9009883a 	mov	r4,r18
   238a0:	00308180 	call	30818 <__malloc_unlock>
   238a4:	80800204 	addi	r2,r16,8
   238a8:	003f4306 	br	235b8 <_malloc_r+0x258>
   238ac:	880ed0fa 	srli	r7,r17,3
   238b0:	88800204 	addi	r2,r17,8
   238b4:	003ebf06 	br	233b4 <_malloc_r+0x54>
   238b8:	8085883a 	add	r2,r16,r2
   238bc:	10c00117 	ldw	r3,4(r2)
   238c0:	9009883a 	mov	r4,r18
   238c4:	18c00054 	ori	r3,r3,1
   238c8:	10c00115 	stw	r3,4(r2)
   238cc:	00308180 	call	30818 <__malloc_unlock>
   238d0:	80800204 	addi	r2,r16,8
   238d4:	003f3806 	br	235b8 <_malloc_r+0x258>
   238d8:	89000054 	ori	r4,r17,1
   238dc:	81000115 	stw	r4,4(r16)
   238e0:	8463883a 	add	r17,r16,r17
   238e4:	9c400515 	stw	r17,20(r19)
   238e8:	9c400415 	stw	r17,16(r19)
   238ec:	19000054 	ori	r4,r3,1
   238f0:	89000115 	stw	r4,4(r17)
   238f4:	8085883a 	add	r2,r16,r2
   238f8:	8a400315 	stw	r9,12(r17)
   238fc:	8a400215 	stw	r9,8(r17)
   23900:	10c00015 	stw	r3,0(r2)
   23904:	9009883a 	mov	r4,r18
   23908:	00308180 	call	30818 <__malloc_unlock>
   2390c:	80800204 	addi	r2,r16,8
   23910:	003f2906 	br	235b8 <_malloc_r+0x258>
   23914:	1006d1ba 	srli	r3,r2,6
   23918:	19400e44 	addi	r5,r3,57
   2391c:	280a90fa 	slli	r5,r5,3
   23920:	19000e04 	addi	r4,r3,56
   23924:	003fb006 	br	237e8 <_malloc_r+0x488>
   23928:	84c04626 	beq	r16,r19,23a44 <_malloc_r+0x6e4>
   2392c:	9c000217 	ldw	r16,8(r19)
   23930:	85400117 	ldw	r21,4(r16)
   23934:	00bfff04 	movi	r2,-4
   23938:	a8aa703a 	and	r21,r21,r2
   2393c:	ac45c83a 	sub	r2,r21,r17
   23940:	ac400236 	bltu	r21,r17,2394c <_malloc_r+0x5ec>
   23944:	10c00408 	cmpgei	r3,r2,16
   23948:	183f931e 	bne	r3,zero,23798 <_malloc_r+0x438>
   2394c:	9009883a 	mov	r4,r18
   23950:	00308180 	call	30818 <__malloc_unlock>
   23954:	0005883a 	mov	r2,zero
   23958:	003f1706 	br	235b8 <_malloc_r+0x258>
   2395c:	11c01704 	addi	r7,r2,92
   23960:	380890fa 	slli	r4,r7,3
   23964:	120016c4 	addi	r8,r2,91
   23968:	003eb606 	br	23444 <_malloc_r+0xe4>
   2396c:	58800217 	ldw	r2,8(r11)
   23970:	39ffffc4 	addi	r7,r7,-1
   23974:	12c0701e 	bne	r2,r11,23b38 <_malloc_r+0x7d8>
   23978:	388000cc 	andi	r2,r7,3
   2397c:	5afffe04 	addi	r11,r11,-8
   23980:	103ffa1e 	bne	r2,zero,2396c <_malloc_r+0x60c>
   23984:	98c00117 	ldw	r3,4(r19)
   23988:	0104303a 	nor	r2,zero,r4
   2398c:	10c4703a 	and	r2,r2,r3
   23990:	98800115 	stw	r2,4(r19)
   23994:	2109883a 	add	r4,r4,r4
   23998:	113f2336 	bltu	r2,r4,23628 <_malloc_r+0x2c8>
   2399c:	203f2226 	beq	r4,zero,23628 <_malloc_r+0x2c8>
   239a0:	2086703a 	and	r3,r4,r2
   239a4:	1800041e 	bne	r3,zero,239b8 <_malloc_r+0x658>
   239a8:	2109883a 	add	r4,r4,r4
   239ac:	2086703a 	and	r3,r4,r2
   239b0:	63000104 	addi	r12,r12,4
   239b4:	183ffc26 	beq	r3,zero,239a8 <_malloc_r+0x648>
   239b8:	600f883a 	mov	r7,r12
   239bc:	003ee206 	br	23548 <_malloc_r+0x1e8>
   239c0:	ad400404 	addi	r21,r21,16
   239c4:	003f2b06 	br	23674 <_malloc_r+0x314>
   239c8:	2009d0ba 	srai	r4,r4,2
   239cc:	00800044 	movi	r2,1
   239d0:	99800117 	ldw	r6,4(r19)
   239d4:	1104983a 	sll	r2,r2,r4
   239d8:	1184b03a 	or	r2,r2,r6
   239dc:	98800115 	stw	r2,4(r19)
   239e0:	003f8d06 	br	23818 <_malloc_r+0x4b8>
   239e4:	bd69883a 	add	r20,r23,r21
   239e8:	0529c83a 	sub	r20,zero,r20
   239ec:	a503ffcc 	andi	r20,r20,4095
   239f0:	a00b883a 	mov	r5,r20
   239f4:	9009883a 	mov	r4,r18
   239f8:	0023fe00 	call	23fe0 <_sbrk_r>
   239fc:	10ffffe0 	cmpeqi	r3,r2,-1
   23a00:	183f3f26 	beq	r3,zero,23700 <_malloc_r+0x3a0>
   23a04:	0029883a 	mov	r20,zero
   23a08:	003f3f06 	br	23708 <_malloc_r+0x3a8>
   23a0c:	19001568 	cmpgeui	r4,r3,85
   23a10:	2000201e 	bne	r4,zero,23a94 <_malloc_r+0x734>
   23a14:	1006d33a 	srli	r3,r2,12
   23a18:	19401bc4 	addi	r5,r3,111
   23a1c:	280a90fa 	slli	r5,r5,3
   23a20:	19001b84 	addi	r4,r3,110
   23a24:	003f7006 	br	237e8 <_malloc_r+0x488>
   23a28:	10c05568 	cmpgeui	r3,r2,341
   23a2c:	1800201e 	bne	r3,zero,23ab0 <_malloc_r+0x750>
   23a30:	8804d3fa 	srli	r2,r17,15
   23a34:	11c01e04 	addi	r7,r2,120
   23a38:	380890fa 	slli	r4,r7,3
   23a3c:	12001dc4 	addi	r8,r2,119
   23a40:	003e8006 	br	23444 <_malloc_r+0xe4>
   23a44:	00800134 	movhi	r2,4
   23a48:	10e23917 	ldw	r3,-30492(r2)
   23a4c:	a8c7883a 	add	r3,r21,r3
   23a50:	10e23915 	stw	r3,-30492(r2)
   23a54:	003f1406 	br	236a8 <_malloc_r+0x348>
   23a58:	e083ffcc 	andi	r2,fp,4095
   23a5c:	103f121e 	bne	r2,zero,236a8 <_malloc_r+0x348>
   23a60:	9c000217 	ldw	r16,8(r19)
   23a64:	b56b883a 	add	r21,r22,r21
   23a68:	ad400054 	ori	r21,r21,1
   23a6c:	85400115 	stw	r21,4(r16)
   23a70:	003f3e06 	br	2376c <_malloc_r+0x40c>
   23a74:	008000f4 	movhi	r2,3
   23a78:	15d90d15 	stw	r23,25652(r2)
   23a7c:	003f1206 	br	236c8 <_malloc_r+0x368>
   23a80:	b821883a 	mov	r16,r23
   23a84:	003f3906 	br	2376c <_malloc_r+0x40c>
   23a88:	00800044 	movi	r2,1
   23a8c:	b8800115 	stw	r2,4(r23)
   23a90:	003fae06 	br	2394c <_malloc_r+0x5ec>
   23a94:	19005568 	cmpgeui	r4,r3,341
   23a98:	2000191e 	bne	r4,zero,23b00 <_malloc_r+0x7a0>
   23a9c:	1006d3fa 	srli	r3,r2,15
   23aa0:	19401e04 	addi	r5,r3,120
   23aa4:	280a90fa 	slli	r5,r5,3
   23aa8:	19001dc4 	addi	r4,r3,119
   23aac:	003f4e06 	br	237e8 <_malloc_r+0x488>
   23ab0:	10815568 	cmpgeui	r2,r2,1365
   23ab4:	1000191e 	bne	r2,zero,23b1c <_malloc_r+0x7bc>
   23ab8:	8804d4ba 	srli	r2,r17,18
   23abc:	11c01f44 	addi	r7,r2,125
   23ac0:	380890fa 	slli	r4,r7,3
   23ac4:	12001f04 	addi	r8,r2,124
   23ac8:	003e5e06 	br	23444 <_malloc_r+0xe4>
   23acc:	e73ffe04 	addi	fp,fp,-8
   23ad0:	af2b883a 	add	r21,r21,fp
   23ad4:	adebc83a 	sub	r21,r21,r23
   23ad8:	0029883a 	mov	r20,zero
   23adc:	003f0a06 	br	23708 <_malloc_r+0x3a8>
   23ae0:	81400204 	addi	r5,r16,8
   23ae4:	9009883a 	mov	r4,r18
   23ae8:	00286f40 	call	286f4 <_free_r>
   23aec:	9c000217 	ldw	r16,8(r19)
   23af0:	00800134 	movhi	r2,4
   23af4:	15223917 	ldw	r20,-30492(r2)
   23af8:	85400117 	ldw	r21,4(r16)
   23afc:	003f1b06 	br	2376c <_malloc_r+0x40c>
   23b00:	18c15568 	cmpgeui	r3,r3,1365
   23b04:	1800091e 	bne	r3,zero,23b2c <_malloc_r+0x7cc>
   23b08:	1006d4ba 	srli	r3,r2,18
   23b0c:	19401f44 	addi	r5,r3,125
   23b10:	280a90fa 	slli	r5,r5,3
   23b14:	19001f04 	addi	r4,r3,124
   23b18:	003f3306 	br	237e8 <_malloc_r+0x488>
   23b1c:	0100fe04 	movi	r4,1016
   23b20:	01c01fc4 	movi	r7,127
   23b24:	02001f84 	movi	r8,126
   23b28:	003e4606 	br	23444 <_malloc_r+0xe4>
   23b2c:	0140fe04 	movi	r5,1016
   23b30:	01001f84 	movi	r4,126
   23b34:	003f2c06 	br	237e8 <_malloc_r+0x488>
   23b38:	98800117 	ldw	r2,4(r19)
   23b3c:	003f9506 	br	23994 <_malloc_r+0x634>

00023b40 <memset>:
   23b40:	20c000cc 	andi	r3,r4,3
   23b44:	2005883a 	mov	r2,r4
   23b48:	18003626 	beq	r3,zero,23c24 <memset+0xe4>
   23b4c:	31ffffc4 	addi	r7,r6,-1
   23b50:	30003326 	beq	r6,zero,23c20 <memset+0xe0>
   23b54:	2811883a 	mov	r8,r5
   23b58:	2007883a 	mov	r3,r4
   23b5c:	00000306 	br	23b6c <memset+0x2c>
   23b60:	39ffffc4 	addi	r7,r7,-1
   23b64:	39bfffe0 	cmpeqi	r6,r7,-1
   23b68:	30002d1e 	bne	r6,zero,23c20 <memset+0xe0>
   23b6c:	18c00044 	addi	r3,r3,1
   23b70:	198000cc 	andi	r6,r3,3
   23b74:	1a3fffc5 	stb	r8,-1(r3)
   23b78:	303ff91e 	bne	r6,zero,23b60 <memset+0x20>
   23b7c:	39000130 	cmpltui	r4,r7,4
   23b80:	2000221e 	bne	r4,zero,23c0c <memset+0xcc>
   23b84:	29003fcc 	andi	r4,r5,255
   23b88:	200c923a 	slli	r6,r4,8
   23b8c:	3a000430 	cmpltui	r8,r7,16
   23b90:	3108b03a 	or	r4,r6,r4
   23b94:	200c943a 	slli	r6,r4,16
   23b98:	310cb03a 	or	r6,r6,r4
   23b9c:	40000e1e 	bne	r8,zero,23bd8 <memset+0x98>
   23ba0:	393ffc04 	addi	r4,r7,-16
   23ba4:	2008d13a 	srli	r4,r4,4
   23ba8:	21000044 	addi	r4,r4,1
   23bac:	2008913a 	slli	r4,r4,4
   23bb0:	1909883a 	add	r4,r3,r4
   23bb4:	19800015 	stw	r6,0(r3)
   23bb8:	19800115 	stw	r6,4(r3)
   23bbc:	19800215 	stw	r6,8(r3)
   23bc0:	19800315 	stw	r6,12(r3)
   23bc4:	18c00404 	addi	r3,r3,16
   23bc8:	20fffa1e 	bne	r4,r3,23bb4 <memset+0x74>
   23bcc:	3900030c 	andi	r4,r7,12
   23bd0:	39c003cc 	andi	r7,r7,15
   23bd4:	20000d26 	beq	r4,zero,23c0c <memset+0xcc>
   23bd8:	1811883a 	mov	r8,r3
   23bdc:	42000104 	addi	r8,r8,4
   23be0:	3a09c83a 	sub	r4,r7,r8
   23be4:	1909883a 	add	r4,r3,r4
   23be8:	21000128 	cmpgeui	r4,r4,4
   23bec:	41bfff15 	stw	r6,-4(r8)
   23bf0:	203ffa1e 	bne	r4,zero,23bdc <memset+0x9c>
   23bf4:	393fff04 	addi	r4,r7,-4
   23bf8:	2008d0ba 	srli	r4,r4,2
   23bfc:	39c000cc 	andi	r7,r7,3
   23c00:	21000044 	addi	r4,r4,1
   23c04:	200890ba 	slli	r4,r4,2
   23c08:	1907883a 	add	r3,r3,r4
   23c0c:	38000426 	beq	r7,zero,23c20 <memset+0xe0>
   23c10:	19cf883a 	add	r7,r3,r7
   23c14:	18c00044 	addi	r3,r3,1
   23c18:	197fffc5 	stb	r5,-1(r3)
   23c1c:	38fffd1e 	bne	r7,r3,23c14 <memset+0xd4>
   23c20:	f800283a 	ret
   23c24:	2007883a 	mov	r3,r4
   23c28:	300f883a 	mov	r7,r6
   23c2c:	003fd306 	br	23b7c <memset+0x3c>

00023c30 <_open_r>:
   23c30:	2807883a 	mov	r3,r5
   23c34:	defffe04 	addi	sp,sp,-8
   23c38:	dc000015 	stw	r16,0(sp)
   23c3c:	300b883a 	mov	r5,r6
   23c40:	00800134 	movhi	r2,4
   23c44:	380d883a 	mov	r6,r7
   23c48:	2021883a 	mov	r16,r4
   23c4c:	1809883a 	mov	r4,r3
   23c50:	dfc00115 	stw	ra,4(sp)
   23c54:	10222d15 	stw	zero,-30540(r2)
   23c58:	00309300 	call	30930 <open>
   23c5c:	10ffffd8 	cmpnei	r3,r2,-1
   23c60:	18000426 	beq	r3,zero,23c74 <_open_r+0x44>
   23c64:	dfc00117 	ldw	ra,4(sp)
   23c68:	dc000017 	ldw	r16,0(sp)
   23c6c:	dec00204 	addi	sp,sp,8
   23c70:	f800283a 	ret
   23c74:	00c00134 	movhi	r3,4
   23c78:	18e22d17 	ldw	r3,-30540(r3)
   23c7c:	183ff926 	beq	r3,zero,23c64 <_open_r+0x34>
   23c80:	80c00015 	stw	r3,0(r16)
   23c84:	dfc00117 	ldw	ra,4(sp)
   23c88:	dc000017 	ldw	r16,0(sp)
   23c8c:	dec00204 	addi	sp,sp,8
   23c90:	f800283a 	ret

00023c94 <_printf_r>:
   23c94:	defffd04 	addi	sp,sp,-12
   23c98:	2805883a 	mov	r2,r5
   23c9c:	dfc00015 	stw	ra,0(sp)
   23ca0:	d9800115 	stw	r6,4(sp)
   23ca4:	d9c00215 	stw	r7,8(sp)
   23ca8:	21400217 	ldw	r5,8(r4)
   23cac:	d9c00104 	addi	r7,sp,4
   23cb0:	100d883a 	mov	r6,r2
   23cb4:	00242100 	call	24210 <___vfprintf_internal_r>
   23cb8:	dfc00017 	ldw	ra,0(sp)
   23cbc:	dec00304 	addi	sp,sp,12
   23cc0:	f800283a 	ret

00023cc4 <printf>:
   23cc4:	defffc04 	addi	sp,sp,-16
   23cc8:	dfc00015 	stw	ra,0(sp)
   23ccc:	d9400115 	stw	r5,4(sp)
   23cd0:	d9800215 	stw	r6,8(sp)
   23cd4:	d9c00315 	stw	r7,12(sp)
   23cd8:	008000f4 	movhi	r2,3
   23cdc:	10990c17 	ldw	r2,25648(r2)
   23ce0:	200b883a 	mov	r5,r4
   23ce4:	d9800104 	addi	r6,sp,4
   23ce8:	11000217 	ldw	r4,8(r2)
   23cec:	00262ec0 	call	262ec <__vfprintf_internal>
   23cf0:	dfc00017 	ldw	ra,0(sp)
   23cf4:	dec00404 	addi	sp,sp,16
   23cf8:	f800283a 	ret

00023cfc <_putchar_r>:
   23cfc:	21800217 	ldw	r6,8(r4)
   23d00:	002a5701 	jmpi	2a570 <_putc_r>

00023d04 <putchar>:
   23d04:	008000f4 	movhi	r2,3
   23d08:	10990c17 	ldw	r2,25648(r2)
   23d0c:	200b883a 	mov	r5,r4
   23d10:	11800217 	ldw	r6,8(r2)
   23d14:	1009883a 	mov	r4,r2
   23d18:	002a5701 	jmpi	2a570 <_putc_r>

00023d1c <_puts_r>:
   23d1c:	defff504 	addi	sp,sp,-44
   23d20:	dc000815 	stw	r16,32(sp)
   23d24:	2021883a 	mov	r16,r4
   23d28:	2809883a 	mov	r4,r5
   23d2c:	dc400915 	stw	r17,36(sp)
   23d30:	dfc00a15 	stw	ra,40(sp)
   23d34:	2823883a 	mov	r17,r5
   23d38:	00241780 	call	24178 <strlen>
   23d3c:	11000044 	addi	r4,r2,1
   23d40:	d8800515 	stw	r2,20(sp)
   23d44:	00800044 	movi	r2,1
   23d48:	00c000f4 	movhi	r3,3
   23d4c:	d8800715 	stw	r2,28(sp)
   23d50:	d8800404 	addi	r2,sp,16
   23d54:	18ce7004 	addi	r3,r3,14784
   23d58:	d8800115 	stw	r2,4(sp)
   23d5c:	00800084 	movi	r2,2
   23d60:	dc400415 	stw	r17,16(sp)
   23d64:	d8c00615 	stw	r3,24(sp)
   23d68:	d9000315 	stw	r4,12(sp)
   23d6c:	d8800215 	stw	r2,8(sp)
   23d70:	81400217 	ldw	r5,8(r16)
   23d74:	80000226 	beq	r16,zero,23d80 <_puts_r+0x64>
   23d78:	80800e17 	ldw	r2,56(r16)
   23d7c:	10001326 	beq	r2,zero,23dcc <_puts_r+0xb0>
   23d80:	2880030b 	ldhu	r2,12(r5)
   23d84:	10c8000c 	andi	r3,r2,8192
   23d88:	1800061e 	bne	r3,zero,23da4 <_puts_r+0x88>
   23d8c:	28c01917 	ldw	r3,100(r5)
   23d90:	0137ffc4 	movi	r4,-8193
   23d94:	10880014 	ori	r2,r2,8192
   23d98:	1906703a 	and	r3,r3,r4
   23d9c:	2880030d 	sth	r2,12(r5)
   23da0:	28c01915 	stw	r3,100(r5)
   23da4:	d9800104 	addi	r6,sp,4
   23da8:	8009883a 	mov	r4,r16
   23dac:	00289f00 	call	289f0 <__sfvwrite_r>
   23db0:	10000b1e 	bne	r2,zero,23de0 <_puts_r+0xc4>
   23db4:	00800284 	movi	r2,10
   23db8:	dfc00a17 	ldw	ra,40(sp)
   23dbc:	dc400917 	ldw	r17,36(sp)
   23dc0:	dc000817 	ldw	r16,32(sp)
   23dc4:	dec00b04 	addi	sp,sp,44
   23dc8:	f800283a 	ret
   23dcc:	8009883a 	mov	r4,r16
   23dd0:	d9400015 	stw	r5,0(sp)
   23dd4:	00284d80 	call	284d8 <__sinit>
   23dd8:	d9400017 	ldw	r5,0(sp)
   23ddc:	003fe806 	br	23d80 <_puts_r+0x64>
   23de0:	00bfffc4 	movi	r2,-1
   23de4:	003ff406 	br	23db8 <_puts_r+0x9c>

00023de8 <puts>:
   23de8:	008000f4 	movhi	r2,3
   23dec:	200b883a 	mov	r5,r4
   23df0:	11190c17 	ldw	r4,25648(r2)
   23df4:	0023d1c1 	jmpi	23d1c <_puts_r>

00023df8 <lflush>:
   23df8:	2080030b 	ldhu	r2,12(r4)
   23dfc:	1080024c 	andi	r2,r2,9
   23e00:	10800258 	cmpnei	r2,r2,9
   23e04:	10000226 	beq	r2,zero,23e10 <lflush+0x18>
   23e08:	0005883a 	mov	r2,zero
   23e0c:	f800283a 	ret
   23e10:	00281b41 	jmpi	281b4 <fflush>

00023e14 <__srefill_r>:
   23e14:	defffc04 	addi	sp,sp,-16
   23e18:	dc400115 	stw	r17,4(sp)
   23e1c:	dc000015 	stw	r16,0(sp)
   23e20:	dfc00315 	stw	ra,12(sp)
   23e24:	dc800215 	stw	r18,8(sp)
   23e28:	2023883a 	mov	r17,r4
   23e2c:	2821883a 	mov	r16,r5
   23e30:	20000226 	beq	r4,zero,23e3c <__srefill_r+0x28>
   23e34:	20800e17 	ldw	r2,56(r4)
   23e38:	10003a26 	beq	r2,zero,23f24 <__srefill_r+0x110>
   23e3c:	80c0030b 	ldhu	r3,12(r16)
   23e40:	1908000c 	andi	r4,r3,8192
   23e44:	1805883a 	mov	r2,r3
   23e48:	2000071e 	bne	r4,zero,23e68 <__srefill_r+0x54>
   23e4c:	81001917 	ldw	r4,100(r16)
   23e50:	18880014 	ori	r2,r3,8192
   23e54:	00f7ffc4 	movi	r3,-8193
   23e58:	20c8703a 	and	r4,r4,r3
   23e5c:	8080030d 	sth	r2,12(r16)
   23e60:	1007883a 	mov	r3,r2
   23e64:	81001915 	stw	r4,100(r16)
   23e68:	80000115 	stw	zero,4(r16)
   23e6c:	1100080c 	andi	r4,r2,32
   23e70:	20004d1e 	bne	r4,zero,23fa8 <__srefill_r+0x194>
   23e74:	1100010c 	andi	r4,r2,4
   23e78:	20001c1e 	bne	r4,zero,23eec <__srefill_r+0xd8>
   23e7c:	1100040c 	andi	r4,r2,16
   23e80:	20005126 	beq	r4,zero,23fc8 <__srefill_r+0x1b4>
   23e84:	1080020c 	andi	r2,r2,8
   23e88:	1000371e 	bne	r2,zero,23f68 <__srefill_r+0x154>
   23e8c:	18c00114 	ori	r3,r3,4
   23e90:	80c0030d 	sth	r3,12(r16)
   23e94:	80800417 	ldw	r2,16(r16)
   23e98:	10003c26 	beq	r2,zero,23f8c <__srefill_r+0x178>
   23e9c:	8480030b 	ldhu	r18,12(r16)
   23ea0:	908000cc 	andi	r2,r18,3
   23ea4:	1000211e 	bne	r2,zero,23f2c <__srefill_r+0x118>
   23ea8:	81800417 	ldw	r6,16(r16)
   23eac:	80800817 	ldw	r2,32(r16)
   23eb0:	81c00517 	ldw	r7,20(r16)
   23eb4:	81400717 	ldw	r5,28(r16)
   23eb8:	81800015 	stw	r6,0(r16)
   23ebc:	8809883a 	mov	r4,r17
   23ec0:	103ee83a 	callr	r2
   23ec4:	1007883a 	mov	r3,r2
   23ec8:	80800115 	stw	r2,4(r16)
   23ecc:	0005883a 	mov	r2,zero
   23ed0:	00c0370e 	bge	zero,r3,23fb0 <__srefill_r+0x19c>
   23ed4:	dfc00317 	ldw	ra,12(sp)
   23ed8:	dc800217 	ldw	r18,8(sp)
   23edc:	dc400117 	ldw	r17,4(sp)
   23ee0:	dc000017 	ldw	r16,0(sp)
   23ee4:	dec00404 	addi	sp,sp,16
   23ee8:	f800283a 	ret
   23eec:	81400c17 	ldw	r5,48(r16)
   23ef0:	283fe826 	beq	r5,zero,23e94 <__srefill_r+0x80>
   23ef4:	80801004 	addi	r2,r16,64
   23ef8:	28800226 	beq	r5,r2,23f04 <__srefill_r+0xf0>
   23efc:	8809883a 	mov	r4,r17
   23f00:	00286f40 	call	286f4 <_free_r>
   23f04:	80800f17 	ldw	r2,60(r16)
   23f08:	80000c15 	stw	zero,48(r16)
   23f0c:	80800115 	stw	r2,4(r16)
   23f10:	103fe026 	beq	r2,zero,23e94 <__srefill_r+0x80>
   23f14:	80c00e17 	ldw	r3,56(r16)
   23f18:	0005883a 	mov	r2,zero
   23f1c:	80c00015 	stw	r3,0(r16)
   23f20:	003fec06 	br	23ed4 <__srefill_r+0xc0>
   23f24:	00284d80 	call	284d8 <__sinit>
   23f28:	003fc406 	br	23e3c <__srefill_r+0x28>
   23f2c:	008000f4 	movhi	r2,3
   23f30:	11190b17 	ldw	r4,25644(r2)
   23f34:	014000b4 	movhi	r5,2
   23f38:	00800044 	movi	r2,1
   23f3c:	8080030d 	sth	r2,12(r16)
   23f40:	294f7e04 	addi	r5,r5,15864
   23f44:	0028eac0 	call	28eac <_fwalk>
   23f48:	9080024c 	andi	r2,r18,9
   23f4c:	8480030d 	sth	r18,12(r16)
   23f50:	10800258 	cmpnei	r2,r2,9
   23f54:	103fd41e 	bne	r2,zero,23ea8 <__srefill_r+0x94>
   23f58:	800b883a 	mov	r5,r16
   23f5c:	8809883a 	mov	r4,r17
   23f60:	0027f2c0 	call	27f2c <__sflush_r>
   23f64:	003fd006 	br	23ea8 <__srefill_r+0x94>
   23f68:	800b883a 	mov	r5,r16
   23f6c:	8809883a 	mov	r4,r17
   23f70:	00281540 	call	28154 <_fflush_r>
   23f74:	10000c1e 	bne	r2,zero,23fa8 <__srefill_r+0x194>
   23f78:	80c0030b 	ldhu	r3,12(r16)
   23f7c:	80000215 	stw	zero,8(r16)
   23f80:	80000615 	stw	zero,24(r16)
   23f84:	18fffdcc 	andi	r3,r3,65527
   23f88:	003fc006 	br	23e8c <__srefill_r+0x78>
   23f8c:	800b883a 	mov	r5,r16
   23f90:	8809883a 	mov	r4,r17
   23f94:	00232000 	call	23200 <__smakebuf_r>
   23f98:	003fc006 	br	23e9c <__srefill_r+0x88>
   23f9c:	10801014 	ori	r2,r2,64
   23fa0:	80000115 	stw	zero,4(r16)
   23fa4:	8080030d 	sth	r2,12(r16)
   23fa8:	00bfffc4 	movi	r2,-1
   23fac:	003fc906 	br	23ed4 <__srefill_r+0xc0>
   23fb0:	8080030b 	ldhu	r2,12(r16)
   23fb4:	183ff91e 	bne	r3,zero,23f9c <__srefill_r+0x188>
   23fb8:	10800814 	ori	r2,r2,32
   23fbc:	8080030d 	sth	r2,12(r16)
   23fc0:	00bfffc4 	movi	r2,-1
   23fc4:	003fc306 	br	23ed4 <__srefill_r+0xc0>
   23fc8:	00800244 	movi	r2,9
   23fcc:	88800015 	stw	r2,0(r17)
   23fd0:	18c01014 	ori	r3,r3,64
   23fd4:	80c0030d 	sth	r3,12(r16)
   23fd8:	00bfffc4 	movi	r2,-1
   23fdc:	003fbd06 	br	23ed4 <__srefill_r+0xc0>

00023fe0 <_sbrk_r>:
   23fe0:	defffe04 	addi	sp,sp,-8
   23fe4:	dc000015 	stw	r16,0(sp)
   23fe8:	00800134 	movhi	r2,4
   23fec:	2021883a 	mov	r16,r4
   23ff0:	2809883a 	mov	r4,r5
   23ff4:	dfc00115 	stw	ra,4(sp)
   23ff8:	10222d15 	stw	zero,-30540(r2)
   23ffc:	0030c140 	call	30c14 <sbrk>
   24000:	10ffffd8 	cmpnei	r3,r2,-1
   24004:	18000426 	beq	r3,zero,24018 <_sbrk_r+0x38>
   24008:	dfc00117 	ldw	ra,4(sp)
   2400c:	dc000017 	ldw	r16,0(sp)
   24010:	dec00204 	addi	sp,sp,8
   24014:	f800283a 	ret
   24018:	00c00134 	movhi	r3,4
   2401c:	18e22d17 	ldw	r3,-30540(r3)
   24020:	183ff926 	beq	r3,zero,24008 <_sbrk_r+0x28>
   24024:	80c00015 	stw	r3,0(r16)
   24028:	dfc00117 	ldw	ra,4(sp)
   2402c:	dc000017 	ldw	r16,0(sp)
   24030:	dec00204 	addi	sp,sp,8
   24034:	f800283a 	ret

00024038 <__sread>:
   24038:	defffe04 	addi	sp,sp,-8
   2403c:	dc000015 	stw	r16,0(sp)
   24040:	2821883a 	mov	r16,r5
   24044:	2940038f 	ldh	r5,14(r5)
   24048:	dfc00115 	stw	ra,4(sp)
   2404c:	002a71c0 	call	2a71c <_read_r>
   24050:	10000716 	blt	r2,zero,24070 <__sread+0x38>
   24054:	80c01417 	ldw	r3,80(r16)
   24058:	1887883a 	add	r3,r3,r2
   2405c:	80c01415 	stw	r3,80(r16)
   24060:	dfc00117 	ldw	ra,4(sp)
   24064:	dc000017 	ldw	r16,0(sp)
   24068:	dec00204 	addi	sp,sp,8
   2406c:	f800283a 	ret
   24070:	80c0030b 	ldhu	r3,12(r16)
   24074:	18fbffcc 	andi	r3,r3,61439
   24078:	80c0030d 	sth	r3,12(r16)
   2407c:	dfc00117 	ldw	ra,4(sp)
   24080:	dc000017 	ldw	r16,0(sp)
   24084:	dec00204 	addi	sp,sp,8
   24088:	f800283a 	ret

0002408c <__seofread>:
   2408c:	0005883a 	mov	r2,zero
   24090:	f800283a 	ret

00024094 <__swrite>:
   24094:	2880030b 	ldhu	r2,12(r5)
   24098:	defffb04 	addi	sp,sp,-20
   2409c:	dcc00315 	stw	r19,12(sp)
   240a0:	dc800215 	stw	r18,8(sp)
   240a4:	dc400115 	stw	r17,4(sp)
   240a8:	dc000015 	stw	r16,0(sp)
   240ac:	dfc00415 	stw	ra,16(sp)
   240b0:	10c0400c 	andi	r3,r2,256
   240b4:	2821883a 	mov	r16,r5
   240b8:	2023883a 	mov	r17,r4
   240bc:	2940038f 	ldh	r5,14(r5)
   240c0:	3025883a 	mov	r18,r6
   240c4:	3827883a 	mov	r19,r7
   240c8:	18000c1e 	bne	r3,zero,240fc <__swrite+0x68>
   240cc:	10bbffcc 	andi	r2,r2,61439
   240d0:	980f883a 	mov	r7,r19
   240d4:	900d883a 	mov	r6,r18
   240d8:	8809883a 	mov	r4,r17
   240dc:	8080030d 	sth	r2,12(r16)
   240e0:	dfc00417 	ldw	ra,16(sp)
   240e4:	dcc00317 	ldw	r19,12(sp)
   240e8:	dc800217 	ldw	r18,8(sp)
   240ec:	dc400117 	ldw	r17,4(sp)
   240f0:	dc000017 	ldw	r16,0(sp)
   240f4:	dec00504 	addi	sp,sp,20
   240f8:	00263c81 	jmpi	263c8 <_write_r>
   240fc:	01c00084 	movi	r7,2
   24100:	000d883a 	mov	r6,zero
   24104:	00291700 	call	29170 <_lseek_r>
   24108:	8080030b 	ldhu	r2,12(r16)
   2410c:	8140038f 	ldh	r5,14(r16)
   24110:	003fee06 	br	240cc <__swrite+0x38>

00024114 <__sseek>:
   24114:	defffe04 	addi	sp,sp,-8
   24118:	dc000015 	stw	r16,0(sp)
   2411c:	2821883a 	mov	r16,r5
   24120:	2940038f 	ldh	r5,14(r5)
   24124:	dfc00115 	stw	ra,4(sp)
   24128:	00291700 	call	29170 <_lseek_r>
   2412c:	10ffffd8 	cmpnei	r3,r2,-1
   24130:	18000826 	beq	r3,zero,24154 <__sseek+0x40>
   24134:	80c0030b 	ldhu	r3,12(r16)
   24138:	80801415 	stw	r2,80(r16)
   2413c:	18c40014 	ori	r3,r3,4096
   24140:	80c0030d 	sth	r3,12(r16)
   24144:	dfc00117 	ldw	ra,4(sp)
   24148:	dc000017 	ldw	r16,0(sp)
   2414c:	dec00204 	addi	sp,sp,8
   24150:	f800283a 	ret
   24154:	80c0030b 	ldhu	r3,12(r16)
   24158:	18fbffcc 	andi	r3,r3,61439
   2415c:	80c0030d 	sth	r3,12(r16)
   24160:	dfc00117 	ldw	ra,4(sp)
   24164:	dc000017 	ldw	r16,0(sp)
   24168:	dec00204 	addi	sp,sp,8
   2416c:	f800283a 	ret

00024170 <__sclose>:
   24170:	2940038f 	ldh	r5,14(r5)
   24174:	00265881 	jmpi	26588 <_close_r>

00024178 <strlen>:
   24178:	208000cc 	andi	r2,r4,3
   2417c:	10000926 	beq	r2,zero,241a4 <strlen+0x2c>
   24180:	2005883a 	mov	r2,r4
   24184:	00000306 	br	24194 <strlen+0x1c>
   24188:	10800044 	addi	r2,r2,1
   2418c:	10c000cc 	andi	r3,r2,3
   24190:	18000526 	beq	r3,zero,241a8 <strlen+0x30>
   24194:	10c00007 	ldb	r3,0(r2)
   24198:	183ffb1e 	bne	r3,zero,24188 <strlen+0x10>
   2419c:	1105c83a 	sub	r2,r2,r4
   241a0:	f800283a 	ret
   241a4:	2005883a 	mov	r2,r4
   241a8:	11400017 	ldw	r5,0(r2)
   241ac:	01ffbff4 	movhi	r7,65279
   241b0:	39ffbfc4 	addi	r7,r7,-257
   241b4:	29c7883a 	add	r3,r5,r7
   241b8:	01a02074 	movhi	r6,32897
   241bc:	014a303a 	nor	r5,zero,r5
   241c0:	1946703a 	and	r3,r3,r5
   241c4:	31a02004 	addi	r6,r6,-32640
   241c8:	1986703a 	and	r3,r3,r6
   241cc:	1800071e 	bne	r3,zero,241ec <strlen+0x74>
   241d0:	11400117 	ldw	r5,4(r2)
   241d4:	10800104 	addi	r2,r2,4
   241d8:	29c7883a 	add	r3,r5,r7
   241dc:	014a303a 	nor	r5,zero,r5
   241e0:	1946703a 	and	r3,r3,r5
   241e4:	1986703a 	and	r3,r3,r6
   241e8:	183ff926 	beq	r3,zero,241d0 <strlen+0x58>
   241ec:	10c00007 	ldb	r3,0(r2)
   241f0:	183fea26 	beq	r3,zero,2419c <strlen+0x24>
   241f4:	10c00047 	ldb	r3,1(r2)
   241f8:	10800044 	addi	r2,r2,1
   241fc:	183fe726 	beq	r3,zero,2419c <strlen+0x24>
   24200:	10c00047 	ldb	r3,1(r2)
   24204:	10800044 	addi	r2,r2,1
   24208:	183ffa1e 	bne	r3,zero,241f4 <strlen+0x7c>
   2420c:	003fe306 	br	2419c <strlen+0x24>

00024210 <___vfprintf_internal_r>:
   24210:	deffbf04 	addi	sp,sp,-260
   24214:	dfc04015 	stw	ra,256(sp)
   24218:	dd803d15 	stw	r22,244(sp)
   2421c:	dcc03a15 	stw	r19,232(sp)
   24220:	dc803915 	stw	r18,228(sp)
   24224:	2027883a 	mov	r19,r4
   24228:	2825883a 	mov	r18,r5
   2422c:	302d883a 	mov	r22,r6
   24230:	d9c00615 	stw	r7,24(sp)
   24234:	df003f15 	stw	fp,252(sp)
   24238:	ddc03e15 	stw	r23,248(sp)
   2423c:	dd403c15 	stw	r21,240(sp)
   24240:	dd003b15 	stw	r20,236(sp)
   24244:	dc403815 	stw	r17,224(sp)
   24248:	dc003715 	stw	r16,220(sp)
   2424c:	00291580 	call	29158 <_localeconv_r>
   24250:	10800017 	ldw	r2,0(r2)
   24254:	1009883a 	mov	r4,r2
   24258:	d8800d15 	stw	r2,52(sp)
   2425c:	00241780 	call	24178 <strlen>
   24260:	d8800b15 	stw	r2,44(sp)
   24264:	98000226 	beq	r19,zero,24270 <___vfprintf_internal_r+0x60>
   24268:	98800e17 	ldw	r2,56(r19)
   2426c:	1001d526 	beq	r2,zero,249c4 <___vfprintf_internal_r+0x7b4>
   24270:	9080030b 	ldhu	r2,12(r18)
   24274:	10c8000c 	andi	r3,r2,8192
   24278:	1800061e 	bne	r3,zero,24294 <___vfprintf_internal_r+0x84>
   2427c:	90c01917 	ldw	r3,100(r18)
   24280:	0137ffc4 	movi	r4,-8193
   24284:	10880014 	ori	r2,r2,8192
   24288:	1906703a 	and	r3,r3,r4
   2428c:	9080030d 	sth	r2,12(r18)
   24290:	90c01915 	stw	r3,100(r18)
   24294:	10c0020c 	andi	r3,r2,8
   24298:	1800fa26 	beq	r3,zero,24684 <___vfprintf_internal_r+0x474>
   2429c:	90c00417 	ldw	r3,16(r18)
   242a0:	1800f826 	beq	r3,zero,24684 <___vfprintf_internal_r+0x474>
   242a4:	1080068c 	andi	r2,r2,26
   242a8:	10800298 	cmpnei	r2,r2,10
   242ac:	1000fd26 	beq	r2,zero,246a4 <___vfprintf_internal_r+0x494>
   242b0:	d8802704 	addi	r2,sp,156
   242b4:	b02f883a 	mov	r23,r22
   242b8:	d8801a15 	stw	r2,104(sp)
   242bc:	d8001c15 	stw	zero,112(sp)
   242c0:	d8001b15 	stw	zero,108(sp)
   242c4:	d8000815 	stw	zero,32(sp)
   242c8:	d8000915 	stw	zero,36(sp)
   242cc:	d8000a15 	stw	zero,40(sp)
   242d0:	d8000c15 	stw	zero,48(sp)
   242d4:	d8001015 	stw	zero,64(sp)
   242d8:	d8000515 	stw	zero,20(sp)
   242dc:	102d883a 	mov	r22,r2
   242e0:	b8800007 	ldb	r2,0(r23)
   242e4:	1000d526 	beq	r2,zero,2463c <___vfprintf_internal_r+0x42c>
   242e8:	b821883a 	mov	r16,r23
   242ec:	00000306 	br	242fc <___vfprintf_internal_r+0xec>
   242f0:	80800047 	ldb	r2,1(r16)
   242f4:	84000044 	addi	r16,r16,1
   242f8:	10011726 	beq	r2,zero,24758 <___vfprintf_internal_r+0x548>
   242fc:	10800958 	cmpnei	r2,r2,37
   24300:	103ffb1e 	bne	r2,zero,242f0 <___vfprintf_internal_r+0xe0>
   24304:	85e3c83a 	sub	r17,r16,r23
   24308:	85c1151e 	bne	r16,r23,24760 <___vfprintf_internal_r+0x550>
   2430c:	80800003 	ldbu	r2,0(r16)
   24310:	10803fcc 	andi	r2,r2,255
   24314:	1080201c 	xori	r2,r2,128
   24318:	10bfe004 	addi	r2,r2,-128
   2431c:	1000c726 	beq	r2,zero,2463c <___vfprintf_internal_r+0x42c>
   24320:	82c00047 	ldb	r11,1(r16)
   24324:	85c00044 	addi	r23,r16,1
   24328:	d8001345 	stb	zero,77(sp)
   2432c:	0009883a 	mov	r4,zero
   24330:	000b883a 	mov	r5,zero
   24334:	023fffc4 	movi	r8,-1
   24338:	0021883a 	mov	r16,zero
   2433c:	0019883a 	mov	r12,zero
   24340:	bdc00044 	addi	r23,r23,1
   24344:	5839883a 	mov	fp,r11
   24348:	e0bff804 	addi	r2,fp,-32
   2434c:	10c01668 	cmpgeui	r3,r2,89
   24350:	18006a1e 	bne	r3,zero,244fc <___vfprintf_internal_r+0x2ec>
   24354:	100490ba 	slli	r2,r2,2
   24358:	00c000b4 	movhi	r3,2
   2435c:	10c7883a 	add	r3,r2,r3
   24360:	1890da17 	ldw	r2,17256(r3)
   24364:	1000683a 	jmp	r2
   24368:	00024d44 	movi	zero,2357
   2436c:	000244fc 	xorhi	zero,zero,2323
   24370:	000244fc 	xorhi	zero,zero,2323
   24374:	00024d38 	rdprs	zero,zero,2356
   24378:	000244fc 	xorhi	zero,zero,2323
   2437c:	000244fc 	xorhi	zero,zero,2323
   24380:	000244fc 	xorhi	zero,zero,2323
   24384:	000244fc 	xorhi	zero,zero,2323
   24388:	000244fc 	xorhi	zero,zero,2323
   2438c:	000244fc 	xorhi	zero,zero,2323
   24390:	00024d10 	cmplti	zero,zero,2356
   24394:	00024d00 	call	24d0 <__alt_mem_onchip_memory2_0-0x1db30>
   24398:	000244fc 	xorhi	zero,zero,2323
   2439c:	00024ce8 	cmpgeui	zero,zero,2355
   243a0:	00024ca4 	muli	zero,zero,2354
   243a4:	000244fc 	xorhi	zero,zero,2323
   243a8:	00024c98 	cmpnei	zero,zero,2354
   243ac:	000244cc 	andi	zero,zero,2323
   243b0:	000244cc 	andi	zero,zero,2323
   243b4:	000244cc 	andi	zero,zero,2323
   243b8:	000244cc 	andi	zero,zero,2323
   243bc:	000244cc 	andi	zero,zero,2323
   243c0:	000244cc 	andi	zero,zero,2323
   243c4:	000244cc 	andi	zero,zero,2323
   243c8:	000244cc 	andi	zero,zero,2323
   243cc:	000244cc 	andi	zero,zero,2323
   243d0:	000244fc 	xorhi	zero,zero,2323
   243d4:	000244fc 	xorhi	zero,zero,2323
   243d8:	000244fc 	xorhi	zero,zero,2323
   243dc:	000244fc 	xorhi	zero,zero,2323
   243e0:	000244fc 	xorhi	zero,zero,2323
   243e4:	000244fc 	xorhi	zero,zero,2323
   243e8:	000244fc 	xorhi	zero,zero,2323
   243ec:	000244fc 	xorhi	zero,zero,2323
   243f0:	000244fc 	xorhi	zero,zero,2323
   243f4:	000244fc 	xorhi	zero,zero,2323
   243f8:	00024b8c 	andi	zero,zero,2350
   243fc:	000247bc 	xorhi	zero,zero,2334
   24400:	000244fc 	xorhi	zero,zero,2323
   24404:	000247bc 	xorhi	zero,zero,2334
   24408:	000244fc 	xorhi	zero,zero,2323
   2440c:	000244fc 	xorhi	zero,zero,2323
   24410:	000244fc 	xorhi	zero,zero,2323
   24414:	000244fc 	xorhi	zero,zero,2323
   24418:	00024d70 	cmpltui	zero,zero,2357
   2441c:	000244fc 	xorhi	zero,zero,2323
   24420:	000244fc 	xorhi	zero,zero,2323
   24424:	000246f0 	cmpltui	zero,zero,2331
   24428:	000244fc 	xorhi	zero,zero,2323
   2442c:	000244fc 	xorhi	zero,zero,2323
   24430:	000244fc 	xorhi	zero,zero,2323
   24434:	000244fc 	xorhi	zero,zero,2323
   24438:	000244fc 	xorhi	zero,zero,2323
   2443c:	000246c8 	cmpgei	zero,zero,2331
   24440:	000244fc 	xorhi	zero,zero,2323
   24444:	000244fc 	xorhi	zero,zero,2323
   24448:	00024da4 	muli	zero,zero,2358
   2444c:	000244fc 	xorhi	zero,zero,2323
   24450:	000244fc 	xorhi	zero,zero,2323
   24454:	000244fc 	xorhi	zero,zero,2323
   24458:	000244fc 	xorhi	zero,zero,2323
   2445c:	000244fc 	xorhi	zero,zero,2323
   24460:	000244fc 	xorhi	zero,zero,2323
   24464:	000244fc 	xorhi	zero,zero,2323
   24468:	000244fc 	xorhi	zero,zero,2323
   2446c:	000244fc 	xorhi	zero,zero,2323
   24470:	000244fc 	xorhi	zero,zero,2323
   24474:	00024d7c 	xorhi	zero,zero,2357
   24478:	000249d0 	cmplti	zero,zero,2343
   2447c:	000247bc 	xorhi	zero,zero,2334
   24480:	000247bc 	xorhi	zero,zero,2334
   24484:	000247bc 	xorhi	zero,zero,2334
   24488:	00024a44 	movi	zero,2345
   2448c:	000249d0 	cmplti	zero,zero,2343
   24490:	000244fc 	xorhi	zero,zero,2323
   24494:	000244fc 	xorhi	zero,zero,2323
   24498:	00024b78 	rdprs	zero,zero,2349
   2449c:	000244fc 	xorhi	zero,zero,2323
   244a0:	00024b3c 	xorhi	zero,zero,2348
   244a4:	000246f4 	movhi	zero,2331
   244a8:	00024afc 	xorhi	zero,zero,2347
   244ac:	00024af0 	cmpltui	zero,zero,2347
   244b0:	000244fc 	xorhi	zero,zero,2323
   244b4:	00024a98 	cmpnei	zero,zero,2346
   244b8:	000244fc 	xorhi	zero,zero,2323
   244bc:	000246cc 	andi	zero,zero,2331
   244c0:	000244fc 	xorhi	zero,zero,2323
   244c4:	000244fc 	xorhi	zero,zero,2323
   244c8:	00024a50 	cmplti	zero,zero,2345
   244cc:	0021883a 	mov	r16,zero
   244d0:	e0bff404 	addi	r2,fp,-48
   244d4:	bf000007 	ldb	fp,0(r23)
   244d8:	840002a4 	muli	r16,r16,10
   244dc:	bdc00044 	addi	r23,r23,1
   244e0:	1421883a 	add	r16,r2,r16
   244e4:	e0bff404 	addi	r2,fp,-48
   244e8:	10c002b0 	cmpltui	r3,r2,10
   244ec:	183ff91e 	bne	r3,zero,244d4 <___vfprintf_internal_r+0x2c4>
   244f0:	e0bff804 	addi	r2,fp,-32
   244f4:	10c01668 	cmpgeui	r3,r2,89
   244f8:	183f9626 	beq	r3,zero,24354 <___vfprintf_internal_r+0x144>
   244fc:	21003fcc 	andi	r4,r4,255
   24500:	20068d1e 	bne	r4,zero,25f38 <___vfprintf_internal_r+0x1d28>
   24504:	e0004d26 	beq	fp,zero,2463c <___vfprintf_internal_r+0x42c>
   24508:	df001d05 	stb	fp,116(sp)
   2450c:	d8001345 	stb	zero,77(sp)
   24510:	05000044 	movi	r20,1
   24514:	05400044 	movi	r21,1
   24518:	dc401d04 	addi	r17,sp,116
   2451c:	db000415 	stw	r12,16(sp)
   24520:	0011883a 	mov	r8,zero
   24524:	d8000715 	stw	zero,28(sp)
   24528:	d8800417 	ldw	r2,16(sp)
   2452c:	1380008c 	andi	r14,r2,2
   24530:	70000126 	beq	r14,zero,24538 <___vfprintf_internal_r+0x328>
   24534:	a5000084 	addi	r20,r20,2
   24538:	d8800417 	ldw	r2,16(sp)
   2453c:	d8c01c17 	ldw	r3,112(sp)
   24540:	1340210c 	andi	r13,r2,132
   24544:	6800021e 	bne	r13,zero,24550 <___vfprintf_internal_r+0x340>
   24548:	850fc83a 	sub	r7,r16,r20
   2454c:	01c35e16 	blt	zero,r7,252c8 <___vfprintf_internal_r+0x10b8>
   24550:	d8801347 	ldb	r2,77(sp)
   24554:	10000c26 	beq	r2,zero,24588 <___vfprintf_internal_r+0x378>
   24558:	d8801b17 	ldw	r2,108(sp)
   2455c:	d9001344 	addi	r4,sp,77
   24560:	18c00044 	addi	r3,r3,1
   24564:	10800044 	addi	r2,r2,1
   24568:	b1000015 	stw	r4,0(r22)
   2456c:	01000044 	movi	r4,1
   24570:	d8801b15 	stw	r2,108(sp)
   24574:	b1000115 	stw	r4,4(r22)
   24578:	d8c01c15 	stw	r3,112(sp)
   2457c:	10800208 	cmpgei	r2,r2,8
   24580:	10039e1e 	bne	r2,zero,253fc <___vfprintf_internal_r+0x11ec>
   24584:	b5800204 	addi	r22,r22,8
   24588:	70000c26 	beq	r14,zero,245bc <___vfprintf_internal_r+0x3ac>
   2458c:	d8801b17 	ldw	r2,108(sp)
   24590:	d9001384 	addi	r4,sp,78
   24594:	18c00084 	addi	r3,r3,2
   24598:	10800044 	addi	r2,r2,1
   2459c:	b1000015 	stw	r4,0(r22)
   245a0:	01000084 	movi	r4,2
   245a4:	d8801b15 	stw	r2,108(sp)
   245a8:	b1000115 	stw	r4,4(r22)
   245ac:	d8c01c15 	stw	r3,112(sp)
   245b0:	10800208 	cmpgei	r2,r2,8
   245b4:	1003851e 	bne	r2,zero,253cc <___vfprintf_internal_r+0x11bc>
   245b8:	b5800204 	addi	r22,r22,8
   245bc:	6b402018 	cmpnei	r13,r13,128
   245c0:	68025026 	beq	r13,zero,24f04 <___vfprintf_internal_r+0xcf4>
   245c4:	4551c83a 	sub	r8,r8,r21
   245c8:	02028816 	blt	zero,r8,24fec <___vfprintf_internal_r+0xddc>
   245cc:	d8800417 	ldw	r2,16(sp)
   245d0:	1080400c 	andi	r2,r2,256
   245d4:	1002051e 	bne	r2,zero,24dec <___vfprintf_internal_r+0xbdc>
   245d8:	d8801b17 	ldw	r2,108(sp)
   245dc:	1d47883a 	add	r3,r3,r21
   245e0:	b4400015 	stw	r17,0(r22)
   245e4:	10800044 	addi	r2,r2,1
   245e8:	b5400115 	stw	r21,4(r22)
   245ec:	d8801b15 	stw	r2,108(sp)
   245f0:	d8c01c15 	stw	r3,112(sp)
   245f4:	10800208 	cmpgei	r2,r2,8
   245f8:	1002ec1e 	bne	r2,zero,251ac <___vfprintf_internal_r+0xf9c>
   245fc:	b5800204 	addi	r22,r22,8
   24600:	d8800417 	ldw	r2,16(sp)
   24604:	1440010c 	andi	r17,r2,4
   24608:	88000226 	beq	r17,zero,24614 <___vfprintf_internal_r+0x404>
   2460c:	8523c83a 	sub	r17,r16,r20
   24610:	0440bd16 	blt	zero,r17,24908 <___vfprintf_internal_r+0x6f8>
   24614:	8500010e 	bge	r16,r20,2461c <___vfprintf_internal_r+0x40c>
   24618:	a021883a 	mov	r16,r20
   2461c:	d8800517 	ldw	r2,20(sp)
   24620:	1405883a 	add	r2,r2,r16
   24624:	d8800515 	stw	r2,20(sp)
   24628:	1802b71e 	bne	r3,zero,25108 <___vfprintf_internal_r+0xef8>
   2462c:	b8800007 	ldb	r2,0(r23)
   24630:	d8001b15 	stw	zero,108(sp)
   24634:	dd802704 	addi	r22,sp,156
   24638:	103f2b1e 	bne	r2,zero,242e8 <___vfprintf_internal_r+0xd8>
   2463c:	d8801c17 	ldw	r2,112(sp)
   24640:	1006381e 	bne	r2,zero,25f24 <___vfprintf_internal_r+0x1d14>
   24644:	9080030b 	ldhu	r2,12(r18)
   24648:	1080100c 	andi	r2,r2,64
   2464c:	1006c71e 	bne	r2,zero,2616c <___vfprintf_internal_r+0x1f5c>
   24650:	d8800517 	ldw	r2,20(sp)
   24654:	dfc04017 	ldw	ra,256(sp)
   24658:	df003f17 	ldw	fp,252(sp)
   2465c:	ddc03e17 	ldw	r23,248(sp)
   24660:	dd803d17 	ldw	r22,244(sp)
   24664:	dd403c17 	ldw	r21,240(sp)
   24668:	dd003b17 	ldw	r20,236(sp)
   2466c:	dcc03a17 	ldw	r19,232(sp)
   24670:	dc803917 	ldw	r18,228(sp)
   24674:	dc403817 	ldw	r17,224(sp)
   24678:	dc003717 	ldw	r16,220(sp)
   2467c:	dec04104 	addi	sp,sp,260
   24680:	f800283a 	ret
   24684:	900b883a 	mov	r5,r18
   24688:	9809883a 	mov	r4,r19
   2468c:	002642c0 	call	2642c <__swsetup_r>
   24690:	1006b61e 	bne	r2,zero,2616c <___vfprintf_internal_r+0x1f5c>
   24694:	9080030b 	ldhu	r2,12(r18)
   24698:	1080068c 	andi	r2,r2,26
   2469c:	10800298 	cmpnei	r2,r2,10
   246a0:	103f031e 	bne	r2,zero,242b0 <___vfprintf_internal_r+0xa0>
   246a4:	9080038f 	ldh	r2,14(r18)
   246a8:	103f0116 	blt	r2,zero,242b0 <___vfprintf_internal_r+0xa0>
   246ac:	d9c00617 	ldw	r7,24(sp)
   246b0:	b00d883a 	mov	r6,r22
   246b4:	900b883a 	mov	r5,r18
   246b8:	9809883a 	mov	r4,r19
   246bc:	00263080 	call	26308 <__sbprintf>
   246c0:	d8800515 	stw	r2,20(sp)
   246c4:	003fe206 	br	24650 <___vfprintf_internal_r+0x440>
   246c8:	63000414 	ori	r12,r12,16
   246cc:	6080080c 	andi	r2,r12,32
   246d0:	10008126 	beq	r2,zero,248d8 <___vfprintf_internal_r+0x6c8>
   246d4:	d8c00617 	ldw	r3,24(sp)
   246d8:	00800044 	movi	r2,1
   246dc:	1d000017 	ldw	r20,0(r3)
   246e0:	1d400117 	ldw	r21,4(r3)
   246e4:	18c00204 	addi	r3,r3,8
   246e8:	d8c00615 	stw	r3,24(sp)
   246ec:	00000906 	br	24714 <___vfprintf_internal_r+0x504>
   246f0:	63000414 	ori	r12,r12,16
   246f4:	6080080c 	andi	r2,r12,32
   246f8:	10006b26 	beq	r2,zero,248a8 <___vfprintf_internal_r+0x698>
   246fc:	d8c00617 	ldw	r3,24(sp)
   24700:	0005883a 	mov	r2,zero
   24704:	1d000017 	ldw	r20,0(r3)
   24708:	1d400117 	ldw	r21,4(r3)
   2470c:	18c00204 	addi	r3,r3,8
   24710:	d8c00615 	stw	r3,24(sp)
   24714:	d8001345 	stb	zero,77(sp)
   24718:	40ffffe0 	cmpeqi	r3,r8,-1
   2471c:	001b883a 	mov	r13,zero
   24720:	1801351e 	bne	r3,zero,24bf8 <___vfprintf_internal_r+0x9e8>
   24724:	047fdfc4 	movi	r17,-129
   24728:	6448703a 	and	r4,r12,r17
   2472c:	a546b03a 	or	r3,r20,r21
   24730:	d9000415 	stw	r4,16(sp)
   24734:	1802e21e 	bne	r3,zero,252c0 <___vfprintf_internal_r+0x10b0>
   24738:	40025d1e 	bne	r8,zero,250b0 <___vfprintf_internal_r+0xea0>
   2473c:	1003a41e 	bne	r2,zero,255d0 <___vfprintf_internal_r+0x13c0>
   24740:	6540004c 	andi	r21,r12,1
   24744:	a803d226 	beq	r21,zero,25690 <___vfprintf_internal_r+0x1480>
   24748:	00800c04 	movi	r2,48
   2474c:	d88026c5 	stb	r2,155(sp)
   24750:	dc4026c4 	addi	r17,sp,155
   24754:	00014606 	br	24c70 <___vfprintf_internal_r+0xa60>
   24758:	85e3c83a 	sub	r17,r16,r23
   2475c:	85ffb726 	beq	r16,r23,2463c <___vfprintf_internal_r+0x42c>
   24760:	d8c01c17 	ldw	r3,112(sp)
   24764:	d8801b17 	ldw	r2,108(sp)
   24768:	b5c00015 	stw	r23,0(r22)
   2476c:	1c47883a 	add	r3,r3,r17
   24770:	10800044 	addi	r2,r2,1
   24774:	d8801b15 	stw	r2,108(sp)
   24778:	b4400115 	stw	r17,4(r22)
   2477c:	d8c01c15 	stw	r3,112(sp)
   24780:	10800208 	cmpgei	r2,r2,8
   24784:	1000061e 	bne	r2,zero,247a0 <___vfprintf_internal_r+0x590>
   24788:	b5800204 	addi	r22,r22,8
   2478c:	d8c00517 	ldw	r3,20(sp)
   24790:	80800003 	ldbu	r2,0(r16)
   24794:	1c47883a 	add	r3,r3,r17
   24798:	d8c00515 	stw	r3,20(sp)
   2479c:	003edc06 	br	24310 <___vfprintf_internal_r+0x100>
   247a0:	d9801a04 	addi	r6,sp,104
   247a4:	900b883a 	mov	r5,r18
   247a8:	9809883a 	mov	r4,r19
   247ac:	002ae5c0 	call	2ae5c <__sprint_r>
   247b0:	103fa41e 	bne	r2,zero,24644 <___vfprintf_internal_r+0x434>
   247b4:	dd802704 	addi	r22,sp,156
   247b8:	003ff406 	br	2478c <___vfprintf_internal_r+0x57c>
   247bc:	21003fcc 	andi	r4,r4,255
   247c0:	2006681e 	bne	r4,zero,26164 <___vfprintf_internal_r+0x1f54>
   247c4:	d8c00617 	ldw	r3,24(sp)
   247c8:	6080020c 	andi	r2,r12,8
   247cc:	19000204 	addi	r4,r3,8
   247d0:	d9000e15 	stw	r4,56(sp)
   247d4:	1003ce1e 	bne	r2,zero,25710 <___vfprintf_internal_r+0x1500>
   247d8:	d8800617 	ldw	r2,24(sp)
   247dc:	10c00017 	ldw	r3,0(r2)
   247e0:	10800117 	ldw	r2,4(r2)
   247e4:	d8c00915 	stw	r3,36(sp)
   247e8:	d8800a15 	stw	r2,40(sp)
   247ec:	dd400a17 	ldw	r21,40(sp)
   247f0:	dd000917 	ldw	r20,36(sp)
   247f4:	00a00034 	movhi	r2,32768
   247f8:	10bfffc4 	addi	r2,r2,-1
   247fc:	a8a2703a 	and	r17,r21,r2
   24800:	01dffc34 	movhi	r7,32752
   24804:	01bfffc4 	movi	r6,-1
   24808:	39ffffc4 	addi	r7,r7,-1
   2480c:	a009883a 	mov	r4,r20
   24810:	880b883a 	mov	r5,r17
   24814:	da000615 	stw	r8,24(sp)
   24818:	db000415 	stw	r12,16(sp)
   2481c:	002fce40 	call	2fce4 <__unorddf2>
   24820:	db000417 	ldw	r12,16(sp)
   24824:	da000617 	ldw	r8,24(sp)
   24828:	10046e1e 	bne	r2,zero,259e4 <___vfprintf_internal_r+0x17d4>
   2482c:	01dffc34 	movhi	r7,32752
   24830:	01bfffc4 	movi	r6,-1
   24834:	39ffffc4 	addi	r7,r7,-1
   24838:	a009883a 	mov	r4,r20
   2483c:	880b883a 	mov	r5,r17
   24840:	002ec500 	call	2ec50 <__ledf2>
   24844:	db000417 	ldw	r12,16(sp)
   24848:	da000617 	ldw	r8,24(sp)
   2484c:	0084650e 	bge	zero,r2,259e4 <___vfprintf_internal_r+0x17d4>
   24850:	000d883a 	mov	r6,zero
   24854:	000f883a 	mov	r7,zero
   24858:	a009883a 	mov	r4,r20
   2485c:	a80b883a 	mov	r5,r21
   24860:	002ec500 	call	2ec50 <__ledf2>
   24864:	db000417 	ldw	r12,16(sp)
   24868:	10059b16 	blt	r2,zero,25ed8 <___vfprintf_internal_r+0x1cc8>
   2486c:	db401343 	ldbu	r13,77(sp)
   24870:	e0801210 	cmplti	r2,fp,72
   24874:	1005721e 	bne	r2,zero,25e40 <___vfprintf_internal_r+0x1c30>
   24878:	044000f4 	movhi	r17,3
   2487c:	8c4e7204 	addi	r17,r17,14792
   24880:	00bfdfc4 	movi	r2,-129
   24884:	6084703a 	and	r2,r12,r2
   24888:	d8800415 	stw	r2,16(sp)
   2488c:	d8800e17 	ldw	r2,56(sp)
   24890:	050000c4 	movi	r20,3
   24894:	054000c4 	movi	r21,3
   24898:	d8800615 	stw	r2,24(sp)
   2489c:	0011883a 	mov	r8,zero
   248a0:	d8000715 	stw	zero,28(sp)
   248a4:	0000f606 	br	24c80 <___vfprintf_internal_r+0xa70>
   248a8:	d9000617 	ldw	r4,24(sp)
   248ac:	6080040c 	andi	r2,r12,16
   248b0:	20c00104 	addi	r3,r4,4
   248b4:	1003871e 	bne	r2,zero,256d4 <___vfprintf_internal_r+0x14c4>
   248b8:	6080100c 	andi	r2,r12,64
   248bc:	10056926 	beq	r2,zero,25e64 <___vfprintf_internal_r+0x1c54>
   248c0:	d8800617 	ldw	r2,24(sp)
   248c4:	002b883a 	mov	r21,zero
   248c8:	d8c00615 	stw	r3,24(sp)
   248cc:	1500000b 	ldhu	r20,0(r2)
   248d0:	0005883a 	mov	r2,zero
   248d4:	003f8f06 	br	24714 <___vfprintf_internal_r+0x504>
   248d8:	d9000617 	ldw	r4,24(sp)
   248dc:	6080040c 	andi	r2,r12,16
   248e0:	20c00104 	addi	r3,r4,4
   248e4:	1003801e 	bne	r2,zero,256e8 <___vfprintf_internal_r+0x14d8>
   248e8:	6080100c 	andi	r2,r12,64
   248ec:	10056326 	beq	r2,zero,25e7c <___vfprintf_internal_r+0x1c6c>
   248f0:	d8800617 	ldw	r2,24(sp)
   248f4:	002b883a 	mov	r21,zero
   248f8:	d8c00615 	stw	r3,24(sp)
   248fc:	1500000b 	ldhu	r20,0(r2)
   24900:	00800044 	movi	r2,1
   24904:	003f8306 	br	24714 <___vfprintf_internal_r+0x504>
   24908:	030000f4 	movhi	r12,3
   2490c:	89000450 	cmplti	r4,r17,17
   24910:	d8801b17 	ldw	r2,108(sp)
   24914:	630e8604 	addi	r12,r12,14872
   24918:	20001b1e 	bne	r4,zero,24988 <___vfprintf_internal_r+0x778>
   2491c:	05400404 	movi	r21,16
   24920:	6039883a 	mov	fp,r12
   24924:	00000406 	br	24938 <___vfprintf_internal_r+0x728>
   24928:	8c7ffc04 	addi	r17,r17,-16
   2492c:	89000448 	cmpgei	r4,r17,17
   24930:	b5800204 	addi	r22,r22,8
   24934:	20001326 	beq	r4,zero,24984 <___vfprintf_internal_r+0x774>
   24938:	10800044 	addi	r2,r2,1
   2493c:	18c00404 	addi	r3,r3,16
   24940:	b7000015 	stw	fp,0(r22)
   24944:	b5400115 	stw	r21,4(r22)
   24948:	d8c01c15 	stw	r3,112(sp)
   2494c:	d8801b15 	stw	r2,108(sp)
   24950:	11000208 	cmpgei	r4,r2,8
   24954:	203ff426 	beq	r4,zero,24928 <___vfprintf_internal_r+0x718>
   24958:	d9801a04 	addi	r6,sp,104
   2495c:	900b883a 	mov	r5,r18
   24960:	9809883a 	mov	r4,r19
   24964:	002ae5c0 	call	2ae5c <__sprint_r>
   24968:	103f361e 	bne	r2,zero,24644 <___vfprintf_internal_r+0x434>
   2496c:	8c7ffc04 	addi	r17,r17,-16
   24970:	89000448 	cmpgei	r4,r17,17
   24974:	d8c01c17 	ldw	r3,112(sp)
   24978:	d8801b17 	ldw	r2,108(sp)
   2497c:	dd802704 	addi	r22,sp,156
   24980:	203fed1e 	bne	r4,zero,24938 <___vfprintf_internal_r+0x728>
   24984:	e019883a 	mov	r12,fp
   24988:	10800044 	addi	r2,r2,1
   2498c:	1c47883a 	add	r3,r3,r17
   24990:	d8801b15 	stw	r2,108(sp)
   24994:	b3000015 	stw	r12,0(r22)
   24998:	b4400115 	stw	r17,4(r22)
   2499c:	d8c01c15 	stw	r3,112(sp)
   249a0:	10800210 	cmplti	r2,r2,8
   249a4:	103f1b1e 	bne	r2,zero,24614 <___vfprintf_internal_r+0x404>
   249a8:	d9801a04 	addi	r6,sp,104
   249ac:	900b883a 	mov	r5,r18
   249b0:	9809883a 	mov	r4,r19
   249b4:	002ae5c0 	call	2ae5c <__sprint_r>
   249b8:	103f221e 	bne	r2,zero,24644 <___vfprintf_internal_r+0x434>
   249bc:	d8c01c17 	ldw	r3,112(sp)
   249c0:	003f1406 	br	24614 <___vfprintf_internal_r+0x404>
   249c4:	9809883a 	mov	r4,r19
   249c8:	00284d80 	call	284d8 <__sinit>
   249cc:	003e2806 	br	24270 <___vfprintf_internal_r+0x60>
   249d0:	21003fcc 	andi	r4,r4,255
   249d4:	2005d91e 	bne	r4,zero,2613c <___vfprintf_internal_r+0x1f2c>
   249d8:	6080080c 	andi	r2,r12,32
   249dc:	10007026 	beq	r2,zero,24ba0 <___vfprintf_internal_r+0x990>
   249e0:	d8c00617 	ldw	r3,24(sp)
   249e4:	18800117 	ldw	r2,4(r3)
   249e8:	1d000017 	ldw	r20,0(r3)
   249ec:	18c00204 	addi	r3,r3,8
   249f0:	d8c00615 	stw	r3,24(sp)
   249f4:	102b883a 	mov	r21,r2
   249f8:	10007516 	blt	r2,zero,24bd0 <___vfprintf_internal_r+0x9c0>
   249fc:	40bfffd8 	cmpnei	r2,r8,-1
   24a00:	10034826 	beq	r2,zero,25724 <___vfprintf_internal_r+0x1514>
   24a04:	047fdfc4 	movi	r17,-129
   24a08:	6446703a 	and	r3,r12,r17
   24a0c:	a544b03a 	or	r2,r20,r21
   24a10:	d8c00415 	stw	r3,16(sp)
   24a14:	db401343 	ldbu	r13,77(sp)
   24a18:	1002ec26 	beq	r2,zero,255cc <___vfprintf_internal_r+0x13bc>
   24a1c:	db000417 	ldw	r12,16(sp)
   24a20:	a803421e 	bne	r21,zero,2572c <___vfprintf_internal_r+0x151c>
   24a24:	a08002a8 	cmpgeui	r2,r20,10
   24a28:	1003401e 	bne	r2,zero,2572c <___vfprintf_internal_r+0x151c>
   24a2c:	a5000c04 	addi	r20,r20,48
   24a30:	dd0026c5 	stb	r20,155(sp)
   24a34:	db000415 	stw	r12,16(sp)
   24a38:	05400044 	movi	r21,1
   24a3c:	dc4026c4 	addi	r17,sp,155
   24a40:	00008b06 	br	24c70 <___vfprintf_internal_r+0xa60>
   24a44:	bac00007 	ldb	r11,0(r23)
   24a48:	63001014 	ori	r12,r12,64
   24a4c:	003e3c06 	br	24340 <___vfprintf_internal_r+0x130>
   24a50:	21003fcc 	andi	r4,r4,255
   24a54:	2005bf1e 	bne	r4,zero,26154 <___vfprintf_internal_r+0x1f44>
   24a58:	008000f4 	movhi	r2,3
   24a5c:	108e7a04 	addi	r2,r2,14824
   24a60:	d8800c15 	stw	r2,48(sp)
   24a64:	6080080c 	andi	r2,r12,32
   24a68:	1000d526 	beq	r2,zero,24dc0 <___vfprintf_internal_r+0xbb0>
   24a6c:	d8800617 	ldw	r2,24(sp)
   24a70:	15000017 	ldw	r20,0(r2)
   24a74:	15400117 	ldw	r21,4(r2)
   24a78:	10800204 	addi	r2,r2,8
   24a7c:	d8800615 	stw	r2,24(sp)
   24a80:	6080004c 	andi	r2,r12,1
   24a84:	10000226 	beq	r2,zero,24a90 <___vfprintf_internal_r+0x880>
   24a88:	a544b03a 	or	r2,r20,r21
   24a8c:	1003071e 	bne	r2,zero,256ac <___vfprintf_internal_r+0x149c>
   24a90:	00800084 	movi	r2,2
   24a94:	003f1f06 	br	24714 <___vfprintf_internal_r+0x504>
   24a98:	d8800617 	ldw	r2,24(sp)
   24a9c:	d8001345 	stb	zero,77(sp)
   24aa0:	14400017 	ldw	r17,0(r2)
   24aa4:	10c00104 	addi	r3,r2,4
   24aa8:	88037526 	beq	r17,zero,25880 <___vfprintf_internal_r+0x1670>
   24aac:	40bfffe0 	cmpeqi	r2,r8,-1
   24ab0:	1004641e 	bne	r2,zero,25c44 <___vfprintf_internal_r+0x1a34>
   24ab4:	400d883a 	mov	r6,r8
   24ab8:	000b883a 	mov	r5,zero
   24abc:	8809883a 	mov	r4,r17
   24ac0:	d8c00715 	stw	r3,28(sp)
   24ac4:	db000615 	stw	r12,24(sp)
   24ac8:	da000415 	stw	r8,16(sp)
   24acc:	00291d40 	call	291d4 <memchr>
   24ad0:	da000417 	ldw	r8,16(sp)
   24ad4:	db000617 	ldw	r12,24(sp)
   24ad8:	d8c00717 	ldw	r3,28(sp)
   24adc:	10058726 	beq	r2,zero,260fc <___vfprintf_internal_r+0x1eec>
   24ae0:	146bc83a 	sub	r21,r2,r17
   24ae4:	a829883a 	mov	r20,r21
   24ae8:	d8c00615 	stw	r3,24(sp)
   24aec:	003e8b06 	br	2451c <___vfprintf_internal_r+0x30c>
   24af0:	bac00007 	ldb	r11,0(r23)
   24af4:	63000814 	ori	r12,r12,32
   24af8:	003e1106 	br	24340 <___vfprintf_internal_r+0x130>
   24afc:	d8c00617 	ldw	r3,24(sp)
   24b00:	00800c04 	movi	r2,48
   24b04:	d8801385 	stb	r2,78(sp)
   24b08:	00801e04 	movi	r2,120
   24b0c:	010000f4 	movhi	r4,3
   24b10:	d88013c5 	stb	r2,79(sp)
   24b14:	18800104 	addi	r2,r3,4
   24b18:	d8800615 	stw	r2,24(sp)
   24b1c:	208e7a04 	addi	r2,r4,14824
   24b20:	d8800c15 	stw	r2,48(sp)
   24b24:	1d000017 	ldw	r20,0(r3)
   24b28:	002b883a 	mov	r21,zero
   24b2c:	63000094 	ori	r12,r12,2
   24b30:	00800084 	movi	r2,2
   24b34:	07001e04 	movi	fp,120
   24b38:	003ef606 	br	24714 <___vfprintf_internal_r+0x504>
   24b3c:	21003fcc 	andi	r4,r4,255
   24b40:	2005861e 	bne	r4,zero,2615c <___vfprintf_internal_r+0x1f4c>
   24b44:	d9000617 	ldw	r4,24(sp)
   24b48:	6080080c 	andi	r2,r12,32
   24b4c:	20c00017 	ldw	r3,0(r4)
   24b50:	21000104 	addi	r4,r4,4
   24b54:	d9000615 	stw	r4,24(sp)
   24b58:	1002cf1e 	bne	r2,zero,25698 <___vfprintf_internal_r+0x1488>
   24b5c:	6080040c 	andi	r2,r12,16
   24b60:	10036d1e 	bne	r2,zero,25918 <___vfprintf_internal_r+0x1708>
   24b64:	6300100c 	andi	r12,r12,64
   24b68:	60036b26 	beq	r12,zero,25918 <___vfprintf_internal_r+0x1708>
   24b6c:	d8800517 	ldw	r2,20(sp)
   24b70:	1880000d 	sth	r2,0(r3)
   24b74:	003dda06 	br	242e0 <___vfprintf_internal_r+0xd0>
   24b78:	bac00007 	ldb	r11,0(r23)
   24b7c:	58801b18 	cmpnei	r2,r11,108
   24b80:	10032e26 	beq	r2,zero,2583c <___vfprintf_internal_r+0x162c>
   24b84:	63000414 	ori	r12,r12,16
   24b88:	003ded06 	br	24340 <___vfprintf_internal_r+0x130>
   24b8c:	21003fcc 	andi	r4,r4,255
   24b90:	20056e1e 	bne	r4,zero,2614c <___vfprintf_internal_r+0x1f3c>
   24b94:	63000414 	ori	r12,r12,16
   24b98:	6080080c 	andi	r2,r12,32
   24b9c:	103f901e 	bne	r2,zero,249e0 <___vfprintf_internal_r+0x7d0>
   24ba0:	d9000617 	ldw	r4,24(sp)
   24ba4:	6080040c 	andi	r2,r12,16
   24ba8:	20c00104 	addi	r3,r4,4
   24bac:	1002d31e 	bne	r2,zero,256fc <___vfprintf_internal_r+0x14ec>
   24bb0:	6080100c 	andi	r2,r12,64
   24bb4:	1004a526 	beq	r2,zero,25e4c <___vfprintf_internal_r+0x1c3c>
   24bb8:	d8800617 	ldw	r2,24(sp)
   24bbc:	d8c00615 	stw	r3,24(sp)
   24bc0:	1500000f 	ldh	r20,0(r2)
   24bc4:	a02bd7fa 	srai	r21,r20,31
   24bc8:	a805883a 	mov	r2,r21
   24bcc:	103f8b0e 	bge	r2,zero,249fc <___vfprintf_internal_r+0x7ec>
   24bd0:	a004c03a 	cmpne	r2,r20,zero
   24bd4:	056bc83a 	sub	r21,zero,r21
   24bd8:	a8abc83a 	sub	r21,r21,r2
   24bdc:	00800b44 	movi	r2,45
   24be0:	d8801345 	stb	r2,77(sp)
   24be4:	40ffffe0 	cmpeqi	r3,r8,-1
   24be8:	0529c83a 	sub	r20,zero,r20
   24bec:	03400b44 	movi	r13,45
   24bf0:	00800044 	movi	r2,1
   24bf4:	183ecb26 	beq	r3,zero,24724 <___vfprintf_internal_r+0x514>
   24bf8:	10c00060 	cmpeqi	r3,r2,1
   24bfc:	183f881e 	bne	r3,zero,24a20 <___vfprintf_internal_r+0x810>
   24c00:	108000a0 	cmpeqi	r2,r2,2
   24c04:	10012f1e 	bne	r2,zero,250c4 <___vfprintf_internal_r+0xeb4>
   24c08:	dc402704 	addi	r17,sp,156
   24c0c:	a004d0fa 	srli	r2,r20,3
   24c10:	a806977a 	slli	r3,r21,29
   24c14:	a82ad0fa 	srli	r21,r21,3
   24c18:	a50001cc 	andi	r20,r20,7
   24c1c:	a1000c04 	addi	r4,r20,48
   24c20:	18a8b03a 	or	r20,r3,r2
   24c24:	893fffc5 	stb	r4,-1(r17)
   24c28:	a544b03a 	or	r2,r20,r21
   24c2c:	880b883a 	mov	r5,r17
   24c30:	8c7fffc4 	addi	r17,r17,-1
   24c34:	103ff51e 	bne	r2,zero,24c0c <___vfprintf_internal_r+0x9fc>
   24c38:	6080004c 	andi	r2,r12,1
   24c3c:	10012e26 	beq	r2,zero,250f8 <___vfprintf_internal_r+0xee8>
   24c40:	21003fcc 	andi	r4,r4,255
   24c44:	2100201c 	xori	r4,r4,128
   24c48:	213fe004 	addi	r4,r4,-128
   24c4c:	20800c18 	cmpnei	r2,r4,48
   24c50:	10012926 	beq	r2,zero,250f8 <___vfprintf_internal_r+0xee8>
   24c54:	00800c04 	movi	r2,48
   24c58:	297fff84 	addi	r5,r5,-2
   24c5c:	88bfffc5 	stb	r2,-1(r17)
   24c60:	d8802704 	addi	r2,sp,156
   24c64:	116bc83a 	sub	r21,r2,r5
   24c68:	db000415 	stw	r12,16(sp)
   24c6c:	2823883a 	mov	r17,r5
   24c70:	4029883a 	mov	r20,r8
   24c74:	4540010e 	bge	r8,r21,24c7c <___vfprintf_internal_r+0xa6c>
   24c78:	a829883a 	mov	r20,r21
   24c7c:	d8000715 	stw	zero,28(sp)
   24c80:	6b403fcc 	andi	r13,r13,255
   24c84:	6b40201c 	xori	r13,r13,128
   24c88:	6b7fe004 	addi	r13,r13,-128
   24c8c:	683e2626 	beq	r13,zero,24528 <___vfprintf_internal_r+0x318>
   24c90:	a5000044 	addi	r20,r20,1
   24c94:	003e2406 	br	24528 <___vfprintf_internal_r+0x318>
   24c98:	bac00007 	ldb	r11,0(r23)
   24c9c:	63002014 	ori	r12,r12,128
   24ca0:	003da706 	br	24340 <___vfprintf_internal_r+0x130>
   24ca4:	bf000007 	ldb	fp,0(r23)
   24ca8:	b8c00044 	addi	r3,r23,1
   24cac:	e0800aa0 	cmpeqi	r2,fp,42
   24cb0:	1005821e 	bne	r2,zero,262bc <___vfprintf_internal_r+0x20ac>
   24cb4:	e0bff404 	addi	r2,fp,-48
   24cb8:	118002b0 	cmpltui	r6,r2,10
   24cbc:	182f883a 	mov	r23,r3
   24cc0:	0011883a 	mov	r8,zero
   24cc4:	303da026 	beq	r6,zero,24348 <___vfprintf_internal_r+0x138>
   24cc8:	bf000007 	ldb	fp,0(r23)
   24ccc:	420002a4 	muli	r8,r8,10
   24cd0:	bdc00044 	addi	r23,r23,1
   24cd4:	4091883a 	add	r8,r8,r2
   24cd8:	e0bff404 	addi	r2,fp,-48
   24cdc:	10c002b0 	cmpltui	r3,r2,10
   24ce0:	183ff91e 	bne	r3,zero,24cc8 <___vfprintf_internal_r+0xab8>
   24ce4:	003d9806 	br	24348 <___vfprintf_internal_r+0x138>
   24ce8:	bf000003 	ldbu	fp,0(r23)
   24cec:	e2c03fcc 	andi	r11,fp,255
   24cf0:	5ac0201c 	xori	r11,r11,128
   24cf4:	63000114 	ori	r12,r12,4
   24cf8:	5affe004 	addi	r11,r11,-128
   24cfc:	003d9006 	br	24340 <___vfprintf_internal_r+0x130>
   24d00:	bac00007 	ldb	r11,0(r23)
   24d04:	01000044 	movi	r4,1
   24d08:	01400ac4 	movi	r5,43
   24d0c:	003d8c06 	br	24340 <___vfprintf_internal_r+0x130>
   24d10:	d8800617 	ldw	r2,24(sp)
   24d14:	bf000003 	ldbu	fp,0(r23)
   24d18:	14000017 	ldw	r16,0(r2)
   24d1c:	10800104 	addi	r2,r2,4
   24d20:	8002aa16 	blt	r16,zero,257cc <___vfprintf_internal_r+0x15bc>
   24d24:	d8800615 	stw	r2,24(sp)
   24d28:	e2c03fcc 	andi	r11,fp,255
   24d2c:	5ac0201c 	xori	r11,r11,128
   24d30:	5affe004 	addi	r11,r11,-128
   24d34:	003d8206 	br	24340 <___vfprintf_internal_r+0x130>
   24d38:	bac00007 	ldb	r11,0(r23)
   24d3c:	63000054 	ori	r12,r12,1
   24d40:	003d7f06 	br	24340 <___vfprintf_internal_r+0x130>
   24d44:	28803fcc 	andi	r2,r5,255
   24d48:	1080201c 	xori	r2,r2,128
   24d4c:	10bfe004 	addi	r2,r2,-128
   24d50:	bf000003 	ldbu	fp,0(r23)
   24d54:	103ff41e 	bne	r2,zero,24d28 <___vfprintf_internal_r+0xb18>
   24d58:	e2c03fcc 	andi	r11,fp,255
   24d5c:	5ac0201c 	xori	r11,r11,128
   24d60:	01000044 	movi	r4,1
   24d64:	01400804 	movi	r5,32
   24d68:	5affe004 	addi	r11,r11,-128
   24d6c:	003d7406 	br	24340 <___vfprintf_internal_r+0x130>
   24d70:	bac00007 	ldb	r11,0(r23)
   24d74:	63000214 	ori	r12,r12,8
   24d78:	003d7106 	br	24340 <___vfprintf_internal_r+0x130>
   24d7c:	d8c00617 	ldw	r3,24(sp)
   24d80:	d8001345 	stb	zero,77(sp)
   24d84:	05000044 	movi	r20,1
   24d88:	18800017 	ldw	r2,0(r3)
   24d8c:	18c00104 	addi	r3,r3,4
   24d90:	d8c00615 	stw	r3,24(sp)
   24d94:	d8801d05 	stb	r2,116(sp)
   24d98:	05400044 	movi	r21,1
   24d9c:	dc401d04 	addi	r17,sp,116
   24da0:	003dde06 	br	2451c <___vfprintf_internal_r+0x30c>
   24da4:	21003fcc 	andi	r4,r4,255
   24da8:	2004e61e 	bne	r4,zero,26144 <___vfprintf_internal_r+0x1f34>
   24dac:	008000f4 	movhi	r2,3
   24db0:	108e7504 	addi	r2,r2,14804
   24db4:	d8800c15 	stw	r2,48(sp)
   24db8:	6080080c 	andi	r2,r12,32
   24dbc:	103f2b1e 	bne	r2,zero,24a6c <___vfprintf_internal_r+0x85c>
   24dc0:	d9000617 	ldw	r4,24(sp)
   24dc4:	6080040c 	andi	r2,r12,16
   24dc8:	20c00104 	addi	r3,r4,4
   24dcc:	10023d1e 	bne	r2,zero,256c4 <___vfprintf_internal_r+0x14b4>
   24dd0:	6080100c 	andi	r2,r12,64
   24dd4:	10042f26 	beq	r2,zero,25e94 <___vfprintf_internal_r+0x1c84>
   24dd8:	d8800617 	ldw	r2,24(sp)
   24ddc:	002b883a 	mov	r21,zero
   24de0:	d8c00615 	stw	r3,24(sp)
   24de4:	1500000b 	ldhu	r20,0(r2)
   24de8:	003f2506 	br	24a80 <___vfprintf_internal_r+0x870>
   24dec:	e2c01990 	cmplti	r11,fp,102
   24df0:	5800f61e 	bne	r11,zero,251cc <___vfprintf_internal_r+0xfbc>
   24df4:	d9000917 	ldw	r4,36(sp)
   24df8:	d9400a17 	ldw	r5,40(sp)
   24dfc:	000d883a 	mov	r6,zero
   24e00:	000f883a 	mov	r7,zero
   24e04:	d8c00e15 	stw	r3,56(sp)
   24e08:	002eae00 	call	2eae0 <__eqdf2>
   24e0c:	d8c00e17 	ldw	r3,56(sp)
   24e10:	1001881e 	bne	r2,zero,25434 <___vfprintf_internal_r+0x1224>
   24e14:	d8801b17 	ldw	r2,108(sp)
   24e18:	010000f4 	movhi	r4,3
   24e1c:	210e8104 	addi	r4,r4,14852
   24e20:	10800044 	addi	r2,r2,1
   24e24:	18c00044 	addi	r3,r3,1
   24e28:	b1000015 	stw	r4,0(r22)
   24e2c:	01000044 	movi	r4,1
   24e30:	d8801b15 	stw	r2,108(sp)
   24e34:	b1000115 	stw	r4,4(r22)
   24e38:	d8c01c15 	stw	r3,112(sp)
   24e3c:	10800208 	cmpgei	r2,r2,8
   24e40:	10036e1e 	bne	r2,zero,25bfc <___vfprintf_internal_r+0x19ec>
   24e44:	b5800204 	addi	r22,r22,8
   24e48:	d8801417 	ldw	r2,80(sp)
   24e4c:	d9000817 	ldw	r4,32(sp)
   24e50:	11020b0e 	bge	r2,r4,25680 <___vfprintf_internal_r+0x1470>
   24e54:	d8800d17 	ldw	r2,52(sp)
   24e58:	d9000b17 	ldw	r4,44(sp)
   24e5c:	b0800015 	stw	r2,0(r22)
   24e60:	d8801b17 	ldw	r2,108(sp)
   24e64:	1907883a 	add	r3,r3,r4
   24e68:	b1000115 	stw	r4,4(r22)
   24e6c:	10800044 	addi	r2,r2,1
   24e70:	d8801b15 	stw	r2,108(sp)
   24e74:	d8c01c15 	stw	r3,112(sp)
   24e78:	10800208 	cmpgei	r2,r2,8
   24e7c:	1002761e 	bne	r2,zero,25858 <___vfprintf_internal_r+0x1648>
   24e80:	b5800204 	addi	r22,r22,8
   24e84:	d8800817 	ldw	r2,32(sp)
   24e88:	157fffc4 	addi	r21,r2,-1
   24e8c:	057ddc0e 	bge	zero,r21,24600 <___vfprintf_internal_r+0x3f0>
   24e90:	01c000f4 	movhi	r7,3
   24e94:	a9000450 	cmplti	r4,r21,17
   24e98:	d8801b17 	ldw	r2,108(sp)
   24e9c:	39ce8204 	addi	r7,r7,14856
   24ea0:	2003521e 	bne	r4,zero,25bec <___vfprintf_internal_r+0x19dc>
   24ea4:	07000404 	movi	fp,16
   24ea8:	3823883a 	mov	r17,r7
   24eac:	00000406 	br	24ec0 <___vfprintf_internal_r+0xcb0>
   24eb0:	b5800204 	addi	r22,r22,8
   24eb4:	ad7ffc04 	addi	r21,r21,-16
   24eb8:	a9000448 	cmpgei	r4,r21,17
   24ebc:	20034a26 	beq	r4,zero,25be8 <___vfprintf_internal_r+0x19d8>
   24ec0:	10800044 	addi	r2,r2,1
   24ec4:	18c00404 	addi	r3,r3,16
   24ec8:	b4400015 	stw	r17,0(r22)
   24ecc:	b7000115 	stw	fp,4(r22)
   24ed0:	d8c01c15 	stw	r3,112(sp)
   24ed4:	d8801b15 	stw	r2,108(sp)
   24ed8:	11000208 	cmpgei	r4,r2,8
   24edc:	203ff426 	beq	r4,zero,24eb0 <___vfprintf_internal_r+0xca0>
   24ee0:	d9801a04 	addi	r6,sp,104
   24ee4:	900b883a 	mov	r5,r18
   24ee8:	9809883a 	mov	r4,r19
   24eec:	002ae5c0 	call	2ae5c <__sprint_r>
   24ef0:	103dd41e 	bne	r2,zero,24644 <___vfprintf_internal_r+0x434>
   24ef4:	d8c01c17 	ldw	r3,112(sp)
   24ef8:	d8801b17 	ldw	r2,108(sp)
   24efc:	dd802704 	addi	r22,sp,156
   24f00:	003fec06 	br	24eb4 <___vfprintf_internal_r+0xca4>
   24f04:	8519c83a 	sub	r12,r16,r20
   24f08:	033dae0e 	bge	zero,r12,245c4 <___vfprintf_internal_r+0x3b4>
   24f0c:	01c000f4 	movhi	r7,3
   24f10:	61000450 	cmplti	r4,r12,17
   24f14:	d8801b17 	ldw	r2,108(sp)
   24f18:	39ce8204 	addi	r7,r7,14856
   24f1c:	2000281e 	bne	r4,zero,24fc0 <___vfprintf_internal_r+0xdb0>
   24f20:	dc400e15 	stw	r17,56(sp)
   24f24:	dc000f15 	stw	r16,60(sp)
   24f28:	b009883a 	mov	r4,r22
   24f2c:	03400404 	movi	r13,16
   24f30:	a02d883a 	mov	r22,r20
   24f34:	6021883a 	mov	r16,r12
   24f38:	4029883a 	mov	r20,r8
   24f3c:	3823883a 	mov	r17,r7
   24f40:	00000406 	br	24f54 <___vfprintf_internal_r+0xd44>
   24f44:	843ffc04 	addi	r16,r16,-16
   24f48:	81400448 	cmpgei	r5,r16,17
   24f4c:	21000204 	addi	r4,r4,8
   24f50:	28001426 	beq	r5,zero,24fa4 <___vfprintf_internal_r+0xd94>
   24f54:	10800044 	addi	r2,r2,1
   24f58:	18c00404 	addi	r3,r3,16
   24f5c:	24400015 	stw	r17,0(r4)
   24f60:	23400115 	stw	r13,4(r4)
   24f64:	d8c01c15 	stw	r3,112(sp)
   24f68:	d8801b15 	stw	r2,108(sp)
   24f6c:	11400208 	cmpgei	r5,r2,8
   24f70:	283ff426 	beq	r5,zero,24f44 <___vfprintf_internal_r+0xd34>
   24f74:	d9801a04 	addi	r6,sp,104
   24f78:	900b883a 	mov	r5,r18
   24f7c:	9809883a 	mov	r4,r19
   24f80:	002ae5c0 	call	2ae5c <__sprint_r>
   24f84:	103daf1e 	bne	r2,zero,24644 <___vfprintf_internal_r+0x434>
   24f88:	843ffc04 	addi	r16,r16,-16
   24f8c:	81400448 	cmpgei	r5,r16,17
   24f90:	d8c01c17 	ldw	r3,112(sp)
   24f94:	d8801b17 	ldw	r2,108(sp)
   24f98:	d9002704 	addi	r4,sp,156
   24f9c:	03400404 	movi	r13,16
   24fa0:	283fec1e 	bne	r5,zero,24f54 <___vfprintf_internal_r+0xd44>
   24fa4:	8019883a 	mov	r12,r16
   24fa8:	880f883a 	mov	r7,r17
   24fac:	dc000f17 	ldw	r16,60(sp)
   24fb0:	dc400e17 	ldw	r17,56(sp)
   24fb4:	a011883a 	mov	r8,r20
   24fb8:	b029883a 	mov	r20,r22
   24fbc:	202d883a 	mov	r22,r4
   24fc0:	10800044 	addi	r2,r2,1
   24fc4:	1b07883a 	add	r3,r3,r12
   24fc8:	d8801b15 	stw	r2,108(sp)
   24fcc:	b1c00015 	stw	r7,0(r22)
   24fd0:	b3000115 	stw	r12,4(r22)
   24fd4:	d8c01c15 	stw	r3,112(sp)
   24fd8:	10800208 	cmpgei	r2,r2,8
   24fdc:	10030f1e 	bne	r2,zero,25c1c <___vfprintf_internal_r+0x1a0c>
   24fe0:	4551c83a 	sub	r8,r8,r21
   24fe4:	b5800204 	addi	r22,r22,8
   24fe8:	023d780e 	bge	zero,r8,245cc <___vfprintf_internal_r+0x3bc>
   24fec:	01c000f4 	movhi	r7,3
   24ff0:	41000450 	cmplti	r4,r8,17
   24ff4:	d8801b17 	ldw	r2,108(sp)
   24ff8:	39ce8204 	addi	r7,r7,14856
   24ffc:	2000221e 	bne	r4,zero,25088 <___vfprintf_internal_r+0xe78>
   25000:	dc400e15 	stw	r17,56(sp)
   25004:	dc000f15 	stw	r16,60(sp)
   25008:	03000404 	movi	r12,16
   2500c:	4021883a 	mov	r16,r8
   25010:	3823883a 	mov	r17,r7
   25014:	00000406 	br	25028 <___vfprintf_internal_r+0xe18>
   25018:	843ffc04 	addi	r16,r16,-16
   2501c:	81000448 	cmpgei	r4,r16,17
   25020:	b5800204 	addi	r22,r22,8
   25024:	20001426 	beq	r4,zero,25078 <___vfprintf_internal_r+0xe68>
   25028:	10800044 	addi	r2,r2,1
   2502c:	18c00404 	addi	r3,r3,16
   25030:	b4400015 	stw	r17,0(r22)
   25034:	b3000115 	stw	r12,4(r22)
   25038:	d8c01c15 	stw	r3,112(sp)
   2503c:	d8801b15 	stw	r2,108(sp)
   25040:	11000208 	cmpgei	r4,r2,8
   25044:	203ff426 	beq	r4,zero,25018 <___vfprintf_internal_r+0xe08>
   25048:	d9801a04 	addi	r6,sp,104
   2504c:	900b883a 	mov	r5,r18
   25050:	9809883a 	mov	r4,r19
   25054:	002ae5c0 	call	2ae5c <__sprint_r>
   25058:	103d7a1e 	bne	r2,zero,24644 <___vfprintf_internal_r+0x434>
   2505c:	843ffc04 	addi	r16,r16,-16
   25060:	81000448 	cmpgei	r4,r16,17
   25064:	d8c01c17 	ldw	r3,112(sp)
   25068:	d8801b17 	ldw	r2,108(sp)
   2506c:	dd802704 	addi	r22,sp,156
   25070:	03000404 	movi	r12,16
   25074:	203fec1e 	bne	r4,zero,25028 <___vfprintf_internal_r+0xe18>
   25078:	8011883a 	mov	r8,r16
   2507c:	880f883a 	mov	r7,r17
   25080:	dc000f17 	ldw	r16,60(sp)
   25084:	dc400e17 	ldw	r17,56(sp)
   25088:	10800044 	addi	r2,r2,1
   2508c:	1a07883a 	add	r3,r3,r8
   25090:	d8801b15 	stw	r2,108(sp)
   25094:	b1c00015 	stw	r7,0(r22)
   25098:	b2000115 	stw	r8,4(r22)
   2509c:	d8c01c15 	stw	r3,112(sp)
   250a0:	10800208 	cmpgei	r2,r2,8
   250a4:	10016e1e 	bne	r2,zero,25660 <___vfprintf_internal_r+0x1450>
   250a8:	b5800204 	addi	r22,r22,8
   250ac:	003d4706 	br	245cc <___vfprintf_internal_r+0x3bc>
   250b0:	10c00060 	cmpeqi	r3,r2,1
   250b4:	1803c81e 	bne	r3,zero,25fd8 <___vfprintf_internal_r+0x1dc8>
   250b8:	108000a0 	cmpeqi	r2,r2,2
   250bc:	db000417 	ldw	r12,16(sp)
   250c0:	103ed126 	beq	r2,zero,24c08 <___vfprintf_internal_r+0x9f8>
   250c4:	d9000c17 	ldw	r4,48(sp)
   250c8:	dc402704 	addi	r17,sp,156
   250cc:	a08003cc 	andi	r2,r20,15
   250d0:	a806973a 	slli	r3,r21,28
   250d4:	a028d13a 	srli	r20,r20,4
   250d8:	2085883a 	add	r2,r4,r2
   250dc:	10800003 	ldbu	r2,0(r2)
   250e0:	a82ad13a 	srli	r21,r21,4
   250e4:	1d28b03a 	or	r20,r3,r20
   250e8:	88bfffc5 	stb	r2,-1(r17)
   250ec:	a544b03a 	or	r2,r20,r21
   250f0:	8c7fffc4 	addi	r17,r17,-1
   250f4:	103ff51e 	bne	r2,zero,250cc <___vfprintf_internal_r+0xebc>
   250f8:	d8802704 	addi	r2,sp,156
   250fc:	146bc83a 	sub	r21,r2,r17
   25100:	db000415 	stw	r12,16(sp)
   25104:	003eda06 	br	24c70 <___vfprintf_internal_r+0xa60>
   25108:	d9801a04 	addi	r6,sp,104
   2510c:	900b883a 	mov	r5,r18
   25110:	9809883a 	mov	r4,r19
   25114:	002ae5c0 	call	2ae5c <__sprint_r>
   25118:	103d4426 	beq	r2,zero,2462c <___vfprintf_internal_r+0x41c>
   2511c:	003d4906 	br	24644 <___vfprintf_internal_r+0x434>
   25120:	d9801a04 	addi	r6,sp,104
   25124:	900b883a 	mov	r5,r18
   25128:	9809883a 	mov	r4,r19
   2512c:	002ae5c0 	call	2ae5c <__sprint_r>
   25130:	103d441e 	bne	r2,zero,24644 <___vfprintf_internal_r+0x434>
   25134:	d9401417 	ldw	r5,80(sp)
   25138:	d8c01c17 	ldw	r3,112(sp)
   2513c:	dd802704 	addi	r22,sp,156
   25140:	2802c81e 	bne	r5,zero,25c64 <___vfprintf_internal_r+0x1a54>
   25144:	d8800417 	ldw	r2,16(sp)
   25148:	d9000817 	ldw	r4,32(sp)
   2514c:	1080004c 	andi	r2,r2,1
   25150:	1104b03a 	or	r2,r2,r4
   25154:	103d2a26 	beq	r2,zero,24600 <___vfprintf_internal_r+0x3f0>
   25158:	d8800d17 	ldw	r2,52(sp)
   2515c:	d9000b17 	ldw	r4,44(sp)
   25160:	b0800015 	stw	r2,0(r22)
   25164:	d8801b17 	ldw	r2,108(sp)
   25168:	20c7883a 	add	r3,r4,r3
   2516c:	b1000115 	stw	r4,4(r22)
   25170:	10800044 	addi	r2,r2,1
   25174:	d8c01c15 	stw	r3,112(sp)
   25178:	d8801b15 	stw	r2,108(sp)
   2517c:	11000208 	cmpgei	r4,r2,8
   25180:	2003821e 	bne	r4,zero,25f8c <___vfprintf_internal_r+0x1d7c>
   25184:	b5800204 	addi	r22,r22,8
   25188:	d9000817 	ldw	r4,32(sp)
   2518c:	10800044 	addi	r2,r2,1
   25190:	d8801b15 	stw	r2,108(sp)
   25194:	20c7883a 	add	r3,r4,r3
   25198:	b4400015 	stw	r17,0(r22)
   2519c:	b1000115 	stw	r4,4(r22)
   251a0:	d8c01c15 	stw	r3,112(sp)
   251a4:	10800208 	cmpgei	r2,r2,8
   251a8:	103d1426 	beq	r2,zero,245fc <___vfprintf_internal_r+0x3ec>
   251ac:	d9801a04 	addi	r6,sp,104
   251b0:	900b883a 	mov	r5,r18
   251b4:	9809883a 	mov	r4,r19
   251b8:	002ae5c0 	call	2ae5c <__sprint_r>
   251bc:	103d211e 	bne	r2,zero,24644 <___vfprintf_internal_r+0x434>
   251c0:	d8c01c17 	ldw	r3,112(sp)
   251c4:	dd802704 	addi	r22,sp,156
   251c8:	003d0d06 	br	24600 <___vfprintf_internal_r+0x3f0>
   251cc:	d8800817 	ldw	r2,32(sp)
   251d0:	da001b17 	ldw	r8,108(sp)
   251d4:	18c00044 	addi	r3,r3,1
   251d8:	10800088 	cmpgei	r2,r2,2
   251dc:	45400044 	addi	r21,r8,1
   251e0:	b7000204 	addi	fp,r22,8
   251e4:	1000ec26 	beq	r2,zero,25598 <___vfprintf_internal_r+0x1388>
   251e8:	00800044 	movi	r2,1
   251ec:	b0800115 	stw	r2,4(r22)
   251f0:	b4400015 	stw	r17,0(r22)
   251f4:	d8c01c15 	stw	r3,112(sp)
   251f8:	dd401b15 	stw	r21,108(sp)
   251fc:	a8800210 	cmplti	r2,r21,8
   25200:	1001d126 	beq	r2,zero,25948 <___vfprintf_internal_r+0x1738>
   25204:	d8800b17 	ldw	r2,44(sp)
   25208:	d9000d17 	ldw	r4,52(sp)
   2520c:	ad400044 	addi	r21,r21,1
   25210:	1887883a 	add	r3,r3,r2
   25214:	e0800115 	stw	r2,4(fp)
   25218:	e1000015 	stw	r4,0(fp)
   2521c:	d8c01c15 	stw	r3,112(sp)
   25220:	dd401b15 	stw	r21,108(sp)
   25224:	a8800208 	cmpgei	r2,r21,8
   25228:	1001be1e 	bne	r2,zero,25924 <___vfprintf_internal_r+0x1714>
   2522c:	e7000204 	addi	fp,fp,8
   25230:	d9000917 	ldw	r4,36(sp)
   25234:	d9400a17 	ldw	r5,40(sp)
   25238:	aa000044 	addi	r8,r21,1
   2523c:	000d883a 	mov	r6,zero
   25240:	000f883a 	mov	r7,zero
   25244:	d8c00e15 	stw	r3,56(sp)
   25248:	da000715 	stw	r8,28(sp)
   2524c:	002eae00 	call	2eae0 <__eqdf2>
   25250:	d8c00817 	ldw	r3,32(sp)
   25254:	da000717 	ldw	r8,28(sp)
   25258:	e5800204 	addi	r22,fp,8
   2525c:	1affffc4 	addi	r11,r3,-1
   25260:	d8c00e17 	ldw	r3,56(sp)
   25264:	1000de26 	beq	r2,zero,255e0 <___vfprintf_internal_r+0x13d0>
   25268:	8a400044 	addi	r9,r17,1
   2526c:	1ac7883a 	add	r3,r3,r11
   25270:	da001b15 	stw	r8,108(sp)
   25274:	e2400015 	stw	r9,0(fp)
   25278:	e2c00115 	stw	r11,4(fp)
   2527c:	d8c01c15 	stw	r3,112(sp)
   25280:	42000208 	cmpgei	r8,r8,8
   25284:	4001621e 	bne	r8,zero,25810 <___vfprintf_internal_r+0x1600>
   25288:	e0800404 	addi	r2,fp,16
   2528c:	aa000084 	addi	r8,r21,2
   25290:	b039883a 	mov	fp,r22
   25294:	102d883a 	mov	r22,r2
   25298:	d9001017 	ldw	r4,64(sp)
   2529c:	d8801644 	addi	r2,sp,89
   252a0:	da001b15 	stw	r8,108(sp)
   252a4:	20c7883a 	add	r3,r4,r3
   252a8:	e0800015 	stw	r2,0(fp)
   252ac:	e1000115 	stw	r4,4(fp)
   252b0:	d8c01c15 	stw	r3,112(sp)
   252b4:	42000210 	cmplti	r8,r8,8
   252b8:	403cd11e 	bne	r8,zero,24600 <___vfprintf_internal_r+0x3f0>
   252bc:	003fbb06 	br	251ac <___vfprintf_internal_r+0xf9c>
   252c0:	db000417 	ldw	r12,16(sp)
   252c4:	003e4c06 	br	24bf8 <___vfprintf_internal_r+0x9e8>
   252c8:	030000f4 	movhi	r12,3
   252cc:	39000450 	cmplti	r4,r7,17
   252d0:	d8801b17 	ldw	r2,108(sp)
   252d4:	630e8604 	addi	r12,r12,14872
   252d8:	2000321e 	bne	r4,zero,253a4 <___vfprintf_internal_r+0x1194>
   252dc:	dc401115 	stw	r17,68(sp)
   252e0:	b009883a 	mov	r4,r22
   252e4:	9023883a 	mov	r17,r18
   252e8:	a82d883a 	mov	r22,r21
   252ec:	ddc01215 	stw	r23,72(sp)
   252f0:	03c00404 	movi	r15,16
   252f4:	a02f883a 	mov	r23,r20
   252f8:	db800e15 	stw	r14,56(sp)
   252fc:	8029883a 	mov	r20,r16
   25300:	db400f15 	stw	r13,60(sp)
   25304:	402b883a 	mov	r21,r8
   25308:	3821883a 	mov	r16,r7
   2530c:	6025883a 	mov	r18,r12
   25310:	00000406 	br	25324 <___vfprintf_internal_r+0x1114>
   25314:	843ffc04 	addi	r16,r16,-16
   25318:	81800448 	cmpgei	r6,r16,17
   2531c:	21000204 	addi	r4,r4,8
   25320:	30001426 	beq	r6,zero,25374 <___vfprintf_internal_r+0x1164>
   25324:	10800044 	addi	r2,r2,1
   25328:	18c00404 	addi	r3,r3,16
   2532c:	24800015 	stw	r18,0(r4)
   25330:	23c00115 	stw	r15,4(r4)
   25334:	d8c01c15 	stw	r3,112(sp)
   25338:	d8801b15 	stw	r2,108(sp)
   2533c:	11800208 	cmpgei	r6,r2,8
   25340:	303ff426 	beq	r6,zero,25314 <___vfprintf_internal_r+0x1104>
   25344:	d9801a04 	addi	r6,sp,104
   25348:	880b883a 	mov	r5,r17
   2534c:	9809883a 	mov	r4,r19
   25350:	002ae5c0 	call	2ae5c <__sprint_r>
   25354:	1001a11e 	bne	r2,zero,259dc <___vfprintf_internal_r+0x17cc>
   25358:	843ffc04 	addi	r16,r16,-16
   2535c:	81800448 	cmpgei	r6,r16,17
   25360:	d8c01c17 	ldw	r3,112(sp)
   25364:	d8801b17 	ldw	r2,108(sp)
   25368:	d9002704 	addi	r4,sp,156
   2536c:	03c00404 	movi	r15,16
   25370:	303fec1e 	bne	r6,zero,25324 <___vfprintf_internal_r+0x1114>
   25374:	800f883a 	mov	r7,r16
   25378:	9019883a 	mov	r12,r18
   2537c:	a021883a 	mov	r16,r20
   25380:	8825883a 	mov	r18,r17
   25384:	b829883a 	mov	r20,r23
   25388:	db800e17 	ldw	r14,56(sp)
   2538c:	db400f17 	ldw	r13,60(sp)
   25390:	ddc01217 	ldw	r23,72(sp)
   25394:	dc401117 	ldw	r17,68(sp)
   25398:	a811883a 	mov	r8,r21
   2539c:	b02b883a 	mov	r21,r22
   253a0:	202d883a 	mov	r22,r4
   253a4:	10800044 	addi	r2,r2,1
   253a8:	19c7883a 	add	r3,r3,r7
   253ac:	d8801b15 	stw	r2,108(sp)
   253b0:	b3000015 	stw	r12,0(r22)
   253b4:	b1c00115 	stw	r7,4(r22)
   253b8:	d8c01c15 	stw	r3,112(sp)
   253bc:	10800208 	cmpgei	r2,r2,8
   253c0:	1001781e 	bne	r2,zero,259a4 <___vfprintf_internal_r+0x1794>
   253c4:	b5800204 	addi	r22,r22,8
   253c8:	003c6106 	br	24550 <___vfprintf_internal_r+0x340>
   253cc:	d9801a04 	addi	r6,sp,104
   253d0:	900b883a 	mov	r5,r18
   253d4:	9809883a 	mov	r4,r19
   253d8:	da000f15 	stw	r8,60(sp)
   253dc:	db400e15 	stw	r13,56(sp)
   253e0:	002ae5c0 	call	2ae5c <__sprint_r>
   253e4:	103c971e 	bne	r2,zero,24644 <___vfprintf_internal_r+0x434>
   253e8:	d8c01c17 	ldw	r3,112(sp)
   253ec:	da000f17 	ldw	r8,60(sp)
   253f0:	db400e17 	ldw	r13,56(sp)
   253f4:	dd802704 	addi	r22,sp,156
   253f8:	003c7006 	br	245bc <___vfprintf_internal_r+0x3ac>
   253fc:	d9801a04 	addi	r6,sp,104
   25400:	900b883a 	mov	r5,r18
   25404:	9809883a 	mov	r4,r19
   25408:	da001115 	stw	r8,68(sp)
   2540c:	db400f15 	stw	r13,60(sp)
   25410:	db800e15 	stw	r14,56(sp)
   25414:	002ae5c0 	call	2ae5c <__sprint_r>
   25418:	103c8a1e 	bne	r2,zero,24644 <___vfprintf_internal_r+0x434>
   2541c:	d8c01c17 	ldw	r3,112(sp)
   25420:	da001117 	ldw	r8,68(sp)
   25424:	db400f17 	ldw	r13,60(sp)
   25428:	db800e17 	ldw	r14,56(sp)
   2542c:	dd802704 	addi	r22,sp,156
   25430:	003c5506 	br	24588 <___vfprintf_internal_r+0x378>
   25434:	d9401417 	ldw	r5,80(sp)
   25438:	01414c0e 	bge	zero,r5,2596c <___vfprintf_internal_r+0x175c>
   2543c:	d8800717 	ldw	r2,28(sp)
   25440:	d9000817 	ldw	r4,32(sp)
   25444:	102b883a 	mov	r21,r2
   25448:	2080e316 	blt	r4,r2,257d8 <___vfprintf_internal_r+0x15c8>
   2544c:	05400a0e 	bge	zero,r21,25478 <___vfprintf_internal_r+0x1268>
   25450:	d8801b17 	ldw	r2,108(sp)
   25454:	1d47883a 	add	r3,r3,r21
   25458:	b4400015 	stw	r17,0(r22)
   2545c:	10800044 	addi	r2,r2,1
   25460:	d8801b15 	stw	r2,108(sp)
   25464:	b5400115 	stw	r21,4(r22)
   25468:	d8c01c15 	stw	r3,112(sp)
   2546c:	10800208 	cmpgei	r2,r2,8
   25470:	10030c1e 	bne	r2,zero,260a4 <___vfprintf_internal_r+0x1e94>
   25474:	b5800204 	addi	r22,r22,8
   25478:	a800ff16 	blt	r21,zero,25878 <___vfprintf_internal_r+0x1668>
   2547c:	d8800717 	ldw	r2,28(sp)
   25480:	156bc83a 	sub	r21,r2,r21
   25484:	05410616 	blt	zero,r21,258a0 <___vfprintf_internal_r+0x1690>
   25488:	dd401417 	ldw	r21,80(sp)
   2548c:	d8800817 	ldw	r2,32(sp)
   25490:	a880d40e 	bge	r21,r2,257e4 <___vfprintf_internal_r+0x15d4>
   25494:	d8800d17 	ldw	r2,52(sp)
   25498:	d9000b17 	ldw	r4,44(sp)
   2549c:	b0800015 	stw	r2,0(r22)
   254a0:	d8801b17 	ldw	r2,108(sp)
   254a4:	1907883a 	add	r3,r3,r4
   254a8:	b1000115 	stw	r4,4(r22)
   254ac:	10800044 	addi	r2,r2,1
   254b0:	d8801b15 	stw	r2,108(sp)
   254b4:	d8c01c15 	stw	r3,112(sp)
   254b8:	10800208 	cmpgei	r2,r2,8
   254bc:	10028e1e 	bne	r2,zero,25ef8 <___vfprintf_internal_r+0x1ce8>
   254c0:	b5800204 	addi	r22,r22,8
   254c4:	d9000817 	ldw	r4,32(sp)
   254c8:	d9400717 	ldw	r5,28(sp)
   254cc:	2545c83a 	sub	r2,r4,r21
   254d0:	2149c83a 	sub	r4,r4,r5
   254d4:	102b883a 	mov	r21,r2
   254d8:	2080010e 	bge	r4,r2,254e0 <___vfprintf_internal_r+0x12d0>
   254dc:	202b883a 	mov	r21,r4
   254e0:	05400c0e 	bge	zero,r21,25514 <___vfprintf_internal_r+0x1304>
   254e4:	d9000717 	ldw	r4,28(sp)
   254e8:	1d47883a 	add	r3,r3,r21
   254ec:	b5400115 	stw	r21,4(r22)
   254f0:	8913883a 	add	r9,r17,r4
   254f4:	d9001b17 	ldw	r4,108(sp)
   254f8:	b2400015 	stw	r9,0(r22)
   254fc:	d8c01c15 	stw	r3,112(sp)
   25500:	21000044 	addi	r4,r4,1
   25504:	d9001b15 	stw	r4,108(sp)
   25508:	21000208 	cmpgei	r4,r4,8
   2550c:	2002f01e 	bne	r4,zero,260d0 <___vfprintf_internal_r+0x1ec0>
   25510:	b5800204 	addi	r22,r22,8
   25514:	a800010e 	bge	r21,zero,2551c <___vfprintf_internal_r+0x130c>
   25518:	002b883a 	mov	r21,zero
   2551c:	156bc83a 	sub	r21,r2,r21
   25520:	057c370e 	bge	zero,r21,24600 <___vfprintf_internal_r+0x3f0>
   25524:	01c000f4 	movhi	r7,3
   25528:	a9000450 	cmplti	r4,r21,17
   2552c:	d8801b17 	ldw	r2,108(sp)
   25530:	39ce8204 	addi	r7,r7,14856
   25534:	2001ad1e 	bne	r4,zero,25bec <___vfprintf_internal_r+0x19dc>
   25538:	07000404 	movi	fp,16
   2553c:	3823883a 	mov	r17,r7
   25540:	00000406 	br	25554 <___vfprintf_internal_r+0x1344>
   25544:	b5800204 	addi	r22,r22,8
   25548:	ad7ffc04 	addi	r21,r21,-16
   2554c:	a9000448 	cmpgei	r4,r21,17
   25550:	2001a526 	beq	r4,zero,25be8 <___vfprintf_internal_r+0x19d8>
   25554:	10800044 	addi	r2,r2,1
   25558:	18c00404 	addi	r3,r3,16
   2555c:	b4400015 	stw	r17,0(r22)
   25560:	b7000115 	stw	fp,4(r22)
   25564:	d8c01c15 	stw	r3,112(sp)
   25568:	d8801b15 	stw	r2,108(sp)
   2556c:	11000208 	cmpgei	r4,r2,8
   25570:	203ff426 	beq	r4,zero,25544 <___vfprintf_internal_r+0x1334>
   25574:	d9801a04 	addi	r6,sp,104
   25578:	900b883a 	mov	r5,r18
   2557c:	9809883a 	mov	r4,r19
   25580:	002ae5c0 	call	2ae5c <__sprint_r>
   25584:	103c2f1e 	bne	r2,zero,24644 <___vfprintf_internal_r+0x434>
   25588:	d8c01c17 	ldw	r3,112(sp)
   2558c:	d8801b17 	ldw	r2,108(sp)
   25590:	dd802704 	addi	r22,sp,156
   25594:	003fec06 	br	25548 <___vfprintf_internal_r+0x1338>
   25598:	d8800417 	ldw	r2,16(sp)
   2559c:	1080004c 	andi	r2,r2,1
   255a0:	103f111e 	bne	r2,zero,251e8 <___vfprintf_internal_r+0xfd8>
   255a4:	00800044 	movi	r2,1
   255a8:	dd401b15 	stw	r21,108(sp)
   255ac:	b4400015 	stw	r17,0(r22)
   255b0:	b0800115 	stw	r2,4(r22)
   255b4:	d8c01c15 	stw	r3,112(sp)
   255b8:	ad400208 	cmpgei	r21,r21,8
   255bc:	a800941e 	bne	r21,zero,25810 <___vfprintf_internal_r+0x1600>
   255c0:	42000084 	addi	r8,r8,2
   255c4:	b5800404 	addi	r22,r22,16
   255c8:	003f3306 	br	25298 <___vfprintf_internal_r+0x1088>
   255cc:	4002821e 	bne	r8,zero,25fd8 <___vfprintf_internal_r+0x1dc8>
   255d0:	0011883a 	mov	r8,zero
   255d4:	002b883a 	mov	r21,zero
   255d8:	dc402704 	addi	r17,sp,156
   255dc:	003da406 	br	24c70 <___vfprintf_internal_r+0xa60>
   255e0:	02ff2d0e 	bge	zero,r11,25298 <___vfprintf_internal_r+0x1088>
   255e4:	58800450 	cmplti	r2,r11,17
   255e8:	01c000f4 	movhi	r7,3
   255ec:	1003261e 	bne	r2,zero,26288 <___vfprintf_internal_r+0x2078>
   255f0:	39ce8204 	addi	r7,r7,14856
   255f4:	dc000715 	stw	r16,28(sp)
   255f8:	05800404 	movi	r22,16
   255fc:	5823883a 	mov	r17,r11
   25600:	3821883a 	mov	r16,r7
   25604:	402b883a 	mov	r21,r8
   25608:	00000506 	br	25620 <___vfprintf_internal_r+0x1410>
   2560c:	e7000204 	addi	fp,fp,8
   25610:	8c7ffc04 	addi	r17,r17,-16
   25614:	88800448 	cmpgei	r2,r17,17
   25618:	1001be26 	beq	r2,zero,25d14 <___vfprintf_internal_r+0x1b04>
   2561c:	ad400044 	addi	r21,r21,1
   25620:	18c00404 	addi	r3,r3,16
   25624:	e4000015 	stw	r16,0(fp)
   25628:	e5800115 	stw	r22,4(fp)
   2562c:	d8c01c15 	stw	r3,112(sp)
   25630:	dd401b15 	stw	r21,108(sp)
   25634:	a8800208 	cmpgei	r2,r21,8
   25638:	103ff426 	beq	r2,zero,2560c <___vfprintf_internal_r+0x13fc>
   2563c:	d9801a04 	addi	r6,sp,104
   25640:	900b883a 	mov	r5,r18
   25644:	9809883a 	mov	r4,r19
   25648:	002ae5c0 	call	2ae5c <__sprint_r>
   2564c:	103bfd1e 	bne	r2,zero,24644 <___vfprintf_internal_r+0x434>
   25650:	dd401b17 	ldw	r21,108(sp)
   25654:	d8c01c17 	ldw	r3,112(sp)
   25658:	df002704 	addi	fp,sp,156
   2565c:	003fec06 	br	25610 <___vfprintf_internal_r+0x1400>
   25660:	d9801a04 	addi	r6,sp,104
   25664:	900b883a 	mov	r5,r18
   25668:	9809883a 	mov	r4,r19
   2566c:	002ae5c0 	call	2ae5c <__sprint_r>
   25670:	103bf41e 	bne	r2,zero,24644 <___vfprintf_internal_r+0x434>
   25674:	d8c01c17 	ldw	r3,112(sp)
   25678:	dd802704 	addi	r22,sp,156
   2567c:	003bd306 	br	245cc <___vfprintf_internal_r+0x3bc>
   25680:	d8800417 	ldw	r2,16(sp)
   25684:	1080004c 	andi	r2,r2,1
   25688:	103bdd26 	beq	r2,zero,24600 <___vfprintf_internal_r+0x3f0>
   2568c:	003df106 	br	24e54 <___vfprintf_internal_r+0xc44>
   25690:	dc402704 	addi	r17,sp,156
   25694:	003d7606 	br	24c70 <___vfprintf_internal_r+0xa60>
   25698:	d9000517 	ldw	r4,20(sp)
   2569c:	2005d7fa 	srai	r2,r4,31
   256a0:	19000015 	stw	r4,0(r3)
   256a4:	18800115 	stw	r2,4(r3)
   256a8:	003b0d06 	br	242e0 <___vfprintf_internal_r+0xd0>
   256ac:	00800c04 	movi	r2,48
   256b0:	d8801385 	stb	r2,78(sp)
   256b4:	df0013c5 	stb	fp,79(sp)
   256b8:	63000094 	ori	r12,r12,2
   256bc:	00800084 	movi	r2,2
   256c0:	003c1406 	br	24714 <___vfprintf_internal_r+0x504>
   256c4:	25000017 	ldw	r20,0(r4)
   256c8:	002b883a 	mov	r21,zero
   256cc:	d8c00615 	stw	r3,24(sp)
   256d0:	003ceb06 	br	24a80 <___vfprintf_internal_r+0x870>
   256d4:	25000017 	ldw	r20,0(r4)
   256d8:	002b883a 	mov	r21,zero
   256dc:	d8c00615 	stw	r3,24(sp)
   256e0:	0005883a 	mov	r2,zero
   256e4:	003c0b06 	br	24714 <___vfprintf_internal_r+0x504>
   256e8:	25000017 	ldw	r20,0(r4)
   256ec:	002b883a 	mov	r21,zero
   256f0:	d8c00615 	stw	r3,24(sp)
   256f4:	00800044 	movi	r2,1
   256f8:	003c0606 	br	24714 <___vfprintf_internal_r+0x504>
   256fc:	25000017 	ldw	r20,0(r4)
   25700:	d8c00615 	stw	r3,24(sp)
   25704:	a02bd7fa 	srai	r21,r20,31
   25708:	a805883a 	mov	r2,r21
   2570c:	003cba06 	br	249f8 <___vfprintf_internal_r+0x7e8>
   25710:	18800017 	ldw	r2,0(r3)
   25714:	d8800915 	stw	r2,36(sp)
   25718:	18800117 	ldw	r2,4(r3)
   2571c:	d8800a15 	stw	r2,40(sp)
   25720:	003c3206 	br	247ec <___vfprintf_internal_r+0x5dc>
   25724:	db401343 	ldbu	r13,77(sp)
   25728:	a83cbe26 	beq	r21,zero,24a24 <___vfprintf_internal_r+0x814>
   2572c:	dc402704 	addi	r17,sp,156
   25730:	a805883a 	mov	r2,r21
   25734:	dc000715 	stw	r16,28(sp)
   25738:	902b883a 	mov	r21,r18
   2573c:	8821883a 	mov	r16,r17
   25740:	db000415 	stw	r12,16(sp)
   25744:	a023883a 	mov	r17,r20
   25748:	da000e15 	stw	r8,56(sp)
   2574c:	9829883a 	mov	r20,r19
   25750:	1025883a 	mov	r18,r2
   25754:	6827883a 	mov	r19,r13
   25758:	8809883a 	mov	r4,r17
   2575c:	900b883a 	mov	r5,r18
   25760:	01800284 	movi	r6,10
   25764:	000f883a 	mov	r7,zero
   25768:	002d3d40 	call	2d3d4 <__umoddi3>
   2576c:	10800c04 	addi	r2,r2,48
   25770:	8809883a 	mov	r4,r17
   25774:	900b883a 	mov	r5,r18
   25778:	01800284 	movi	r6,10
   2577c:	000f883a 	mov	r7,zero
   25780:	80bfffc5 	stb	r2,-1(r16)
   25784:	002ce440 	call	2ce44 <__udivdi3>
   25788:	900d883a 	mov	r6,r18
   2578c:	880f883a 	mov	r7,r17
   25790:	843fffc4 	addi	r16,r16,-1
   25794:	1023883a 	mov	r17,r2
   25798:	1825883a 	mov	r18,r3
   2579c:	303fee1e 	bne	r6,zero,25758 <___vfprintf_internal_r+0x1548>
   257a0:	39c002a8 	cmpgeui	r7,r7,10
   257a4:	383fec1e 	bne	r7,zero,25758 <___vfprintf_internal_r+0x1548>
   257a8:	8023883a 	mov	r17,r16
   257ac:	d8802704 	addi	r2,sp,156
   257b0:	981b883a 	mov	r13,r19
   257b4:	a825883a 	mov	r18,r21
   257b8:	dc000717 	ldw	r16,28(sp)
   257bc:	da000e17 	ldw	r8,56(sp)
   257c0:	a027883a 	mov	r19,r20
   257c4:	146bc83a 	sub	r21,r2,r17
   257c8:	003d2906 	br	24c70 <___vfprintf_internal_r+0xa60>
   257cc:	0421c83a 	sub	r16,zero,r16
   257d0:	d8800615 	stw	r2,24(sp)
   257d4:	003d4506 	br	24cec <___vfprintf_internal_r+0xadc>
   257d8:	202b883a 	mov	r21,r4
   257dc:	057f1c16 	blt	zero,r21,25450 <___vfprintf_internal_r+0x1240>
   257e0:	003f2506 	br	25478 <___vfprintf_internal_r+0x1268>
   257e4:	d8800417 	ldw	r2,16(sp)
   257e8:	1080004c 	andi	r2,r2,1
   257ec:	103f291e 	bne	r2,zero,25494 <___vfprintf_internal_r+0x1284>
   257f0:	d9000817 	ldw	r4,32(sp)
   257f4:	d9400717 	ldw	r5,28(sp)
   257f8:	2545c83a 	sub	r2,r4,r21
   257fc:	2179c83a 	sub	fp,r4,r5
   25800:	102b883a 	mov	r21,r2
   25804:	e0bf430e 	bge	fp,r2,25514 <___vfprintf_internal_r+0x1304>
   25808:	e02b883a 	mov	r21,fp
   2580c:	003f4106 	br	25514 <___vfprintf_internal_r+0x1304>
   25810:	d9801a04 	addi	r6,sp,104
   25814:	900b883a 	mov	r5,r18
   25818:	9809883a 	mov	r4,r19
   2581c:	002ae5c0 	call	2ae5c <__sprint_r>
   25820:	103b881e 	bne	r2,zero,24644 <___vfprintf_internal_r+0x434>
   25824:	da001b17 	ldw	r8,108(sp)
   25828:	d8c01c17 	ldw	r3,112(sp)
   2582c:	dd802904 	addi	r22,sp,164
   25830:	42000044 	addi	r8,r8,1
   25834:	df002704 	addi	fp,sp,156
   25838:	003e9706 	br	25298 <___vfprintf_internal_r+0x1088>
   2583c:	bf000043 	ldbu	fp,1(r23)
   25840:	63000814 	ori	r12,r12,32
   25844:	bdc00044 	addi	r23,r23,1
   25848:	e2c03fcc 	andi	r11,fp,255
   2584c:	5ac0201c 	xori	r11,r11,128
   25850:	5affe004 	addi	r11,r11,-128
   25854:	003aba06 	br	24340 <___vfprintf_internal_r+0x130>
   25858:	d9801a04 	addi	r6,sp,104
   2585c:	900b883a 	mov	r5,r18
   25860:	9809883a 	mov	r4,r19
   25864:	002ae5c0 	call	2ae5c <__sprint_r>
   25868:	103b761e 	bne	r2,zero,24644 <___vfprintf_internal_r+0x434>
   2586c:	d8c01c17 	ldw	r3,112(sp)
   25870:	dd802704 	addi	r22,sp,156
   25874:	003d8306 	br	24e84 <___vfprintf_internal_r+0xc74>
   25878:	002b883a 	mov	r21,zero
   2587c:	003eff06 	br	2547c <___vfprintf_internal_r+0x126c>
   25880:	408001f0 	cmpltui	r2,r8,7
   25884:	402b883a 	mov	r21,r8
   25888:	1001a426 	beq	r2,zero,25f1c <___vfprintf_internal_r+0x1d0c>
   2588c:	044000f4 	movhi	r17,3
   25890:	a829883a 	mov	r20,r21
   25894:	d8c00615 	stw	r3,24(sp)
   25898:	8c4e7f04 	addi	r17,r17,14844
   2589c:	003b1f06 	br	2451c <___vfprintf_internal_r+0x30c>
   258a0:	01c000f4 	movhi	r7,3
   258a4:	a9000450 	cmplti	r4,r21,17
   258a8:	d8801b17 	ldw	r2,108(sp)
   258ac:	39ce8204 	addi	r7,r7,14856
   258b0:	20017f1e 	bne	r4,zero,25eb0 <___vfprintf_internal_r+0x1ca0>
   258b4:	dc000e15 	stw	r16,56(sp)
   258b8:	07000404 	movi	fp,16
   258bc:	3821883a 	mov	r16,r7
   258c0:	00000406 	br	258d4 <___vfprintf_internal_r+0x16c4>
   258c4:	b5800204 	addi	r22,r22,8
   258c8:	ad7ffc04 	addi	r21,r21,-16
   258cc:	a9000448 	cmpgei	r4,r21,17
   258d0:	20017526 	beq	r4,zero,25ea8 <___vfprintf_internal_r+0x1c98>
   258d4:	10800044 	addi	r2,r2,1
   258d8:	18c00404 	addi	r3,r3,16
   258dc:	b4000015 	stw	r16,0(r22)
   258e0:	b7000115 	stw	fp,4(r22)
   258e4:	d8c01c15 	stw	r3,112(sp)
   258e8:	d8801b15 	stw	r2,108(sp)
   258ec:	11000208 	cmpgei	r4,r2,8
   258f0:	203ff426 	beq	r4,zero,258c4 <___vfprintf_internal_r+0x16b4>
   258f4:	d9801a04 	addi	r6,sp,104
   258f8:	900b883a 	mov	r5,r18
   258fc:	9809883a 	mov	r4,r19
   25900:	002ae5c0 	call	2ae5c <__sprint_r>
   25904:	103b4f1e 	bne	r2,zero,24644 <___vfprintf_internal_r+0x434>
   25908:	d8c01c17 	ldw	r3,112(sp)
   2590c:	d8801b17 	ldw	r2,108(sp)
   25910:	dd802704 	addi	r22,sp,156
   25914:	003fec06 	br	258c8 <___vfprintf_internal_r+0x16b8>
   25918:	d8800517 	ldw	r2,20(sp)
   2591c:	18800015 	stw	r2,0(r3)
   25920:	003a6f06 	br	242e0 <___vfprintf_internal_r+0xd0>
   25924:	d9801a04 	addi	r6,sp,104
   25928:	900b883a 	mov	r5,r18
   2592c:	9809883a 	mov	r4,r19
   25930:	002ae5c0 	call	2ae5c <__sprint_r>
   25934:	103b431e 	bne	r2,zero,24644 <___vfprintf_internal_r+0x434>
   25938:	d8c01c17 	ldw	r3,112(sp)
   2593c:	dd401b17 	ldw	r21,108(sp)
   25940:	df002704 	addi	fp,sp,156
   25944:	003e3a06 	br	25230 <___vfprintf_internal_r+0x1020>
   25948:	d9801a04 	addi	r6,sp,104
   2594c:	900b883a 	mov	r5,r18
   25950:	9809883a 	mov	r4,r19
   25954:	002ae5c0 	call	2ae5c <__sprint_r>
   25958:	103b3a1e 	bne	r2,zero,24644 <___vfprintf_internal_r+0x434>
   2595c:	d8c01c17 	ldw	r3,112(sp)
   25960:	dd401b17 	ldw	r21,108(sp)
   25964:	df002704 	addi	fp,sp,156
   25968:	003e2606 	br	25204 <___vfprintf_internal_r+0xff4>
   2596c:	d8801b17 	ldw	r2,108(sp)
   25970:	010000f4 	movhi	r4,3
   25974:	210e8104 	addi	r4,r4,14852
   25978:	10800044 	addi	r2,r2,1
   2597c:	18c00044 	addi	r3,r3,1
   25980:	b1000015 	stw	r4,0(r22)
   25984:	01000044 	movi	r4,1
   25988:	d8801b15 	stw	r2,108(sp)
   2598c:	b1000115 	stw	r4,4(r22)
   25990:	d8c01c15 	stw	r3,112(sp)
   25994:	10800208 	cmpgei	r2,r2,8
   25998:	103de11e 	bne	r2,zero,25120 <___vfprintf_internal_r+0xf10>
   2599c:	b5800204 	addi	r22,r22,8
   259a0:	003de706 	br	25140 <___vfprintf_internal_r+0xf30>
   259a4:	d9801a04 	addi	r6,sp,104
   259a8:	900b883a 	mov	r5,r18
   259ac:	9809883a 	mov	r4,r19
   259b0:	da001115 	stw	r8,68(sp)
   259b4:	db400f15 	stw	r13,60(sp)
   259b8:	db800e15 	stw	r14,56(sp)
   259bc:	002ae5c0 	call	2ae5c <__sprint_r>
   259c0:	103b201e 	bne	r2,zero,24644 <___vfprintf_internal_r+0x434>
   259c4:	d8c01c17 	ldw	r3,112(sp)
   259c8:	da001117 	ldw	r8,68(sp)
   259cc:	db400f17 	ldw	r13,60(sp)
   259d0:	db800e17 	ldw	r14,56(sp)
   259d4:	dd802704 	addi	r22,sp,156
   259d8:	003add06 	br	24550 <___vfprintf_internal_r+0x340>
   259dc:	8825883a 	mov	r18,r17
   259e0:	003b1806 	br	24644 <___vfprintf_internal_r+0x434>
   259e4:	d9000917 	ldw	r4,36(sp)
   259e8:	d9400a17 	ldw	r5,40(sp)
   259ec:	da000615 	stw	r8,24(sp)
   259f0:	200d883a 	mov	r6,r4
   259f4:	280f883a 	mov	r7,r5
   259f8:	db000415 	stw	r12,16(sp)
   259fc:	002fce40 	call	2fce4 <__unorddf2>
   25a00:	db000417 	ldw	r12,16(sp)
   25a04:	da000617 	ldw	r8,24(sp)
   25a08:	1002091e 	bne	r2,zero,26230 <___vfprintf_internal_r+0x2020>
   25a0c:	057ff7c4 	movi	r21,-33
   25a10:	40bfffe0 	cmpeqi	r2,r8,-1
   25a14:	e56a703a 	and	r21,fp,r21
   25a18:	1001ab1e 	bne	r2,zero,260c8 <___vfprintf_internal_r+0x1eb8>
   25a1c:	a88011d8 	cmpnei	r2,r21,71
   25a20:	10015726 	beq	r2,zero,25f80 <___vfprintf_internal_r+0x1d70>
   25a24:	60804014 	ori	r2,r12,256
   25a28:	d8800415 	stw	r2,16(sp)
   25a2c:	d8800a17 	ldw	r2,40(sp)
   25a30:	10012d16 	blt	r2,zero,25ee8 <___vfprintf_internal_r+0x1cd8>
   25a34:	dd000a17 	ldw	r20,40(sp)
   25a38:	d8000605 	stb	zero,24(sp)
   25a3c:	e08019a0 	cmpeqi	r2,fp,102
   25a40:	d8800f15 	stw	r2,60(sp)
   25a44:	1000c31e 	bne	r2,zero,25d54 <___vfprintf_internal_r+0x1b44>
   25a48:	e08011a0 	cmpeqi	r2,fp,70
   25a4c:	1000c11e 	bne	r2,zero,25d54 <___vfprintf_internal_r+0x1b44>
   25a50:	a8801158 	cmpnei	r2,r21,69
   25a54:	10016226 	beq	r2,zero,25fe0 <___vfprintf_internal_r+0x1dd0>
   25a58:	d8801804 	addi	r2,sp,96
   25a5c:	d8800315 	stw	r2,12(sp)
   25a60:	d9400917 	ldw	r5,36(sp)
   25a64:	d8801504 	addi	r2,sp,84
   25a68:	d8800215 	stw	r2,8(sp)
   25a6c:	d8801404 	addi	r2,sp,80
   25a70:	da000015 	stw	r8,0(sp)
   25a74:	9809883a 	mov	r4,r19
   25a78:	d8800115 	stw	r2,4(sp)
   25a7c:	01c00084 	movi	r7,2
   25a80:	a00d883a 	mov	r6,r20
   25a84:	db000815 	stw	r12,32(sp)
   25a88:	da000715 	stw	r8,28(sp)
   25a8c:	00267dc0 	call	267dc <_dtoa_r>
   25a90:	da000717 	ldw	r8,28(sp)
   25a94:	e10019d8 	cmpnei	r4,fp,103
   25a98:	db000817 	ldw	r12,32(sp)
   25a9c:	1023883a 	mov	r17,r2
   25aa0:	4007883a 	mov	r3,r8
   25aa4:	2001621e 	bne	r4,zero,26030 <___vfprintf_internal_r+0x1e20>
   25aa8:	6080004c 	andi	r2,r12,1
   25aac:	1001621e 	bne	r2,zero,26038 <___vfprintf_internal_r+0x1e28>
   25ab0:	d8801417 	ldw	r2,80(sp)
   25ab4:	ad4011e0 	cmpeqi	r21,r21,71
   25ab8:	d8800715 	stw	r2,28(sp)
   25abc:	d8801817 	ldw	r2,96(sp)
   25ac0:	1445c83a 	sub	r2,r2,r17
   25ac4:	d8800815 	stw	r2,32(sp)
   25ac8:	a8000526 	beq	r21,zero,25ae0 <___vfprintf_internal_r+0x18d0>
   25acc:	d8c00717 	ldw	r3,28(sp)
   25ad0:	18bfff50 	cmplti	r2,r3,-3
   25ad4:	1000011e 	bne	r2,zero,25adc <___vfprintf_internal_r+0x18cc>
   25ad8:	40c1670e 	bge	r8,r3,26078 <___vfprintf_internal_r+0x1e68>
   25adc:	e73fff84 	addi	fp,fp,-2
   25ae0:	d8800717 	ldw	r2,28(sp)
   25ae4:	df001645 	stb	fp,89(sp)
   25ae8:	157fffc4 	addi	r21,r2,-1
   25aec:	dd401415 	stw	r21,80(sp)
   25af0:	a801c316 	blt	r21,zero,26200 <___vfprintf_internal_r+0x1ff0>
   25af4:	00800ac4 	movi	r2,43
   25af8:	d8801685 	stb	r2,90(sp)
   25afc:	a8800290 	cmplti	r2,r21,10
   25b00:	1001b81e 	bne	r2,zero,261e4 <___vfprintf_internal_r+0x1fd4>
   25b04:	d98019c4 	addi	r6,sp,103
   25b08:	9029883a 	mov	r20,r18
   25b0c:	dc400715 	stw	r17,28(sp)
   25b10:	8025883a 	mov	r18,r16
   25b14:	db000f15 	stw	r12,60(sp)
   25b18:	3021883a 	mov	r16,r6
   25b1c:	a809883a 	mov	r4,r21
   25b20:	01400284 	movi	r5,10
   25b24:	002292c0 	call	2292c <__modsi3>
   25b28:	10800c04 	addi	r2,r2,48
   25b2c:	a809883a 	mov	r4,r21
   25b30:	80bfffc5 	stb	r2,-1(r16)
   25b34:	01400284 	movi	r5,10
   25b38:	00228ac0 	call	228ac <__divsi3>
   25b3c:	a9001908 	cmpgei	r4,r21,100
   25b40:	8023883a 	mov	r17,r16
   25b44:	102b883a 	mov	r21,r2
   25b48:	843fffc4 	addi	r16,r16,-1
   25b4c:	203ff31e 	bne	r4,zero,25b1c <___vfprintf_internal_r+0x190c>
   25b50:	800d883a 	mov	r6,r16
   25b54:	11000c04 	addi	r4,r2,48
   25b58:	9021883a 	mov	r16,r18
   25b5c:	a025883a 	mov	r18,r20
   25b60:	8829883a 	mov	r20,r17
   25b64:	a0bfff84 	addi	r2,r20,-2
   25b68:	313fffc5 	stb	r4,-1(r6)
   25b6c:	d8c019c4 	addi	r3,sp,103
   25b70:	db000f17 	ldw	r12,60(sp)
   25b74:	dc400717 	ldw	r17,28(sp)
   25b78:	10c1cd2e 	bgeu	r2,r3,262b0 <___vfprintf_internal_r+0x20a0>
   25b7c:	d8c016c4 	addi	r3,sp,91
   25b80:	00000106 	br	25b88 <___vfprintf_internal_r+0x1978>
   25b84:	11000003 	ldbu	r4,0(r2)
   25b88:	19000005 	stb	r4,0(r3)
   25b8c:	10800044 	addi	r2,r2,1
   25b90:	d90019c4 	addi	r4,sp,103
   25b94:	18c00044 	addi	r3,r3,1
   25b98:	113ffa1e 	bne	r2,r4,25b84 <___vfprintf_internal_r+0x1974>
   25b9c:	d8801a44 	addi	r2,sp,105
   25ba0:	d8c016c4 	addi	r3,sp,91
   25ba4:	1505c83a 	sub	r2,r2,r20
   25ba8:	1885883a 	add	r2,r3,r2
   25bac:	d8c01644 	addi	r3,sp,89
   25bb0:	10c5c83a 	sub	r2,r2,r3
   25bb4:	d8801015 	stw	r2,64(sp)
   25bb8:	d8c00817 	ldw	r3,32(sp)
   25bbc:	d9001017 	ldw	r4,64(sp)
   25bc0:	18800088 	cmpgei	r2,r3,2
   25bc4:	20eb883a 	add	r21,r4,r3
   25bc8:	10019226 	beq	r2,zero,26214 <___vfprintf_internal_r+0x2004>
   25bcc:	d8800b17 	ldw	r2,44(sp)
   25bd0:	a8ab883a 	add	r21,r21,r2
   25bd4:	a829883a 	mov	r20,r21
   25bd8:	a800010e 	bge	r21,zero,25be0 <___vfprintf_internal_r+0x19d0>
   25bdc:	0029883a 	mov	r20,zero
   25be0:	d8000715 	stw	zero,28(sp)
   25be4:	00008e06 	br	25e20 <___vfprintf_internal_r+0x1c10>
   25be8:	880f883a 	mov	r7,r17
   25bec:	10800044 	addi	r2,r2,1
   25bf0:	1d47883a 	add	r3,r3,r21
   25bf4:	b1c00015 	stw	r7,0(r22)
   25bf8:	003a7b06 	br	245e8 <___vfprintf_internal_r+0x3d8>
   25bfc:	d9801a04 	addi	r6,sp,104
   25c00:	900b883a 	mov	r5,r18
   25c04:	9809883a 	mov	r4,r19
   25c08:	002ae5c0 	call	2ae5c <__sprint_r>
   25c0c:	103a8d1e 	bne	r2,zero,24644 <___vfprintf_internal_r+0x434>
   25c10:	d8c01c17 	ldw	r3,112(sp)
   25c14:	dd802704 	addi	r22,sp,156
   25c18:	003c8b06 	br	24e48 <___vfprintf_internal_r+0xc38>
   25c1c:	d9801a04 	addi	r6,sp,104
   25c20:	900b883a 	mov	r5,r18
   25c24:	9809883a 	mov	r4,r19
   25c28:	da000e15 	stw	r8,56(sp)
   25c2c:	002ae5c0 	call	2ae5c <__sprint_r>
   25c30:	103a841e 	bne	r2,zero,24644 <___vfprintf_internal_r+0x434>
   25c34:	d8c01c17 	ldw	r3,112(sp)
   25c38:	da000e17 	ldw	r8,56(sp)
   25c3c:	dd802704 	addi	r22,sp,156
   25c40:	003a6006 	br	245c4 <___vfprintf_internal_r+0x3b4>
   25c44:	8809883a 	mov	r4,r17
   25c48:	db000415 	stw	r12,16(sp)
   25c4c:	d8c00615 	stw	r3,24(sp)
   25c50:	00241780 	call	24178 <strlen>
   25c54:	db000417 	ldw	r12,16(sp)
   25c58:	102b883a 	mov	r21,r2
   25c5c:	1029883a 	mov	r20,r2
   25c60:	003a2e06 	br	2451c <___vfprintf_internal_r+0x30c>
   25c64:	d8800d17 	ldw	r2,52(sp)
   25c68:	d9000b17 	ldw	r4,44(sp)
   25c6c:	b0800015 	stw	r2,0(r22)
   25c70:	d8801b17 	ldw	r2,108(sp)
   25c74:	20c7883a 	add	r3,r4,r3
   25c78:	b1000115 	stw	r4,4(r22)
   25c7c:	10800044 	addi	r2,r2,1
   25c80:	d8c01c15 	stw	r3,112(sp)
   25c84:	d8801b15 	stw	r2,108(sp)
   25c88:	11000208 	cmpgei	r4,r2,8
   25c8c:	2000bf1e 	bne	r4,zero,25f8c <___vfprintf_internal_r+0x1d7c>
   25c90:	b5800204 	addi	r22,r22,8
   25c94:	283d3c0e 	bge	r5,zero,25188 <___vfprintf_internal_r+0xf78>
   25c98:	01c000f4 	movhi	r7,3
   25c9c:	293ffc08 	cmpgei	r4,r5,-16
   25ca0:	39ce8204 	addi	r7,r7,14856
   25ca4:	0179c83a 	sub	fp,zero,r5
   25ca8:	2001361e 	bne	r4,zero,26184 <___vfprintf_internal_r+0x1f74>
   25cac:	dc000715 	stw	r16,28(sp)
   25cb0:	05400404 	movi	r21,16
   25cb4:	9021883a 	mov	r16,r18
   25cb8:	3825883a 	mov	r18,r7
   25cbc:	00000406 	br	25cd0 <___vfprintf_internal_r+0x1ac0>
   25cc0:	b5800204 	addi	r22,r22,8
   25cc4:	e73ffc04 	addi	fp,fp,-16
   25cc8:	e1800448 	cmpgei	r6,fp,17
   25ccc:	30012a26 	beq	r6,zero,26178 <___vfprintf_internal_r+0x1f68>
   25cd0:	10800044 	addi	r2,r2,1
   25cd4:	18c00404 	addi	r3,r3,16
   25cd8:	b4800015 	stw	r18,0(r22)
   25cdc:	b5400115 	stw	r21,4(r22)
   25ce0:	d8c01c15 	stw	r3,112(sp)
   25ce4:	d8801b15 	stw	r2,108(sp)
   25ce8:	11800208 	cmpgei	r6,r2,8
   25cec:	303ff426 	beq	r6,zero,25cc0 <___vfprintf_internal_r+0x1ab0>
   25cf0:	d9801a04 	addi	r6,sp,104
   25cf4:	800b883a 	mov	r5,r16
   25cf8:	9809883a 	mov	r4,r19
   25cfc:	002ae5c0 	call	2ae5c <__sprint_r>
   25d00:	10015f1e 	bne	r2,zero,26280 <___vfprintf_internal_r+0x2070>
   25d04:	d8c01c17 	ldw	r3,112(sp)
   25d08:	d8801b17 	ldw	r2,108(sp)
   25d0c:	dd802704 	addi	r22,sp,156
   25d10:	003fec06 	br	25cc4 <___vfprintf_internal_r+0x1ab4>
   25d14:	800f883a 	mov	r7,r16
   25d18:	dc000717 	ldw	r16,28(sp)
   25d1c:	8817883a 	mov	r11,r17
   25d20:	aa000044 	addi	r8,r21,1
   25d24:	e0800204 	addi	r2,fp,8
   25d28:	1ac7883a 	add	r3,r3,r11
   25d2c:	e1c00015 	stw	r7,0(fp)
   25d30:	e2c00115 	stw	r11,4(fp)
   25d34:	d8c01c15 	stw	r3,112(sp)
   25d38:	da001b15 	stw	r8,108(sp)
   25d3c:	41000208 	cmpgei	r4,r8,8
   25d40:	203eb31e 	bne	r4,zero,25810 <___vfprintf_internal_r+0x1600>
   25d44:	42000044 	addi	r8,r8,1
   25d48:	15800204 	addi	r22,r2,8
   25d4c:	1039883a 	mov	fp,r2
   25d50:	003d5106 	br	25298 <___vfprintf_internal_r+0x1088>
   25d54:	d8801804 	addi	r2,sp,96
   25d58:	d8800315 	stw	r2,12(sp)
   25d5c:	d9400917 	ldw	r5,36(sp)
   25d60:	d8801504 	addi	r2,sp,84
   25d64:	d8800215 	stw	r2,8(sp)
   25d68:	d8801404 	addi	r2,sp,80
   25d6c:	da000015 	stw	r8,0(sp)
   25d70:	d8800115 	stw	r2,4(sp)
   25d74:	01c000c4 	movi	r7,3
   25d78:	a00d883a 	mov	r6,r20
   25d7c:	9809883a 	mov	r4,r19
   25d80:	db000815 	stw	r12,32(sp)
   25d84:	da000715 	stw	r8,28(sp)
   25d88:	00267dc0 	call	267dc <_dtoa_r>
   25d8c:	da000717 	ldw	r8,28(sp)
   25d90:	1023883a 	mov	r17,r2
   25d94:	db000817 	ldw	r12,32(sp)
   25d98:	1207883a 	add	r3,r2,r8
   25d9c:	88800007 	ldb	r2,0(r17)
   25da0:	10800c20 	cmpeqi	r2,r2,48
   25da4:	1000661e 	bne	r2,zero,25f40 <___vfprintf_internal_r+0x1d30>
   25da8:	d8801417 	ldw	r2,80(sp)
   25dac:	1893883a 	add	r9,r3,r2
   25db0:	d9000917 	ldw	r4,36(sp)
   25db4:	000d883a 	mov	r6,zero
   25db8:	000f883a 	mov	r7,zero
   25dbc:	a00b883a 	mov	r5,r20
   25dc0:	da401115 	stw	r9,68(sp)
   25dc4:	da000815 	stw	r8,32(sp)
   25dc8:	db000715 	stw	r12,28(sp)
   25dcc:	002eae00 	call	2eae0 <__eqdf2>
   25dd0:	db000717 	ldw	r12,28(sp)
   25dd4:	da000817 	ldw	r8,32(sp)
   25dd8:	da401117 	ldw	r9,68(sp)
   25ddc:	1000981e 	bne	r2,zero,26040 <___vfprintf_internal_r+0x1e30>
   25de0:	4805883a 	mov	r2,r9
   25de4:	d8c01417 	ldw	r3,80(sp)
   25de8:	1445c83a 	sub	r2,r2,r17
   25dec:	ad4011d8 	cmpnei	r21,r21,71
   25df0:	d8c00715 	stw	r3,28(sp)
   25df4:	d8800815 	stw	r2,32(sp)
   25df8:	a83f3426 	beq	r21,zero,25acc <___vfprintf_internal_r+0x18bc>
   25dfc:	d8800f17 	ldw	r2,60(sp)
   25e00:	103f3726 	beq	r2,zero,25ae0 <___vfprintf_internal_r+0x18d0>
   25e04:	d8c00717 	ldw	r3,28(sp)
   25e08:	6080004c 	andi	r2,r12,1
   25e0c:	1204b03a 	or	r2,r2,r8
   25e10:	00c1130e 	bge	zero,r3,26260 <___vfprintf_internal_r+0x2050>
   25e14:	10010e1e 	bne	r2,zero,26250 <___vfprintf_internal_r+0x2040>
   25e18:	dd400717 	ldw	r21,28(sp)
   25e1c:	a829883a 	mov	r20,r21
   25e20:	d8800607 	ldb	r2,24(sp)
   25e24:	10008f26 	beq	r2,zero,26064 <___vfprintf_internal_r+0x1e54>
   25e28:	00800b44 	movi	r2,45
   25e2c:	d8801345 	stb	r2,77(sp)
   25e30:	d8800e17 	ldw	r2,56(sp)
   25e34:	0011883a 	mov	r8,zero
   25e38:	d8800615 	stw	r2,24(sp)
   25e3c:	003b9406 	br	24c90 <___vfprintf_internal_r+0xa80>
   25e40:	044000f4 	movhi	r17,3
   25e44:	8c4e7104 	addi	r17,r17,14788
   25e48:	003a8d06 	br	24880 <___vfprintf_internal_r+0x670>
   25e4c:	d8800617 	ldw	r2,24(sp)
   25e50:	d8c00615 	stw	r3,24(sp)
   25e54:	15000017 	ldw	r20,0(r2)
   25e58:	a02bd7fa 	srai	r21,r20,31
   25e5c:	a805883a 	mov	r2,r21
   25e60:	003ae506 	br	249f8 <___vfprintf_internal_r+0x7e8>
   25e64:	d8800617 	ldw	r2,24(sp)
   25e68:	002b883a 	mov	r21,zero
   25e6c:	d8c00615 	stw	r3,24(sp)
   25e70:	15000017 	ldw	r20,0(r2)
   25e74:	0005883a 	mov	r2,zero
   25e78:	003a2606 	br	24714 <___vfprintf_internal_r+0x504>
   25e7c:	d8800617 	ldw	r2,24(sp)
   25e80:	002b883a 	mov	r21,zero
   25e84:	d8c00615 	stw	r3,24(sp)
   25e88:	15000017 	ldw	r20,0(r2)
   25e8c:	00800044 	movi	r2,1
   25e90:	003a2006 	br	24714 <___vfprintf_internal_r+0x504>
   25e94:	d8800617 	ldw	r2,24(sp)
   25e98:	002b883a 	mov	r21,zero
   25e9c:	d8c00615 	stw	r3,24(sp)
   25ea0:	15000017 	ldw	r20,0(r2)
   25ea4:	003af606 	br	24a80 <___vfprintf_internal_r+0x870>
   25ea8:	800f883a 	mov	r7,r16
   25eac:	dc000e17 	ldw	r16,56(sp)
   25eb0:	10800044 	addi	r2,r2,1
   25eb4:	1d47883a 	add	r3,r3,r21
   25eb8:	d8801b15 	stw	r2,108(sp)
   25ebc:	b1c00015 	stw	r7,0(r22)
   25ec0:	b5400115 	stw	r21,4(r22)
   25ec4:	d8c01c15 	stw	r3,112(sp)
   25ec8:	10800208 	cmpgei	r2,r2,8
   25ecc:	10003a1e 	bne	r2,zero,25fb8 <___vfprintf_internal_r+0x1da8>
   25ed0:	b5800204 	addi	r22,r22,8
   25ed4:	003d6c06 	br	25488 <___vfprintf_internal_r+0x1278>
   25ed8:	00800b44 	movi	r2,45
   25edc:	d8801345 	stb	r2,77(sp)
   25ee0:	03400b44 	movi	r13,45
   25ee4:	003a6206 	br	24870 <___vfprintf_internal_r+0x660>
   25ee8:	1520003c 	xorhi	r20,r2,32768
   25eec:	00800b44 	movi	r2,45
   25ef0:	d8800605 	stb	r2,24(sp)
   25ef4:	003ed106 	br	25a3c <___vfprintf_internal_r+0x182c>
   25ef8:	d9801a04 	addi	r6,sp,104
   25efc:	900b883a 	mov	r5,r18
   25f00:	9809883a 	mov	r4,r19
   25f04:	002ae5c0 	call	2ae5c <__sprint_r>
   25f08:	1039ce1e 	bne	r2,zero,24644 <___vfprintf_internal_r+0x434>
   25f0c:	dd401417 	ldw	r21,80(sp)
   25f10:	d8c01c17 	ldw	r3,112(sp)
   25f14:	dd802704 	addi	r22,sp,156
   25f18:	003d6a06 	br	254c4 <___vfprintf_internal_r+0x12b4>
   25f1c:	05400184 	movi	r21,6
   25f20:	003e5a06 	br	2588c <___vfprintf_internal_r+0x167c>
   25f24:	d9801a04 	addi	r6,sp,104
   25f28:	900b883a 	mov	r5,r18
   25f2c:	9809883a 	mov	r4,r19
   25f30:	002ae5c0 	call	2ae5c <__sprint_r>
   25f34:	0039c306 	br	24644 <___vfprintf_internal_r+0x434>
   25f38:	d9401345 	stb	r5,77(sp)
   25f3c:	00397106 	br	24504 <___vfprintf_internal_r+0x2f4>
   25f40:	d9000917 	ldw	r4,36(sp)
   25f44:	000d883a 	mov	r6,zero
   25f48:	000f883a 	mov	r7,zero
   25f4c:	a00b883a 	mov	r5,r20
   25f50:	d8c01115 	stw	r3,68(sp)
   25f54:	da000815 	stw	r8,32(sp)
   25f58:	db000715 	stw	r12,28(sp)
   25f5c:	002eae00 	call	2eae0 <__eqdf2>
   25f60:	db000717 	ldw	r12,28(sp)
   25f64:	da000817 	ldw	r8,32(sp)
   25f68:	d8c01117 	ldw	r3,68(sp)
   25f6c:	103f8e26 	beq	r2,zero,25da8 <___vfprintf_internal_r+0x1b98>
   25f70:	00800044 	movi	r2,1
   25f74:	1205c83a 	sub	r2,r2,r8
   25f78:	d8801415 	stw	r2,80(sp)
   25f7c:	003f8b06 	br	25dac <___vfprintf_internal_r+0x1b9c>
   25f80:	403ea81e 	bne	r8,zero,25a24 <___vfprintf_internal_r+0x1814>
   25f84:	02000044 	movi	r8,1
   25f88:	003ea606 	br	25a24 <___vfprintf_internal_r+0x1814>
   25f8c:	d9801a04 	addi	r6,sp,104
   25f90:	900b883a 	mov	r5,r18
   25f94:	9809883a 	mov	r4,r19
   25f98:	002ae5c0 	call	2ae5c <__sprint_r>
   25f9c:	1039a91e 	bne	r2,zero,24644 <___vfprintf_internal_r+0x434>
   25fa0:	d9401417 	ldw	r5,80(sp)
   25fa4:	d8c01c17 	ldw	r3,112(sp)
   25fa8:	d8801b17 	ldw	r2,108(sp)
   25fac:	dd802704 	addi	r22,sp,156
   25fb0:	283c750e 	bge	r5,zero,25188 <___vfprintf_internal_r+0xf78>
   25fb4:	003f3806 	br	25c98 <___vfprintf_internal_r+0x1a88>
   25fb8:	d9801a04 	addi	r6,sp,104
   25fbc:	900b883a 	mov	r5,r18
   25fc0:	9809883a 	mov	r4,r19
   25fc4:	002ae5c0 	call	2ae5c <__sprint_r>
   25fc8:	10399e1e 	bne	r2,zero,24644 <___vfprintf_internal_r+0x434>
   25fcc:	d8c01c17 	ldw	r3,112(sp)
   25fd0:	dd802704 	addi	r22,sp,156
   25fd4:	003d2c06 	br	25488 <___vfprintf_internal_r+0x1278>
   25fd8:	db000417 	ldw	r12,16(sp)
   25fdc:	003a9306 	br	24a2c <___vfprintf_internal_r+0x81c>
   25fe0:	d8801804 	addi	r2,sp,96
   25fe4:	d8800315 	stw	r2,12(sp)
   25fe8:	d9400917 	ldw	r5,36(sp)
   25fec:	d8801504 	addi	r2,sp,84
   25ff0:	40c00044 	addi	r3,r8,1
   25ff4:	d8800215 	stw	r2,8(sp)
   25ff8:	d8801404 	addi	r2,sp,80
   25ffc:	d8c00015 	stw	r3,0(sp)
   26000:	d8800115 	stw	r2,4(sp)
   26004:	01c00084 	movi	r7,2
   26008:	a00d883a 	mov	r6,r20
   2600c:	9809883a 	mov	r4,r19
   26010:	db001115 	stw	r12,68(sp)
   26014:	da000815 	stw	r8,32(sp)
   26018:	d8c00715 	stw	r3,28(sp)
   2601c:	00267dc0 	call	267dc <_dtoa_r>
   26020:	d8c00717 	ldw	r3,28(sp)
   26024:	da000817 	ldw	r8,32(sp)
   26028:	db001117 	ldw	r12,68(sp)
   2602c:	1023883a 	mov	r17,r2
   26030:	e08011d8 	cmpnei	r2,fp,71
   26034:	103e9c26 	beq	r2,zero,25aa8 <___vfprintf_internal_r+0x1898>
   26038:	88d3883a 	add	r9,r17,r3
   2603c:	003f5c06 	br	25db0 <___vfprintf_internal_r+0x1ba0>
   26040:	d8801817 	ldw	r2,96(sp)
   26044:	127f672e 	bgeu	r2,r9,25de4 <___vfprintf_internal_r+0x1bd4>
   26048:	01000c04 	movi	r4,48
   2604c:	10c00044 	addi	r3,r2,1
   26050:	d8c01815 	stw	r3,96(sp)
   26054:	11000005 	stb	r4,0(r2)
   26058:	d8801817 	ldw	r2,96(sp)
   2605c:	127ffb36 	bltu	r2,r9,2604c <___vfprintf_internal_r+0x1e3c>
   26060:	003f6006 	br	25de4 <___vfprintf_internal_r+0x1bd4>
   26064:	d8800e17 	ldw	r2,56(sp)
   26068:	db401343 	ldbu	r13,77(sp)
   2606c:	0011883a 	mov	r8,zero
   26070:	d8800615 	stw	r2,24(sp)
   26074:	003b0206 	br	24c80 <___vfprintf_internal_r+0xa70>
   26078:	d8800717 	ldw	r2,28(sp)
   2607c:	d8c00817 	ldw	r3,32(sp)
   26080:	10c02216 	blt	r2,r3,2610c <___vfprintf_internal_r+0x1efc>
   26084:	6300004c 	andi	r12,r12,1
   26088:	60004f1e 	bne	r12,zero,261c8 <___vfprintf_internal_r+0x1fb8>
   2608c:	1029883a 	mov	r20,r2
   26090:	1000010e 	bge	r2,zero,26098 <___vfprintf_internal_r+0x1e88>
   26094:	0029883a 	mov	r20,zero
   26098:	dd400717 	ldw	r21,28(sp)
   2609c:	070019c4 	movi	fp,103
   260a0:	003f5f06 	br	25e20 <___vfprintf_internal_r+0x1c10>
   260a4:	d9801a04 	addi	r6,sp,104
   260a8:	900b883a 	mov	r5,r18
   260ac:	9809883a 	mov	r4,r19
   260b0:	002ae5c0 	call	2ae5c <__sprint_r>
   260b4:	1039631e 	bne	r2,zero,24644 <___vfprintf_internal_r+0x434>
   260b8:	d8c01c17 	ldw	r3,112(sp)
   260bc:	dd802704 	addi	r22,sp,156
   260c0:	a83cee0e 	bge	r21,zero,2547c <___vfprintf_internal_r+0x126c>
   260c4:	003dec06 	br	25878 <___vfprintf_internal_r+0x1668>
   260c8:	02000184 	movi	r8,6
   260cc:	003e5506 	br	25a24 <___vfprintf_internal_r+0x1814>
   260d0:	d9801a04 	addi	r6,sp,104
   260d4:	900b883a 	mov	r5,r18
   260d8:	9809883a 	mov	r4,r19
   260dc:	002ae5c0 	call	2ae5c <__sprint_r>
   260e0:	1039581e 	bne	r2,zero,24644 <___vfprintf_internal_r+0x434>
   260e4:	d8801417 	ldw	r2,80(sp)
   260e8:	d9000817 	ldw	r4,32(sp)
   260ec:	d8c01c17 	ldw	r3,112(sp)
   260f0:	dd802704 	addi	r22,sp,156
   260f4:	2085c83a 	sub	r2,r4,r2
   260f8:	003d0606 	br	25514 <___vfprintf_internal_r+0x1304>
   260fc:	4029883a 	mov	r20,r8
   26100:	d8c00615 	stw	r3,24(sp)
   26104:	402b883a 	mov	r21,r8
   26108:	00390406 	br	2451c <___vfprintf_internal_r+0x30c>
   2610c:	d8800817 	ldw	r2,32(sp)
   26110:	d8c00b17 	ldw	r3,44(sp)
   26114:	10eb883a 	add	r21,r2,r3
   26118:	d8800717 	ldw	r2,28(sp)
   2611c:	00800316 	blt	zero,r2,2612c <___vfprintf_internal_r+0x1f1c>
   26120:	d8800717 	ldw	r2,28(sp)
   26124:	a8abc83a 	sub	r21,r21,r2
   26128:	ad400044 	addi	r21,r21,1
   2612c:	a829883a 	mov	r20,r21
   26130:	a8002a16 	blt	r21,zero,261dc <___vfprintf_internal_r+0x1fcc>
   26134:	070019c4 	movi	fp,103
   26138:	003f3906 	br	25e20 <___vfprintf_internal_r+0x1c10>
   2613c:	d9401345 	stb	r5,77(sp)
   26140:	003a2506 	br	249d8 <___vfprintf_internal_r+0x7c8>
   26144:	d9401345 	stb	r5,77(sp)
   26148:	003b1806 	br	24dac <___vfprintf_internal_r+0xb9c>
   2614c:	d9401345 	stb	r5,77(sp)
   26150:	003a9006 	br	24b94 <___vfprintf_internal_r+0x984>
   26154:	d9401345 	stb	r5,77(sp)
   26158:	003a3f06 	br	24a58 <___vfprintf_internal_r+0x848>
   2615c:	d9401345 	stb	r5,77(sp)
   26160:	003a7806 	br	24b44 <___vfprintf_internal_r+0x934>
   26164:	d9401345 	stb	r5,77(sp)
   26168:	00399606 	br	247c4 <___vfprintf_internal_r+0x5b4>
   2616c:	00bfffc4 	movi	r2,-1
   26170:	d8800515 	stw	r2,20(sp)
   26174:	00393606 	br	24650 <___vfprintf_internal_r+0x440>
   26178:	900f883a 	mov	r7,r18
   2617c:	8025883a 	mov	r18,r16
   26180:	dc000717 	ldw	r16,28(sp)
   26184:	10800044 	addi	r2,r2,1
   26188:	1f07883a 	add	r3,r3,fp
   2618c:	b1c00015 	stw	r7,0(r22)
   26190:	b7000115 	stw	fp,4(r22)
   26194:	d8c01c15 	stw	r3,112(sp)
   26198:	d8801b15 	stw	r2,108(sp)
   2619c:	11000208 	cmpgei	r4,r2,8
   261a0:	203bf826 	beq	r4,zero,25184 <___vfprintf_internal_r+0xf74>
   261a4:	d9801a04 	addi	r6,sp,104
   261a8:	900b883a 	mov	r5,r18
   261ac:	9809883a 	mov	r4,r19
   261b0:	002ae5c0 	call	2ae5c <__sprint_r>
   261b4:	1039231e 	bne	r2,zero,24644 <___vfprintf_internal_r+0x434>
   261b8:	d8c01c17 	ldw	r3,112(sp)
   261bc:	d8801b17 	ldw	r2,108(sp)
   261c0:	dd802704 	addi	r22,sp,156
   261c4:	003bf006 	br	25188 <___vfprintf_internal_r+0xf78>
   261c8:	d8800717 	ldw	r2,28(sp)
   261cc:	d8c00b17 	ldw	r3,44(sp)
   261d0:	10eb883a 	add	r21,r2,r3
   261d4:	a829883a 	mov	r20,r21
   261d8:	a83fd60e 	bge	r21,zero,26134 <___vfprintf_internal_r+0x1f24>
   261dc:	0029883a 	mov	r20,zero
   261e0:	003fd406 	br	26134 <___vfprintf_internal_r+0x1f24>
   261e4:	00800c04 	movi	r2,48
   261e8:	ad400c04 	addi	r21,r21,48
   261ec:	d88016c5 	stb	r2,91(sp)
   261f0:	00800104 	movi	r2,4
   261f4:	dd401705 	stb	r21,92(sp)
   261f8:	d8801015 	stw	r2,64(sp)
   261fc:	003e6e06 	br	25bb8 <___vfprintf_internal_r+0x19a8>
   26200:	05400044 	movi	r21,1
   26204:	a8abc83a 	sub	r21,r21,r2
   26208:	00800b44 	movi	r2,45
   2620c:	d8801685 	stb	r2,90(sp)
   26210:	003e3a06 	br	25afc <___vfprintf_internal_r+0x18ec>
   26214:	6080004c 	andi	r2,r12,1
   26218:	d8800715 	stw	r2,28(sp)
   2621c:	103e6b1e 	bne	r2,zero,25bcc <___vfprintf_internal_r+0x19bc>
   26220:	a829883a 	mov	r20,r21
   26224:	a83efe0e 	bge	r21,zero,25e20 <___vfprintf_internal_r+0x1c10>
   26228:	0029883a 	mov	r20,zero
   2622c:	003efc06 	br	25e20 <___vfprintf_internal_r+0x1c10>
   26230:	d8800a17 	ldw	r2,40(sp)
   26234:	10001a16 	blt	r2,zero,262a0 <___vfprintf_internal_r+0x2090>
   26238:	db401343 	ldbu	r13,77(sp)
   2623c:	e0801210 	cmplti	r2,fp,72
   26240:	1000141e 	bne	r2,zero,26294 <___vfprintf_internal_r+0x2084>
   26244:	044000f4 	movhi	r17,3
   26248:	8c4e7404 	addi	r17,r17,14800
   2624c:	00398c06 	br	24880 <___vfprintf_internal_r+0x670>
   26250:	d8800b17 	ldw	r2,44(sp)
   26254:	18ab883a 	add	r21,r3,r2
   26258:	aa2b883a 	add	r21,r21,r8
   2625c:	003ff006 	br	26220 <___vfprintf_internal_r+0x2010>
   26260:	1000031e 	bne	r2,zero,26270 <___vfprintf_internal_r+0x2060>
   26264:	05000044 	movi	r20,1
   26268:	05400044 	movi	r21,1
   2626c:	003eec06 	br	25e20 <___vfprintf_internal_r+0x1c10>
   26270:	d8800b17 	ldw	r2,44(sp)
   26274:	15400044 	addi	r21,r2,1
   26278:	aa2b883a 	add	r21,r21,r8
   2627c:	003fe806 	br	26220 <___vfprintf_internal_r+0x2010>
   26280:	8025883a 	mov	r18,r16
   26284:	0038ef06 	br	24644 <___vfprintf_internal_r+0x434>
   26288:	b005883a 	mov	r2,r22
   2628c:	39ce8204 	addi	r7,r7,14856
   26290:	003ea506 	br	25d28 <___vfprintf_internal_r+0x1b18>
   26294:	044000f4 	movhi	r17,3
   26298:	8c4e7304 	addi	r17,r17,14796
   2629c:	00397806 	br	24880 <___vfprintf_internal_r+0x670>
   262a0:	00800b44 	movi	r2,45
   262a4:	d8801345 	stb	r2,77(sp)
   262a8:	03400b44 	movi	r13,45
   262ac:	003fe306 	br	2623c <___vfprintf_internal_r+0x202c>
   262b0:	00800084 	movi	r2,2
   262b4:	d8801015 	stw	r2,64(sp)
   262b8:	003e3f06 	br	25bb8 <___vfprintf_internal_r+0x19a8>
   262bc:	d8800617 	ldw	r2,24(sp)
   262c0:	12000017 	ldw	r8,0(r2)
   262c4:	10800104 	addi	r2,r2,4
   262c8:	4000010e 	bge	r8,zero,262d0 <___vfprintf_internal_r+0x20c0>
   262cc:	023fffc4 	movi	r8,-1
   262d0:	bf000043 	ldbu	fp,1(r23)
   262d4:	d8800615 	stw	r2,24(sp)
   262d8:	182f883a 	mov	r23,r3
   262dc:	e2c03fcc 	andi	r11,fp,255
   262e0:	5ac0201c 	xori	r11,r11,128
   262e4:	5affe004 	addi	r11,r11,-128
   262e8:	00381506 	br	24340 <___vfprintf_internal_r+0x130>

000262ec <__vfprintf_internal>:
   262ec:	00c000f4 	movhi	r3,3
   262f0:	2005883a 	mov	r2,r4
   262f4:	19190c17 	ldw	r4,25648(r3)
   262f8:	300f883a 	mov	r7,r6
   262fc:	280d883a 	mov	r6,r5
   26300:	100b883a 	mov	r5,r2
   26304:	00242101 	jmpi	24210 <___vfprintf_internal_r>

00026308 <__sbprintf>:
   26308:	2880030b 	ldhu	r2,12(r5)
   2630c:	2b001917 	ldw	r12,100(r5)
   26310:	2ac0038b 	ldhu	r11,14(r5)
   26314:	2a800717 	ldw	r10,28(r5)
   26318:	2a400917 	ldw	r9,36(r5)
   2631c:	defee204 	addi	sp,sp,-1144
   26320:	da001a04 	addi	r8,sp,104
   26324:	00c10004 	movi	r3,1024
   26328:	dc011a15 	stw	r16,1128(sp)
   2632c:	10bfff4c 	andi	r2,r2,65533
   26330:	2821883a 	mov	r16,r5
   26334:	d80b883a 	mov	r5,sp
   26338:	dc811c15 	stw	r18,1136(sp)
   2633c:	dc411b15 	stw	r17,1132(sp)
   26340:	dfc11d15 	stw	ra,1140(sp)
   26344:	2025883a 	mov	r18,r4
   26348:	d880030d 	sth	r2,12(sp)
   2634c:	db001915 	stw	r12,100(sp)
   26350:	dac0038d 	sth	r11,14(sp)
   26354:	da800715 	stw	r10,28(sp)
   26358:	da400915 	stw	r9,36(sp)
   2635c:	da000015 	stw	r8,0(sp)
   26360:	da000415 	stw	r8,16(sp)
   26364:	d8c00215 	stw	r3,8(sp)
   26368:	d8c00515 	stw	r3,20(sp)
   2636c:	d8000615 	stw	zero,24(sp)
   26370:	00242100 	call	24210 <___vfprintf_internal_r>
   26374:	1023883a 	mov	r17,r2
   26378:	10000d0e 	bge	r2,zero,263b0 <__sbprintf+0xa8>
   2637c:	d880030b 	ldhu	r2,12(sp)
   26380:	1080100c 	andi	r2,r2,64
   26384:	10000326 	beq	r2,zero,26394 <__sbprintf+0x8c>
   26388:	8080030b 	ldhu	r2,12(r16)
   2638c:	10801014 	ori	r2,r2,64
   26390:	8080030d 	sth	r2,12(r16)
   26394:	8805883a 	mov	r2,r17
   26398:	dfc11d17 	ldw	ra,1140(sp)
   2639c:	dc811c17 	ldw	r18,1136(sp)
   263a0:	dc411b17 	ldw	r17,1132(sp)
   263a4:	dc011a17 	ldw	r16,1128(sp)
   263a8:	dec11e04 	addi	sp,sp,1144
   263ac:	f800283a 	ret
   263b0:	d80b883a 	mov	r5,sp
   263b4:	9009883a 	mov	r4,r18
   263b8:	00281540 	call	28154 <_fflush_r>
   263bc:	103fef26 	beq	r2,zero,2637c <__sbprintf+0x74>
   263c0:	047fffc4 	movi	r17,-1
   263c4:	003fed06 	br	2637c <__sbprintf+0x74>

000263c8 <_write_r>:
   263c8:	2807883a 	mov	r3,r5
   263cc:	defffe04 	addi	sp,sp,-8
   263d0:	dc000015 	stw	r16,0(sp)
   263d4:	300b883a 	mov	r5,r6
   263d8:	00800134 	movhi	r2,4
   263dc:	380d883a 	mov	r6,r7
   263e0:	2021883a 	mov	r16,r4
   263e4:	1809883a 	mov	r4,r3
   263e8:	dfc00115 	stw	ra,4(sp)
   263ec:	10222d15 	stw	zero,-30540(r2)
   263f0:	0030ee40 	call	30ee4 <write>
   263f4:	10ffffd8 	cmpnei	r3,r2,-1
   263f8:	18000426 	beq	r3,zero,2640c <_write_r+0x44>
   263fc:	dfc00117 	ldw	ra,4(sp)
   26400:	dc000017 	ldw	r16,0(sp)
   26404:	dec00204 	addi	sp,sp,8
   26408:	f800283a 	ret
   2640c:	00c00134 	movhi	r3,4
   26410:	18e22d17 	ldw	r3,-30540(r3)
   26414:	183ff926 	beq	r3,zero,263fc <_write_r+0x34>
   26418:	80c00015 	stw	r3,0(r16)
   2641c:	dfc00117 	ldw	ra,4(sp)
   26420:	dc000017 	ldw	r16,0(sp)
   26424:	dec00204 	addi	sp,sp,8
   26428:	f800283a 	ret

0002642c <__swsetup_r>:
   2642c:	008000f4 	movhi	r2,3
   26430:	10990c17 	ldw	r2,25648(r2)
   26434:	defffd04 	addi	sp,sp,-12
   26438:	dc400115 	stw	r17,4(sp)
   2643c:	dc000015 	stw	r16,0(sp)
   26440:	dfc00215 	stw	ra,8(sp)
   26444:	2023883a 	mov	r17,r4
   26448:	2821883a 	mov	r16,r5
   2644c:	10000226 	beq	r2,zero,26458 <__swsetup_r+0x2c>
   26450:	10c00e17 	ldw	r3,56(r2)
   26454:	18003326 	beq	r3,zero,26524 <__swsetup_r+0xf8>
   26458:	8180030b 	ldhu	r6,12(r16)
   2645c:	30c0020c 	andi	r3,r6,8
   26460:	3005883a 	mov	r2,r6
   26464:	18000f26 	beq	r3,zero,264a4 <__swsetup_r+0x78>
   26468:	80c00417 	ldw	r3,16(r16)
   2646c:	18001626 	beq	r3,zero,264c8 <__swsetup_r+0x9c>
   26470:	1100004c 	andi	r4,r2,1
   26474:	20001f1e 	bne	r4,zero,264f4 <__swsetup_r+0xc8>
   26478:	1100008c 	andi	r4,r2,2
   2647c:	20002c1e 	bne	r4,zero,26530 <__swsetup_r+0x104>
   26480:	81000517 	ldw	r4,20(r16)
   26484:	81000215 	stw	r4,8(r16)
   26488:	18001f26 	beq	r3,zero,26508 <__swsetup_r+0xdc>
   2648c:	0005883a 	mov	r2,zero
   26490:	dfc00217 	ldw	ra,8(sp)
   26494:	dc400117 	ldw	r17,4(sp)
   26498:	dc000017 	ldw	r16,0(sp)
   2649c:	dec00304 	addi	sp,sp,12
   264a0:	f800283a 	ret
   264a4:	3080040c 	andi	r2,r6,16
   264a8:	10003126 	beq	r2,zero,26570 <__swsetup_r+0x144>
   264ac:	3080010c 	andi	r2,r6,4
   264b0:	1000211e 	bne	r2,zero,26538 <__swsetup_r+0x10c>
   264b4:	80c00417 	ldw	r3,16(r16)
   264b8:	30800214 	ori	r2,r6,8
   264bc:	8080030d 	sth	r2,12(r16)
   264c0:	100d883a 	mov	r6,r2
   264c4:	183fea1e 	bne	r3,zero,26470 <__swsetup_r+0x44>
   264c8:	1100a00c 	andi	r4,r2,640
   264cc:	21008020 	cmpeqi	r4,r4,512
   264d0:	203fe71e 	bne	r4,zero,26470 <__swsetup_r+0x44>
   264d4:	8809883a 	mov	r4,r17
   264d8:	800b883a 	mov	r5,r16
   264dc:	00232000 	call	23200 <__smakebuf_r>
   264e0:	8180030b 	ldhu	r6,12(r16)
   264e4:	80c00417 	ldw	r3,16(r16)
   264e8:	3005883a 	mov	r2,r6
   264ec:	1100004c 	andi	r4,r2,1
   264f0:	203fe126 	beq	r4,zero,26478 <__swsetup_r+0x4c>
   264f4:	81000517 	ldw	r4,20(r16)
   264f8:	80000215 	stw	zero,8(r16)
   264fc:	0109c83a 	sub	r4,zero,r4
   26500:	81000615 	stw	r4,24(r16)
   26504:	183fe11e 	bne	r3,zero,2648c <__swsetup_r+0x60>
   26508:	10c0200c 	andi	r3,r2,128
   2650c:	0005883a 	mov	r2,zero
   26510:	183fdf26 	beq	r3,zero,26490 <__swsetup_r+0x64>
   26514:	31801014 	ori	r6,r6,64
   26518:	8180030d 	sth	r6,12(r16)
   2651c:	00bfffc4 	movi	r2,-1
   26520:	003fdb06 	br	26490 <__swsetup_r+0x64>
   26524:	1009883a 	mov	r4,r2
   26528:	00284d80 	call	284d8 <__sinit>
   2652c:	003fca06 	br	26458 <__swsetup_r+0x2c>
   26530:	0009883a 	mov	r4,zero
   26534:	003fd306 	br	26484 <__swsetup_r+0x58>
   26538:	81400c17 	ldw	r5,48(r16)
   2653c:	28000626 	beq	r5,zero,26558 <__swsetup_r+0x12c>
   26540:	80801004 	addi	r2,r16,64
   26544:	28800326 	beq	r5,r2,26554 <__swsetup_r+0x128>
   26548:	8809883a 	mov	r4,r17
   2654c:	00286f40 	call	286f4 <_free_r>
   26550:	8180030b 	ldhu	r6,12(r16)
   26554:	80000c15 	stw	zero,48(r16)
   26558:	80c00417 	ldw	r3,16(r16)
   2655c:	00bff6c4 	movi	r2,-37
   26560:	118c703a 	and	r6,r2,r6
   26564:	80000115 	stw	zero,4(r16)
   26568:	80c00015 	stw	r3,0(r16)
   2656c:	003fd206 	br	264b8 <__swsetup_r+0x8c>
   26570:	00800244 	movi	r2,9
   26574:	88800015 	stw	r2,0(r17)
   26578:	31801014 	ori	r6,r6,64
   2657c:	8180030d 	sth	r6,12(r16)
   26580:	00bfffc4 	movi	r2,-1
   26584:	003fc206 	br	26490 <__swsetup_r+0x64>

00026588 <_close_r>:
   26588:	defffe04 	addi	sp,sp,-8
   2658c:	dc000015 	stw	r16,0(sp)
   26590:	00800134 	movhi	r2,4
   26594:	2021883a 	mov	r16,r4
   26598:	2809883a 	mov	r4,r5
   2659c:	dfc00115 	stw	ra,4(sp)
   265a0:	10222d15 	stw	zero,-30540(r2)
   265a4:	002ff940 	call	2ff94 <close>
   265a8:	10ffffd8 	cmpnei	r3,r2,-1
   265ac:	18000426 	beq	r3,zero,265c0 <_close_r+0x38>
   265b0:	dfc00117 	ldw	ra,4(sp)
   265b4:	dc000017 	ldw	r16,0(sp)
   265b8:	dec00204 	addi	sp,sp,8
   265bc:	f800283a 	ret
   265c0:	00c00134 	movhi	r3,4
   265c4:	18e22d17 	ldw	r3,-30540(r3)
   265c8:	183ff926 	beq	r3,zero,265b0 <_close_r+0x28>
   265cc:	80c00015 	stw	r3,0(r16)
   265d0:	dfc00117 	ldw	ra,4(sp)
   265d4:	dc000017 	ldw	r16,0(sp)
   265d8:	dec00204 	addi	sp,sp,8
   265dc:	f800283a 	ret

000265e0 <quorem>:
   265e0:	defff504 	addi	sp,sp,-44
   265e4:	dc800315 	stw	r18,12(sp)
   265e8:	20800417 	ldw	r2,16(r4)
   265ec:	2c800417 	ldw	r18,16(r5)
   265f0:	dfc00a15 	stw	ra,40(sp)
   265f4:	df000915 	stw	fp,36(sp)
   265f8:	ddc00815 	stw	r23,32(sp)
   265fc:	dd800715 	stw	r22,28(sp)
   26600:	dd400615 	stw	r21,24(sp)
   26604:	dd000515 	stw	r20,20(sp)
   26608:	dcc00415 	stw	r19,16(sp)
   2660c:	dc400215 	stw	r17,8(sp)
   26610:	dc000115 	stw	r16,4(sp)
   26614:	14806f16 	blt	r2,r18,267d4 <quorem+0x1f4>
   26618:	94bfffc4 	addi	r18,r18,-1
   2661c:	902c90ba 	slli	r22,r18,2
   26620:	2c000504 	addi	r16,r5,20
   26624:	25000504 	addi	r20,r4,20
   26628:	85a7883a 	add	r19,r16,r22
   2662c:	9f000017 	ldw	fp,0(r19)
   26630:	a5ad883a 	add	r22,r20,r22
   26634:	202b883a 	mov	r21,r4
   26638:	b1000017 	ldw	r4,0(r22)
   2663c:	e7000044 	addi	fp,fp,1
   26640:	282f883a 	mov	r23,r5
   26644:	e00b883a 	mov	r5,fp
   26648:	d9000015 	stw	r4,0(sp)
   2664c:	00229a00 	call	229a0 <__udivsi3>
   26650:	d9000017 	ldw	r4,0(sp)
   26654:	1023883a 	mov	r17,r2
   26658:	27002a36 	bltu	r4,fp,26704 <quorem+0x124>
   2665c:	800b883a 	mov	r5,r16
   26660:	a009883a 	mov	r4,r20
   26664:	0013883a 	mov	r9,zero
   26668:	0007883a 	mov	r3,zero
   2666c:	2a000017 	ldw	r8,0(r5)
   26670:	21800017 	ldw	r6,0(r4)
   26674:	21000104 	addi	r4,r4,4
   26678:	40bfffcc 	andi	r2,r8,65535
   2667c:	1445383a 	mul	r2,r2,r17
   26680:	400ed43a 	srli	r7,r8,16
   26684:	32bfffcc 	andi	r10,r6,65535
   26688:	1245883a 	add	r2,r2,r9
   2668c:	1012d43a 	srli	r9,r2,16
   26690:	123fffcc 	andi	r8,r2,65535
   26694:	3c4f383a 	mul	r7,r7,r17
   26698:	1a07c83a 	sub	r3,r3,r8
   2669c:	1a91883a 	add	r8,r3,r10
   266a0:	3006d43a 	srli	r3,r6,16
   266a4:	4005d43a 	srai	r2,r8,16
   266a8:	3a4f883a 	add	r7,r7,r9
   266ac:	39bfffcc 	andi	r6,r7,65535
   266b0:	1987c83a 	sub	r3,r3,r6
   266b4:	1887883a 	add	r3,r3,r2
   266b8:	1804943a 	slli	r2,r3,16
   266bc:	423fffcc 	andi	r8,r8,65535
   266c0:	29400104 	addi	r5,r5,4
   266c4:	1210b03a 	or	r8,r2,r8
   266c8:	223fff15 	stw	r8,-4(r4)
   266cc:	3812d43a 	srli	r9,r7,16
   266d0:	1807d43a 	srai	r3,r3,16
   266d4:	997fe52e 	bgeu	r19,r5,2666c <quorem+0x8c>
   266d8:	b0800017 	ldw	r2,0(r22)
   266dc:	1000091e 	bne	r2,zero,26704 <quorem+0x124>
   266e0:	b5bfff04 	addi	r22,r22,-4
   266e4:	a5800336 	bltu	r20,r22,266f4 <quorem+0x114>
   266e8:	00000506 	br	26700 <quorem+0x120>
   266ec:	94bfffc4 	addi	r18,r18,-1
   266f0:	a580032e 	bgeu	r20,r22,26700 <quorem+0x120>
   266f4:	b0800017 	ldw	r2,0(r22)
   266f8:	b5bfff04 	addi	r22,r22,-4
   266fc:	103ffb26 	beq	r2,zero,266ec <quorem+0x10c>
   26700:	ac800415 	stw	r18,16(r21)
   26704:	b80b883a 	mov	r5,r23
   26708:	a809883a 	mov	r4,r21
   2670c:	0029e440 	call	29e44 <__mcmp>
   26710:	10002316 	blt	r2,zero,267a0 <quorem+0x1c0>
   26714:	8c400044 	addi	r17,r17,1
   26718:	a00d883a 	mov	r6,r20
   2671c:	0007883a 	mov	r3,zero
   26720:	81000017 	ldw	r4,0(r16)
   26724:	31400017 	ldw	r5,0(r6)
   26728:	31800104 	addi	r6,r6,4
   2672c:	20bfffcc 	andi	r2,r4,65535
   26730:	1887c83a 	sub	r3,r3,r2
   26734:	28bfffcc 	andi	r2,r5,65535
   26738:	1885883a 	add	r2,r3,r2
   2673c:	2008d43a 	srli	r4,r4,16
   26740:	2806d43a 	srli	r3,r5,16
   26744:	100fd43a 	srai	r7,r2,16
   26748:	117fffcc 	andi	r5,r2,65535
   2674c:	1907c83a 	sub	r3,r3,r4
   26750:	19c7883a 	add	r3,r3,r7
   26754:	1804943a 	slli	r2,r3,16
   26758:	84000104 	addi	r16,r16,4
   2675c:	1807d43a 	srai	r3,r3,16
   26760:	1144b03a 	or	r2,r2,r5
   26764:	30bfff15 	stw	r2,-4(r6)
   26768:	9c3fed2e 	bgeu	r19,r16,26720 <quorem+0x140>
   2676c:	900490ba 	slli	r2,r18,2
   26770:	a085883a 	add	r2,r20,r2
   26774:	10c00017 	ldw	r3,0(r2)
   26778:	1800091e 	bne	r3,zero,267a0 <quorem+0x1c0>
   2677c:	10bfff04 	addi	r2,r2,-4
   26780:	a0800336 	bltu	r20,r2,26790 <quorem+0x1b0>
   26784:	00000506 	br	2679c <quorem+0x1bc>
   26788:	94bfffc4 	addi	r18,r18,-1
   2678c:	a080032e 	bgeu	r20,r2,2679c <quorem+0x1bc>
   26790:	10c00017 	ldw	r3,0(r2)
   26794:	10bfff04 	addi	r2,r2,-4
   26798:	183ffb26 	beq	r3,zero,26788 <quorem+0x1a8>
   2679c:	ac800415 	stw	r18,16(r21)
   267a0:	8805883a 	mov	r2,r17
   267a4:	dfc00a17 	ldw	ra,40(sp)
   267a8:	df000917 	ldw	fp,36(sp)
   267ac:	ddc00817 	ldw	r23,32(sp)
   267b0:	dd800717 	ldw	r22,28(sp)
   267b4:	dd400617 	ldw	r21,24(sp)
   267b8:	dd000517 	ldw	r20,20(sp)
   267bc:	dcc00417 	ldw	r19,16(sp)
   267c0:	dc800317 	ldw	r18,12(sp)
   267c4:	dc400217 	ldw	r17,8(sp)
   267c8:	dc000117 	ldw	r16,4(sp)
   267cc:	dec00b04 	addi	sp,sp,44
   267d0:	f800283a 	ret
   267d4:	0005883a 	mov	r2,zero
   267d8:	003ff206 	br	267a4 <quorem+0x1c4>

000267dc <_dtoa_r>:
   267dc:	20801017 	ldw	r2,64(r4)
   267e0:	deffe204 	addi	sp,sp,-120
   267e4:	ddc01b15 	stw	r23,108(sp)
   267e8:	dd001815 	stw	r20,96(sp)
   267ec:	dc801615 	stw	r18,88(sp)
   267f0:	dc401515 	stw	r17,84(sp)
   267f4:	dc001415 	stw	r16,80(sp)
   267f8:	dfc01d15 	stw	ra,116(sp)
   267fc:	df001c15 	stw	fp,112(sp)
   26800:	dd801a15 	stw	r22,104(sp)
   26804:	dd401915 	stw	r21,100(sp)
   26808:	dcc01715 	stw	r19,92(sp)
   2680c:	d9c00115 	stw	r7,4(sp)
   26810:	dc002017 	ldw	r16,128(sp)
   26814:	202f883a 	mov	r23,r4
   26818:	3025883a 	mov	r18,r6
   2681c:	2829883a 	mov	r20,r5
   26820:	3023883a 	mov	r17,r6
   26824:	10000826 	beq	r2,zero,26848 <_dtoa_r+0x6c>
   26828:	21801117 	ldw	r6,68(r4)
   2682c:	00c00044 	movi	r3,1
   26830:	100b883a 	mov	r5,r2
   26834:	1986983a 	sll	r3,r3,r6
   26838:	11800115 	stw	r6,4(r2)
   2683c:	10c00215 	stw	r3,8(r2)
   26840:	00295780 	call	29578 <_Bfree>
   26844:	b8001015 	stw	zero,64(r23)
   26848:	90018616 	blt	r18,zero,26e64 <_dtoa_r+0x688>
   2684c:	80000015 	stw	zero,0(r16)
   26850:	909ffc2c 	andhi	r2,r18,32752
   26854:	00dffc34 	movhi	r3,32752
   26858:	10c18b26 	beq	r2,r3,26e88 <_dtoa_r+0x6ac>
   2685c:	000d883a 	mov	r6,zero
   26860:	000f883a 	mov	r7,zero
   26864:	a009883a 	mov	r4,r20
   26868:	880b883a 	mov	r5,r17
   2686c:	002eae00 	call	2eae0 <__eqdf2>
   26870:	1000181e 	bne	r2,zero,268d4 <_dtoa_r+0xf8>
   26874:	d8c01f17 	ldw	r3,124(sp)
   26878:	00800044 	movi	r2,1
   2687c:	18800015 	stw	r2,0(r3)
   26880:	d8802117 	ldw	r2,132(sp)
   26884:	10030b26 	beq	r2,zero,274b4 <_dtoa_r+0xcd8>
   26888:	d8c02117 	ldw	r3,132(sp)
   2688c:	008000f4 	movhi	r2,3
   26890:	108e8144 	addi	r2,r2,14853
   26894:	070000f4 	movhi	fp,3
   26898:	18800015 	stw	r2,0(r3)
   2689c:	e70e8104 	addi	fp,fp,14852
   268a0:	e005883a 	mov	r2,fp
   268a4:	dfc01d17 	ldw	ra,116(sp)
   268a8:	df001c17 	ldw	fp,112(sp)
   268ac:	ddc01b17 	ldw	r23,108(sp)
   268b0:	dd801a17 	ldw	r22,104(sp)
   268b4:	dd401917 	ldw	r21,100(sp)
   268b8:	dd001817 	ldw	r20,96(sp)
   268bc:	dcc01717 	ldw	r19,92(sp)
   268c0:	dc801617 	ldw	r18,88(sp)
   268c4:	dc401517 	ldw	r17,84(sp)
   268c8:	dc001417 	ldw	r16,80(sp)
   268cc:	dec01e04 	addi	sp,sp,120
   268d0:	f800283a 	ret
   268d4:	d8801204 	addi	r2,sp,72
   268d8:	9020d53a 	srli	r16,r18,20
   268dc:	d8800015 	stw	r2,0(sp)
   268e0:	d9c01304 	addi	r7,sp,76
   268e4:	a00b883a 	mov	r5,r20
   268e8:	880d883a 	mov	r6,r17
   268ec:	b809883a 	mov	r4,r23
   268f0:	002a2280 	call	2a228 <__d2b>
   268f4:	102d883a 	mov	r22,r2
   268f8:	8001741e 	bne	r16,zero,26ecc <_dtoa_r+0x6f0>
   268fc:	df001217 	ldw	fp,72(sp)
   26900:	dc001317 	ldw	r16,76(sp)
   26904:	e421883a 	add	r16,fp,r16
   26908:	80810c84 	addi	r2,r16,1074
   2690c:	10c00850 	cmplti	r3,r2,33
   26910:	1802f81e 	bne	r3,zero,274f4 <_dtoa_r+0xd18>
   26914:	01001004 	movi	r4,64
   26918:	2085c83a 	sub	r2,r4,r2
   2691c:	81010484 	addi	r4,r16,1042
   26920:	90a4983a 	sll	r18,r18,r2
   26924:	a108d83a 	srl	r4,r20,r4
   26928:	9108b03a 	or	r4,r18,r4
   2692c:	002fe740 	call	2fe74 <__floatunsidf>
   26930:	1009883a 	mov	r4,r2
   26934:	017f8434 	movhi	r5,65040
   26938:	00800044 	movi	r2,1
   2693c:	194b883a 	add	r5,r3,r5
   26940:	843fffc4 	addi	r16,r16,-1
   26944:	d8800915 	stw	r2,36(sp)
   26948:	000d883a 	mov	r6,zero
   2694c:	01cffe34 	movhi	r7,16376
   26950:	002f3b00 	call	2f3b0 <__subdf3>
   26954:	0198dbf4 	movhi	r6,25455
   26958:	01cff4f4 	movhi	r7,16339
   2695c:	3190d844 	addi	r6,r6,17249
   26960:	39e1e9c4 	addi	r7,r7,-30809
   26964:	1009883a 	mov	r4,r2
   26968:	180b883a 	mov	r5,r3
   2696c:	002ed400 	call	2ed40 <__muldf3>
   26970:	01a2d874 	movhi	r6,35681
   26974:	01cff1f4 	movhi	r7,16327
   26978:	31b22cc4 	addi	r6,r6,-14157
   2697c:	39e28a04 	addi	r7,r7,-30168
   26980:	180b883a 	mov	r5,r3
   26984:	1009883a 	mov	r4,r2
   26988:	002d9080 	call	2d908 <__adddf3>
   2698c:	8009883a 	mov	r4,r16
   26990:	1027883a 	mov	r19,r2
   26994:	1825883a 	mov	r18,r3
   26998:	002fdb80 	call	2fdb8 <__floatsidf>
   2699c:	019427f4 	movhi	r6,20639
   269a0:	01cff4f4 	movhi	r7,16339
   269a4:	319e7ec4 	addi	r6,r6,31227
   269a8:	39d104c4 	addi	r7,r7,17427
   269ac:	1009883a 	mov	r4,r2
   269b0:	180b883a 	mov	r5,r3
   269b4:	002ed400 	call	2ed40 <__muldf3>
   269b8:	100d883a 	mov	r6,r2
   269bc:	180f883a 	mov	r7,r3
   269c0:	9809883a 	mov	r4,r19
   269c4:	900b883a 	mov	r5,r18
   269c8:	002d9080 	call	2d908 <__adddf3>
   269cc:	1009883a 	mov	r4,r2
   269d0:	180b883a 	mov	r5,r3
   269d4:	1025883a 	mov	r18,r2
   269d8:	182b883a 	mov	r21,r3
   269dc:	002fd380 	call	2fd38 <__fixdfsi>
   269e0:	000d883a 	mov	r6,zero
   269e4:	000f883a 	mov	r7,zero
   269e8:	9009883a 	mov	r4,r18
   269ec:	a80b883a 	mov	r5,r21
   269f0:	1027883a 	mov	r19,r2
   269f4:	002ec500 	call	2ec50 <__ledf2>
   269f8:	1002a416 	blt	r2,zero,2748c <_dtoa_r+0xcb0>
   269fc:	e439c83a 	sub	fp,fp,r16
   26a00:	e0ffffc4 	addi	r3,fp,-1
   26a04:	988005e8 	cmpgeui	r2,r19,23
   26a08:	d8c00215 	stw	r3,8(sp)
   26a0c:	1002961e 	bne	r2,zero,27468 <_dtoa_r+0xc8c>
   26a10:	980690fa 	slli	r3,r19,3
   26a14:	008000f4 	movhi	r2,3
   26a18:	108ec804 	addi	r2,r2,15136
   26a1c:	10c5883a 	add	r2,r2,r3
   26a20:	11800017 	ldw	r6,0(r2)
   26a24:	11c00117 	ldw	r7,4(r2)
   26a28:	a009883a 	mov	r4,r20
   26a2c:	880b883a 	mov	r5,r17
   26a30:	002ec500 	call	2ec50 <__ledf2>
   26a34:	1002670e 	bge	r2,zero,273d4 <_dtoa_r+0xbf8>
   26a38:	d8000815 	stw	zero,32(sp)
   26a3c:	e0bfffc4 	addi	r2,fp,-1
   26a40:	9cffffc4 	addi	r19,r19,-1
   26a44:	10028c16 	blt	r2,zero,27478 <_dtoa_r+0xc9c>
   26a48:	d8000515 	stw	zero,20(sp)
   26a4c:	9802650e 	bge	r19,zero,273e4 <_dtoa_r+0xc08>
   26a50:	d8800517 	ldw	r2,20(sp)
   26a54:	d8c00117 	ldw	r3,4(sp)
   26a58:	dcc00315 	stw	r19,12(sp)
   26a5c:	14c5c83a 	sub	r2,r2,r19
   26a60:	d8800515 	stw	r2,20(sp)
   26a64:	04c5c83a 	sub	r2,zero,r19
   26a68:	d8800715 	stw	r2,28(sp)
   26a6c:	188002a8 	cmpgeui	r2,r3,10
   26a70:	0027883a 	mov	r19,zero
   26a74:	1002631e 	bne	r2,zero,27404 <_dtoa_r+0xc28>
   26a78:	18800190 	cmplti	r2,r3,6
   26a7c:	1002a11e 	bne	r2,zero,27504 <_dtoa_r+0xd28>
   26a80:	18bfff04 	addi	r2,r3,-4
   26a84:	d8800115 	stw	r2,4(sp)
   26a88:	0021883a 	mov	r16,zero
   26a8c:	d8c00117 	ldw	r3,4(sp)
   26a90:	18800120 	cmpeqi	r2,r3,4
   26a94:	1003721e 	bne	r2,zero,27860 <_dtoa_r+0x1084>
   26a98:	18800160 	cmpeqi	r2,r3,5
   26a9c:	10032f1e 	bne	r2,zero,2775c <_dtoa_r+0xf80>
   26aa0:	188000a0 	cmpeqi	r2,r3,2
   26aa4:	10026326 	beq	r2,zero,27434 <_dtoa_r+0xc58>
   26aa8:	d8000615 	stw	zero,24(sp)
   26aac:	d8801e17 	ldw	r2,120(sp)
   26ab0:	00833c0e 	bge	zero,r2,277a4 <_dtoa_r+0xfc8>
   26ab4:	d8800b15 	stw	r2,44(sp)
   26ab8:	d8800415 	stw	r2,16(sp)
   26abc:	100d883a 	mov	r6,r2
   26ac0:	b8001115 	stw	zero,68(r23)
   26ac4:	30800610 	cmplti	r2,r6,24
   26ac8:	1005161e 	bne	r2,zero,27f24 <_dtoa_r+0x1748>
   26acc:	00c00044 	movi	r3,1
   26ad0:	00800104 	movi	r2,4
   26ad4:	1085883a 	add	r2,r2,r2
   26ad8:	11000504 	addi	r4,r2,20
   26adc:	180b883a 	mov	r5,r3
   26ae0:	18c00044 	addi	r3,r3,1
   26ae4:	313ffb2e 	bgeu	r6,r4,26ad4 <_dtoa_r+0x2f8>
   26ae8:	b9401115 	stw	r5,68(r23)
   26aec:	b809883a 	mov	r4,r23
   26af0:	00294d40 	call	294d4 <_Balloc>
   26af4:	1039883a 	mov	fp,r2
   26af8:	1004f526 	beq	r2,zero,27ed0 <_dtoa_r+0x16f4>
   26afc:	b8801015 	stw	r2,64(r23)
   26b00:	d8800417 	ldw	r2,16(sp)
   26b04:	108003e8 	cmpgeui	r2,r2,15
   26b08:	10010b1e 	bne	r2,zero,26f38 <_dtoa_r+0x75c>
   26b0c:	80010a26 	beq	r16,zero,26f38 <_dtoa_r+0x75c>
   26b10:	d9000317 	ldw	r4,12(sp)
   26b14:	0103a30e 	bge	zero,r4,279a4 <_dtoa_r+0x11c8>
   26b18:	208003cc 	andi	r2,r4,15
   26b1c:	100690fa 	slli	r3,r2,3
   26b20:	202bd13a 	srai	r21,r4,4
   26b24:	008000f4 	movhi	r2,3
   26b28:	108ec804 	addi	r2,r2,15136
   26b2c:	10c5883a 	add	r2,r2,r3
   26b30:	a8c0040c 	andi	r3,r21,16
   26b34:	12800017 	ldw	r10,0(r2)
   26b38:	12400117 	ldw	r9,4(r2)
   26b3c:	18034226 	beq	r3,zero,27848 <_dtoa_r+0x106c>
   26b40:	008000f4 	movhi	r2,3
   26b44:	108ebe04 	addi	r2,r2,15096
   26b48:	11800817 	ldw	r6,32(r2)
   26b4c:	11c00917 	ldw	r7,36(r2)
   26b50:	a009883a 	mov	r4,r20
   26b54:	880b883a 	mov	r5,r17
   26b58:	da400e15 	stw	r9,56(sp)
   26b5c:	da800d15 	stw	r10,52(sp)
   26b60:	002e2800 	call	2e280 <__divdf3>
   26b64:	da800d17 	ldw	r10,52(sp)
   26b68:	da400e17 	ldw	r9,56(sp)
   26b6c:	ad4003cc 	andi	r21,r21,15
   26b70:	d8800a15 	stw	r2,40(sp)
   26b74:	d8c00c15 	stw	r3,48(sp)
   26b78:	040000c4 	movi	r16,3
   26b7c:	a8001126 	beq	r21,zero,26bc4 <_dtoa_r+0x3e8>
   26b80:	048000f4 	movhi	r18,3
   26b84:	948ebe04 	addi	r18,r18,15096
   26b88:	5009883a 	mov	r4,r10
   26b8c:	480b883a 	mov	r5,r9
   26b90:	a980004c 	andi	r6,r21,1
   26b94:	30000626 	beq	r6,zero,26bb0 <_dtoa_r+0x3d4>
   26b98:	91800017 	ldw	r6,0(r18)
   26b9c:	91c00117 	ldw	r7,4(r18)
   26ba0:	84000044 	addi	r16,r16,1
   26ba4:	002ed400 	call	2ed40 <__muldf3>
   26ba8:	1009883a 	mov	r4,r2
   26bac:	180b883a 	mov	r5,r3
   26bb0:	a82bd07a 	srai	r21,r21,1
   26bb4:	94800204 	addi	r18,r18,8
   26bb8:	a83ff51e 	bne	r21,zero,26b90 <_dtoa_r+0x3b4>
   26bbc:	2015883a 	mov	r10,r4
   26bc0:	2813883a 	mov	r9,r5
   26bc4:	d9000a17 	ldw	r4,40(sp)
   26bc8:	d9400c17 	ldw	r5,48(sp)
   26bcc:	500d883a 	mov	r6,r10
   26bd0:	480f883a 	mov	r7,r9
   26bd4:	002e2800 	call	2e280 <__divdf3>
   26bd8:	1025883a 	mov	r18,r2
   26bdc:	d8c00a15 	stw	r3,40(sp)
   26be0:	d8800817 	ldw	r2,32(sp)
   26be4:	10000726 	beq	r2,zero,26c04 <_dtoa_r+0x428>
   26be8:	dd400a17 	ldw	r21,40(sp)
   26bec:	000d883a 	mov	r6,zero
   26bf0:	01cffc34 	movhi	r7,16368
   26bf4:	9009883a 	mov	r4,r18
   26bf8:	a80b883a 	mov	r5,r21
   26bfc:	002ec500 	call	2ec50 <__ledf2>
   26c00:	10045516 	blt	r2,zero,27d58 <_dtoa_r+0x157c>
   26c04:	8009883a 	mov	r4,r16
   26c08:	002fdb80 	call	2fdb8 <__floatsidf>
   26c0c:	d9c00a17 	ldw	r7,40(sp)
   26c10:	900d883a 	mov	r6,r18
   26c14:	1009883a 	mov	r4,r2
   26c18:	180b883a 	mov	r5,r3
   26c1c:	002ed400 	call	2ed40 <__muldf3>
   26c20:	000d883a 	mov	r6,zero
   26c24:	01d00734 	movhi	r7,16412
   26c28:	1009883a 	mov	r4,r2
   26c2c:	180b883a 	mov	r5,r3
   26c30:	002d9080 	call	2d908 <__adddf3>
   26c34:	d8800c15 	stw	r2,48(sp)
   26c38:	00bf3034 	movhi	r2,64704
   26c3c:	1885883a 	add	r2,r3,r2
   26c40:	d8800d15 	stw	r2,52(sp)
   26c44:	d8800417 	ldw	r2,16(sp)
   26c48:	10033926 	beq	r2,zero,27930 <_dtoa_r+0x1154>
   26c4c:	d8800317 	ldw	r2,12(sp)
   26c50:	d8801115 	stw	r2,68(sp)
   26c54:	d8800417 	ldw	r2,16(sp)
   26c58:	d8800e15 	stw	r2,56(sp)
   26c5c:	dc000a17 	ldw	r16,40(sp)
   26c60:	9009883a 	mov	r4,r18
   26c64:	800b883a 	mov	r5,r16
   26c68:	002fd380 	call	2fd38 <__fixdfsi>
   26c6c:	d8c00e17 	ldw	r3,56(sp)
   26c70:	d8801015 	stw	r2,64(sp)
   26c74:	18ffffc4 	addi	r3,r3,-1
   26c78:	180890fa 	slli	r4,r3,3
   26c7c:	00c000f4 	movhi	r3,3
   26c80:	18cec804 	addi	r3,r3,15136
   26c84:	1907883a 	add	r3,r3,r4
   26c88:	1b000017 	ldw	r12,0(r3)
   26c8c:	1b400117 	ldw	r13,4(r3)
   26c90:	1009883a 	mov	r4,r2
   26c94:	db000f15 	stw	r12,60(sp)
   26c98:	db400a15 	stw	r13,40(sp)
   26c9c:	002fdb80 	call	2fdb8 <__floatsidf>
   26ca0:	9009883a 	mov	r4,r18
   26ca4:	800b883a 	mov	r5,r16
   26ca8:	100d883a 	mov	r6,r2
   26cac:	180f883a 	mov	r7,r3
   26cb0:	002f3b00 	call	2f3b0 <__subdf3>
   26cb4:	dac01017 	ldw	r11,64(sp)
   26cb8:	102b883a 	mov	r21,r2
   26cbc:	d8800617 	ldw	r2,24(sp)
   26cc0:	db400a17 	ldw	r13,40(sp)
   26cc4:	db000f17 	ldw	r12,60(sp)
   26cc8:	e4000044 	addi	r16,fp,1
   26ccc:	1825883a 	mov	r18,r3
   26cd0:	5ac00c04 	addi	r11,r11,48
   26cd4:	1003c626 	beq	r2,zero,27bf0 <_dtoa_r+0x1414>
   26cd8:	600d883a 	mov	r6,r12
   26cdc:	680f883a 	mov	r7,r13
   26ce0:	0009883a 	mov	r4,zero
   26ce4:	014ff834 	movhi	r5,16352
   26ce8:	dac00f15 	stw	r11,60(sp)
   26cec:	002e2800 	call	2e280 <__divdf3>
   26cf0:	d9800c17 	ldw	r6,48(sp)
   26cf4:	d9c00d17 	ldw	r7,52(sp)
   26cf8:	1009883a 	mov	r4,r2
   26cfc:	180b883a 	mov	r5,r3
   26d00:	002f3b00 	call	2f3b0 <__subdf3>
   26d04:	dac00f17 	ldw	r11,60(sp)
   26d08:	a80d883a 	mov	r6,r21
   26d0c:	900f883a 	mov	r7,r18
   26d10:	e2c00005 	stb	r11,0(fp)
   26d14:	1009883a 	mov	r4,r2
   26d18:	180b883a 	mov	r5,r3
   26d1c:	d8800a15 	stw	r2,40(sp)
   26d20:	d8c00c15 	stw	r3,48(sp)
   26d24:	002eb600 	call	2eb60 <__gedf2>
   26d28:	00844116 	blt	zero,r2,27e30 <_dtoa_r+0x1654>
   26d2c:	0005883a 	mov	r2,zero
   26d30:	dcc00f15 	stw	r19,60(sp)
   26d34:	dd800d15 	stw	r22,52(sp)
   26d38:	dcc00c17 	ldw	r19,48(sp)
   26d3c:	dd800e17 	ldw	r22,56(sp)
   26d40:	dc400c15 	stw	r17,48(sp)
   26d44:	ddc00e15 	stw	r23,56(sp)
   26d48:	dc400a17 	ldw	r17,40(sp)
   26d4c:	dd000a15 	stw	r20,40(sp)
   26d50:	1029883a 	mov	r20,r2
   26d54:	00002606 	br	26df0 <_dtoa_r+0x614>
   26d58:	a5000044 	addi	r20,r20,1
   26d5c:	a5843d0e 	bge	r20,r22,27e54 <_dtoa_r+0x1678>
   26d60:	8809883a 	mov	r4,r17
   26d64:	980b883a 	mov	r5,r19
   26d68:	000d883a 	mov	r6,zero
   26d6c:	01d00934 	movhi	r7,16420
   26d70:	002ed400 	call	2ed40 <__muldf3>
   26d74:	000d883a 	mov	r6,zero
   26d78:	01d00934 	movhi	r7,16420
   26d7c:	a809883a 	mov	r4,r21
   26d80:	900b883a 	mov	r5,r18
   26d84:	1023883a 	mov	r17,r2
   26d88:	1827883a 	mov	r19,r3
   26d8c:	002ed400 	call	2ed40 <__muldf3>
   26d90:	180b883a 	mov	r5,r3
   26d94:	1009883a 	mov	r4,r2
   26d98:	1825883a 	mov	r18,r3
   26d9c:	102b883a 	mov	r21,r2
   26da0:	002fd380 	call	2fd38 <__fixdfsi>
   26da4:	1009883a 	mov	r4,r2
   26da8:	102f883a 	mov	r23,r2
   26dac:	002fdb80 	call	2fdb8 <__floatsidf>
   26db0:	a809883a 	mov	r4,r21
   26db4:	900b883a 	mov	r5,r18
   26db8:	100d883a 	mov	r6,r2
   26dbc:	180f883a 	mov	r7,r3
   26dc0:	002f3b00 	call	2f3b0 <__subdf3>
   26dc4:	84000044 	addi	r16,r16,1
   26dc8:	ba000c04 	addi	r8,r23,48
   26dcc:	823fffc5 	stb	r8,-1(r16)
   26dd0:	880d883a 	mov	r6,r17
   26dd4:	980f883a 	mov	r7,r19
   26dd8:	1009883a 	mov	r4,r2
   26ddc:	180b883a 	mov	r5,r3
   26de0:	102b883a 	mov	r21,r2
   26de4:	1825883a 	mov	r18,r3
   26de8:	002ec500 	call	2ec50 <__ledf2>
   26dec:	10040e16 	blt	r2,zero,27e28 <_dtoa_r+0x164c>
   26df0:	a80d883a 	mov	r6,r21
   26df4:	900f883a 	mov	r7,r18
   26df8:	0009883a 	mov	r4,zero
   26dfc:	014ffc34 	movhi	r5,16368
   26e00:	002f3b00 	call	2f3b0 <__subdf3>
   26e04:	880d883a 	mov	r6,r17
   26e08:	980f883a 	mov	r7,r19
   26e0c:	1009883a 	mov	r4,r2
   26e10:	180b883a 	mov	r5,r3
   26e14:	002ec500 	call	2ec50 <__ledf2>
   26e18:	103fcf0e 	bge	r2,zero,26d58 <_dtoa_r+0x57c>
   26e1c:	dd800d17 	ldw	r22,52(sp)
   26e20:	ddc00e17 	ldw	r23,56(sp)
   26e24:	d8801117 	ldw	r2,68(sp)
   26e28:	10800044 	addi	r2,r2,1
   26e2c:	d8800315 	stw	r2,12(sp)
   26e30:	00000106 	br	26e38 <_dtoa_r+0x65c>
   26e34:	e403ee26 	beq	fp,r16,27df0 <_dtoa_r+0x1614>
   26e38:	80ffffc3 	ldbu	r3,-1(r16)
   26e3c:	8025883a 	mov	r18,r16
   26e40:	843fffc4 	addi	r16,r16,-1
   26e44:	18803fcc 	andi	r2,r3,255
   26e48:	1080201c 	xori	r2,r2,128
   26e4c:	10bfe004 	addi	r2,r2,-128
   26e50:	10800e60 	cmpeqi	r2,r2,57
   26e54:	103ff71e 	bne	r2,zero,26e34 <_dtoa_r+0x658>
   26e58:	18c00044 	addi	r3,r3,1
   26e5c:	80c00005 	stb	r3,0(r16)
   26e60:	00015106 	br	273a8 <_dtoa_r+0xbcc>
   26e64:	04600034 	movhi	r17,32768
   26e68:	8c7fffc4 	addi	r17,r17,-1
   26e6c:	9462703a 	and	r17,r18,r17
   26e70:	00800044 	movi	r2,1
   26e74:	8825883a 	mov	r18,r17
   26e78:	80800015 	stw	r2,0(r16)
   26e7c:	00dffc34 	movhi	r3,32752
   26e80:	909ffc2c 	andhi	r2,r18,32752
   26e84:	10fe751e 	bne	r2,r3,2685c <_dtoa_r+0x80>
   26e88:	d8c01f17 	ldw	r3,124(sp)
   26e8c:	00800434 	movhi	r2,16
   26e90:	10bfffc4 	addi	r2,r2,-1
   26e94:	90a4703a 	and	r18,r18,r2
   26e98:	0089c3c4 	movi	r2,9999
   26e9c:	18800015 	stw	r2,0(r3)
   26ea0:	9528b03a 	or	r20,r18,r20
   26ea4:	a000121e 	bne	r20,zero,26ef0 <_dtoa_r+0x714>
   26ea8:	d8802117 	ldw	r2,132(sp)
   26eac:	070000f4 	movhi	fp,3
   26eb0:	10041526 	beq	r2,zero,27f08 <_dtoa_r+0x172c>
   26eb4:	008000f4 	movhi	r2,3
   26eb8:	e70e8b04 	addi	fp,fp,14892
   26ebc:	108e8d04 	addi	r2,r2,14900
   26ec0:	d8c02117 	ldw	r3,132(sp)
   26ec4:	18800015 	stw	r2,0(r3)
   26ec8:	003e7506 	br	268a0 <_dtoa_r+0xc4>
   26ecc:	01400434 	movhi	r5,16
   26ed0:	297fffc4 	addi	r5,r5,-1
   26ed4:	894a703a 	and	r5,r17,r5
   26ed8:	df001217 	ldw	fp,72(sp)
   26edc:	a009883a 	mov	r4,r20
   26ee0:	294ffc34 	orhi	r5,r5,16368
   26ee4:	843f0044 	addi	r16,r16,-1023
   26ee8:	d8000915 	stw	zero,36(sp)
   26eec:	003e9606 	br	26948 <_dtoa_r+0x16c>
   26ef0:	d8802117 	ldw	r2,132(sp)
   26ef4:	070000f4 	movhi	fp,3
   26ef8:	1002141e 	bne	r2,zero,2774c <_dtoa_r+0xf70>
   26efc:	e70e8a04 	addi	fp,fp,14888
   26f00:	003e6706 	br	268a0 <_dtoa_r+0xc4>
   26f04:	b8001115 	stw	zero,68(r23)
   26f08:	000b883a 	mov	r5,zero
   26f0c:	b809883a 	mov	r4,r23
   26f10:	00294d40 	call	294d4 <_Balloc>
   26f14:	1039883a 	mov	fp,r2
   26f18:	1003ed26 	beq	r2,zero,27ed0 <_dtoa_r+0x16f4>
   26f1c:	b8801015 	stw	r2,64(r23)
   26f20:	00bfffc4 	movi	r2,-1
   26f24:	d8800415 	stw	r2,16(sp)
   26f28:	d8800b15 	stw	r2,44(sp)
   26f2c:	00800044 	movi	r2,1
   26f30:	d8001e15 	stw	zero,120(sp)
   26f34:	d8800615 	stw	r2,24(sp)
   26f38:	d8801317 	ldw	r2,76(sp)
   26f3c:	10007216 	blt	r2,zero,27108 <_dtoa_r+0x92c>
   26f40:	d9000317 	ldw	r4,12(sp)
   26f44:	20c003c8 	cmpgei	r3,r4,15
   26f48:	18006f1e 	bne	r3,zero,27108 <_dtoa_r+0x92c>
   26f4c:	200690fa 	slli	r3,r4,3
   26f50:	008000f4 	movhi	r2,3
   26f54:	108ec804 	addi	r2,r2,15136
   26f58:	10c5883a 	add	r2,r2,r3
   26f5c:	10c00017 	ldw	r3,0(r2)
   26f60:	14800117 	ldw	r18,4(r2)
   26f64:	d8801e17 	ldw	r2,120(sp)
   26f68:	d8c00115 	stw	r3,4(sp)
   26f6c:	1000150e 	bge	r2,zero,26fc4 <_dtoa_r+0x7e8>
   26f70:	d8800417 	ldw	r2,16(sp)
   26f74:	00801316 	blt	zero,r2,26fc4 <_dtoa_r+0x7e8>
   26f78:	d8800417 	ldw	r2,16(sp)
   26f7c:	1002801e 	bne	r2,zero,27980 <_dtoa_r+0x11a4>
   26f80:	d9000117 	ldw	r4,4(sp)
   26f84:	000d883a 	mov	r6,zero
   26f88:	01d00534 	movhi	r7,16404
   26f8c:	900b883a 	mov	r5,r18
   26f90:	002ed400 	call	2ed40 <__muldf3>
   26f94:	100d883a 	mov	r6,r2
   26f98:	180f883a 	mov	r7,r3
   26f9c:	a009883a 	mov	r4,r20
   26fa0:	880b883a 	mov	r5,r17
   26fa4:	002ec500 	call	2ec50 <__ledf2>
   26fa8:	002b883a 	mov	r21,zero
   26fac:	0021883a 	mov	r16,zero
   26fb0:	00820f16 	blt	zero,r2,277f0 <_dtoa_r+0x1014>
   26fb4:	d8801e17 	ldw	r2,120(sp)
   26fb8:	e025883a 	mov	r18,fp
   26fbc:	00a2303a 	nor	r17,zero,r2
   26fc0:	00021006 	br	27804 <_dtoa_r+0x1028>
   26fc4:	dd400117 	ldw	r21,4(sp)
   26fc8:	900f883a 	mov	r7,r18
   26fcc:	a009883a 	mov	r4,r20
   26fd0:	a80d883a 	mov	r6,r21
   26fd4:	880b883a 	mov	r5,r17
   26fd8:	002e2800 	call	2e280 <__divdf3>
   26fdc:	180b883a 	mov	r5,r3
   26fe0:	1009883a 	mov	r4,r2
   26fe4:	002fd380 	call	2fd38 <__fixdfsi>
   26fe8:	1009883a 	mov	r4,r2
   26fec:	1027883a 	mov	r19,r2
   26ff0:	002fdb80 	call	2fdb8 <__floatsidf>
   26ff4:	a80d883a 	mov	r6,r21
   26ff8:	900f883a 	mov	r7,r18
   26ffc:	1009883a 	mov	r4,r2
   27000:	180b883a 	mov	r5,r3
   27004:	002ed400 	call	2ed40 <__muldf3>
   27008:	100d883a 	mov	r6,r2
   2700c:	a009883a 	mov	r4,r20
   27010:	880b883a 	mov	r5,r17
   27014:	180f883a 	mov	r7,r3
   27018:	002f3b00 	call	2f3b0 <__subdf3>
   2701c:	d9800417 	ldw	r6,16(sp)
   27020:	1009883a 	mov	r4,r2
   27024:	98800c04 	addi	r2,r19,48
   27028:	e0800005 	stb	r2,0(fp)
   2702c:	30800060 	cmpeqi	r2,r6,1
   27030:	180b883a 	mov	r5,r3
   27034:	e4000044 	addi	r16,fp,1
   27038:	1002a91e 	bne	r2,zero,27ae0 <_dtoa_r+0x1304>
   2703c:	04400044 	movi	r17,1
   27040:	3027883a 	mov	r19,r6
   27044:	dd800215 	stw	r22,8(sp)
   27048:	ddc00415 	stw	r23,16(sp)
   2704c:	00001c06 	br	270c0 <_dtoa_r+0x8e4>
   27050:	a80d883a 	mov	r6,r21
   27054:	900f883a 	mov	r7,r18
   27058:	b809883a 	mov	r4,r23
   2705c:	a00b883a 	mov	r5,r20
   27060:	002e2800 	call	2e280 <__divdf3>
   27064:	180b883a 	mov	r5,r3
   27068:	1009883a 	mov	r4,r2
   2706c:	002fd380 	call	2fd38 <__fixdfsi>
   27070:	1009883a 	mov	r4,r2
   27074:	102d883a 	mov	r22,r2
   27078:	002fdb80 	call	2fdb8 <__floatsidf>
   2707c:	a80d883a 	mov	r6,r21
   27080:	900f883a 	mov	r7,r18
   27084:	1009883a 	mov	r4,r2
   27088:	180b883a 	mov	r5,r3
   2708c:	002ed400 	call	2ed40 <__muldf3>
   27090:	b809883a 	mov	r4,r23
   27094:	a00b883a 	mov	r5,r20
   27098:	100d883a 	mov	r6,r2
   2709c:	180f883a 	mov	r7,r3
   270a0:	002f3b00 	call	2f3b0 <__subdf3>
   270a4:	b1000c04 	addi	r4,r22,48
   270a8:	81000005 	stb	r4,0(r16)
   270ac:	8c400044 	addi	r17,r17,1
   270b0:	84000044 	addi	r16,r16,1
   270b4:	1009883a 	mov	r4,r2
   270b8:	180b883a 	mov	r5,r3
   270bc:	9c428526 	beq	r19,r17,27ad4 <_dtoa_r+0x12f8>
   270c0:	000d883a 	mov	r6,zero
   270c4:	01d00934 	movhi	r7,16420
   270c8:	002ed400 	call	2ed40 <__muldf3>
   270cc:	000d883a 	mov	r6,zero
   270d0:	000f883a 	mov	r7,zero
   270d4:	1009883a 	mov	r4,r2
   270d8:	180b883a 	mov	r5,r3
   270dc:	102f883a 	mov	r23,r2
   270e0:	1829883a 	mov	r20,r3
   270e4:	002eae00 	call	2eae0 <__eqdf2>
   270e8:	103fd91e 	bne	r2,zero,27050 <_dtoa_r+0x874>
   270ec:	d8800317 	ldw	r2,12(sp)
   270f0:	dd800217 	ldw	r22,8(sp)
   270f4:	ddc00417 	ldw	r23,16(sp)
   270f8:	10800044 	addi	r2,r2,1
   270fc:	d8800315 	stw	r2,12(sp)
   27100:	8025883a 	mov	r18,r16
   27104:	0000a806 	br	273a8 <_dtoa_r+0xbcc>
   27108:	d8c00617 	ldw	r3,24(sp)
   2710c:	1800ec26 	beq	r3,zero,274c0 <_dtoa_r+0xce4>
   27110:	d8c00117 	ldw	r3,4(sp)
   27114:	18c00088 	cmpgei	r3,r3,2
   27118:	1801e926 	beq	r3,zero,278c0 <_dtoa_r+0x10e4>
   2711c:	d8800417 	ldw	r2,16(sp)
   27120:	157fffc4 	addi	r21,r2,-1
   27124:	d8800717 	ldw	r2,28(sp)
   27128:	1541c50e 	bge	r2,r21,27840 <_dtoa_r+0x1064>
   2712c:	d8800717 	ldw	r2,28(sp)
   27130:	dd400715 	stw	r21,28(sp)
   27134:	a885c83a 	sub	r2,r21,r2
   27138:	98a7883a 	add	r19,r19,r2
   2713c:	002b883a 	mov	r21,zero
   27140:	d8800417 	ldw	r2,16(sp)
   27144:	10029516 	blt	r2,zero,27b9c <_dtoa_r+0x13c0>
   27148:	d8c00517 	ldw	r3,20(sp)
   2714c:	d9000217 	ldw	r4,8(sp)
   27150:	1825883a 	mov	r18,r3
   27154:	2089883a 	add	r4,r4,r2
   27158:	10c5883a 	add	r2,r2,r3
   2715c:	d9000215 	stw	r4,8(sp)
   27160:	d8800515 	stw	r2,20(sp)
   27164:	01400044 	movi	r5,1
   27168:	b809883a 	mov	r4,r23
   2716c:	00299200 	call	29920 <__i2b>
   27170:	1021883a 	mov	r16,r2
   27174:	04800b0e 	bge	zero,r18,271a4 <_dtoa_r+0x9c8>
   27178:	d8c00217 	ldw	r3,8(sp)
   2717c:	00c0090e 	bge	zero,r3,271a4 <_dtoa_r+0x9c8>
   27180:	9005883a 	mov	r2,r18
   27184:	1c81a616 	blt	r3,r18,27820 <_dtoa_r+0x1044>
   27188:	d8c00517 	ldw	r3,20(sp)
   2718c:	90a5c83a 	sub	r18,r18,r2
   27190:	1887c83a 	sub	r3,r3,r2
   27194:	d8c00515 	stw	r3,20(sp)
   27198:	d8c00217 	ldw	r3,8(sp)
   2719c:	1885c83a 	sub	r2,r3,r2
   271a0:	d8800215 	stw	r2,8(sp)
   271a4:	d8800717 	ldw	r2,28(sp)
   271a8:	10001526 	beq	r2,zero,27200 <_dtoa_r+0xa24>
   271ac:	d8800617 	ldw	r2,24(sp)
   271b0:	1001f626 	beq	r2,zero,2798c <_dtoa_r+0x11b0>
   271b4:	05400f0e 	bge	zero,r21,271f4 <_dtoa_r+0xa18>
   271b8:	800b883a 	mov	r5,r16
   271bc:	a80d883a 	mov	r6,r21
   271c0:	b809883a 	mov	r4,r23
   271c4:	0029ba40 	call	29ba4 <__pow5mult>
   271c8:	b00d883a 	mov	r6,r22
   271cc:	100b883a 	mov	r5,r2
   271d0:	b809883a 	mov	r4,r23
   271d4:	1021883a 	mov	r16,r2
   271d8:	00299740 	call	29974 <__multiply>
   271dc:	b00b883a 	mov	r5,r22
   271e0:	b809883a 	mov	r4,r23
   271e4:	d8800915 	stw	r2,36(sp)
   271e8:	00295780 	call	29578 <_Bfree>
   271ec:	d8800917 	ldw	r2,36(sp)
   271f0:	102d883a 	mov	r22,r2
   271f4:	d8800717 	ldw	r2,28(sp)
   271f8:	154dc83a 	sub	r6,r2,r21
   271fc:	1542621e 	bne	r2,r21,27b88 <_dtoa_r+0x13ac>
   27200:	01400044 	movi	r5,1
   27204:	b809883a 	mov	r4,r23
   27208:	00299200 	call	29920 <__i2b>
   2720c:	102b883a 	mov	r21,r2
   27210:	04c0be16 	blt	zero,r19,2750c <_dtoa_r+0xd30>
   27214:	d8800117 	ldw	r2,4(sp)
   27218:	10800088 	cmpgei	r2,r2,2
   2721c:	10015226 	beq	r2,zero,27768 <_dtoa_r+0xf8c>
   27220:	0023883a 	mov	r17,zero
   27224:	00800044 	movi	r2,1
   27228:	9800c11e 	bne	r19,zero,27530 <_dtoa_r+0xd54>
   2722c:	d9400217 	ldw	r5,8(sp)
   27230:	1145883a 	add	r2,r2,r5
   27234:	108007cc 	andi	r2,r2,31
   27238:	1000a526 	beq	r2,zero,274d0 <_dtoa_r+0xcf4>
   2723c:	00c00804 	movi	r3,32
   27240:	1887c83a 	sub	r3,r3,r2
   27244:	19000150 	cmplti	r4,r3,5
   27248:	2003311e 	bne	r4,zero,27f10 <_dtoa_r+0x1734>
   2724c:	00c00704 	movi	r3,28
   27250:	1885c83a 	sub	r2,r3,r2
   27254:	d8c00517 	ldw	r3,20(sp)
   27258:	90a5883a 	add	r18,r18,r2
   2725c:	1887883a 	add	r3,r3,r2
   27260:	2885883a 	add	r2,r5,r2
   27264:	d8c00515 	stw	r3,20(sp)
   27268:	d8800215 	stw	r2,8(sp)
   2726c:	d8800517 	ldw	r2,20(sp)
   27270:	0080050e 	bge	zero,r2,27288 <_dtoa_r+0xaac>
   27274:	b00b883a 	mov	r5,r22
   27278:	100d883a 	mov	r6,r2
   2727c:	b809883a 	mov	r4,r23
   27280:	0029cbc0 	call	29cbc <__lshift>
   27284:	102d883a 	mov	r22,r2
   27288:	d8800217 	ldw	r2,8(sp)
   2728c:	0080050e 	bge	zero,r2,272a4 <_dtoa_r+0xac8>
   27290:	a80b883a 	mov	r5,r21
   27294:	100d883a 	mov	r6,r2
   27298:	b809883a 	mov	r4,r23
   2729c:	0029cbc0 	call	29cbc <__lshift>
   272a0:	102b883a 	mov	r21,r2
   272a4:	d8800817 	ldw	r2,32(sp)
   272a8:	1001161e 	bne	r2,zero,27704 <_dtoa_r+0xf28>
   272ac:	d8800417 	ldw	r2,16(sp)
   272b0:	0081040e 	bge	zero,r2,276c4 <_dtoa_r+0xee8>
   272b4:	d8800617 	ldw	r2,24(sp)
   272b8:	1000b01e 	bne	r2,zero,2757c <_dtoa_r+0xda0>
   272bc:	d8800317 	ldw	r2,12(sp)
   272c0:	10800044 	addi	r2,r2,1
   272c4:	d8800315 	stw	r2,12(sp)
   272c8:	dc800417 	ldw	r18,16(sp)
   272cc:	04400044 	movi	r17,1
   272d0:	00000706 	br	272f0 <_dtoa_r+0xb14>
   272d4:	b00b883a 	mov	r5,r22
   272d8:	000f883a 	mov	r7,zero
   272dc:	01800284 	movi	r6,10
   272e0:	b809883a 	mov	r4,r23
   272e4:	002959c0 	call	2959c <__multadd>
   272e8:	102d883a 	mov	r22,r2
   272ec:	8c400044 	addi	r17,r17,1
   272f0:	a80b883a 	mov	r5,r21
   272f4:	b009883a 	mov	r4,r22
   272f8:	00265e00 	call	265e0 <quorem>
   272fc:	10c00c04 	addi	r3,r2,48
   27300:	e445883a 	add	r2,fp,r17
   27304:	10ffffc5 	stb	r3,-1(r2)
   27308:	8cbff216 	blt	r17,r18,272d4 <_dtoa_r+0xaf8>
   2730c:	d8800417 	ldw	r2,16(sp)
   27310:	0081510e 	bge	zero,r2,27858 <_dtoa_r+0x107c>
   27314:	e0a5883a 	add	r18,fp,r2
   27318:	0023883a 	mov	r17,zero
   2731c:	b00b883a 	mov	r5,r22
   27320:	01800044 	movi	r6,1
   27324:	b809883a 	mov	r4,r23
   27328:	d8c00115 	stw	r3,4(sp)
   2732c:	0029cbc0 	call	29cbc <__lshift>
   27330:	1009883a 	mov	r4,r2
   27334:	a80b883a 	mov	r5,r21
   27338:	102d883a 	mov	r22,r2
   2733c:	0029e440 	call	29e44 <__mcmp>
   27340:	913fffc3 	ldbu	r4,-1(r18)
   27344:	00800416 	blt	zero,r2,27358 <_dtoa_r+0xb7c>
   27348:	00014806 	br	2786c <_dtoa_r+0x1090>
   2734c:	e0c15626 	beq	fp,r3,278a8 <_dtoa_r+0x10cc>
   27350:	193fffc3 	ldbu	r4,-1(r3)
   27354:	1825883a 	mov	r18,r3
   27358:	20803fcc 	andi	r2,r4,255
   2735c:	1080201c 	xori	r2,r2,128
   27360:	10bfe004 	addi	r2,r2,-128
   27364:	10800e60 	cmpeqi	r2,r2,57
   27368:	90ffffc4 	addi	r3,r18,-1
   2736c:	103ff71e 	bne	r2,zero,2734c <_dtoa_r+0xb70>
   27370:	21000044 	addi	r4,r4,1
   27374:	19000005 	stb	r4,0(r3)
   27378:	a80b883a 	mov	r5,r21
   2737c:	b809883a 	mov	r4,r23
   27380:	00295780 	call	29578 <_Bfree>
   27384:	80000826 	beq	r16,zero,273a8 <_dtoa_r+0xbcc>
   27388:	88000426 	beq	r17,zero,2739c <_dtoa_r+0xbc0>
   2738c:	8c000326 	beq	r17,r16,2739c <_dtoa_r+0xbc0>
   27390:	880b883a 	mov	r5,r17
   27394:	b809883a 	mov	r4,r23
   27398:	00295780 	call	29578 <_Bfree>
   2739c:	800b883a 	mov	r5,r16
   273a0:	b809883a 	mov	r4,r23
   273a4:	00295780 	call	29578 <_Bfree>
   273a8:	b00b883a 	mov	r5,r22
   273ac:	b809883a 	mov	r4,r23
   273b0:	00295780 	call	29578 <_Bfree>
   273b4:	d8801f17 	ldw	r2,124(sp)
   273b8:	d8c00317 	ldw	r3,12(sp)
   273bc:	90000005 	stb	zero,0(r18)
   273c0:	10c00015 	stw	r3,0(r2)
   273c4:	d8802117 	ldw	r2,132(sp)
   273c8:	103d3526 	beq	r2,zero,268a0 <_dtoa_r+0xc4>
   273cc:	14800015 	stw	r18,0(r2)
   273d0:	003d3306 	br	268a0 <_dtoa_r+0xc4>
   273d4:	e0bfffc4 	addi	r2,fp,-1
   273d8:	d8000815 	stw	zero,32(sp)
   273dc:	10002616 	blt	r2,zero,27478 <_dtoa_r+0xc9c>
   273e0:	d8000515 	stw	zero,20(sp)
   273e4:	d8800217 	ldw	r2,8(sp)
   273e8:	d8c00117 	ldw	r3,4(sp)
   273ec:	dcc00315 	stw	r19,12(sp)
   273f0:	14c5883a 	add	r2,r2,r19
   273f4:	d8800215 	stw	r2,8(sp)
   273f8:	d8000715 	stw	zero,28(sp)
   273fc:	188002a8 	cmpgeui	r2,r3,10
   27400:	103d9d26 	beq	r2,zero,26a78 <_dtoa_r+0x29c>
   27404:	00800044 	movi	r2,1
   27408:	d8800615 	stw	r2,24(sp)
   2740c:	00bfffc4 	movi	r2,-1
   27410:	04000044 	movi	r16,1
   27414:	d8000115 	stw	zero,4(sp)
   27418:	d8800415 	stw	r2,16(sp)
   2741c:	d8001e15 	stw	zero,120(sp)
   27420:	d8800417 	ldw	r2,16(sp)
   27424:	b8001115 	stw	zero,68(r23)
   27428:	000b883a 	mov	r5,zero
   2742c:	d8800b15 	stw	r2,44(sp)
   27430:	003dae06 	br	26aec <_dtoa_r+0x310>
   27434:	188000e0 	cmpeqi	r2,r3,3
   27438:	d8000615 	stw	zero,24(sp)
   2743c:	103eb126 	beq	r2,zero,26f04 <_dtoa_r+0x728>
   27440:	d8801e17 	ldw	r2,120(sp)
   27444:	d8c00317 	ldw	r3,12(sp)
   27448:	10c5883a 	add	r2,r2,r3
   2744c:	d8800b15 	stw	r2,44(sp)
   27450:	10800044 	addi	r2,r2,1
   27454:	d8800415 	stw	r2,16(sp)
   27458:	100d883a 	mov	r6,r2
   2745c:	00bd9816 	blt	zero,r2,26ac0 <_dtoa_r+0x2e4>
   27460:	01800044 	movi	r6,1
   27464:	003d9606 	br	26ac0 <_dtoa_r+0x2e4>
   27468:	00800044 	movi	r2,1
   2746c:	d8800815 	stw	r2,32(sp)
   27470:	e0bfffc4 	addi	r2,fp,-1
   27474:	103d740e 	bge	r2,zero,26a48 <_dtoa_r+0x26c>
   27478:	00800044 	movi	r2,1
   2747c:	1705c83a 	sub	r2,r2,fp
   27480:	d8800515 	stw	r2,20(sp)
   27484:	d8000215 	stw	zero,8(sp)
   27488:	003d7006 	br	26a4c <_dtoa_r+0x270>
   2748c:	9809883a 	mov	r4,r19
   27490:	002fdb80 	call	2fdb8 <__floatsidf>
   27494:	900d883a 	mov	r6,r18
   27498:	a80f883a 	mov	r7,r21
   2749c:	1009883a 	mov	r4,r2
   274a0:	180b883a 	mov	r5,r3
   274a4:	002eae00 	call	2eae0 <__eqdf2>
   274a8:	103d5426 	beq	r2,zero,269fc <_dtoa_r+0x220>
   274ac:	9cffffc4 	addi	r19,r19,-1
   274b0:	003d5206 	br	269fc <_dtoa_r+0x220>
   274b4:	070000f4 	movhi	fp,3
   274b8:	e70e8104 	addi	fp,fp,14852
   274bc:	003cf806 	br	268a0 <_dtoa_r+0xc4>
   274c0:	dd400717 	ldw	r21,28(sp)
   274c4:	dc800517 	ldw	r18,20(sp)
   274c8:	0021883a 	mov	r16,zero
   274cc:	003f2906 	br	27174 <_dtoa_r+0x998>
   274d0:	00800704 	movi	r2,28
   274d4:	d8c00517 	ldw	r3,20(sp)
   274d8:	90a5883a 	add	r18,r18,r2
   274dc:	1887883a 	add	r3,r3,r2
   274e0:	d8c00515 	stw	r3,20(sp)
   274e4:	d8c00217 	ldw	r3,8(sp)
   274e8:	1885883a 	add	r2,r3,r2
   274ec:	d8800215 	stw	r2,8(sp)
   274f0:	003f5e06 	br	2726c <_dtoa_r+0xa90>
   274f4:	01000804 	movi	r4,32
   274f8:	2089c83a 	sub	r4,r4,r2
   274fc:	a108983a 	sll	r4,r20,r4
   27500:	003d0a06 	br	2692c <_dtoa_r+0x150>
   27504:	04000044 	movi	r16,1
   27508:	003d6006 	br	26a8c <_dtoa_r+0x2b0>
   2750c:	100b883a 	mov	r5,r2
   27510:	980d883a 	mov	r6,r19
   27514:	b809883a 	mov	r4,r23
   27518:	0029ba40 	call	29ba4 <__pow5mult>
   2751c:	d8c00117 	ldw	r3,4(sp)
   27520:	102b883a 	mov	r21,r2
   27524:	18c00090 	cmplti	r3,r3,2
   27528:	18014b1e 	bne	r3,zero,27a58 <_dtoa_r+0x127c>
   2752c:	0023883a 	mov	r17,zero
   27530:	a8800417 	ldw	r2,16(r21)
   27534:	10800104 	addi	r2,r2,4
   27538:	100490ba 	slli	r2,r2,2
   2753c:	a885883a 	add	r2,r21,r2
   27540:	11000017 	ldw	r4,0(r2)
   27544:	002980c0 	call	2980c <__hi0bits>
   27548:	00c00804 	movi	r3,32
   2754c:	1885c83a 	sub	r2,r3,r2
   27550:	003f3606 	br	2722c <_dtoa_r+0xa50>
   27554:	800b883a 	mov	r5,r16
   27558:	000f883a 	mov	r7,zero
   2755c:	01800284 	movi	r6,10
   27560:	b809883a 	mov	r4,r23
   27564:	002959c0 	call	2959c <__multadd>
   27568:	1021883a 	mov	r16,r2
   2756c:	d8800b17 	ldw	r2,44(sp)
   27570:	00824d0e 	bge	zero,r2,27ea8 <_dtoa_r+0x16cc>
   27574:	dcc00315 	stw	r19,12(sp)
   27578:	d8800415 	stw	r2,16(sp)
   2757c:	0480aa16 	blt	zero,r18,27828 <_dtoa_r+0x104c>
   27580:	8801701e 	bne	r17,zero,27b44 <_dtoa_r+0x1368>
   27584:	8027883a 	mov	r19,r16
   27588:	d9000417 	ldw	r4,16(sp)
   2758c:	e0bfffc4 	addi	r2,fp,-1
   27590:	a0c0004c 	andi	r3,r20,1
   27594:	1105883a 	add	r2,r2,r4
   27598:	d8800415 	stw	r2,16(sp)
   2759c:	d8800117 	ldw	r2,4(sp)
   275a0:	d8c00715 	stw	r3,28(sp)
   275a4:	e029883a 	mov	r20,fp
   275a8:	1884b03a 	or	r2,r3,r2
   275ac:	d8800615 	stw	r2,24(sp)
   275b0:	df000815 	stw	fp,32(sp)
   275b4:	00002906 	br	2765c <_dtoa_r+0xe80>
   275b8:	b009883a 	mov	r4,r22
   275bc:	0029e440 	call	29e44 <__mcmp>
   275c0:	900b883a 	mov	r5,r18
   275c4:	b809883a 	mov	r4,r23
   275c8:	d8800215 	stw	r2,8(sp)
   275cc:	00295780 	call	29578 <_Bfree>
   275d0:	d8800217 	ldw	r2,8(sp)
   275d4:	1000021e 	bne	r2,zero,275e0 <_dtoa_r+0xe04>
   275d8:	d8c00617 	ldw	r3,24(sp)
   275dc:	18022326 	beq	r3,zero,27e6c <_dtoa_r+0x1690>
   275e0:	a4800044 	addi	r18,r20,1
   275e4:	88012216 	blt	r17,zero,27a70 <_dtoa_r+0x1294>
   275e8:	d8c00117 	ldw	r3,4(sp)
   275ec:	1c62b03a 	or	r17,r3,r17
   275f0:	d8c00717 	ldw	r3,28(sp)
   275f4:	1c62b03a 	or	r17,r3,r17
   275f8:	88011d26 	beq	r17,zero,27a70 <_dtoa_r+0x1294>
   275fc:	00816b16 	blt	zero,r2,27bac <_dtoa_r+0x13d0>
   27600:	d8800417 	ldw	r2,16(sp)
   27604:	a7000005 	stb	fp,0(r20)
   27608:	15017126 	beq	r2,r20,27bd0 <_dtoa_r+0x13f4>
   2760c:	b00b883a 	mov	r5,r22
   27610:	000f883a 	mov	r7,zero
   27614:	01800284 	movi	r6,10
   27618:	b809883a 	mov	r4,r23
   2761c:	002959c0 	call	2959c <__multadd>
   27620:	102d883a 	mov	r22,r2
   27624:	800b883a 	mov	r5,r16
   27628:	000f883a 	mov	r7,zero
   2762c:	01800284 	movi	r6,10
   27630:	b809883a 	mov	r4,r23
   27634:	84c01f26 	beq	r16,r19,276b4 <_dtoa_r+0xed8>
   27638:	002959c0 	call	2959c <__multadd>
   2763c:	980b883a 	mov	r5,r19
   27640:	000f883a 	mov	r7,zero
   27644:	01800284 	movi	r6,10
   27648:	b809883a 	mov	r4,r23
   2764c:	1021883a 	mov	r16,r2
   27650:	002959c0 	call	2959c <__multadd>
   27654:	1027883a 	mov	r19,r2
   27658:	9029883a 	mov	r20,r18
   2765c:	a80b883a 	mov	r5,r21
   27660:	b009883a 	mov	r4,r22
   27664:	00265e00 	call	265e0 <quorem>
   27668:	800b883a 	mov	r5,r16
   2766c:	b009883a 	mov	r4,r22
   27670:	1039883a 	mov	fp,r2
   27674:	d8800515 	stw	r2,20(sp)
   27678:	0029e440 	call	29e44 <__mcmp>
   2767c:	a80b883a 	mov	r5,r21
   27680:	980d883a 	mov	r6,r19
   27684:	b809883a 	mov	r4,r23
   27688:	1023883a 	mov	r17,r2
   2768c:	0029e9c0 	call	29e9c <__mdiff>
   27690:	1025883a 	mov	r18,r2
   27694:	10800317 	ldw	r2,12(r2)
   27698:	e7000c04 	addi	fp,fp,48
   2769c:	900b883a 	mov	r5,r18
   276a0:	103fc526 	beq	r2,zero,275b8 <_dtoa_r+0xddc>
   276a4:	b809883a 	mov	r4,r23
   276a8:	00295780 	call	29578 <_Bfree>
   276ac:	00800044 	movi	r2,1
   276b0:	003fcb06 	br	275e0 <_dtoa_r+0xe04>
   276b4:	002959c0 	call	2959c <__multadd>
   276b8:	1021883a 	mov	r16,r2
   276bc:	1027883a 	mov	r19,r2
   276c0:	003fe506 	br	27658 <_dtoa_r+0xe7c>
   276c4:	d8800117 	ldw	r2,4(sp)
   276c8:	108000d0 	cmplti	r2,r2,3
   276cc:	10003c26 	beq	r2,zero,277c0 <_dtoa_r+0xfe4>
   276d0:	d8800617 	ldw	r2,24(sp)
   276d4:	103fa91e 	bne	r2,zero,2757c <_dtoa_r+0xda0>
   276d8:	a80b883a 	mov	r5,r21
   276dc:	b009883a 	mov	r4,r22
   276e0:	00265e00 	call	265e0 <quorem>
   276e4:	10c00c04 	addi	r3,r2,48
   276e8:	d8800317 	ldw	r2,12(sp)
   276ec:	e4800044 	addi	r18,fp,1
   276f0:	e0c00005 	stb	r3,0(fp)
   276f4:	10800044 	addi	r2,r2,1
   276f8:	d8800315 	stw	r2,12(sp)
   276fc:	0023883a 	mov	r17,zero
   27700:	003f0606 	br	2731c <_dtoa_r+0xb40>
   27704:	a80b883a 	mov	r5,r21
   27708:	b009883a 	mov	r4,r22
   2770c:	0029e440 	call	29e44 <__mcmp>
   27710:	103ee60e 	bge	r2,zero,272ac <_dtoa_r+0xad0>
   27714:	b00b883a 	mov	r5,r22
   27718:	000f883a 	mov	r7,zero
   2771c:	01800284 	movi	r6,10
   27720:	b809883a 	mov	r4,r23
   27724:	002959c0 	call	2959c <__multadd>
   27728:	d8c00317 	ldw	r3,12(sp)
   2772c:	102d883a 	mov	r22,r2
   27730:	d8800617 	ldw	r2,24(sp)
   27734:	1cffffc4 	addi	r19,r3,-1
   27738:	103f861e 	bne	r2,zero,27554 <_dtoa_r+0xd78>
   2773c:	d8800b17 	ldw	r2,44(sp)
   27740:	0081d40e 	bge	zero,r2,27e94 <_dtoa_r+0x16b8>
   27744:	d8800415 	stw	r2,16(sp)
   27748:	003edf06 	br	272c8 <_dtoa_r+0xaec>
   2774c:	008000f4 	movhi	r2,3
   27750:	e70e8a04 	addi	fp,fp,14888
   27754:	108e8ac4 	addi	r2,r2,14891
   27758:	003dd906 	br	26ec0 <_dtoa_r+0x6e4>
   2775c:	00800044 	movi	r2,1
   27760:	d8800615 	stw	r2,24(sp)
   27764:	003f3606 	br	27440 <_dtoa_r+0xc64>
   27768:	a03ead1e 	bne	r20,zero,27220 <_dtoa_r+0xa44>
   2776c:	00800434 	movhi	r2,16
   27770:	10bfffc4 	addi	r2,r2,-1
   27774:	8884703a 	and	r2,r17,r2
   27778:	103ea91e 	bne	r2,zero,27220 <_dtoa_r+0xa44>
   2777c:	8c5ffc2c 	andhi	r17,r17,32752
   27780:	883ea726 	beq	r17,zero,27220 <_dtoa_r+0xa44>
   27784:	d8800517 	ldw	r2,20(sp)
   27788:	04400044 	movi	r17,1
   2778c:	10800044 	addi	r2,r2,1
   27790:	d8800515 	stw	r2,20(sp)
   27794:	d8800217 	ldw	r2,8(sp)
   27798:	10800044 	addi	r2,r2,1
   2779c:	d8800215 	stw	r2,8(sp)
   277a0:	003ea006 	br	27224 <_dtoa_r+0xa48>
   277a4:	00800044 	movi	r2,1
   277a8:	d8800415 	stw	r2,16(sp)
   277ac:	d8801e15 	stw	r2,120(sp)
   277b0:	003f1b06 	br	27420 <_dtoa_r+0xc44>
   277b4:	d8800b17 	ldw	r2,44(sp)
   277b8:	dcc00315 	stw	r19,12(sp)
   277bc:	d8800415 	stw	r2,16(sp)
   277c0:	d8800417 	ldw	r2,16(sp)
   277c4:	103dfb1e 	bne	r2,zero,26fb4 <_dtoa_r+0x7d8>
   277c8:	a80b883a 	mov	r5,r21
   277cc:	b809883a 	mov	r4,r23
   277d0:	000f883a 	mov	r7,zero
   277d4:	01800144 	movi	r6,5
   277d8:	002959c0 	call	2959c <__multadd>
   277dc:	100b883a 	mov	r5,r2
   277e0:	b009883a 	mov	r4,r22
   277e4:	102b883a 	mov	r21,r2
   277e8:	0029e440 	call	29e44 <__mcmp>
   277ec:	00bdf10e 	bge	zero,r2,26fb4 <_dtoa_r+0x7d8>
   277f0:	00800c44 	movi	r2,49
   277f4:	e0800005 	stb	r2,0(fp)
   277f8:	d8800317 	ldw	r2,12(sp)
   277fc:	e4800044 	addi	r18,fp,1
   27800:	14400044 	addi	r17,r2,1
   27804:	a80b883a 	mov	r5,r21
   27808:	b809883a 	mov	r4,r23
   2780c:	00295780 	call	29578 <_Bfree>
   27810:	88800044 	addi	r2,r17,1
   27814:	d8800315 	stw	r2,12(sp)
   27818:	803ee01e 	bne	r16,zero,2739c <_dtoa_r+0xbc0>
   2781c:	003ee206 	br	273a8 <_dtoa_r+0xbcc>
   27820:	1805883a 	mov	r2,r3
   27824:	003e5806 	br	27188 <_dtoa_r+0x9ac>
   27828:	800b883a 	mov	r5,r16
   2782c:	900d883a 	mov	r6,r18
   27830:	b809883a 	mov	r4,r23
   27834:	0029cbc0 	call	29cbc <__lshift>
   27838:	1021883a 	mov	r16,r2
   2783c:	003f5006 	br	27580 <_dtoa_r+0xda4>
   27840:	156bc83a 	sub	r21,r2,r21
   27844:	003e3e06 	br	27140 <_dtoa_r+0x964>
   27848:	dd000a15 	stw	r20,40(sp)
   2784c:	dc400c15 	stw	r17,48(sp)
   27850:	04000084 	movi	r16,2
   27854:	003cc906 	br	26b7c <_dtoa_r+0x3a0>
   27858:	00800044 	movi	r2,1
   2785c:	003ead06 	br	27314 <_dtoa_r+0xb38>
   27860:	00800044 	movi	r2,1
   27864:	d8800615 	stw	r2,24(sp)
   27868:	003c9006 	br	26aac <_dtoa_r+0x2d0>
   2786c:	1000031e 	bne	r2,zero,2787c <_dtoa_r+0x10a0>
   27870:	d8c00117 	ldw	r3,4(sp)
   27874:	18c0004c 	andi	r3,r3,1
   27878:	183eb71e 	bne	r3,zero,27358 <_dtoa_r+0xb7c>
   2787c:	2005883a 	mov	r2,r4
   27880:	00000206 	br	2788c <_dtoa_r+0x10b0>
   27884:	90bfff83 	ldbu	r2,-2(r18)
   27888:	1825883a 	mov	r18,r3
   2788c:	10803fcc 	andi	r2,r2,255
   27890:	1080201c 	xori	r2,r2,128
   27894:	10bfe004 	addi	r2,r2,-128
   27898:	10800c18 	cmpnei	r2,r2,48
   2789c:	90ffffc4 	addi	r3,r18,-1
   278a0:	103ff826 	beq	r2,zero,27884 <_dtoa_r+0x10a8>
   278a4:	003eb406 	br	27378 <_dtoa_r+0xb9c>
   278a8:	00800c44 	movi	r2,49
   278ac:	e0800005 	stb	r2,0(fp)
   278b0:	d8800317 	ldw	r2,12(sp)
   278b4:	10800044 	addi	r2,r2,1
   278b8:	d8800315 	stw	r2,12(sp)
   278bc:	003eae06 	br	27378 <_dtoa_r+0xb9c>
   278c0:	d8c00917 	ldw	r3,36(sp)
   278c4:	18011826 	beq	r3,zero,27d28 <_dtoa_r+0x154c>
   278c8:	d8c00517 	ldw	r3,20(sp)
   278cc:	d9000217 	ldw	r4,8(sp)
   278d0:	10810cc4 	addi	r2,r2,1075
   278d4:	dd400717 	ldw	r21,28(sp)
   278d8:	2089883a 	add	r4,r4,r2
   278dc:	1885883a 	add	r2,r3,r2
   278e0:	1825883a 	mov	r18,r3
   278e4:	d9000215 	stw	r4,8(sp)
   278e8:	d8800515 	stw	r2,20(sp)
   278ec:	003e1d06 	br	27164 <_dtoa_r+0x988>
   278f0:	8009883a 	mov	r4,r16
   278f4:	002fdb80 	call	2fdb8 <__floatsidf>
   278f8:	d9c00a17 	ldw	r7,40(sp)
   278fc:	900d883a 	mov	r6,r18
   27900:	1009883a 	mov	r4,r2
   27904:	180b883a 	mov	r5,r3
   27908:	002ed400 	call	2ed40 <__muldf3>
   2790c:	000d883a 	mov	r6,zero
   27910:	01d00734 	movhi	r7,16412
   27914:	1009883a 	mov	r4,r2
   27918:	180b883a 	mov	r5,r3
   2791c:	002d9080 	call	2d908 <__adddf3>
   27920:	d8800c15 	stw	r2,48(sp)
   27924:	00bf3034 	movhi	r2,64704
   27928:	1885883a 	add	r2,r3,r2
   2792c:	d8800d15 	stw	r2,52(sp)
   27930:	d9400a17 	ldw	r5,40(sp)
   27934:	9009883a 	mov	r4,r18
   27938:	000d883a 	mov	r6,zero
   2793c:	01d00534 	movhi	r7,16404
   27940:	002f3b00 	call	2f3b0 <__subdf3>
   27944:	dd400d17 	ldw	r21,52(sp)
   27948:	d9800c17 	ldw	r6,48(sp)
   2794c:	1009883a 	mov	r4,r2
   27950:	a80f883a 	mov	r7,r21
   27954:	180b883a 	mov	r5,r3
   27958:	1025883a 	mov	r18,r2
   2795c:	1821883a 	mov	r16,r3
   27960:	002eb600 	call	2eb60 <__gedf2>
   27964:	00812d16 	blt	zero,r2,27e1c <_dtoa_r+0x1640>
   27968:	d9800c17 	ldw	r6,48(sp)
   2796c:	a9e0003c 	xorhi	r7,r21,32768
   27970:	9009883a 	mov	r4,r18
   27974:	800b883a 	mov	r5,r16
   27978:	002ec500 	call	2ec50 <__ledf2>
   2797c:	103d6e0e 	bge	r2,zero,26f38 <_dtoa_r+0x75c>
   27980:	002b883a 	mov	r21,zero
   27984:	0021883a 	mov	r16,zero
   27988:	003d8a06 	br	26fb4 <_dtoa_r+0x7d8>
   2798c:	d9800717 	ldw	r6,28(sp)
   27990:	b00b883a 	mov	r5,r22
   27994:	b809883a 	mov	r4,r23
   27998:	0029ba40 	call	29ba4 <__pow5mult>
   2799c:	102d883a 	mov	r22,r2
   279a0:	003e1706 	br	27200 <_dtoa_r+0xa24>
   279a4:	d8800317 	ldw	r2,12(sp)
   279a8:	10010d26 	beq	r2,zero,27de0 <_dtoa_r+0x1604>
   279ac:	00abc83a 	sub	r21,zero,r2
   279b0:	a88003cc 	andi	r2,r21,15
   279b4:	100690fa 	slli	r3,r2,3
   279b8:	008000f4 	movhi	r2,3
   279bc:	108ec804 	addi	r2,r2,15136
   279c0:	10c5883a 	add	r2,r2,r3
   279c4:	11800017 	ldw	r6,0(r2)
   279c8:	11c00117 	ldw	r7,4(r2)
   279cc:	a009883a 	mov	r4,r20
   279d0:	880b883a 	mov	r5,r17
   279d4:	a82bd13a 	srai	r21,r21,4
   279d8:	002ed400 	call	2ed40 <__muldf3>
   279dc:	d8c00a15 	stw	r3,40(sp)
   279e0:	1025883a 	mov	r18,r2
   279e4:	a8013826 	beq	r21,zero,27ec8 <_dtoa_r+0x16ec>
   279e8:	020000f4 	movhi	r8,3
   279ec:	04000084 	movi	r16,2
   279f0:	420ebe04 	addi	r8,r8,15096
   279f4:	180b883a 	mov	r5,r3
   279f8:	dc400c15 	stw	r17,48(sp)
   279fc:	1009883a 	mov	r4,r2
   27a00:	8023883a 	mov	r17,r16
   27a04:	0007883a 	mov	r3,zero
   27a08:	4021883a 	mov	r16,r8
   27a0c:	a980004c 	andi	r6,r21,1
   27a10:	30000726 	beq	r6,zero,27a30 <_dtoa_r+0x1254>
   27a14:	81800017 	ldw	r6,0(r16)
   27a18:	81c00117 	ldw	r7,4(r16)
   27a1c:	8c400044 	addi	r17,r17,1
   27a20:	002ed400 	call	2ed40 <__muldf3>
   27a24:	180b883a 	mov	r5,r3
   27a28:	1009883a 	mov	r4,r2
   27a2c:	00c00044 	movi	r3,1
   27a30:	a82bd07a 	srai	r21,r21,1
   27a34:	84000204 	addi	r16,r16,8
   27a38:	a83ff41e 	bne	r21,zero,27a0c <_dtoa_r+0x1230>
   27a3c:	18c03fcc 	andi	r3,r3,255
   27a40:	8821883a 	mov	r16,r17
   27a44:	dc400c17 	ldw	r17,48(sp)
   27a48:	183c6526 	beq	r3,zero,26be0 <_dtoa_r+0x404>
   27a4c:	2025883a 	mov	r18,r4
   27a50:	d9400a15 	stw	r5,40(sp)
   27a54:	003c6206 	br	26be0 <_dtoa_r+0x404>
   27a58:	a03eb41e 	bne	r20,zero,2752c <_dtoa_r+0xd50>
   27a5c:	00800434 	movhi	r2,16
   27a60:	10bfffc4 	addi	r2,r2,-1
   27a64:	8884703a 	and	r2,r17,r2
   27a68:	103f4426 	beq	r2,zero,2777c <_dtoa_r+0xfa0>
   27a6c:	003eaf06 	br	2752c <_dtoa_r+0xd50>
   27a70:	d9000317 	ldw	r4,12(sp)
   27a74:	e007883a 	mov	r3,fp
   27a78:	df000817 	ldw	fp,32(sp)
   27a7c:	21000044 	addi	r4,r4,1
   27a80:	d9000315 	stw	r4,12(sp)
   27a84:	00800f0e 	bge	zero,r2,27ac4 <_dtoa_r+0x12e8>
   27a88:	b00b883a 	mov	r5,r22
   27a8c:	01800044 	movi	r6,1
   27a90:	b809883a 	mov	r4,r23
   27a94:	d8c00115 	stw	r3,4(sp)
   27a98:	0029cbc0 	call	29cbc <__lshift>
   27a9c:	a80b883a 	mov	r5,r21
   27aa0:	1009883a 	mov	r4,r2
   27aa4:	102d883a 	mov	r22,r2
   27aa8:	0029e440 	call	29e44 <__mcmp>
   27aac:	d8c00117 	ldw	r3,4(sp)
   27ab0:	0080e40e 	bge	zero,r2,27e44 <_dtoa_r+0x1668>
   27ab4:	18c00e60 	cmpeqi	r3,r3,57
   27ab8:	1800d21e 	bne	r3,zero,27e04 <_dtoa_r+0x1628>
   27abc:	d8800517 	ldw	r2,20(sp)
   27ac0:	10c00c44 	addi	r3,r2,49
   27ac4:	8023883a 	mov	r17,r16
   27ac8:	a0c00005 	stb	r3,0(r20)
   27acc:	9821883a 	mov	r16,r19
   27ad0:	003e2906 	br	27378 <_dtoa_r+0xb9c>
   27ad4:	b027883a 	mov	r19,r22
   27ad8:	ddc00417 	ldw	r23,16(sp)
   27adc:	dd800217 	ldw	r22,8(sp)
   27ae0:	200d883a 	mov	r6,r4
   27ae4:	280f883a 	mov	r7,r5
   27ae8:	002d9080 	call	2d908 <__adddf3>
   27aec:	dd400117 	ldw	r21,4(sp)
   27af0:	180b883a 	mov	r5,r3
   27af4:	900f883a 	mov	r7,r18
   27af8:	a80d883a 	mov	r6,r21
   27afc:	1009883a 	mov	r4,r2
   27b00:	1823883a 	mov	r17,r3
   27b04:	1029883a 	mov	r20,r2
   27b08:	002eb600 	call	2eb60 <__gedf2>
   27b0c:	d8c00317 	ldw	r3,12(sp)
   27b10:	18c00044 	addi	r3,r3,1
   27b14:	d8c00315 	stw	r3,12(sp)
   27b18:	00bcc716 	blt	zero,r2,26e38 <_dtoa_r+0x65c>
   27b1c:	a80d883a 	mov	r6,r21
   27b20:	900f883a 	mov	r7,r18
   27b24:	a009883a 	mov	r4,r20
   27b28:	880b883a 	mov	r5,r17
   27b2c:	002eae00 	call	2eae0 <__eqdf2>
   27b30:	1000021e 	bne	r2,zero,27b3c <_dtoa_r+0x1360>
   27b34:	9cc0004c 	andi	r19,r19,1
   27b38:	983cbf1e 	bne	r19,zero,26e38 <_dtoa_r+0x65c>
   27b3c:	8025883a 	mov	r18,r16
   27b40:	003e1906 	br	273a8 <_dtoa_r+0xbcc>
   27b44:	81400117 	ldw	r5,4(r16)
   27b48:	b809883a 	mov	r4,r23
   27b4c:	00294d40 	call	294d4 <_Balloc>
   27b50:	1023883a 	mov	r17,r2
   27b54:	1000e526 	beq	r2,zero,27eec <_dtoa_r+0x1710>
   27b58:	81800417 	ldw	r6,16(r16)
   27b5c:	81400304 	addi	r5,r16,12
   27b60:	11000304 	addi	r4,r2,12
   27b64:	31800084 	addi	r6,r6,2
   27b68:	300c90ba 	slli	r6,r6,2
   27b6c:	00292a80 	call	292a8 <memcpy>
   27b70:	01800044 	movi	r6,1
   27b74:	880b883a 	mov	r5,r17
   27b78:	b809883a 	mov	r4,r23
   27b7c:	0029cbc0 	call	29cbc <__lshift>
   27b80:	1027883a 	mov	r19,r2
   27b84:	003e8006 	br	27588 <_dtoa_r+0xdac>
   27b88:	b00b883a 	mov	r5,r22
   27b8c:	b809883a 	mov	r4,r23
   27b90:	0029ba40 	call	29ba4 <__pow5mult>
   27b94:	102d883a 	mov	r22,r2
   27b98:	003d9906 	br	27200 <_dtoa_r+0xa24>
   27b9c:	d8800517 	ldw	r2,20(sp)
   27ba0:	d8c00417 	ldw	r3,16(sp)
   27ba4:	10e5c83a 	sub	r18,r2,r3
   27ba8:	003d6e06 	br	27164 <_dtoa_r+0x988>
   27bac:	d9000317 	ldw	r4,12(sp)
   27bb0:	e007883a 	mov	r3,fp
   27bb4:	18800e58 	cmpnei	r2,r3,57
   27bb8:	21000044 	addi	r4,r4,1
   27bbc:	d9000315 	stw	r4,12(sp)
   27bc0:	df000817 	ldw	fp,32(sp)
   27bc4:	10008f26 	beq	r2,zero,27e04 <_dtoa_r+0x1628>
   27bc8:	18c00044 	addi	r3,r3,1
   27bcc:	003fbd06 	br	27ac4 <_dtoa_r+0x12e8>
   27bd0:	d8800317 	ldw	r2,12(sp)
   27bd4:	e007883a 	mov	r3,fp
   27bd8:	8023883a 	mov	r17,r16
   27bdc:	10800044 	addi	r2,r2,1
   27be0:	df000817 	ldw	fp,32(sp)
   27be4:	d8800315 	stw	r2,12(sp)
   27be8:	9821883a 	mov	r16,r19
   27bec:	003dcb06 	br	2731c <_dtoa_r+0xb40>
   27bf0:	d9000c17 	ldw	r4,48(sp)
   27bf4:	d9400d17 	ldw	r5,52(sp)
   27bf8:	600d883a 	mov	r6,r12
   27bfc:	680f883a 	mov	r7,r13
   27c00:	dac00a15 	stw	r11,40(sp)
   27c04:	002ed400 	call	2ed40 <__muldf3>
   27c08:	dac00a17 	ldw	r11,40(sp)
   27c0c:	d9400e17 	ldw	r5,56(sp)
   27c10:	d8800a15 	stw	r2,40(sp)
   27c14:	e2c00005 	stb	r11,0(fp)
   27c18:	29000058 	cmpnei	r4,r5,1
   27c1c:	d8c00c15 	stw	r3,48(sp)
   27c20:	e145883a 	add	r2,fp,r5
   27c24:	20002126 	beq	r4,zero,27cac <_dtoa_r+0x14d0>
   27c28:	dc400e15 	stw	r17,56(sp)
   27c2c:	dcc00d15 	stw	r19,52(sp)
   27c30:	8023883a 	mov	r17,r16
   27c34:	a809883a 	mov	r4,r21
   27c38:	900b883a 	mov	r5,r18
   27c3c:	1021883a 	mov	r16,r2
   27c40:	000d883a 	mov	r6,zero
   27c44:	01d00934 	movhi	r7,16420
   27c48:	002ed400 	call	2ed40 <__muldf3>
   27c4c:	180b883a 	mov	r5,r3
   27c50:	1009883a 	mov	r4,r2
   27c54:	182b883a 	mov	r21,r3
   27c58:	1027883a 	mov	r19,r2
   27c5c:	002fd380 	call	2fd38 <__fixdfsi>
   27c60:	1009883a 	mov	r4,r2
   27c64:	1025883a 	mov	r18,r2
   27c68:	002fdb80 	call	2fdb8 <__floatsidf>
   27c6c:	9809883a 	mov	r4,r19
   27c70:	a80b883a 	mov	r5,r21
   27c74:	100d883a 	mov	r6,r2
   27c78:	180f883a 	mov	r7,r3
   27c7c:	8c400044 	addi	r17,r17,1
   27c80:	94800c04 	addi	r18,r18,48
   27c84:	002f3b00 	call	2f3b0 <__subdf3>
   27c88:	8cbfffc5 	stb	r18,-1(r17)
   27c8c:	1009883a 	mov	r4,r2
   27c90:	180b883a 	mov	r5,r3
   27c94:	847fea1e 	bne	r16,r17,27c40 <_dtoa_r+0x1464>
   27c98:	8821883a 	mov	r16,r17
   27c9c:	dcc00d17 	ldw	r19,52(sp)
   27ca0:	dc400e17 	ldw	r17,56(sp)
   27ca4:	102b883a 	mov	r21,r2
   27ca8:	1825883a 	mov	r18,r3
   27cac:	d9000a17 	ldw	r4,40(sp)
   27cb0:	d9400c17 	ldw	r5,48(sp)
   27cb4:	000d883a 	mov	r6,zero
   27cb8:	01cff834 	movhi	r7,16352
   27cbc:	002d9080 	call	2d908 <__adddf3>
   27cc0:	a80d883a 	mov	r6,r21
   27cc4:	900f883a 	mov	r7,r18
   27cc8:	1009883a 	mov	r4,r2
   27ccc:	180b883a 	mov	r5,r3
   27cd0:	002ec500 	call	2ec50 <__ledf2>
   27cd4:	103c5316 	blt	r2,zero,26e24 <_dtoa_r+0x648>
   27cd8:	d9800a17 	ldw	r6,40(sp)
   27cdc:	d9c00c17 	ldw	r7,48(sp)
   27ce0:	0009883a 	mov	r4,zero
   27ce4:	014ff834 	movhi	r5,16352
   27ce8:	002f3b00 	call	2f3b0 <__subdf3>
   27cec:	a80d883a 	mov	r6,r21
   27cf0:	900f883a 	mov	r7,r18
   27cf4:	1009883a 	mov	r4,r2
   27cf8:	180b883a 	mov	r5,r3
   27cfc:	002eb600 	call	2eb60 <__gedf2>
   27d00:	00bc8d0e 	bge	zero,r2,26f38 <_dtoa_r+0x75c>
   27d04:	80bfffc7 	ldb	r2,-1(r16)
   27d08:	8025883a 	mov	r18,r16
   27d0c:	843fffc4 	addi	r16,r16,-1
   27d10:	10800c20 	cmpeqi	r2,r2,48
   27d14:	103ffb1e 	bne	r2,zero,27d04 <_dtoa_r+0x1528>
   27d18:	d8801117 	ldw	r2,68(sp)
   27d1c:	10800044 	addi	r2,r2,1
   27d20:	d8800315 	stw	r2,12(sp)
   27d24:	003da006 	br	273a8 <_dtoa_r+0xbcc>
   27d28:	d8c01217 	ldw	r3,72(sp)
   27d2c:	00800d84 	movi	r2,54
   27d30:	d9000517 	ldw	r4,20(sp)
   27d34:	10c5c83a 	sub	r2,r2,r3
   27d38:	d8c00217 	ldw	r3,8(sp)
   27d3c:	dd400717 	ldw	r21,28(sp)
   27d40:	2025883a 	mov	r18,r4
   27d44:	1887883a 	add	r3,r3,r2
   27d48:	2085883a 	add	r2,r4,r2
   27d4c:	d8c00215 	stw	r3,8(sp)
   27d50:	d8800515 	stw	r2,20(sp)
   27d54:	003d0306 	br	27164 <_dtoa_r+0x988>
   27d58:	d8800417 	ldw	r2,16(sp)
   27d5c:	103ee426 	beq	r2,zero,278f0 <_dtoa_r+0x1114>
   27d60:	d8800b17 	ldw	r2,44(sp)
   27d64:	00bc740e 	bge	zero,r2,26f38 <_dtoa_r+0x75c>
   27d68:	a80b883a 	mov	r5,r21
   27d6c:	9009883a 	mov	r4,r18
   27d70:	000d883a 	mov	r6,zero
   27d74:	01d00934 	movhi	r7,16420
   27d78:	002ed400 	call	2ed40 <__muldf3>
   27d7c:	81000044 	addi	r4,r16,1
   27d80:	1025883a 	mov	r18,r2
   27d84:	182b883a 	mov	r21,r3
   27d88:	d8c00a15 	stw	r3,40(sp)
   27d8c:	002fdb80 	call	2fdb8 <__floatsidf>
   27d90:	900d883a 	mov	r6,r18
   27d94:	a80f883a 	mov	r7,r21
   27d98:	1009883a 	mov	r4,r2
   27d9c:	180b883a 	mov	r5,r3
   27da0:	002ed400 	call	2ed40 <__muldf3>
   27da4:	1009883a 	mov	r4,r2
   27da8:	000d883a 	mov	r6,zero
   27dac:	01d00734 	movhi	r7,16412
   27db0:	180b883a 	mov	r5,r3
   27db4:	002d9080 	call	2d908 <__adddf3>
   27db8:	d9000317 	ldw	r4,12(sp)
   27dbc:	d8800c15 	stw	r2,48(sp)
   27dc0:	00bf3034 	movhi	r2,64704
   27dc4:	1887883a 	add	r3,r3,r2
   27dc8:	d8800b17 	ldw	r2,44(sp)
   27dcc:	213fffc4 	addi	r4,r4,-1
   27dd0:	d9001115 	stw	r4,68(sp)
   27dd4:	d8c00d15 	stw	r3,52(sp)
   27dd8:	d8800e15 	stw	r2,56(sp)
   27ddc:	003b9f06 	br	26c5c <_dtoa_r+0x480>
   27de0:	a025883a 	mov	r18,r20
   27de4:	dc400a15 	stw	r17,40(sp)
   27de8:	04000084 	movi	r16,2
   27dec:	003b7c06 	br	26be0 <_dtoa_r+0x404>
   27df0:	d8800317 	ldw	r2,12(sp)
   27df4:	00c00c44 	movi	r3,49
   27df8:	10800044 	addi	r2,r2,1
   27dfc:	d8800315 	stw	r2,12(sp)
   27e00:	003c1606 	br	26e5c <_dtoa_r+0x680>
   27e04:	00800e44 	movi	r2,57
   27e08:	8023883a 	mov	r17,r16
   27e0c:	a0800005 	stb	r2,0(r20)
   27e10:	9821883a 	mov	r16,r19
   27e14:	01000e44 	movi	r4,57
   27e18:	003d4f06 	br	27358 <_dtoa_r+0xb7c>
   27e1c:	002b883a 	mov	r21,zero
   27e20:	0021883a 	mov	r16,zero
   27e24:	003e7206 	br	277f0 <_dtoa_r+0x1014>
   27e28:	dd800d17 	ldw	r22,52(sp)
   27e2c:	ddc00e17 	ldw	r23,56(sp)
   27e30:	d8801117 	ldw	r2,68(sp)
   27e34:	8025883a 	mov	r18,r16
   27e38:	10800044 	addi	r2,r2,1
   27e3c:	d8800315 	stw	r2,12(sp)
   27e40:	003d5906 	br	273a8 <_dtoa_r+0xbcc>
   27e44:	103f1f1e 	bne	r2,zero,27ac4 <_dtoa_r+0x12e8>
   27e48:	1880004c 	andi	r2,r3,1
   27e4c:	103f191e 	bne	r2,zero,27ab4 <_dtoa_r+0x12d8>
   27e50:	003f1c06 	br	27ac4 <_dtoa_r+0x12e8>
   27e54:	dcc00f17 	ldw	r19,60(sp)
   27e58:	dd800d17 	ldw	r22,52(sp)
   27e5c:	ddc00e17 	ldw	r23,56(sp)
   27e60:	dc400c17 	ldw	r17,48(sp)
   27e64:	dd000a17 	ldw	r20,40(sp)
   27e68:	003c3306 	br	26f38 <_dtoa_r+0x75c>
   27e6c:	d9000317 	ldw	r4,12(sp)
   27e70:	e007883a 	mov	r3,fp
   27e74:	18800e60 	cmpeqi	r2,r3,57
   27e78:	21000044 	addi	r4,r4,1
   27e7c:	d9000315 	stw	r4,12(sp)
   27e80:	df000817 	ldw	fp,32(sp)
   27e84:	a4800044 	addi	r18,r20,1
   27e88:	103fde1e 	bne	r2,zero,27e04 <_dtoa_r+0x1628>
   27e8c:	047f0b16 	blt	zero,r17,27abc <_dtoa_r+0x12e0>
   27e90:	003f0c06 	br	27ac4 <_dtoa_r+0x12e8>
   27e94:	d8800117 	ldw	r2,4(sp)
   27e98:	108000c8 	cmpgei	r2,r2,3
   27e9c:	103e451e 	bne	r2,zero,277b4 <_dtoa_r+0xfd8>
   27ea0:	dcc00315 	stw	r19,12(sp)
   27ea4:	003e0c06 	br	276d8 <_dtoa_r+0xefc>
   27ea8:	d8800117 	ldw	r2,4(sp)
   27eac:	108000c8 	cmpgei	r2,r2,3
   27eb0:	103e401e 	bne	r2,zero,277b4 <_dtoa_r+0xfd8>
   27eb4:	d8800b17 	ldw	r2,44(sp)
   27eb8:	dcc00315 	stw	r19,12(sp)
   27ebc:	d8800415 	stw	r2,16(sp)
   27ec0:	04bdaf0e 	bge	zero,r18,27580 <_dtoa_r+0xda4>
   27ec4:	003e5806 	br	27828 <_dtoa_r+0x104c>
   27ec8:	04000084 	movi	r16,2
   27ecc:	003b4406 	br	26be0 <_dtoa_r+0x404>
   27ed0:	01c000f4 	movhi	r7,3
   27ed4:	010000f4 	movhi	r4,3
   27ed8:	39ce8e04 	addi	r7,r7,14904
   27edc:	000d883a 	mov	r6,zero
   27ee0:	01406a84 	movi	r5,426
   27ee4:	210e9304 	addi	r4,r4,14924
   27ee8:	002c3b40 	call	2c3b4 <__assert_func>
   27eec:	01c000f4 	movhi	r7,3
   27ef0:	010000f4 	movhi	r4,3
   27ef4:	39ce8e04 	addi	r7,r7,14904
   27ef8:	000d883a 	mov	r6,zero
   27efc:	0140ba84 	movi	r5,746
   27f00:	210e9304 	addi	r4,r4,14924
   27f04:	002c3b40 	call	2c3b4 <__assert_func>
   27f08:	e70e8b04 	addi	fp,fp,14892
   27f0c:	003a6406 	br	268a0 <_dtoa_r+0xc4>
   27f10:	18c00120 	cmpeqi	r3,r3,4
   27f14:	183cd51e 	bne	r3,zero,2726c <_dtoa_r+0xa90>
   27f18:	00c00f04 	movi	r3,60
   27f1c:	1885c83a 	sub	r2,r3,r2
   27f20:	003d6c06 	br	274d4 <_dtoa_r+0xcf8>
   27f24:	000b883a 	mov	r5,zero
   27f28:	003af006 	br	26aec <_dtoa_r+0x310>

00027f2c <__sflush_r>:
   27f2c:	2880030b 	ldhu	r2,12(r5)
   27f30:	defffb04 	addi	sp,sp,-20
   27f34:	dcc00315 	stw	r19,12(sp)
   27f38:	dc000015 	stw	r16,0(sp)
   27f3c:	dfc00415 	stw	ra,16(sp)
   27f40:	dc800215 	stw	r18,8(sp)
   27f44:	dc400115 	stw	r17,4(sp)
   27f48:	10c0020c 	andi	r3,r2,8
   27f4c:	2821883a 	mov	r16,r5
   27f50:	2027883a 	mov	r19,r4
   27f54:	18003f1e 	bne	r3,zero,28054 <__sflush_r+0x128>
   27f58:	28c00117 	ldw	r3,4(r5)
   27f5c:	10820014 	ori	r2,r2,2048
   27f60:	2880030d 	sth	r2,12(r5)
   27f64:	00c0550e 	bge	zero,r3,280bc <__sflush_r+0x190>
   27f68:	82000a17 	ldw	r8,40(r16)
   27f6c:	40003126 	beq	r8,zero,28034 <__sflush_r+0x108>
   27f70:	9c400017 	ldw	r17,0(r19)
   27f74:	1104000c 	andi	r4,r2,4096
   27f78:	98000015 	stw	zero,0(r19)
   27f7c:	81400717 	ldw	r5,28(r16)
   27f80:	1007883a 	mov	r3,r2
   27f84:	2000521e 	bne	r4,zero,280d0 <__sflush_r+0x1a4>
   27f88:	01c00044 	movi	r7,1
   27f8c:	000d883a 	mov	r6,zero
   27f90:	9809883a 	mov	r4,r19
   27f94:	403ee83a 	callr	r8
   27f98:	10ffffd8 	cmpnei	r3,r2,-1
   27f9c:	18005826 	beq	r3,zero,28100 <__sflush_r+0x1d4>
   27fa0:	80c0030b 	ldhu	r3,12(r16)
   27fa4:	82000a17 	ldw	r8,40(r16)
   27fa8:	81400717 	ldw	r5,28(r16)
   27fac:	18c0010c 	andi	r3,r3,4
   27fb0:	18000626 	beq	r3,zero,27fcc <__sflush_r+0xa0>
   27fb4:	81000117 	ldw	r4,4(r16)
   27fb8:	80c00c17 	ldw	r3,48(r16)
   27fbc:	1105c83a 	sub	r2,r2,r4
   27fc0:	18000226 	beq	r3,zero,27fcc <__sflush_r+0xa0>
   27fc4:	80c00f17 	ldw	r3,60(r16)
   27fc8:	10c5c83a 	sub	r2,r2,r3
   27fcc:	100d883a 	mov	r6,r2
   27fd0:	000f883a 	mov	r7,zero
   27fd4:	9809883a 	mov	r4,r19
   27fd8:	403ee83a 	callr	r8
   27fdc:	10ffffd8 	cmpnei	r3,r2,-1
   27fe0:	18003d1e 	bne	r3,zero,280d8 <__sflush_r+0x1ac>
   27fe4:	99000017 	ldw	r4,0(r19)
   27fe8:	80c0030b 	ldhu	r3,12(r16)
   27fec:	20004e26 	beq	r4,zero,28128 <__sflush_r+0x1fc>
   27ff0:	21400760 	cmpeqi	r5,r4,29
   27ff4:	2800021e 	bne	r5,zero,28000 <__sflush_r+0xd4>
   27ff8:	210005a0 	cmpeqi	r4,r4,22
   27ffc:	20002c26 	beq	r4,zero,280b0 <__sflush_r+0x184>
   28000:	80800417 	ldw	r2,16(r16)
   28004:	18fdffcc 	andi	r3,r3,63487
   28008:	80c0030d 	sth	r3,12(r16)
   2800c:	80000115 	stw	zero,4(r16)
   28010:	80800015 	stw	r2,0(r16)
   28014:	81400c17 	ldw	r5,48(r16)
   28018:	9c400015 	stw	r17,0(r19)
   2801c:	28000526 	beq	r5,zero,28034 <__sflush_r+0x108>
   28020:	80801004 	addi	r2,r16,64
   28024:	28800226 	beq	r5,r2,28030 <__sflush_r+0x104>
   28028:	9809883a 	mov	r4,r19
   2802c:	00286f40 	call	286f4 <_free_r>
   28030:	80000c15 	stw	zero,48(r16)
   28034:	0005883a 	mov	r2,zero
   28038:	dfc00417 	ldw	ra,16(sp)
   2803c:	dcc00317 	ldw	r19,12(sp)
   28040:	dc800217 	ldw	r18,8(sp)
   28044:	dc400117 	ldw	r17,4(sp)
   28048:	dc000017 	ldw	r16,0(sp)
   2804c:	dec00504 	addi	sp,sp,20
   28050:	f800283a 	ret
   28054:	2c800417 	ldw	r18,16(r5)
   28058:	903ff626 	beq	r18,zero,28034 <__sflush_r+0x108>
   2805c:	2c400017 	ldw	r17,0(r5)
   28060:	108000cc 	andi	r2,r2,3
   28064:	2c800015 	stw	r18,0(r5)
   28068:	8ca3c83a 	sub	r17,r17,r18
   2806c:	1000161e 	bne	r2,zero,280c8 <__sflush_r+0x19c>
   28070:	28800517 	ldw	r2,20(r5)
   28074:	80800215 	stw	r2,8(r16)
   28078:	04400316 	blt	zero,r17,28088 <__sflush_r+0x15c>
   2807c:	003fed06 	br	28034 <__sflush_r+0x108>
   28080:	90a5883a 	add	r18,r18,r2
   28084:	047feb0e 	bge	zero,r17,28034 <__sflush_r+0x108>
   28088:	80800917 	ldw	r2,36(r16)
   2808c:	81400717 	ldw	r5,28(r16)
   28090:	880f883a 	mov	r7,r17
   28094:	900d883a 	mov	r6,r18
   28098:	9809883a 	mov	r4,r19
   2809c:	103ee83a 	callr	r2
   280a0:	88a3c83a 	sub	r17,r17,r2
   280a4:	00bff616 	blt	zero,r2,28080 <__sflush_r+0x154>
   280a8:	80c0030b 	ldhu	r3,12(r16)
   280ac:	00bfffc4 	movi	r2,-1
   280b0:	18c01014 	ori	r3,r3,64
   280b4:	80c0030d 	sth	r3,12(r16)
   280b8:	003fdf06 	br	28038 <__sflush_r+0x10c>
   280bc:	28c00f17 	ldw	r3,60(r5)
   280c0:	00ffa916 	blt	zero,r3,27f68 <__sflush_r+0x3c>
   280c4:	003fdb06 	br	28034 <__sflush_r+0x108>
   280c8:	0005883a 	mov	r2,zero
   280cc:	003fe906 	br	28074 <__sflush_r+0x148>
   280d0:	80801417 	ldw	r2,80(r16)
   280d4:	003fb506 	br	27fac <__sflush_r+0x80>
   280d8:	80c0030b 	ldhu	r3,12(r16)
   280dc:	81000417 	ldw	r4,16(r16)
   280e0:	80000115 	stw	zero,4(r16)
   280e4:	197dffcc 	andi	r5,r3,63487
   280e8:	8140030d 	sth	r5,12(r16)
   280ec:	81000015 	stw	r4,0(r16)
   280f0:	18c4000c 	andi	r3,r3,4096
   280f4:	183fc726 	beq	r3,zero,28014 <__sflush_r+0xe8>
   280f8:	80801415 	stw	r2,80(r16)
   280fc:	003fc506 	br	28014 <__sflush_r+0xe8>
   28100:	98c00017 	ldw	r3,0(r19)
   28104:	183fa626 	beq	r3,zero,27fa0 <__sflush_r+0x74>
   28108:	19000760 	cmpeqi	r4,r3,29
   2810c:	20000e1e 	bne	r4,zero,28148 <__sflush_r+0x21c>
   28110:	18c00598 	cmpnei	r3,r3,22
   28114:	18000c26 	beq	r3,zero,28148 <__sflush_r+0x21c>
   28118:	80c0030b 	ldhu	r3,12(r16)
   2811c:	18c01014 	ori	r3,r3,64
   28120:	80c0030d 	sth	r3,12(r16)
   28124:	003fc406 	br	28038 <__sflush_r+0x10c>
   28128:	81000417 	ldw	r4,16(r16)
   2812c:	197dffcc 	andi	r5,r3,63487
   28130:	8140030d 	sth	r5,12(r16)
   28134:	80000115 	stw	zero,4(r16)
   28138:	81000015 	stw	r4,0(r16)
   2813c:	18c4000c 	andi	r3,r3,4096
   28140:	183fb426 	beq	r3,zero,28014 <__sflush_r+0xe8>
   28144:	003fec06 	br	280f8 <__sflush_r+0x1cc>
   28148:	9c400015 	stw	r17,0(r19)
   2814c:	0005883a 	mov	r2,zero
   28150:	003fb906 	br	28038 <__sflush_r+0x10c>

00028154 <_fflush_r>:
   28154:	defffd04 	addi	sp,sp,-12
   28158:	dc000115 	stw	r16,4(sp)
   2815c:	dfc00215 	stw	ra,8(sp)
   28160:	2021883a 	mov	r16,r4
   28164:	20000226 	beq	r4,zero,28170 <_fflush_r+0x1c>
   28168:	20800e17 	ldw	r2,56(r4)
   2816c:	10000726 	beq	r2,zero,2818c <_fflush_r+0x38>
   28170:	2880030f 	ldh	r2,12(r5)
   28174:	10000a1e 	bne	r2,zero,281a0 <_fflush_r+0x4c>
   28178:	0005883a 	mov	r2,zero
   2817c:	dfc00217 	ldw	ra,8(sp)
   28180:	dc000117 	ldw	r16,4(sp)
   28184:	dec00304 	addi	sp,sp,12
   28188:	f800283a 	ret
   2818c:	d9400015 	stw	r5,0(sp)
   28190:	00284d80 	call	284d8 <__sinit>
   28194:	d9400017 	ldw	r5,0(sp)
   28198:	2880030f 	ldh	r2,12(r5)
   2819c:	103ff626 	beq	r2,zero,28178 <_fflush_r+0x24>
   281a0:	8009883a 	mov	r4,r16
   281a4:	dfc00217 	ldw	ra,8(sp)
   281a8:	dc000117 	ldw	r16,4(sp)
   281ac:	dec00304 	addi	sp,sp,12
   281b0:	0027f2c1 	jmpi	27f2c <__sflush_r>

000281b4 <fflush>:
   281b4:	200b883a 	mov	r5,r4
   281b8:	20000326 	beq	r4,zero,281c8 <fflush+0x14>
   281bc:	008000f4 	movhi	r2,3
   281c0:	11190c17 	ldw	r4,25648(r2)
   281c4:	00281541 	jmpi	28154 <_fflush_r>
   281c8:	008000f4 	movhi	r2,3
   281cc:	11190b17 	ldw	r4,25644(r2)
   281d0:	014000f4 	movhi	r5,3
   281d4:	29605504 	addi	r5,r5,-32428
   281d8:	0028f441 	jmpi	28f44 <_fwalk_reent>

000281dc <__fp_lock>:
   281dc:	0005883a 	mov	r2,zero
   281e0:	f800283a 	ret

000281e4 <_cleanup_r>:
   281e4:	014000f4 	movhi	r5,3
   281e8:	29713804 	addi	r5,r5,-15136
   281ec:	0028f441 	jmpi	28f44 <_fwalk_reent>

000281f0 <__sinit.part.0>:
   281f0:	00c000f4 	movhi	r3,3
   281f4:	20800117 	ldw	r2,4(r4)
   281f8:	18e07904 	addi	r3,r3,-32284
   281fc:	20c00f15 	stw	r3,60(r4)
   28200:	2140bb04 	addi	r5,r4,748
   28204:	00c000c4 	movi	r3,3
   28208:	20c0b915 	stw	r3,740(r4)
   2820c:	2140ba15 	stw	r5,744(r4)
   28210:	2000b815 	stw	zero,736(r4)
   28214:	10001705 	stb	zero,92(r2)
   28218:	10001745 	stb	zero,93(r2)
   2821c:	10001785 	stb	zero,94(r2)
   28220:	100017c5 	stb	zero,95(r2)
   28224:	10001805 	stb	zero,96(r2)
   28228:	10001845 	stb	zero,97(r2)
   2822c:	10001885 	stb	zero,98(r2)
   28230:	100018c5 	stb	zero,99(r2)
   28234:	00c00104 	movi	r3,4
   28238:	10c00315 	stw	r3,12(r2)
   2823c:	020000b4 	movhi	r8,2
   28240:	20c00217 	ldw	r3,8(r4)
   28244:	01c000b4 	movhi	r7,2
   28248:	018000b4 	movhi	r6,2
   2824c:	014000b4 	movhi	r5,2
   28250:	42100e04 	addi	r8,r8,16440
   28254:	39d02504 	addi	r7,r7,16532
   28258:	31904504 	addi	r6,r6,16660
   2825c:	29505c04 	addi	r5,r5,16752
   28260:	02400074 	movhi	r9,1
   28264:	10001915 	stw	zero,100(r2)
   28268:	10000015 	stw	zero,0(r2)
   2826c:	10000115 	stw	zero,4(r2)
   28270:	10000215 	stw	zero,8(r2)
   28274:	10000415 	stw	zero,16(r2)
   28278:	10000515 	stw	zero,20(r2)
   2827c:	10000615 	stw	zero,24(r2)
   28280:	10800715 	stw	r2,28(r2)
   28284:	12000815 	stw	r8,32(r2)
   28288:	11c00915 	stw	r7,36(r2)
   2828c:	11800a15 	stw	r6,40(r2)
   28290:	11400b15 	stw	r5,44(r2)
   28294:	4a400284 	addi	r9,r9,10
   28298:	1a400315 	stw	r9,12(r3)
   2829c:	18001915 	stw	zero,100(r3)
   282a0:	18000015 	stw	zero,0(r3)
   282a4:	18000115 	stw	zero,4(r3)
   282a8:	18000215 	stw	zero,8(r3)
   282ac:	18000415 	stw	zero,16(r3)
   282b0:	18001705 	stb	zero,92(r3)
   282b4:	18001745 	stb	zero,93(r3)
   282b8:	18001785 	stb	zero,94(r3)
   282bc:	180017c5 	stb	zero,95(r3)
   282c0:	18001805 	stb	zero,96(r3)
   282c4:	18001845 	stb	zero,97(r3)
   282c8:	18001885 	stb	zero,98(r3)
   282cc:	180018c5 	stb	zero,99(r3)
   282d0:	20800317 	ldw	r2,12(r4)
   282d4:	024000b4 	movhi	r9,2
   282d8:	18000515 	stw	zero,20(r3)
   282dc:	18000615 	stw	zero,24(r3)
   282e0:	18c00715 	stw	r3,28(r3)
   282e4:	1a000815 	stw	r8,32(r3)
   282e8:	19c00915 	stw	r7,36(r3)
   282ec:	19800a15 	stw	r6,40(r3)
   282f0:	19400b15 	stw	r5,44(r3)
   282f4:	4a400484 	addi	r9,r9,18
   282f8:	10001915 	stw	zero,100(r2)
   282fc:	10000015 	stw	zero,0(r2)
   28300:	10000115 	stw	zero,4(r2)
   28304:	10000215 	stw	zero,8(r2)
   28308:	12400315 	stw	r9,12(r2)
   2830c:	10000415 	stw	zero,16(r2)
   28310:	10000515 	stw	zero,20(r2)
   28314:	10000615 	stw	zero,24(r2)
   28318:	10001705 	stb	zero,92(r2)
   2831c:	10001745 	stb	zero,93(r2)
   28320:	10001785 	stb	zero,94(r2)
   28324:	100017c5 	stb	zero,95(r2)
   28328:	10001805 	stb	zero,96(r2)
   2832c:	10001845 	stb	zero,97(r2)
   28330:	10001885 	stb	zero,98(r2)
   28334:	100018c5 	stb	zero,99(r2)
   28338:	10800715 	stw	r2,28(r2)
   2833c:	12000815 	stw	r8,32(r2)
   28340:	11c00915 	stw	r7,36(r2)
   28344:	11800a15 	stw	r6,40(r2)
   28348:	11400b15 	stw	r5,44(r2)
   2834c:	00800044 	movi	r2,1
   28350:	20800e15 	stw	r2,56(r4)
   28354:	f800283a 	ret

00028358 <__fp_unlock>:
   28358:	0005883a 	mov	r2,zero
   2835c:	f800283a 	ret

00028360 <__sfmoreglue>:
   28360:	defffc04 	addi	sp,sp,-16
   28364:	dc400115 	stw	r17,4(sp)
   28368:	2c7fffc4 	addi	r17,r5,-1
   2836c:	8c401a24 	muli	r17,r17,104
   28370:	dc800215 	stw	r18,8(sp)
   28374:	2825883a 	mov	r18,r5
   28378:	89401d04 	addi	r5,r17,116
   2837c:	dc000015 	stw	r16,0(sp)
   28380:	dfc00315 	stw	ra,12(sp)
   28384:	00233600 	call	23360 <_malloc_r>
   28388:	1021883a 	mov	r16,r2
   2838c:	10000726 	beq	r2,zero,283ac <__sfmoreglue+0x4c>
   28390:	11000304 	addi	r4,r2,12
   28394:	10000015 	stw	zero,0(r2)
   28398:	14800115 	stw	r18,4(r2)
   2839c:	11000215 	stw	r4,8(r2)
   283a0:	89801a04 	addi	r6,r17,104
   283a4:	000b883a 	mov	r5,zero
   283a8:	0023b400 	call	23b40 <memset>
   283ac:	8005883a 	mov	r2,r16
   283b0:	dfc00317 	ldw	ra,12(sp)
   283b4:	dc800217 	ldw	r18,8(sp)
   283b8:	dc400117 	ldw	r17,4(sp)
   283bc:	dc000017 	ldw	r16,0(sp)
   283c0:	dec00404 	addi	sp,sp,16
   283c4:	f800283a 	ret

000283c8 <__sfp>:
   283c8:	defffd04 	addi	sp,sp,-12
   283cc:	008000f4 	movhi	r2,3
   283d0:	dc000015 	stw	r16,0(sp)
   283d4:	14190b17 	ldw	r16,25644(r2)
   283d8:	dc400115 	stw	r17,4(sp)
   283dc:	dfc00215 	stw	ra,8(sp)
   283e0:	80800e17 	ldw	r2,56(r16)
   283e4:	2023883a 	mov	r17,r4
   283e8:	10002b26 	beq	r2,zero,28498 <__sfp+0xd0>
   283ec:	8400b804 	addi	r16,r16,736
   283f0:	80c00117 	ldw	r3,4(r16)
   283f4:	80800217 	ldw	r2,8(r16)
   283f8:	18ffffc4 	addi	r3,r3,-1
   283fc:	1800030e 	bge	r3,zero,2840c <__sfp+0x44>
   28400:	00002106 	br	28488 <__sfp+0xc0>
   28404:	10801a04 	addi	r2,r2,104
   28408:	30001f26 	beq	r6,zero,28488 <__sfp+0xc0>
   2840c:	1140030f 	ldh	r5,12(r2)
   28410:	18ffffc4 	addi	r3,r3,-1
   28414:	19bfffd8 	cmpnei	r6,r3,-1
   28418:	283ffa1e 	bne	r5,zero,28404 <__sfp+0x3c>
   2841c:	00fffff4 	movhi	r3,65535
   28420:	18c00044 	addi	r3,r3,1
   28424:	10001915 	stw	zero,100(r2)
   28428:	10000015 	stw	zero,0(r2)
   2842c:	10000115 	stw	zero,4(r2)
   28430:	10000215 	stw	zero,8(r2)
   28434:	10c00315 	stw	r3,12(r2)
   28438:	10000415 	stw	zero,16(r2)
   2843c:	10000515 	stw	zero,20(r2)
   28440:	10000615 	stw	zero,24(r2)
   28444:	10001705 	stb	zero,92(r2)
   28448:	10001745 	stb	zero,93(r2)
   2844c:	10001785 	stb	zero,94(r2)
   28450:	100017c5 	stb	zero,95(r2)
   28454:	10001805 	stb	zero,96(r2)
   28458:	10001845 	stb	zero,97(r2)
   2845c:	10001885 	stb	zero,98(r2)
   28460:	100018c5 	stb	zero,99(r2)
   28464:	10000c15 	stw	zero,48(r2)
   28468:	10000d15 	stw	zero,52(r2)
   2846c:	10001115 	stw	zero,68(r2)
   28470:	10001215 	stw	zero,72(r2)
   28474:	dfc00217 	ldw	ra,8(sp)
   28478:	dc400117 	ldw	r17,4(sp)
   2847c:	dc000017 	ldw	r16,0(sp)
   28480:	dec00304 	addi	sp,sp,12
   28484:	f800283a 	ret
   28488:	80800017 	ldw	r2,0(r16)
   2848c:	10000526 	beq	r2,zero,284a4 <__sfp+0xdc>
   28490:	1021883a 	mov	r16,r2
   28494:	003fd606 	br	283f0 <__sfp+0x28>
   28498:	8009883a 	mov	r4,r16
   2849c:	00281f00 	call	281f0 <__sinit.part.0>
   284a0:	003fd206 	br	283ec <__sfp+0x24>
   284a4:	01400104 	movi	r5,4
   284a8:	8809883a 	mov	r4,r17
   284ac:	00283600 	call	28360 <__sfmoreglue>
   284b0:	80800015 	stw	r2,0(r16)
   284b4:	103ff61e 	bne	r2,zero,28490 <__sfp+0xc8>
   284b8:	00c00304 	movi	r3,12
   284bc:	88c00015 	stw	r3,0(r17)
   284c0:	003fec06 	br	28474 <__sfp+0xac>

000284c4 <_cleanup>:
   284c4:	008000f4 	movhi	r2,3
   284c8:	11190b17 	ldw	r4,25644(r2)
   284cc:	014000f4 	movhi	r5,3
   284d0:	29713804 	addi	r5,r5,-15136
   284d4:	0028f441 	jmpi	28f44 <_fwalk_reent>

000284d8 <__sinit>:
   284d8:	20800e17 	ldw	r2,56(r4)
   284dc:	10000126 	beq	r2,zero,284e4 <__sinit+0xc>
   284e0:	f800283a 	ret
   284e4:	00281f01 	jmpi	281f0 <__sinit.part.0>

000284e8 <__sfp_lock_acquire>:
   284e8:	f800283a 	ret

000284ec <__sfp_lock_release>:
   284ec:	f800283a 	ret

000284f0 <__sinit_lock_acquire>:
   284f0:	f800283a 	ret

000284f4 <__sinit_lock_release>:
   284f4:	f800283a 	ret

000284f8 <__fp_lock_all>:
   284f8:	008000f4 	movhi	r2,3
   284fc:	11190c17 	ldw	r4,25648(r2)
   28500:	014000f4 	movhi	r5,3
   28504:	29607704 	addi	r5,r5,-32292
   28508:	0028eac1 	jmpi	28eac <_fwalk>

0002850c <__fp_unlock_all>:
   2850c:	008000f4 	movhi	r2,3
   28510:	11190c17 	ldw	r4,25648(r2)
   28514:	014000f4 	movhi	r5,3
   28518:	2960d604 	addi	r5,r5,-31912
   2851c:	0028eac1 	jmpi	28eac <_fwalk>

00028520 <__sflags>:
   28520:	28800007 	ldb	r2,0(r5)
   28524:	10c01ca0 	cmpeqi	r3,r2,114
   28528:	1800271e 	bne	r3,zero,285c8 <__sflags+0xa8>
   2852c:	10c01de0 	cmpeqi	r3,r2,119
   28530:	1800061e 	bne	r3,zero,2854c <__sflags+0x2c>
   28534:	10801860 	cmpeqi	r2,r2,97
   28538:	10001f1e 	bne	r2,zero,285b8 <__sflags+0x98>
   2853c:	00800584 	movi	r2,22
   28540:	20800015 	stw	r2,0(r4)
   28544:	0005883a 	mov	r2,zero
   28548:	f800283a 	ret
   2854c:	02018004 	movi	r8,1536
   28550:	01000044 	movi	r4,1
   28554:	00800204 	movi	r2,8
   28558:	28c00047 	ldb	r3,1(r5)
   2855c:	29400044 	addi	r5,r5,1
   28560:	18001226 	beq	r3,zero,285ac <__sflags+0x8c>
   28564:	02bff8c4 	movi	r10,-29
   28568:	027fff04 	movi	r9,-4
   2856c:	00000506 	br	28584 <__sflags+0x64>
   28570:	18000126 	beq	r3,zero,28578 <__sflags+0x58>
   28574:	21020014 	ori	r4,r4,2048
   28578:	28c00047 	ldb	r3,1(r5)
   2857c:	29400044 	addi	r5,r5,1
   28580:	18000a26 	beq	r3,zero,285ac <__sflags+0x8c>
   28584:	19c00ae0 	cmpeqi	r7,r3,43
   28588:	18c01e20 	cmpeqi	r3,r3,120
   2858c:	383ff826 	beq	r7,zero,28570 <__sflags+0x50>
   28590:	28c00047 	ldb	r3,1(r5)
   28594:	1284703a 	and	r2,r2,r10
   28598:	2248703a 	and	r4,r4,r9
   2859c:	10800414 	ori	r2,r2,16
   285a0:	21000094 	ori	r4,r4,2
   285a4:	29400044 	addi	r5,r5,1
   285a8:	183ff61e 	bne	r3,zero,28584 <__sflags+0x64>
   285ac:	4108b03a 	or	r4,r8,r4
   285b0:	31000015 	stw	r4,0(r6)
   285b4:	f800283a 	ret
   285b8:	02008204 	movi	r8,520
   285bc:	01000044 	movi	r4,1
   285c0:	00804204 	movi	r2,264
   285c4:	003fe406 	br	28558 <__sflags+0x38>
   285c8:	0011883a 	mov	r8,zero
   285cc:	0009883a 	mov	r4,zero
   285d0:	00800104 	movi	r2,4
   285d4:	003fe006 	br	28558 <__sflags+0x38>

000285d8 <_malloc_trim_r>:
   285d8:	defffb04 	addi	sp,sp,-20
   285dc:	dcc00315 	stw	r19,12(sp)
   285e0:	04c000f4 	movhi	r19,3
   285e4:	dc800215 	stw	r18,8(sp)
   285e8:	dc400115 	stw	r17,4(sp)
   285ec:	dc000015 	stw	r16,0(sp)
   285f0:	dfc00415 	stw	ra,16(sp)
   285f4:	2821883a 	mov	r16,r5
   285f8:	9cd2f804 	addi	r19,r19,19424
   285fc:	2025883a 	mov	r18,r4
   28600:	00307f40 	call	307f4 <__malloc_lock>
   28604:	98800217 	ldw	r2,8(r19)
   28608:	14400117 	ldw	r17,4(r2)
   2860c:	00bfff04 	movi	r2,-4
   28610:	88a2703a 	and	r17,r17,r2
   28614:	8c21c83a 	sub	r16,r17,r16
   28618:	8403fbc4 	addi	r16,r16,4079
   2861c:	8020d33a 	srli	r16,r16,12
   28620:	843fffc4 	addi	r16,r16,-1
   28624:	8020933a 	slli	r16,r16,12
   28628:	80840008 	cmpgei	r2,r16,4096
   2862c:	10000626 	beq	r2,zero,28648 <_malloc_trim_r+0x70>
   28630:	000b883a 	mov	r5,zero
   28634:	9009883a 	mov	r4,r18
   28638:	0023fe00 	call	23fe0 <_sbrk_r>
   2863c:	98c00217 	ldw	r3,8(r19)
   28640:	1c47883a 	add	r3,r3,r17
   28644:	10c00a26 	beq	r2,r3,28670 <_malloc_trim_r+0x98>
   28648:	9009883a 	mov	r4,r18
   2864c:	00308180 	call	30818 <__malloc_unlock>
   28650:	0005883a 	mov	r2,zero
   28654:	dfc00417 	ldw	ra,16(sp)
   28658:	dcc00317 	ldw	r19,12(sp)
   2865c:	dc800217 	ldw	r18,8(sp)
   28660:	dc400117 	ldw	r17,4(sp)
   28664:	dc000017 	ldw	r16,0(sp)
   28668:	dec00504 	addi	sp,sp,20
   2866c:	f800283a 	ret
   28670:	040bc83a 	sub	r5,zero,r16
   28674:	9009883a 	mov	r4,r18
   28678:	0023fe00 	call	23fe0 <_sbrk_r>
   2867c:	10bfffd8 	cmpnei	r2,r2,-1
   28680:	10000d26 	beq	r2,zero,286b8 <_malloc_trim_r+0xe0>
   28684:	00800134 	movhi	r2,4
   28688:	10a23917 	ldw	r2,-30492(r2)
   2868c:	98c00217 	ldw	r3,8(r19)
   28690:	8c23c83a 	sub	r17,r17,r16
   28694:	8c400054 	ori	r17,r17,1
   28698:	1421c83a 	sub	r16,r2,r16
   2869c:	1c400115 	stw	r17,4(r3)
   286a0:	00800134 	movhi	r2,4
   286a4:	9009883a 	mov	r4,r18
   286a8:	14223915 	stw	r16,-30492(r2)
   286ac:	00308180 	call	30818 <__malloc_unlock>
   286b0:	00800044 	movi	r2,1
   286b4:	003fe706 	br	28654 <_malloc_trim_r+0x7c>
   286b8:	000b883a 	mov	r5,zero
   286bc:	9009883a 	mov	r4,r18
   286c0:	0023fe00 	call	23fe0 <_sbrk_r>
   286c4:	99000217 	ldw	r4,8(r19)
   286c8:	1107c83a 	sub	r3,r2,r4
   286cc:	19400410 	cmplti	r5,r3,16
   286d0:	283fdd1e 	bne	r5,zero,28648 <_malloc_trim_r+0x70>
   286d4:	014000f4 	movhi	r5,3
   286d8:	29590d17 	ldw	r5,25652(r5)
   286dc:	18c00054 	ori	r3,r3,1
   286e0:	20c00115 	stw	r3,4(r4)
   286e4:	1145c83a 	sub	r2,r2,r5
   286e8:	01400134 	movhi	r5,4
   286ec:	28a23915 	stw	r2,-30492(r5)
   286f0:	003fd506 	br	28648 <_malloc_trim_r+0x70>

000286f4 <_free_r>:
   286f4:	28004f26 	beq	r5,zero,28834 <_free_r+0x140>
   286f8:	defffd04 	addi	sp,sp,-12
   286fc:	dc400115 	stw	r17,4(sp)
   28700:	dc000015 	stw	r16,0(sp)
   28704:	2023883a 	mov	r17,r4
   28708:	2821883a 	mov	r16,r5
   2870c:	dfc00215 	stw	ra,8(sp)
   28710:	00307f40 	call	307f4 <__malloc_lock>
   28714:	81ffff17 	ldw	r7,-4(r16)
   28718:	00bfff84 	movi	r2,-2
   2871c:	80fffe04 	addi	r3,r16,-8
   28720:	3884703a 	and	r2,r7,r2
   28724:	010000f4 	movhi	r4,3
   28728:	188d883a 	add	r6,r3,r2
   2872c:	2112f804 	addi	r4,r4,19424
   28730:	31400117 	ldw	r5,4(r6)
   28734:	22000217 	ldw	r8,8(r4)
   28738:	027fff04 	movi	r9,-4
   2873c:	2a4a703a 	and	r5,r5,r9
   28740:	41806426 	beq	r8,r6,288d4 <_free_r+0x1e0>
   28744:	31400115 	stw	r5,4(r6)
   28748:	39c0004c 	andi	r7,r7,1
   2874c:	3151883a 	add	r8,r6,r5
   28750:	3800281e 	bne	r7,zero,287f4 <_free_r+0x100>
   28754:	82bffe17 	ldw	r10,-8(r16)
   28758:	42000117 	ldw	r8,4(r8)
   2875c:	01c000f4 	movhi	r7,3
   28760:	1a87c83a 	sub	r3,r3,r10
   28764:	1a400217 	ldw	r9,8(r3)
   28768:	39d2fa04 	addi	r7,r7,19432
   2876c:	1285883a 	add	r2,r2,r10
   28770:	4200004c 	andi	r8,r8,1
   28774:	49c04c26 	beq	r9,r7,288a8 <_free_r+0x1b4>
   28778:	1a800317 	ldw	r10,12(r3)
   2877c:	4a800315 	stw	r10,12(r9)
   28780:	52400215 	stw	r9,8(r10)
   28784:	40007126 	beq	r8,zero,2894c <_free_r+0x258>
   28788:	11400054 	ori	r5,r2,1
   2878c:	19400115 	stw	r5,4(r3)
   28790:	30800015 	stw	r2,0(r6)
   28794:	11408028 	cmpgeui	r5,r2,512
   28798:	28002c1e 	bne	r5,zero,2884c <_free_r+0x158>
   2879c:	100ad0fa 	srli	r5,r2,3
   287a0:	100cd17a 	srli	r6,r2,5
   287a4:	00800044 	movi	r2,1
   287a8:	29400044 	addi	r5,r5,1
   287ac:	280a90fa 	slli	r5,r5,3
   287b0:	21c00117 	ldw	r7,4(r4)
   287b4:	1184983a 	sll	r2,r2,r6
   287b8:	214b883a 	add	r5,r4,r5
   287bc:	29800017 	ldw	r6,0(r5)
   287c0:	11c4b03a 	or	r2,r2,r7
   287c4:	29fffe04 	addi	r7,r5,-8
   287c8:	19c00315 	stw	r7,12(r3)
   287cc:	19800215 	stw	r6,8(r3)
   287d0:	20800115 	stw	r2,4(r4)
   287d4:	28c00015 	stw	r3,0(r5)
   287d8:	30c00315 	stw	r3,12(r6)
   287dc:	8809883a 	mov	r4,r17
   287e0:	dfc00217 	ldw	ra,8(sp)
   287e4:	dc400117 	ldw	r17,4(sp)
   287e8:	dc000017 	ldw	r16,0(sp)
   287ec:	dec00304 	addi	sp,sp,12
   287f0:	00308181 	jmpi	30818 <__malloc_unlock>
   287f4:	41c00117 	ldw	r7,4(r8)
   287f8:	39c0004c 	andi	r7,r7,1
   287fc:	38000e1e 	bne	r7,zero,28838 <_free_r+0x144>
   28800:	01c000f4 	movhi	r7,3
   28804:	1145883a 	add	r2,r2,r5
   28808:	39d2fa04 	addi	r7,r7,19432
   2880c:	31400217 	ldw	r5,8(r6)
   28810:	12400054 	ori	r9,r2,1
   28814:	1891883a 	add	r8,r3,r2
   28818:	29c05226 	beq	r5,r7,28964 <_free_r+0x270>
   2881c:	31800317 	ldw	r6,12(r6)
   28820:	29800315 	stw	r6,12(r5)
   28824:	31400215 	stw	r5,8(r6)
   28828:	1a400115 	stw	r9,4(r3)
   2882c:	40800015 	stw	r2,0(r8)
   28830:	003fd806 	br	28794 <_free_r+0xa0>
   28834:	f800283a 	ret
   28838:	11400054 	ori	r5,r2,1
   2883c:	817fff15 	stw	r5,-4(r16)
   28840:	30800015 	stw	r2,0(r6)
   28844:	11408028 	cmpgeui	r5,r2,512
   28848:	283fd426 	beq	r5,zero,2879c <_free_r+0xa8>
   2884c:	100ad27a 	srli	r5,r2,9
   28850:	29800168 	cmpgeui	r6,r5,5
   28854:	3000341e 	bne	r6,zero,28928 <_free_r+0x234>
   28858:	100ad1ba 	srli	r5,r2,6
   2885c:	29800e44 	addi	r6,r5,57
   28860:	300c90fa 	slli	r6,r6,3
   28864:	29c00e04 	addi	r7,r5,56
   28868:	218d883a 	add	r6,r4,r6
   2886c:	31400017 	ldw	r5,0(r6)
   28870:	31bffe04 	addi	r6,r6,-8
   28874:	31404226 	beq	r6,r5,28980 <_free_r+0x28c>
   28878:	01ffff04 	movi	r7,-4
   2887c:	29000117 	ldw	r4,4(r5)
   28880:	21c8703a 	and	r4,r4,r7
   28884:	1100022e 	bgeu	r2,r4,28890 <_free_r+0x19c>
   28888:	29400217 	ldw	r5,8(r5)
   2888c:	317ffb1e 	bne	r6,r5,2887c <_free_r+0x188>
   28890:	29800317 	ldw	r6,12(r5)
   28894:	19800315 	stw	r6,12(r3)
   28898:	19400215 	stw	r5,8(r3)
   2889c:	30c00215 	stw	r3,8(r6)
   288a0:	28c00315 	stw	r3,12(r5)
   288a4:	003fcd06 	br	287dc <_free_r+0xe8>
   288a8:	40004d1e 	bne	r8,zero,289e0 <_free_r+0x2ec>
   288ac:	31000317 	ldw	r4,12(r6)
   288b0:	31800217 	ldw	r6,8(r6)
   288b4:	2885883a 	add	r2,r5,r2
   288b8:	11400054 	ori	r5,r2,1
   288bc:	31000315 	stw	r4,12(r6)
   288c0:	21800215 	stw	r6,8(r4)
   288c4:	19400115 	stw	r5,4(r3)
   288c8:	1887883a 	add	r3,r3,r2
   288cc:	18800015 	stw	r2,0(r3)
   288d0:	003fc206 	br	287dc <_free_r+0xe8>
   288d4:	39c0004c 	andi	r7,r7,1
   288d8:	1145883a 	add	r2,r2,r5
   288dc:	3800071e 	bne	r7,zero,288fc <_free_r+0x208>
   288e0:	81fffe17 	ldw	r7,-8(r16)
   288e4:	19c7c83a 	sub	r3,r3,r7
   288e8:	19400317 	ldw	r5,12(r3)
   288ec:	19800217 	ldw	r6,8(r3)
   288f0:	11c5883a 	add	r2,r2,r7
   288f4:	31400315 	stw	r5,12(r6)
   288f8:	29800215 	stw	r6,8(r5)
   288fc:	014000f4 	movhi	r5,3
   28900:	11800054 	ori	r6,r2,1
   28904:	29590e17 	ldw	r5,25656(r5)
   28908:	19800115 	stw	r6,4(r3)
   2890c:	20c00215 	stw	r3,8(r4)
   28910:	117fb236 	bltu	r2,r5,287dc <_free_r+0xe8>
   28914:	00800134 	movhi	r2,4
   28918:	11623017 	ldw	r5,-30528(r2)
   2891c:	8809883a 	mov	r4,r17
   28920:	00285d80 	call	285d8 <_malloc_trim_r>
   28924:	003fad06 	br	287dc <_free_r+0xe8>
   28928:	29800568 	cmpgeui	r6,r5,21
   2892c:	30000926 	beq	r6,zero,28954 <_free_r+0x260>
   28930:	29801568 	cmpgeui	r6,r5,85
   28934:	3000191e 	bne	r6,zero,2899c <_free_r+0x2a8>
   28938:	100ad33a 	srli	r5,r2,12
   2893c:	29801bc4 	addi	r6,r5,111
   28940:	300c90fa 	slli	r6,r6,3
   28944:	29c01b84 	addi	r7,r5,110
   28948:	003fc706 	br	28868 <_free_r+0x174>
   2894c:	1145883a 	add	r2,r2,r5
   28950:	003fae06 	br	2880c <_free_r+0x118>
   28954:	29801704 	addi	r6,r5,92
   28958:	300c90fa 	slli	r6,r6,3
   2895c:	29c016c4 	addi	r7,r5,91
   28960:	003fc106 	br	28868 <_free_r+0x174>
   28964:	20c00515 	stw	r3,20(r4)
   28968:	20c00415 	stw	r3,16(r4)
   2896c:	19c00315 	stw	r7,12(r3)
   28970:	19c00215 	stw	r7,8(r3)
   28974:	1a400115 	stw	r9,4(r3)
   28978:	40800015 	stw	r2,0(r8)
   2897c:	003f9706 	br	287dc <_free_r+0xe8>
   28980:	380fd0ba 	srai	r7,r7,2
   28984:	00800044 	movi	r2,1
   28988:	22000117 	ldw	r8,4(r4)
   2898c:	11ce983a 	sll	r7,r2,r7
   28990:	3a0eb03a 	or	r7,r7,r8
   28994:	21c00115 	stw	r7,4(r4)
   28998:	003fbe06 	br	28894 <_free_r+0x1a0>
   2899c:	29805568 	cmpgeui	r6,r5,341
   289a0:	3000051e 	bne	r6,zero,289b8 <_free_r+0x2c4>
   289a4:	100ad3fa 	srli	r5,r2,15
   289a8:	29801e04 	addi	r6,r5,120
   289ac:	300c90fa 	slli	r6,r6,3
   289b0:	29c01dc4 	addi	r7,r5,119
   289b4:	003fac06 	br	28868 <_free_r+0x174>
   289b8:	29415568 	cmpgeui	r5,r5,1365
   289bc:	2800051e 	bne	r5,zero,289d4 <_free_r+0x2e0>
   289c0:	100ad4ba 	srli	r5,r2,18
   289c4:	29801f44 	addi	r6,r5,125
   289c8:	300c90fa 	slli	r6,r6,3
   289cc:	29c01f04 	addi	r7,r5,124
   289d0:	003fa506 	br	28868 <_free_r+0x174>
   289d4:	0180fe04 	movi	r6,1016
   289d8:	01c01f84 	movi	r7,126
   289dc:	003fa206 	br	28868 <_free_r+0x174>
   289e0:	11000054 	ori	r4,r2,1
   289e4:	19000115 	stw	r4,4(r3)
   289e8:	30800015 	stw	r2,0(r6)
   289ec:	003f7b06 	br	287dc <_free_r+0xe8>

000289f0 <__sfvwrite_r>:
   289f0:	30800217 	ldw	r2,8(r6)
   289f4:	1000c726 	beq	r2,zero,28d14 <__sfvwrite_r+0x324>
   289f8:	29c0030b 	ldhu	r7,12(r5)
   289fc:	defff404 	addi	sp,sp,-48
   28a00:	dd800815 	stw	r22,32(sp)
   28a04:	dd400715 	stw	r21,28(sp)
   28a08:	dc000215 	stw	r16,8(sp)
   28a0c:	dfc00b15 	stw	ra,44(sp)
   28a10:	df000a15 	stw	fp,40(sp)
   28a14:	ddc00915 	stw	r23,36(sp)
   28a18:	dd000615 	stw	r20,24(sp)
   28a1c:	dcc00515 	stw	r19,20(sp)
   28a20:	dc800415 	stw	r18,16(sp)
   28a24:	dc400315 	stw	r17,12(sp)
   28a28:	3880020c 	andi	r2,r7,8
   28a2c:	302d883a 	mov	r22,r6
   28a30:	202b883a 	mov	r21,r4
   28a34:	2821883a 	mov	r16,r5
   28a38:	10002226 	beq	r2,zero,28ac4 <__sfvwrite_r+0xd4>
   28a3c:	28800417 	ldw	r2,16(r5)
   28a40:	10002026 	beq	r2,zero,28ac4 <__sfvwrite_r+0xd4>
   28a44:	3880008c 	andi	r2,r7,2
   28a48:	b4400017 	ldw	r17,0(r22)
   28a4c:	10002526 	beq	r2,zero,28ae4 <__sfvwrite_r+0xf4>
   28a50:	80800917 	ldw	r2,36(r16)
   28a54:	81400717 	ldw	r5,28(r16)
   28a58:	05200034 	movhi	r20,32768
   28a5c:	0027883a 	mov	r19,zero
   28a60:	0025883a 	mov	r18,zero
   28a64:	a53f0004 	addi	r20,r20,-1024
   28a68:	980d883a 	mov	r6,r19
   28a6c:	a809883a 	mov	r4,r21
   28a70:	90001026 	beq	r18,zero,28ab4 <__sfvwrite_r+0xc4>
   28a74:	900f883a 	mov	r7,r18
   28a78:	a480012e 	bgeu	r20,r18,28a80 <__sfvwrite_r+0x90>
   28a7c:	a00f883a 	mov	r7,r20
   28a80:	103ee83a 	callr	r2
   28a84:	00809e0e 	bge	zero,r2,28d00 <__sfvwrite_r+0x310>
   28a88:	b1000217 	ldw	r4,8(r22)
   28a8c:	98a7883a 	add	r19,r19,r2
   28a90:	90a5c83a 	sub	r18,r18,r2
   28a94:	2085c83a 	sub	r2,r4,r2
   28a98:	b0800215 	stw	r2,8(r22)
   28a9c:	10006226 	beq	r2,zero,28c28 <__sfvwrite_r+0x238>
   28aa0:	80800917 	ldw	r2,36(r16)
   28aa4:	81400717 	ldw	r5,28(r16)
   28aa8:	980d883a 	mov	r6,r19
   28aac:	a809883a 	mov	r4,r21
   28ab0:	903ff01e 	bne	r18,zero,28a74 <__sfvwrite_r+0x84>
   28ab4:	8cc00017 	ldw	r19,0(r17)
   28ab8:	8c800117 	ldw	r18,4(r17)
   28abc:	8c400204 	addi	r17,r17,8
   28ac0:	003fe906 	br	28a68 <__sfvwrite_r+0x78>
   28ac4:	800b883a 	mov	r5,r16
   28ac8:	a809883a 	mov	r4,r21
   28acc:	002642c0 	call	2642c <__swsetup_r>
   28ad0:	1000f41e 	bne	r2,zero,28ea4 <__sfvwrite_r+0x4b4>
   28ad4:	81c0030b 	ldhu	r7,12(r16)
   28ad8:	b4400017 	ldw	r17,0(r22)
   28adc:	3880008c 	andi	r2,r7,2
   28ae0:	103fdb1e 	bne	r2,zero,28a50 <__sfvwrite_r+0x60>
   28ae4:	3880004c 	andi	r2,r7,1
   28ae8:	84800217 	ldw	r18,8(r16)
   28aec:	82000017 	ldw	r8,0(r16)
   28af0:	10008a1e 	bne	r2,zero,28d1c <__sfvwrite_r+0x32c>
   28af4:	00a00034 	movhi	r2,32768
   28af8:	10bfff84 	addi	r2,r2,-2
   28afc:	00e00034 	movhi	r3,32768
   28b00:	d8800015 	stw	r2,0(sp)
   28b04:	18bfffc4 	addi	r2,r3,-1
   28b08:	0039883a 	mov	fp,zero
   28b0c:	0027883a 	mov	r19,zero
   28b10:	d8800115 	stw	r2,4(sp)
   28b14:	98004026 	beq	r19,zero,28c18 <__sfvwrite_r+0x228>
   28b18:	3880800c 	andi	r2,r7,512
   28b1c:	10009226 	beq	r2,zero,28d68 <__sfvwrite_r+0x378>
   28b20:	902f883a 	mov	r23,r18
   28b24:	9c80b636 	bltu	r19,r18,28e00 <__sfvwrite_r+0x410>
   28b28:	3881200c 	andi	r2,r7,1152
   28b2c:	10002526 	beq	r2,zero,28bc4 <__sfvwrite_r+0x1d4>
   28b30:	81000517 	ldw	r4,20(r16)
   28b34:	81400417 	ldw	r5,16(r16)
   28b38:	98800044 	addi	r2,r19,1
   28b3c:	210000e4 	muli	r4,r4,3
   28b40:	4165c83a 	sub	r18,r8,r5
   28b44:	1485883a 	add	r2,r2,r18
   28b48:	2028d7fa 	srli	r20,r4,31
   28b4c:	a109883a 	add	r4,r20,r4
   28b50:	2029d07a 	srai	r20,r4,1
   28b54:	a00d883a 	mov	r6,r20
   28b58:	a080022e 	bgeu	r20,r2,28b64 <__sfvwrite_r+0x174>
   28b5c:	1029883a 	mov	r20,r2
   28b60:	100d883a 	mov	r6,r2
   28b64:	39c1000c 	andi	r7,r7,1024
   28b68:	3800be26 	beq	r7,zero,28e64 <__sfvwrite_r+0x474>
   28b6c:	a809883a 	mov	r4,r21
   28b70:	300b883a 	mov	r5,r6
   28b74:	00233600 	call	23360 <_malloc_r>
   28b78:	1009883a 	mov	r4,r2
   28b7c:	1000c526 	beq	r2,zero,28e94 <__sfvwrite_r+0x4a4>
   28b80:	81400417 	ldw	r5,16(r16)
   28b84:	900d883a 	mov	r6,r18
   28b88:	00292a80 	call	292a8 <memcpy>
   28b8c:	1009883a 	mov	r4,r2
   28b90:	8080030b 	ldhu	r2,12(r16)
   28b94:	00fedfc4 	movi	r3,-1153
   28b98:	10c4703a 	and	r2,r2,r3
   28b9c:	10802014 	ori	r2,r2,128
   28ba0:	8080030d 	sth	r2,12(r16)
   28ba4:	2491883a 	add	r8,r4,r18
   28ba8:	a485c83a 	sub	r2,r20,r18
   28bac:	81000415 	stw	r4,16(r16)
   28bb0:	82000015 	stw	r8,0(r16)
   28bb4:	85000515 	stw	r20,20(r16)
   28bb8:	9825883a 	mov	r18,r19
   28bbc:	80800215 	stw	r2,8(r16)
   28bc0:	982f883a 	mov	r23,r19
   28bc4:	4009883a 	mov	r4,r8
   28bc8:	b80d883a 	mov	r6,r23
   28bcc:	e00b883a 	mov	r5,fp
   28bd0:	00293a80 	call	293a8 <memmove>
   28bd4:	81000217 	ldw	r4,8(r16)
   28bd8:	80800017 	ldw	r2,0(r16)
   28bdc:	9829883a 	mov	r20,r19
   28be0:	24a5c83a 	sub	r18,r4,r18
   28be4:	15c5883a 	add	r2,r2,r23
   28be8:	84800215 	stw	r18,8(r16)
   28bec:	80800015 	stw	r2,0(r16)
   28bf0:	0027883a 	mov	r19,zero
   28bf4:	b0800217 	ldw	r2,8(r22)
   28bf8:	e539883a 	add	fp,fp,r20
   28bfc:	1529c83a 	sub	r20,r2,r20
   28c00:	b5000215 	stw	r20,8(r22)
   28c04:	a0000826 	beq	r20,zero,28c28 <__sfvwrite_r+0x238>
   28c08:	81c0030b 	ldhu	r7,12(r16)
   28c0c:	84800217 	ldw	r18,8(r16)
   28c10:	82000017 	ldw	r8,0(r16)
   28c14:	983fc01e 	bne	r19,zero,28b18 <__sfvwrite_r+0x128>
   28c18:	8f000017 	ldw	fp,0(r17)
   28c1c:	8cc00117 	ldw	r19,4(r17)
   28c20:	8c400204 	addi	r17,r17,8
   28c24:	003fbb06 	br	28b14 <__sfvwrite_r+0x124>
   28c28:	0005883a 	mov	r2,zero
   28c2c:	dfc00b17 	ldw	ra,44(sp)
   28c30:	df000a17 	ldw	fp,40(sp)
   28c34:	ddc00917 	ldw	r23,36(sp)
   28c38:	dd800817 	ldw	r22,32(sp)
   28c3c:	dd400717 	ldw	r21,28(sp)
   28c40:	dd000617 	ldw	r20,24(sp)
   28c44:	dcc00517 	ldw	r19,20(sp)
   28c48:	dc800417 	ldw	r18,16(sp)
   28c4c:	dc400317 	ldw	r17,12(sp)
   28c50:	dc000217 	ldw	r16,8(sp)
   28c54:	dec00c04 	addi	sp,sp,48
   28c58:	f800283a 	ret
   28c5c:	e1c07016 	blt	fp,r7,28e20 <__sfvwrite_r+0x430>
   28c60:	80800917 	ldw	r2,36(r16)
   28c64:	81400717 	ldw	r5,28(r16)
   28c68:	b80d883a 	mov	r6,r23
   28c6c:	a809883a 	mov	r4,r21
   28c70:	103ee83a 	callr	r2
   28c74:	1025883a 	mov	r18,r2
   28c78:	0080210e 	bge	zero,r2,28d00 <__sfvwrite_r+0x310>
   28c7c:	a4a9c83a 	sub	r20,r20,r18
   28c80:	a0006226 	beq	r20,zero,28e0c <__sfvwrite_r+0x41c>
   28c84:	00800044 	movi	r2,1
   28c88:	b1800217 	ldw	r6,8(r22)
   28c8c:	bcaf883a 	add	r23,r23,r18
   28c90:	9ca7c83a 	sub	r19,r19,r18
   28c94:	34a5c83a 	sub	r18,r6,r18
   28c98:	b4800215 	stw	r18,8(r22)
   28c9c:	903fe226 	beq	r18,zero,28c28 <__sfvwrite_r+0x238>
   28ca0:	84800217 	ldw	r18,8(r16)
   28ca4:	82000017 	ldw	r8,0(r16)
   28ca8:	98002126 	beq	r19,zero,28d30 <__sfvwrite_r+0x340>
   28cac:	10002426 	beq	r2,zero,28d40 <__sfvwrite_r+0x350>
   28cb0:	a005883a 	mov	r2,r20
   28cb4:	9839883a 	mov	fp,r19
   28cb8:	14c0012e 	bgeu	r2,r19,28cc0 <__sfvwrite_r+0x2d0>
   28cbc:	1039883a 	mov	fp,r2
   28cc0:	80800417 	ldw	r2,16(r16)
   28cc4:	81c00517 	ldw	r7,20(r16)
   28cc8:	123fe42e 	bgeu	r2,r8,28c5c <__sfvwrite_r+0x26c>
   28ccc:	3ca5883a 	add	r18,r7,r18
   28cd0:	973fe20e 	bge	r18,fp,28c5c <__sfvwrite_r+0x26c>
   28cd4:	b80b883a 	mov	r5,r23
   28cd8:	4009883a 	mov	r4,r8
   28cdc:	900d883a 	mov	r6,r18
   28ce0:	00293a80 	call	293a8 <memmove>
   28ce4:	80800017 	ldw	r2,0(r16)
   28ce8:	800b883a 	mov	r5,r16
   28cec:	a809883a 	mov	r4,r21
   28cf0:	1485883a 	add	r2,r2,r18
   28cf4:	80800015 	stw	r2,0(r16)
   28cf8:	00281540 	call	28154 <_fflush_r>
   28cfc:	103fdf26 	beq	r2,zero,28c7c <__sfvwrite_r+0x28c>
   28d00:	8080030b 	ldhu	r2,12(r16)
   28d04:	10801014 	ori	r2,r2,64
   28d08:	8080030d 	sth	r2,12(r16)
   28d0c:	00bfffc4 	movi	r2,-1
   28d10:	003fc606 	br	28c2c <__sfvwrite_r+0x23c>
   28d14:	0005883a 	mov	r2,zero
   28d18:	f800283a 	ret
   28d1c:	0027883a 	mov	r19,zero
   28d20:	0029883a 	mov	r20,zero
   28d24:	0005883a 	mov	r2,zero
   28d28:	002f883a 	mov	r23,zero
   28d2c:	983fdf1e 	bne	r19,zero,28cac <__sfvwrite_r+0x2bc>
   28d30:	8cc00117 	ldw	r19,4(r17)
   28d34:	8dc00017 	ldw	r23,0(r17)
   28d38:	8c400204 	addi	r17,r17,8
   28d3c:	983ffc26 	beq	r19,zero,28d30 <__sfvwrite_r+0x340>
   28d40:	980d883a 	mov	r6,r19
   28d44:	01400284 	movi	r5,10
   28d48:	b809883a 	mov	r4,r23
   28d4c:	da000015 	stw	r8,0(sp)
   28d50:	00291d40 	call	291d4 <memchr>
   28d54:	da000017 	ldw	r8,0(sp)
   28d58:	10003f26 	beq	r2,zero,28e58 <__sfvwrite_r+0x468>
   28d5c:	10800044 	addi	r2,r2,1
   28d60:	15e9c83a 	sub	r20,r2,r23
   28d64:	003fd206 	br	28cb0 <__sfvwrite_r+0x2c0>
   28d68:	80800417 	ldw	r2,16(r16)
   28d6c:	12001136 	bltu	r2,r8,28db4 <__sfvwrite_r+0x3c4>
   28d70:	85000517 	ldw	r20,20(r16)
   28d74:	9d000f36 	bltu	r19,r20,28db4 <__sfvwrite_r+0x3c4>
   28d78:	d8800017 	ldw	r2,0(sp)
   28d7c:	14c0342e 	bgeu	r2,r19,28e50 <__sfvwrite_r+0x460>
   28d80:	d9000117 	ldw	r4,4(sp)
   28d84:	a00b883a 	mov	r5,r20
   28d88:	00228ac0 	call	228ac <__divsi3>
   28d8c:	150f383a 	mul	r7,r2,r20
   28d90:	82000917 	ldw	r8,36(r16)
   28d94:	81400717 	ldw	r5,28(r16)
   28d98:	e00d883a 	mov	r6,fp
   28d9c:	a809883a 	mov	r4,r21
   28da0:	403ee83a 	callr	r8
   28da4:	1029883a 	mov	r20,r2
   28da8:	00bfd50e 	bge	zero,r2,28d00 <__sfvwrite_r+0x310>
   28dac:	9d27c83a 	sub	r19,r19,r20
   28db0:	003f9006 	br	28bf4 <__sfvwrite_r+0x204>
   28db4:	9029883a 	mov	r20,r18
   28db8:	9c80012e 	bgeu	r19,r18,28dc0 <__sfvwrite_r+0x3d0>
   28dbc:	9829883a 	mov	r20,r19
   28dc0:	4009883a 	mov	r4,r8
   28dc4:	a00d883a 	mov	r6,r20
   28dc8:	e00b883a 	mov	r5,fp
   28dcc:	00293a80 	call	293a8 <memmove>
   28dd0:	80800217 	ldw	r2,8(r16)
   28dd4:	81000017 	ldw	r4,0(r16)
   28dd8:	1505c83a 	sub	r2,r2,r20
   28ddc:	2509883a 	add	r4,r4,r20
   28de0:	80800215 	stw	r2,8(r16)
   28de4:	81000015 	stw	r4,0(r16)
   28de8:	103ff01e 	bne	r2,zero,28dac <__sfvwrite_r+0x3bc>
   28dec:	800b883a 	mov	r5,r16
   28df0:	a809883a 	mov	r4,r21
   28df4:	00281540 	call	28154 <_fflush_r>
   28df8:	103fec26 	beq	r2,zero,28dac <__sfvwrite_r+0x3bc>
   28dfc:	003fc006 	br	28d00 <__sfvwrite_r+0x310>
   28e00:	9825883a 	mov	r18,r19
   28e04:	982f883a 	mov	r23,r19
   28e08:	003f6e06 	br	28bc4 <__sfvwrite_r+0x1d4>
   28e0c:	800b883a 	mov	r5,r16
   28e10:	a809883a 	mov	r4,r21
   28e14:	00281540 	call	28154 <_fflush_r>
   28e18:	103f9b26 	beq	r2,zero,28c88 <__sfvwrite_r+0x298>
   28e1c:	003fb806 	br	28d00 <__sfvwrite_r+0x310>
   28e20:	e00d883a 	mov	r6,fp
   28e24:	b80b883a 	mov	r5,r23
   28e28:	4009883a 	mov	r4,r8
   28e2c:	00293a80 	call	293a8 <memmove>
   28e30:	80800217 	ldw	r2,8(r16)
   28e34:	81800017 	ldw	r6,0(r16)
   28e38:	e025883a 	mov	r18,fp
   28e3c:	1705c83a 	sub	r2,r2,fp
   28e40:	370d883a 	add	r6,r6,fp
   28e44:	80800215 	stw	r2,8(r16)
   28e48:	81800015 	stw	r6,0(r16)
   28e4c:	003f8b06 	br	28c7c <__sfvwrite_r+0x28c>
   28e50:	9809883a 	mov	r4,r19
   28e54:	003fcb06 	br	28d84 <__sfvwrite_r+0x394>
   28e58:	98800044 	addi	r2,r19,1
   28e5c:	1029883a 	mov	r20,r2
   28e60:	003f9406 	br	28cb4 <__sfvwrite_r+0x2c4>
   28e64:	a809883a 	mov	r4,r21
   28e68:	002a7800 	call	2a780 <_realloc_r>
   28e6c:	1009883a 	mov	r4,r2
   28e70:	103f4c1e 	bne	r2,zero,28ba4 <__sfvwrite_r+0x1b4>
   28e74:	81400417 	ldw	r5,16(r16)
   28e78:	a809883a 	mov	r4,r21
   28e7c:	00286f40 	call	286f4 <_free_r>
   28e80:	8080030b 	ldhu	r2,12(r16)
   28e84:	00c00304 	movi	r3,12
   28e88:	a8c00015 	stw	r3,0(r21)
   28e8c:	10bfdfcc 	andi	r2,r2,65407
   28e90:	003f9c06 	br	28d04 <__sfvwrite_r+0x314>
   28e94:	00c00304 	movi	r3,12
   28e98:	8080030b 	ldhu	r2,12(r16)
   28e9c:	a8c00015 	stw	r3,0(r21)
   28ea0:	003f9806 	br	28d04 <__sfvwrite_r+0x314>
   28ea4:	00bfffc4 	movi	r2,-1
   28ea8:	003f6006 	br	28c2c <__sfvwrite_r+0x23c>

00028eac <_fwalk>:
   28eac:	defffa04 	addi	sp,sp,-24
   28eb0:	dd000415 	stw	r20,16(sp)
   28eb4:	dcc00315 	stw	r19,12(sp)
   28eb8:	dc800215 	stw	r18,8(sp)
   28ebc:	dfc00515 	stw	ra,20(sp)
   28ec0:	dc400115 	stw	r17,4(sp)
   28ec4:	dc000015 	stw	r16,0(sp)
   28ec8:	2827883a 	mov	r19,r5
   28ecc:	2480b804 	addi	r18,r4,736
   28ed0:	0029883a 	mov	r20,zero
   28ed4:	94400117 	ldw	r17,4(r18)
   28ed8:	94000217 	ldw	r16,8(r18)
   28edc:	8c7fffc4 	addi	r17,r17,-1
   28ee0:	88000d16 	blt	r17,zero,28f18 <_fwalk+0x6c>
   28ee4:	8080030b 	ldhu	r2,12(r16)
   28ee8:	8c7fffc4 	addi	r17,r17,-1
   28eec:	108000b0 	cmpltui	r2,r2,2
   28ef0:	1000061e 	bne	r2,zero,28f0c <_fwalk+0x60>
   28ef4:	8080038f 	ldh	r2,14(r16)
   28ef8:	8009883a 	mov	r4,r16
   28efc:	10bfffe0 	cmpeqi	r2,r2,-1
   28f00:	1000021e 	bne	r2,zero,28f0c <_fwalk+0x60>
   28f04:	983ee83a 	callr	r19
   28f08:	a0a8b03a 	or	r20,r20,r2
   28f0c:	88bfffd8 	cmpnei	r2,r17,-1
   28f10:	84001a04 	addi	r16,r16,104
   28f14:	103ff31e 	bne	r2,zero,28ee4 <_fwalk+0x38>
   28f18:	94800017 	ldw	r18,0(r18)
   28f1c:	903fed1e 	bne	r18,zero,28ed4 <_fwalk+0x28>
   28f20:	a005883a 	mov	r2,r20
   28f24:	dfc00517 	ldw	ra,20(sp)
   28f28:	dd000417 	ldw	r20,16(sp)
   28f2c:	dcc00317 	ldw	r19,12(sp)
   28f30:	dc800217 	ldw	r18,8(sp)
   28f34:	dc400117 	ldw	r17,4(sp)
   28f38:	dc000017 	ldw	r16,0(sp)
   28f3c:	dec00604 	addi	sp,sp,24
   28f40:	f800283a 	ret

00028f44 <_fwalk_reent>:
   28f44:	defff904 	addi	sp,sp,-28
   28f48:	dd400515 	stw	r21,20(sp)
   28f4c:	dd000415 	stw	r20,16(sp)
   28f50:	dcc00315 	stw	r19,12(sp)
   28f54:	dc800215 	stw	r18,8(sp)
   28f58:	dfc00615 	stw	ra,24(sp)
   28f5c:	dc400115 	stw	r17,4(sp)
   28f60:	dc000015 	stw	r16,0(sp)
   28f64:	202b883a 	mov	r21,r4
   28f68:	2827883a 	mov	r19,r5
   28f6c:	2480b804 	addi	r18,r4,736
   28f70:	0029883a 	mov	r20,zero
   28f74:	94400117 	ldw	r17,4(r18)
   28f78:	94000217 	ldw	r16,8(r18)
   28f7c:	8c7fffc4 	addi	r17,r17,-1
   28f80:	88000e16 	blt	r17,zero,28fbc <_fwalk_reent+0x78>
   28f84:	8080030b 	ldhu	r2,12(r16)
   28f88:	8c7fffc4 	addi	r17,r17,-1
   28f8c:	108000b0 	cmpltui	r2,r2,2
   28f90:	1000071e 	bne	r2,zero,28fb0 <_fwalk_reent+0x6c>
   28f94:	8080038f 	ldh	r2,14(r16)
   28f98:	800b883a 	mov	r5,r16
   28f9c:	a809883a 	mov	r4,r21
   28fa0:	10bfffe0 	cmpeqi	r2,r2,-1
   28fa4:	1000021e 	bne	r2,zero,28fb0 <_fwalk_reent+0x6c>
   28fa8:	983ee83a 	callr	r19
   28fac:	a0a8b03a 	or	r20,r20,r2
   28fb0:	88bfffd8 	cmpnei	r2,r17,-1
   28fb4:	84001a04 	addi	r16,r16,104
   28fb8:	103ff21e 	bne	r2,zero,28f84 <_fwalk_reent+0x40>
   28fbc:	94800017 	ldw	r18,0(r18)
   28fc0:	903fec1e 	bne	r18,zero,28f74 <_fwalk_reent+0x30>
   28fc4:	a005883a 	mov	r2,r20
   28fc8:	dfc00617 	ldw	ra,24(sp)
   28fcc:	dd400517 	ldw	r21,20(sp)
   28fd0:	dd000417 	ldw	r20,16(sp)
   28fd4:	dcc00317 	ldw	r19,12(sp)
   28fd8:	dc800217 	ldw	r18,8(sp)
   28fdc:	dc400117 	ldw	r17,4(sp)
   28fe0:	dc000017 	ldw	r16,0(sp)
   28fe4:	dec00704 	addi	sp,sp,28
   28fe8:	f800283a 	ret

00028fec <_getc_r>:
   28fec:	defffd04 	addi	sp,sp,-12
   28ff0:	dc000115 	stw	r16,4(sp)
   28ff4:	dfc00215 	stw	ra,8(sp)
   28ff8:	2021883a 	mov	r16,r4
   28ffc:	20000226 	beq	r4,zero,29008 <_getc_r+0x1c>
   29000:	20800e17 	ldw	r2,56(r4)
   29004:	10000c26 	beq	r2,zero,29038 <_getc_r+0x4c>
   29008:	28800117 	ldw	r2,4(r5)
   2900c:	10bfffc4 	addi	r2,r2,-1
   29010:	28800115 	stw	r2,4(r5)
   29014:	10000f16 	blt	r2,zero,29054 <_getc_r+0x68>
   29018:	28800017 	ldw	r2,0(r5)
   2901c:	10c00044 	addi	r3,r2,1
   29020:	28c00015 	stw	r3,0(r5)
   29024:	10800003 	ldbu	r2,0(r2)
   29028:	dfc00217 	ldw	ra,8(sp)
   2902c:	dc000117 	ldw	r16,4(sp)
   29030:	dec00304 	addi	sp,sp,12
   29034:	f800283a 	ret
   29038:	d9400015 	stw	r5,0(sp)
   2903c:	00284d80 	call	284d8 <__sinit>
   29040:	d9400017 	ldw	r5,0(sp)
   29044:	28800117 	ldw	r2,4(r5)
   29048:	10bfffc4 	addi	r2,r2,-1
   2904c:	28800115 	stw	r2,4(r5)
   29050:	103ff10e 	bge	r2,zero,29018 <_getc_r+0x2c>
   29054:	8009883a 	mov	r4,r16
   29058:	dfc00217 	ldw	ra,8(sp)
   2905c:	dc000117 	ldw	r16,4(sp)
   29060:	dec00304 	addi	sp,sp,12
   29064:	002ace41 	jmpi	2ace4 <__srget_r>

00029068 <getc>:
   29068:	defffd04 	addi	sp,sp,-12
   2906c:	008000f4 	movhi	r2,3
   29070:	dc400115 	stw	r17,4(sp)
   29074:	14590c17 	ldw	r17,25648(r2)
   29078:	dc000015 	stw	r16,0(sp)
   2907c:	dfc00215 	stw	ra,8(sp)
   29080:	2021883a 	mov	r16,r4
   29084:	88000226 	beq	r17,zero,29090 <getc+0x28>
   29088:	88800e17 	ldw	r2,56(r17)
   2908c:	10000d26 	beq	r2,zero,290c4 <getc+0x5c>
   29090:	80800117 	ldw	r2,4(r16)
   29094:	10bfffc4 	addi	r2,r2,-1
   29098:	80800115 	stw	r2,4(r16)
   2909c:	10000f16 	blt	r2,zero,290dc <getc+0x74>
   290a0:	80800017 	ldw	r2,0(r16)
   290a4:	10c00044 	addi	r3,r2,1
   290a8:	80c00015 	stw	r3,0(r16)
   290ac:	10800003 	ldbu	r2,0(r2)
   290b0:	dfc00217 	ldw	ra,8(sp)
   290b4:	dc400117 	ldw	r17,4(sp)
   290b8:	dc000017 	ldw	r16,0(sp)
   290bc:	dec00304 	addi	sp,sp,12
   290c0:	f800283a 	ret
   290c4:	8809883a 	mov	r4,r17
   290c8:	00284d80 	call	284d8 <__sinit>
   290cc:	80800117 	ldw	r2,4(r16)
   290d0:	10bfffc4 	addi	r2,r2,-1
   290d4:	80800115 	stw	r2,4(r16)
   290d8:	103ff10e 	bge	r2,zero,290a0 <getc+0x38>
   290dc:	800b883a 	mov	r5,r16
   290e0:	8809883a 	mov	r4,r17
   290e4:	dfc00217 	ldw	ra,8(sp)
   290e8:	dc400117 	ldw	r17,4(sp)
   290ec:	dc000017 	ldw	r16,0(sp)
   290f0:	dec00304 	addi	sp,sp,12
   290f4:	002ace41 	jmpi	2ace4 <__srget_r>

000290f8 <_isatty_r>:
   290f8:	defffe04 	addi	sp,sp,-8
   290fc:	dc000015 	stw	r16,0(sp)
   29100:	00800134 	movhi	r2,4
   29104:	2021883a 	mov	r16,r4
   29108:	2809883a 	mov	r4,r5
   2910c:	dfc00115 	stw	ra,4(sp)
   29110:	10222d15 	stw	zero,-30540(r2)
   29114:	00303700 	call	30370 <isatty>
   29118:	10ffffd8 	cmpnei	r3,r2,-1
   2911c:	18000426 	beq	r3,zero,29130 <_isatty_r+0x38>
   29120:	dfc00117 	ldw	ra,4(sp)
   29124:	dc000017 	ldw	r16,0(sp)
   29128:	dec00204 	addi	sp,sp,8
   2912c:	f800283a 	ret
   29130:	00c00134 	movhi	r3,4
   29134:	18e22d17 	ldw	r3,-30540(r3)
   29138:	183ff926 	beq	r3,zero,29120 <_isatty_r+0x28>
   2913c:	80c00015 	stw	r3,0(r16)
   29140:	dfc00117 	ldw	ra,4(sp)
   29144:	dc000017 	ldw	r16,0(sp)
   29148:	dec00204 	addi	sp,sp,8
   2914c:	f800283a 	ret

00029150 <__localeconv_l>:
   29150:	20803c04 	addi	r2,r4,240
   29154:	f800283a 	ret

00029158 <_localeconv_r>:
   29158:	008000f4 	movhi	r2,3
   2915c:	10943604 	addi	r2,r2,20696
   29160:	f800283a 	ret

00029164 <localeconv>:
   29164:	008000f4 	movhi	r2,3
   29168:	10943604 	addi	r2,r2,20696
   2916c:	f800283a 	ret

00029170 <_lseek_r>:
   29170:	2807883a 	mov	r3,r5
   29174:	defffe04 	addi	sp,sp,-8
   29178:	dc000015 	stw	r16,0(sp)
   2917c:	300b883a 	mov	r5,r6
   29180:	00800134 	movhi	r2,4
   29184:	380d883a 	mov	r6,r7
   29188:	2021883a 	mov	r16,r4
   2918c:	1809883a 	mov	r4,r3
   29190:	dfc00115 	stw	ra,4(sp)
   29194:	10222d15 	stw	zero,-30540(r2)
   29198:	00306a40 	call	306a4 <lseek>
   2919c:	10ffffd8 	cmpnei	r3,r2,-1
   291a0:	18000426 	beq	r3,zero,291b4 <_lseek_r+0x44>
   291a4:	dfc00117 	ldw	ra,4(sp)
   291a8:	dc000017 	ldw	r16,0(sp)
   291ac:	dec00204 	addi	sp,sp,8
   291b0:	f800283a 	ret
   291b4:	00c00134 	movhi	r3,4
   291b8:	18e22d17 	ldw	r3,-30540(r3)
   291bc:	183ff926 	beq	r3,zero,291a4 <_lseek_r+0x34>
   291c0:	80c00015 	stw	r3,0(r16)
   291c4:	dfc00117 	ldw	ra,4(sp)
   291c8:	dc000017 	ldw	r16,0(sp)
   291cc:	dec00204 	addi	sp,sp,8
   291d0:	f800283a 	ret

000291d4 <memchr>:
   291d4:	208000cc 	andi	r2,r4,3
   291d8:	280f883a 	mov	r7,r5
   291dc:	10000e26 	beq	r2,zero,29218 <memchr+0x44>
   291e0:	30bfffc4 	addi	r2,r6,-1
   291e4:	30001726 	beq	r6,zero,29244 <memchr+0x70>
   291e8:	29803fcc 	andi	r6,r5,255
   291ec:	00000606 	br	29208 <memchr+0x34>
   291f0:	21000044 	addi	r4,r4,1
   291f4:	20c000cc 	andi	r3,r4,3
   291f8:	18000826 	beq	r3,zero,2921c <memchr+0x48>
   291fc:	10bfffc4 	addi	r2,r2,-1
   29200:	10ffffe0 	cmpeqi	r3,r2,-1
   29204:	18000f1e 	bne	r3,zero,29244 <memchr+0x70>
   29208:	20c00003 	ldbu	r3,0(r4)
   2920c:	19bff81e 	bne	r3,r6,291f0 <memchr+0x1c>
   29210:	2005883a 	mov	r2,r4
   29214:	f800283a 	ret
   29218:	3005883a 	mov	r2,r6
   2921c:	10c00128 	cmpgeui	r3,r2,4
   29220:	18000a1e 	bne	r3,zero,2924c <memchr+0x78>
   29224:	10001f26 	beq	r2,zero,292a4 <memchr+0xd0>
   29228:	2087883a 	add	r3,r4,r2
   2922c:	39803fcc 	andi	r6,r7,255
   29230:	2005883a 	mov	r2,r4
   29234:	11000003 	ldbu	r4,0(r2)
   29238:	21bff626 	beq	r4,r6,29214 <memchr+0x40>
   2923c:	10800044 	addi	r2,r2,1
   29240:	18bffc1e 	bne	r3,r2,29234 <memchr+0x60>
   29244:	0005883a 	mov	r2,zero
   29248:	f800283a 	ret
   2924c:	2810923a 	slli	r8,r5,8
   29250:	29403fcc 	andi	r5,r5,255
   29254:	027fbff4 	movhi	r9,65279
   29258:	423fffcc 	andi	r8,r8,65535
   2925c:	414ab03a 	or	r5,r8,r5
   29260:	2810943a 	slli	r8,r5,16
   29264:	01a02074 	movhi	r6,32897
   29268:	4a7fbfc4 	addi	r9,r9,-257
   2926c:	4150b03a 	or	r8,r8,r5
   29270:	31a02004 	addi	r6,r6,-32640
   29274:	20c00017 	ldw	r3,0(r4)
   29278:	40c6f03a 	xor	r3,r8,r3
   2927c:	1a4b883a 	add	r5,r3,r9
   29280:	00c6303a 	nor	r3,zero,r3
   29284:	28c6703a 	and	r3,r5,r3
   29288:	1986703a 	and	r3,r3,r6
   2928c:	183fe61e 	bne	r3,zero,29228 <memchr+0x54>
   29290:	10bfff04 	addi	r2,r2,-4
   29294:	10c00128 	cmpgeui	r3,r2,4
   29298:	21000104 	addi	r4,r4,4
   2929c:	183ff51e 	bne	r3,zero,29274 <memchr+0xa0>
   292a0:	003fe006 	br	29224 <memchr+0x50>
   292a4:	f800283a 	ret

000292a8 <memcpy>:
   292a8:	30c00430 	cmpltui	r3,r6,16
   292ac:	2005883a 	mov	r2,r4
   292b0:	18002d1e 	bne	r3,zero,29368 <memcpy+0xc0>
   292b4:	2906b03a 	or	r3,r5,r4
   292b8:	18c000cc 	andi	r3,r3,3
   292bc:	1800351e 	bne	r3,zero,29394 <memcpy+0xec>
   292c0:	32fffc04 	addi	r11,r6,-16
   292c4:	5816d13a 	srli	r11,r11,4
   292c8:	280f883a 	mov	r7,r5
   292cc:	2007883a 	mov	r3,r4
   292d0:	5ac00044 	addi	r11,r11,1
   292d4:	5816913a 	slli	r11,r11,4
   292d8:	22d5883a 	add	r10,r4,r11
   292dc:	39000117 	ldw	r4,4(r7)
   292e0:	3a400017 	ldw	r9,0(r7)
   292e4:	3a000217 	ldw	r8,8(r7)
   292e8:	19000115 	stw	r4,4(r3)
   292ec:	39000317 	ldw	r4,12(r7)
   292f0:	1a400015 	stw	r9,0(r3)
   292f4:	1a000215 	stw	r8,8(r3)
   292f8:	19000315 	stw	r4,12(r3)
   292fc:	18c00404 	addi	r3,r3,16
   29300:	39c00404 	addi	r7,r7,16
   29304:	50fff51e 	bne	r10,r3,292dc <memcpy+0x34>
   29308:	3100030c 	andi	r4,r6,12
   2930c:	2acb883a 	add	r5,r5,r11
   29310:	320003cc 	andi	r8,r6,15
   29314:	20002226 	beq	r4,zero,293a0 <memcpy+0xf8>
   29318:	280f883a 	mov	r7,r5
   2931c:	1813883a 	mov	r9,r3
   29320:	39c00104 	addi	r7,r7,4
   29324:	3abfff17 	ldw	r10,-4(r7)
   29328:	41c9c83a 	sub	r4,r8,r7
   2932c:	2909883a 	add	r4,r5,r4
   29330:	4a800015 	stw	r10,0(r9)
   29334:	21000128 	cmpgeui	r4,r4,4
   29338:	4a400104 	addi	r9,r9,4
   2933c:	203ff81e 	bne	r4,zero,29320 <memcpy+0x78>
   29340:	413fff04 	addi	r4,r8,-4
   29344:	2008d0ba 	srli	r4,r4,2
   29348:	318000cc 	andi	r6,r6,3
   2934c:	31ffffc4 	addi	r7,r6,-1
   29350:	21000044 	addi	r4,r4,1
   29354:	200890ba 	slli	r4,r4,2
   29358:	1907883a 	add	r3,r3,r4
   2935c:	290b883a 	add	r5,r5,r4
   29360:	3000041e 	bne	r6,zero,29374 <memcpy+0xcc>
   29364:	f800283a 	ret
   29368:	2007883a 	mov	r3,r4
   2936c:	31ffffc4 	addi	r7,r6,-1
   29370:	303ffc26 	beq	r6,zero,29364 <memcpy+0xbc>
   29374:	39c00044 	addi	r7,r7,1
   29378:	19cf883a 	add	r7,r3,r7
   2937c:	29800003 	ldbu	r6,0(r5)
   29380:	18c00044 	addi	r3,r3,1
   29384:	29400044 	addi	r5,r5,1
   29388:	19bfffc5 	stb	r6,-1(r3)
   2938c:	38fffb1e 	bne	r7,r3,2937c <memcpy+0xd4>
   29390:	f800283a 	ret
   29394:	31ffffc4 	addi	r7,r6,-1
   29398:	2007883a 	mov	r3,r4
   2939c:	003ff506 	br	29374 <memcpy+0xcc>
   293a0:	400d883a 	mov	r6,r8
   293a4:	003ff106 	br	2936c <memcpy+0xc4>

000293a8 <memmove>:
   293a8:	2005883a 	mov	r2,r4
   293ac:	29000a2e 	bgeu	r5,r4,293d8 <memmove+0x30>
   293b0:	2989883a 	add	r4,r5,r6
   293b4:	1100082e 	bgeu	r2,r4,293d8 <memmove+0x30>
   293b8:	1187883a 	add	r3,r2,r6
   293bc:	30003e26 	beq	r6,zero,294b8 <memmove+0x110>
   293c0:	217fffc3 	ldbu	r5,-1(r4)
   293c4:	18ffffc4 	addi	r3,r3,-1
   293c8:	213fffc4 	addi	r4,r4,-1
   293cc:	19400005 	stb	r5,0(r3)
   293d0:	10fffb1e 	bne	r2,r3,293c0 <memmove+0x18>
   293d4:	f800283a 	ret
   293d8:	30c00430 	cmpltui	r3,r6,16
   293dc:	18000b26 	beq	r3,zero,2940c <memmove+0x64>
   293e0:	1007883a 	mov	r3,r2
   293e4:	31ffffc4 	addi	r7,r6,-1
   293e8:	30003726 	beq	r6,zero,294c8 <memmove+0x120>
   293ec:	39c00044 	addi	r7,r7,1
   293f0:	29cf883a 	add	r7,r5,r7
   293f4:	29800003 	ldbu	r6,0(r5)
   293f8:	29400044 	addi	r5,r5,1
   293fc:	18c00044 	addi	r3,r3,1
   29400:	19bfffc5 	stb	r6,-1(r3)
   29404:	29fffb1e 	bne	r5,r7,293f4 <memmove+0x4c>
   29408:	f800283a 	ret
   2940c:	2886b03a 	or	r3,r5,r2
   29410:	18c000cc 	andi	r3,r3,3
   29414:	1800291e 	bne	r3,zero,294bc <memmove+0x114>
   29418:	327ffc04 	addi	r9,r6,-16
   2941c:	4812d13a 	srli	r9,r9,4
   29420:	280f883a 	mov	r7,r5
   29424:	1007883a 	mov	r3,r2
   29428:	4a400044 	addi	r9,r9,1
   2942c:	4812913a 	slli	r9,r9,4
   29430:	1251883a 	add	r8,r2,r9
   29434:	39000017 	ldw	r4,0(r7)
   29438:	39c00404 	addi	r7,r7,16
   2943c:	18c00404 	addi	r3,r3,16
   29440:	193ffc15 	stw	r4,-16(r3)
   29444:	393ffd17 	ldw	r4,-12(r7)
   29448:	193ffd15 	stw	r4,-12(r3)
   2944c:	393ffe17 	ldw	r4,-8(r7)
   29450:	193ffe15 	stw	r4,-8(r3)
   29454:	393fff17 	ldw	r4,-4(r7)
   29458:	193fff15 	stw	r4,-4(r3)
   2945c:	40fff51e 	bne	r8,r3,29434 <memmove+0x8c>
   29460:	3100030c 	andi	r4,r6,12
   29464:	2a4b883a 	add	r5,r5,r9
   29468:	320003cc 	andi	r8,r6,15
   2946c:	20001726 	beq	r4,zero,294cc <memmove+0x124>
   29470:	2813883a 	mov	r9,r5
   29474:	180f883a 	mov	r7,r3
   29478:	4a800017 	ldw	r10,0(r9)
   2947c:	39c00104 	addi	r7,r7,4
   29480:	41c9c83a 	sub	r4,r8,r7
   29484:	1909883a 	add	r4,r3,r4
   29488:	21000128 	cmpgeui	r4,r4,4
   2948c:	3abfff15 	stw	r10,-4(r7)
   29490:	4a400104 	addi	r9,r9,4
   29494:	203ff81e 	bne	r4,zero,29478 <memmove+0xd0>
   29498:	413fff04 	addi	r4,r8,-4
   2949c:	2008d0ba 	srli	r4,r4,2
   294a0:	318000cc 	andi	r6,r6,3
   294a4:	21000044 	addi	r4,r4,1
   294a8:	200890ba 	slli	r4,r4,2
   294ac:	1907883a 	add	r3,r3,r4
   294b0:	290b883a 	add	r5,r5,r4
   294b4:	003fcb06 	br	293e4 <memmove+0x3c>
   294b8:	f800283a 	ret
   294bc:	31ffffc4 	addi	r7,r6,-1
   294c0:	1007883a 	mov	r3,r2
   294c4:	003fc906 	br	293ec <memmove+0x44>
   294c8:	f800283a 	ret
   294cc:	400d883a 	mov	r6,r8
   294d0:	003fc406 	br	293e4 <memmove+0x3c>

000294d4 <_Balloc>:
   294d4:	20801317 	ldw	r2,76(r4)
   294d8:	defffc04 	addi	sp,sp,-16
   294dc:	dc400115 	stw	r17,4(sp)
   294e0:	dc000015 	stw	r16,0(sp)
   294e4:	dfc00315 	stw	ra,12(sp)
   294e8:	dc800215 	stw	r18,8(sp)
   294ec:	2021883a 	mov	r16,r4
   294f0:	2823883a 	mov	r17,r5
   294f4:	10000e26 	beq	r2,zero,29530 <_Balloc+0x5c>
   294f8:	880690ba 	slli	r3,r17,2
   294fc:	10c7883a 	add	r3,r2,r3
   29500:	18800017 	ldw	r2,0(r3)
   29504:	10001126 	beq	r2,zero,2954c <_Balloc+0x78>
   29508:	11000017 	ldw	r4,0(r2)
   2950c:	19000015 	stw	r4,0(r3)
   29510:	10000415 	stw	zero,16(r2)
   29514:	10000315 	stw	zero,12(r2)
   29518:	dfc00317 	ldw	ra,12(sp)
   2951c:	dc800217 	ldw	r18,8(sp)
   29520:	dc400117 	ldw	r17,4(sp)
   29524:	dc000017 	ldw	r16,0(sp)
   29528:	dec00404 	addi	sp,sp,16
   2952c:	f800283a 	ret
   29530:	01800844 	movi	r6,33
   29534:	01400104 	movi	r5,4
   29538:	002c42c0 	call	2c42c <_calloc_r>
   2953c:	80801315 	stw	r2,76(r16)
   29540:	103fed1e 	bne	r2,zero,294f8 <_Balloc+0x24>
   29544:	0005883a 	mov	r2,zero
   29548:	003ff306 	br	29518 <_Balloc+0x44>
   2954c:	04800044 	movi	r18,1
   29550:	9464983a 	sll	r18,r18,r17
   29554:	01400044 	movi	r5,1
   29558:	8009883a 	mov	r4,r16
   2955c:	91800144 	addi	r6,r18,5
   29560:	300c90ba 	slli	r6,r6,2
   29564:	002c42c0 	call	2c42c <_calloc_r>
   29568:	103ff626 	beq	r2,zero,29544 <_Balloc+0x70>
   2956c:	14400115 	stw	r17,4(r2)
   29570:	14800215 	stw	r18,8(r2)
   29574:	003fe606 	br	29510 <_Balloc+0x3c>

00029578 <_Bfree>:
   29578:	28000726 	beq	r5,zero,29598 <_Bfree+0x20>
   2957c:	28c00117 	ldw	r3,4(r5)
   29580:	20801317 	ldw	r2,76(r4)
   29584:	180690ba 	slli	r3,r3,2
   29588:	10c5883a 	add	r2,r2,r3
   2958c:	10c00017 	ldw	r3,0(r2)
   29590:	28c00015 	stw	r3,0(r5)
   29594:	11400015 	stw	r5,0(r2)
   29598:	f800283a 	ret

0002959c <__multadd>:
   2959c:	defffa04 	addi	sp,sp,-24
   295a0:	dc400115 	stw	r17,4(sp)
   295a4:	2c400417 	ldw	r17,16(r5)
   295a8:	dcc00315 	stw	r19,12(sp)
   295ac:	dc800215 	stw	r18,8(sp)
   295b0:	dc000015 	stw	r16,0(sp)
   295b4:	dfc00515 	stw	ra,20(sp)
   295b8:	dd000415 	stw	r20,16(sp)
   295bc:	2825883a 	mov	r18,r5
   295c0:	2027883a 	mov	r19,r4
   295c4:	3821883a 	mov	r16,r7
   295c8:	2a000504 	addi	r8,r5,20
   295cc:	0013883a 	mov	r9,zero
   295d0:	40800017 	ldw	r2,0(r8)
   295d4:	42000104 	addi	r8,r8,4
   295d8:	4a400044 	addi	r9,r9,1
   295dc:	10ffffcc 	andi	r3,r2,65535
   295e0:	1987383a 	mul	r3,r3,r6
   295e4:	100ed43a 	srli	r7,r2,16
   295e8:	1c05883a 	add	r2,r3,r16
   295ec:	1006d43a 	srli	r3,r2,16
   295f0:	398f383a 	mul	r7,r7,r6
   295f4:	10bfffcc 	andi	r2,r2,65535
   295f8:	38cf883a 	add	r7,r7,r3
   295fc:	3806943a 	slli	r3,r7,16
   29600:	3820d43a 	srli	r16,r7,16
   29604:	1885883a 	add	r2,r3,r2
   29608:	40bfff15 	stw	r2,-4(r8)
   2960c:	4c7ff016 	blt	r9,r17,295d0 <__multadd+0x34>
   29610:	80000826 	beq	r16,zero,29634 <__multadd+0x98>
   29614:	90800217 	ldw	r2,8(r18)
   29618:	88800f0e 	bge	r17,r2,29658 <__multadd+0xbc>
   2961c:	88800144 	addi	r2,r17,5
   29620:	100490ba 	slli	r2,r2,2
   29624:	8c400044 	addi	r17,r17,1
   29628:	9085883a 	add	r2,r18,r2
   2962c:	14000015 	stw	r16,0(r2)
   29630:	94400415 	stw	r17,16(r18)
   29634:	9005883a 	mov	r2,r18
   29638:	dfc00517 	ldw	ra,20(sp)
   2963c:	dd000417 	ldw	r20,16(sp)
   29640:	dcc00317 	ldw	r19,12(sp)
   29644:	dc800217 	ldw	r18,8(sp)
   29648:	dc400117 	ldw	r17,4(sp)
   2964c:	dc000017 	ldw	r16,0(sp)
   29650:	dec00604 	addi	sp,sp,24
   29654:	f800283a 	ret
   29658:	91400117 	ldw	r5,4(r18)
   2965c:	9809883a 	mov	r4,r19
   29660:	29400044 	addi	r5,r5,1
   29664:	00294d40 	call	294d4 <_Balloc>
   29668:	1029883a 	mov	r20,r2
   2966c:	10001226 	beq	r2,zero,296b8 <__multadd+0x11c>
   29670:	91800417 	ldw	r6,16(r18)
   29674:	91400304 	addi	r5,r18,12
   29678:	11000304 	addi	r4,r2,12
   2967c:	31800084 	addi	r6,r6,2
   29680:	300c90ba 	slli	r6,r6,2
   29684:	00292a80 	call	292a8 <memcpy>
   29688:	90000926 	beq	r18,zero,296b0 <__multadd+0x114>
   2968c:	90c00117 	ldw	r3,4(r18)
   29690:	98801317 	ldw	r2,76(r19)
   29694:	180690ba 	slli	r3,r3,2
   29698:	10c5883a 	add	r2,r2,r3
   2969c:	10c00017 	ldw	r3,0(r2)
   296a0:	90c00015 	stw	r3,0(r18)
   296a4:	14800015 	stw	r18,0(r2)
   296a8:	a025883a 	mov	r18,r20
   296ac:	003fdb06 	br	2961c <__multadd+0x80>
   296b0:	a025883a 	mov	r18,r20
   296b4:	003fd906 	br	2961c <__multadd+0x80>
   296b8:	01c000f4 	movhi	r7,3
   296bc:	010000f4 	movhi	r4,3
   296c0:	39ce8e04 	addi	r7,r7,14904
   296c4:	000d883a 	mov	r6,zero
   296c8:	01402d44 	movi	r5,181
   296cc:	210ea204 	addi	r4,r4,14984
   296d0:	002c3b40 	call	2c3b4 <__assert_func>

000296d4 <__s2b>:
   296d4:	defff904 	addi	sp,sp,-28
   296d8:	dc800215 	stw	r18,8(sp)
   296dc:	dc000015 	stw	r16,0(sp)
   296e0:	2025883a 	mov	r18,r4
   296e4:	2821883a 	mov	r16,r5
   296e8:	39000204 	addi	r4,r7,8
   296ec:	01400244 	movi	r5,9
   296f0:	dcc00315 	stw	r19,12(sp)
   296f4:	dc400115 	stw	r17,4(sp)
   296f8:	dfc00615 	stw	ra,24(sp)
   296fc:	3823883a 	mov	r17,r7
   29700:	dd400515 	stw	r21,20(sp)
   29704:	dd000415 	stw	r20,16(sp)
   29708:	3027883a 	mov	r19,r6
   2970c:	00228ac0 	call	228ac <__divsi3>
   29710:	88c00290 	cmplti	r3,r17,10
   29714:	1800341e 	bne	r3,zero,297e8 <__s2b+0x114>
   29718:	00c00044 	movi	r3,1
   2971c:	000b883a 	mov	r5,zero
   29720:	18c7883a 	add	r3,r3,r3
   29724:	29400044 	addi	r5,r5,1
   29728:	18bffd16 	blt	r3,r2,29720 <__s2b+0x4c>
   2972c:	9009883a 	mov	r4,r18
   29730:	00294d40 	call	294d4 <_Balloc>
   29734:	100b883a 	mov	r5,r2
   29738:	10002d26 	beq	r2,zero,297f0 <__s2b+0x11c>
   2973c:	d8800717 	ldw	r2,28(sp)
   29740:	28800515 	stw	r2,20(r5)
   29744:	00800044 	movi	r2,1
   29748:	28800415 	stw	r2,16(r5)
   2974c:	98800290 	cmplti	r2,r19,10
   29750:	1000221e 	bne	r2,zero,297dc <__s2b+0x108>
   29754:	85400244 	addi	r21,r16,9
   29758:	a829883a 	mov	r20,r21
   2975c:	84e1883a 	add	r16,r16,r19
   29760:	a1c00007 	ldb	r7,0(r20)
   29764:	01800284 	movi	r6,10
   29768:	9009883a 	mov	r4,r18
   2976c:	39fff404 	addi	r7,r7,-48
   29770:	002959c0 	call	2959c <__multadd>
   29774:	a5000044 	addi	r20,r20,1
   29778:	100b883a 	mov	r5,r2
   2977c:	a43ff81e 	bne	r20,r16,29760 <__s2b+0x8c>
   29780:	9c3ffe04 	addi	r16,r19,-8
   29784:	ac21883a 	add	r16,r21,r16
   29788:	9c400a0e 	bge	r19,r17,297b4 <__s2b+0xe0>
   2978c:	8ce3c83a 	sub	r17,r17,r19
   29790:	8463883a 	add	r17,r16,r17
   29794:	81c00007 	ldb	r7,0(r16)
   29798:	01800284 	movi	r6,10
   2979c:	9009883a 	mov	r4,r18
   297a0:	39fff404 	addi	r7,r7,-48
   297a4:	002959c0 	call	2959c <__multadd>
   297a8:	84000044 	addi	r16,r16,1
   297ac:	100b883a 	mov	r5,r2
   297b0:	8c3ff81e 	bne	r17,r16,29794 <__s2b+0xc0>
   297b4:	2805883a 	mov	r2,r5
   297b8:	dfc00617 	ldw	ra,24(sp)
   297bc:	dd400517 	ldw	r21,20(sp)
   297c0:	dd000417 	ldw	r20,16(sp)
   297c4:	dcc00317 	ldw	r19,12(sp)
   297c8:	dc800217 	ldw	r18,8(sp)
   297cc:	dc400117 	ldw	r17,4(sp)
   297d0:	dc000017 	ldw	r16,0(sp)
   297d4:	dec00704 	addi	sp,sp,28
   297d8:	f800283a 	ret
   297dc:	84000284 	addi	r16,r16,10
   297e0:	04c00244 	movi	r19,9
   297e4:	003fe806 	br	29788 <__s2b+0xb4>
   297e8:	000b883a 	mov	r5,zero
   297ec:	003fcf06 	br	2972c <__s2b+0x58>
   297f0:	01c000f4 	movhi	r7,3
   297f4:	010000f4 	movhi	r4,3
   297f8:	39ce8e04 	addi	r7,r7,14904
   297fc:	000d883a 	mov	r6,zero
   29800:	01403384 	movi	r5,206
   29804:	210ea204 	addi	r4,r4,14984
   29808:	002c3b40 	call	2c3b4 <__assert_func>

0002980c <__hi0bits>:
   2980c:	20bfffec 	andhi	r2,r4,65535
   29810:	1000131e 	bne	r2,zero,29860 <__hi0bits+0x54>
   29814:	2008943a 	slli	r4,r4,16
   29818:	00800404 	movi	r2,16
   2981c:	20ffc02c 	andhi	r3,r4,65280
   29820:	1800021e 	bne	r3,zero,2982c <__hi0bits+0x20>
   29824:	2008923a 	slli	r4,r4,8
   29828:	10800204 	addi	r2,r2,8
   2982c:	20fc002c 	andhi	r3,r4,61440
   29830:	1800021e 	bne	r3,zero,2983c <__hi0bits+0x30>
   29834:	2008913a 	slli	r4,r4,4
   29838:	10800104 	addi	r2,r2,4
   2983c:	20f0002c 	andhi	r3,r4,49152
   29840:	1800021e 	bne	r3,zero,2984c <__hi0bits+0x40>
   29844:	200890ba 	slli	r4,r4,2
   29848:	10800084 	addi	r2,r2,2
   2984c:	20000316 	blt	r4,zero,2985c <__hi0bits+0x50>
   29850:	2110002c 	andhi	r4,r4,16384
   29854:	10800044 	addi	r2,r2,1
   29858:	20000326 	beq	r4,zero,29868 <__hi0bits+0x5c>
   2985c:	f800283a 	ret
   29860:	0005883a 	mov	r2,zero
   29864:	003fed06 	br	2981c <__hi0bits+0x10>
   29868:	00800804 	movi	r2,32
   2986c:	f800283a 	ret

00029870 <__lo0bits>:
   29870:	20c00017 	ldw	r3,0(r4)
   29874:	188001cc 	andi	r2,r3,7
   29878:	10000826 	beq	r2,zero,2989c <__lo0bits+0x2c>
   2987c:	1880004c 	andi	r2,r3,1
   29880:	10001f1e 	bne	r2,zero,29900 <__lo0bits+0x90>
   29884:	1880008c 	andi	r2,r3,2
   29888:	10002126 	beq	r2,zero,29910 <__lo0bits+0xa0>
   2988c:	1806d07a 	srli	r3,r3,1
   29890:	00800044 	movi	r2,1
   29894:	20c00015 	stw	r3,0(r4)
   29898:	f800283a 	ret
   2989c:	18bfffcc 	andi	r2,r3,65535
   298a0:	10001426 	beq	r2,zero,298f4 <__lo0bits+0x84>
   298a4:	0005883a 	mov	r2,zero
   298a8:	19403fcc 	andi	r5,r3,255
   298ac:	2800021e 	bne	r5,zero,298b8 <__lo0bits+0x48>
   298b0:	1806d23a 	srli	r3,r3,8
   298b4:	10800204 	addi	r2,r2,8
   298b8:	194003cc 	andi	r5,r3,15
   298bc:	2800021e 	bne	r5,zero,298c8 <__lo0bits+0x58>
   298c0:	1806d13a 	srli	r3,r3,4
   298c4:	10800104 	addi	r2,r2,4
   298c8:	194000cc 	andi	r5,r3,3
   298cc:	2800021e 	bne	r5,zero,298d8 <__lo0bits+0x68>
   298d0:	1806d0ba 	srli	r3,r3,2
   298d4:	10800084 	addi	r2,r2,2
   298d8:	1940004c 	andi	r5,r3,1
   298dc:	2800031e 	bne	r5,zero,298ec <__lo0bits+0x7c>
   298e0:	1806d07a 	srli	r3,r3,1
   298e4:	10800044 	addi	r2,r2,1
   298e8:	18000726 	beq	r3,zero,29908 <__lo0bits+0x98>
   298ec:	20c00015 	stw	r3,0(r4)
   298f0:	f800283a 	ret
   298f4:	1806d43a 	srli	r3,r3,16
   298f8:	00800404 	movi	r2,16
   298fc:	003fea06 	br	298a8 <__lo0bits+0x38>
   29900:	0005883a 	mov	r2,zero
   29904:	f800283a 	ret
   29908:	00800804 	movi	r2,32
   2990c:	f800283a 	ret
   29910:	1806d0ba 	srli	r3,r3,2
   29914:	00800084 	movi	r2,2
   29918:	20c00015 	stw	r3,0(r4)
   2991c:	f800283a 	ret

00029920 <__i2b>:
   29920:	defffe04 	addi	sp,sp,-8
   29924:	dc000015 	stw	r16,0(sp)
   29928:	2821883a 	mov	r16,r5
   2992c:	01400044 	movi	r5,1
   29930:	dfc00115 	stw	ra,4(sp)
   29934:	00294d40 	call	294d4 <_Balloc>
   29938:	10000726 	beq	r2,zero,29958 <__i2b+0x38>
   2993c:	01000044 	movi	r4,1
   29940:	14000515 	stw	r16,20(r2)
   29944:	11000415 	stw	r4,16(r2)
   29948:	dfc00117 	ldw	ra,4(sp)
   2994c:	dc000017 	ldw	r16,0(sp)
   29950:	dec00204 	addi	sp,sp,8
   29954:	f800283a 	ret
   29958:	01c000f4 	movhi	r7,3
   2995c:	010000f4 	movhi	r4,3
   29960:	39ce8e04 	addi	r7,r7,14904
   29964:	000d883a 	mov	r6,zero
   29968:	01405004 	movi	r5,320
   2996c:	210ea204 	addi	r4,r4,14984
   29970:	002c3b40 	call	2c3b4 <__assert_func>

00029974 <__multiply>:
   29974:	defffa04 	addi	sp,sp,-24
   29978:	dcc00315 	stw	r19,12(sp)
   2997c:	dc800215 	stw	r18,8(sp)
   29980:	34c00417 	ldw	r19,16(r6)
   29984:	2c800417 	ldw	r18,16(r5)
   29988:	dd000415 	stw	r20,16(sp)
   2998c:	dc400115 	stw	r17,4(sp)
   29990:	dfc00515 	stw	ra,20(sp)
   29994:	dc000015 	stw	r16,0(sp)
   29998:	2829883a 	mov	r20,r5
   2999c:	3023883a 	mov	r17,r6
   299a0:	94c00516 	blt	r18,r19,299b8 <__multiply+0x44>
   299a4:	9807883a 	mov	r3,r19
   299a8:	2823883a 	mov	r17,r5
   299ac:	9027883a 	mov	r19,r18
   299b0:	3029883a 	mov	r20,r6
   299b4:	1825883a 	mov	r18,r3
   299b8:	88800217 	ldw	r2,8(r17)
   299bc:	9ca1883a 	add	r16,r19,r18
   299c0:	89400117 	ldw	r5,4(r17)
   299c4:	1400010e 	bge	r2,r16,299cc <__multiply+0x58>
   299c8:	29400044 	addi	r5,r5,1
   299cc:	00294d40 	call	294d4 <_Balloc>
   299d0:	10006d26 	beq	r2,zero,29b88 <__multiply+0x214>
   299d4:	801290ba 	slli	r9,r16,2
   299d8:	12800504 	addi	r10,r2,20
   299dc:	5007883a 	mov	r3,r10
   299e0:	5253883a 	add	r9,r10,r9
   299e4:	5240032e 	bgeu	r10,r9,299f4 <__multiply+0x80>
   299e8:	18000015 	stw	zero,0(r3)
   299ec:	18c00104 	addi	r3,r3,4
   299f0:	1a7ffd36 	bltu	r3,r9,299e8 <__multiply+0x74>
   299f4:	901690ba 	slli	r11,r18,2
   299f8:	980e90ba 	slli	r7,r19,2
   299fc:	a2000504 	addi	r8,r20,20
   29a00:	8b000504 	addi	r12,r17,20
   29a04:	42d7883a 	add	r11,r8,r11
   29a08:	61cf883a 	add	r7,r12,r7
   29a0c:	42c02e2e 	bgeu	r8,r11,29ac8 <__multiply+0x154>
   29a10:	88c00544 	addi	r3,r17,21
   29a14:	38c03c36 	bltu	r7,r3,29b08 <__multiply+0x194>
   29a18:	3c4dc83a 	sub	r6,r7,r17
   29a1c:	31bffac4 	addi	r6,r6,-21
   29a20:	300cd0ba 	srli	r6,r6,2
   29a24:	31800044 	addi	r6,r6,1
   29a28:	300c90ba 	slli	r6,r6,2
   29a2c:	00000306 	br	29a3c <__multiply+0xc8>
   29a30:	42000104 	addi	r8,r8,4
   29a34:	52800104 	addi	r10,r10,4
   29a38:	42c0232e 	bgeu	r8,r11,29ac8 <__multiply+0x154>
   29a3c:	43800017 	ldw	r14,0(r8)
   29a40:	77ffffcc 	andi	ra,r14,65535
   29a44:	f800341e 	bne	ra,zero,29b18 <__multiply+0x1a4>
   29a48:	701cd43a 	srli	r14,r14,16
   29a4c:	703ff826 	beq	r14,zero,29a30 <__multiply+0xbc>
   29a50:	50c00017 	ldw	r3,0(r10)
   29a54:	501f883a 	mov	r15,r10
   29a58:	601b883a 	mov	r13,r12
   29a5c:	183f883a 	mov	ra,r3
   29a60:	0023883a 	mov	r17,zero
   29a64:	6940000b 	ldhu	r5,0(r13)
   29a68:	f824d43a 	srli	r18,ra,16
   29a6c:	193fffcc 	andi	r4,r3,65535
   29a70:	2b8b383a 	mul	r5,r5,r14
   29a74:	6b400104 	addi	r13,r13,4
   29a78:	7fc00117 	ldw	ra,4(r15)
   29a7c:	2c8b883a 	add	r5,r5,r18
   29a80:	2c4b883a 	add	r5,r5,r17
   29a84:	2806943a 	slli	r3,r5,16
   29a88:	280ad43a 	srli	r5,r5,16
   29a8c:	fc7fffcc 	andi	r17,ra,65535
   29a90:	1908b03a 	or	r4,r3,r4
   29a94:	79000015 	stw	r4,0(r15)
   29a98:	68ffff8b 	ldhu	r3,-2(r13)
   29a9c:	7bc00104 	addi	r15,r15,4
   29aa0:	1b87383a 	mul	r3,r3,r14
   29aa4:	1c47883a 	add	r3,r3,r17
   29aa8:	1947883a 	add	r3,r3,r5
   29aac:	1822d43a 	srli	r17,r3,16
   29ab0:	69ffec36 	bltu	r13,r7,29a64 <__multiply+0xf0>
   29ab4:	5189883a 	add	r4,r10,r6
   29ab8:	20c00015 	stw	r3,0(r4)
   29abc:	42000104 	addi	r8,r8,4
   29ac0:	52800104 	addi	r10,r10,4
   29ac4:	42ffdd36 	bltu	r8,r11,29a3c <__multiply+0xc8>
   29ac8:	04000316 	blt	zero,r16,29ad8 <__multiply+0x164>
   29acc:	00000506 	br	29ae4 <__multiply+0x170>
   29ad0:	843fffc4 	addi	r16,r16,-1
   29ad4:	80000326 	beq	r16,zero,29ae4 <__multiply+0x170>
   29ad8:	48ffff17 	ldw	r3,-4(r9)
   29adc:	4a7fff04 	addi	r9,r9,-4
   29ae0:	183ffb26 	beq	r3,zero,29ad0 <__multiply+0x15c>
   29ae4:	14000415 	stw	r16,16(r2)
   29ae8:	dfc00517 	ldw	ra,20(sp)
   29aec:	dd000417 	ldw	r20,16(sp)
   29af0:	dcc00317 	ldw	r19,12(sp)
   29af4:	dc800217 	ldw	r18,8(sp)
   29af8:	dc400117 	ldw	r17,4(sp)
   29afc:	dc000017 	ldw	r16,0(sp)
   29b00:	dec00604 	addi	sp,sp,24
   29b04:	f800283a 	ret
   29b08:	43800017 	ldw	r14,0(r8)
   29b0c:	01800104 	movi	r6,4
   29b10:	77ffffcc 	andi	ra,r14,65535
   29b14:	f83fcc26 	beq	ra,zero,29a48 <__multiply+0xd4>
   29b18:	501f883a 	mov	r15,r10
   29b1c:	601d883a 	mov	r14,r12
   29b20:	0023883a 	mov	r17,zero
   29b24:	71000017 	ldw	r4,0(r14)
   29b28:	7b400017 	ldw	r13,0(r15)
   29b2c:	7bc00104 	addi	r15,r15,4
   29b30:	217fffcc 	andi	r5,r4,65535
   29b34:	2fcb383a 	mul	r5,r5,ra
   29b38:	2006d43a 	srli	r3,r4,16
   29b3c:	693fffcc 	andi	r4,r13,65535
   29b40:	290b883a 	add	r5,r5,r4
   29b44:	2c4b883a 	add	r5,r5,r17
   29b48:	1fc7383a 	mul	r3,r3,ra
   29b4c:	681ad43a 	srli	r13,r13,16
   29b50:	2808d43a 	srli	r4,r5,16
   29b54:	297fffcc 	andi	r5,r5,65535
   29b58:	1b47883a 	add	r3,r3,r13
   29b5c:	1907883a 	add	r3,r3,r4
   29b60:	1808943a 	slli	r4,r3,16
   29b64:	73800104 	addi	r14,r14,4
   29b68:	1822d43a 	srli	r17,r3,16
   29b6c:	214ab03a 	or	r5,r4,r5
   29b70:	797fff15 	stw	r5,-4(r15)
   29b74:	71ffeb36 	bltu	r14,r7,29b24 <__multiply+0x1b0>
   29b78:	5187883a 	add	r3,r10,r6
   29b7c:	1c400015 	stw	r17,0(r3)
   29b80:	43800017 	ldw	r14,0(r8)
   29b84:	003fb006 	br	29a48 <__multiply+0xd4>
   29b88:	01c000f4 	movhi	r7,3
   29b8c:	010000f4 	movhi	r4,3
   29b90:	39ce8e04 	addi	r7,r7,14904
   29b94:	000d883a 	mov	r6,zero
   29b98:	01405744 	movi	r5,349
   29b9c:	210ea204 	addi	r4,r4,14984
   29ba0:	002c3b40 	call	2c3b4 <__assert_func>

00029ba4 <__pow5mult>:
   29ba4:	defffb04 	addi	sp,sp,-20
   29ba8:	dcc00315 	stw	r19,12(sp)
   29bac:	dc000015 	stw	r16,0(sp)
   29bb0:	dfc00415 	stw	ra,16(sp)
   29bb4:	dc800215 	stw	r18,8(sp)
   29bb8:	dc400115 	stw	r17,4(sp)
   29bbc:	308000cc 	andi	r2,r6,3
   29bc0:	3021883a 	mov	r16,r6
   29bc4:	2027883a 	mov	r19,r4
   29bc8:	10002d1e 	bne	r2,zero,29c80 <__pow5mult+0xdc>
   29bcc:	2825883a 	mov	r18,r5
   29bd0:	8021d0ba 	srai	r16,r16,2
   29bd4:	80001926 	beq	r16,zero,29c3c <__pow5mult+0x98>
   29bd8:	9c401217 	ldw	r17,72(r19)
   29bdc:	8800061e 	bne	r17,zero,29bf8 <__pow5mult+0x54>
   29be0:	00002f06 	br	29ca0 <__pow5mult+0xfc>
   29be4:	8021d07a 	srai	r16,r16,1
   29be8:	80001426 	beq	r16,zero,29c3c <__pow5mult+0x98>
   29bec:	88800017 	ldw	r2,0(r17)
   29bf0:	10001a26 	beq	r2,zero,29c5c <__pow5mult+0xb8>
   29bf4:	1023883a 	mov	r17,r2
   29bf8:	8080004c 	andi	r2,r16,1
   29bfc:	103ff926 	beq	r2,zero,29be4 <__pow5mult+0x40>
   29c00:	880d883a 	mov	r6,r17
   29c04:	900b883a 	mov	r5,r18
   29c08:	9809883a 	mov	r4,r19
   29c0c:	00299740 	call	29974 <__multiply>
   29c10:	90001926 	beq	r18,zero,29c78 <__pow5mult+0xd4>
   29c14:	91000117 	ldw	r4,4(r18)
   29c18:	98c01317 	ldw	r3,76(r19)
   29c1c:	8021d07a 	srai	r16,r16,1
   29c20:	200890ba 	slli	r4,r4,2
   29c24:	1907883a 	add	r3,r3,r4
   29c28:	19000017 	ldw	r4,0(r3)
   29c2c:	91000015 	stw	r4,0(r18)
   29c30:	1c800015 	stw	r18,0(r3)
   29c34:	1025883a 	mov	r18,r2
   29c38:	803fec1e 	bne	r16,zero,29bec <__pow5mult+0x48>
   29c3c:	9005883a 	mov	r2,r18
   29c40:	dfc00417 	ldw	ra,16(sp)
   29c44:	dcc00317 	ldw	r19,12(sp)
   29c48:	dc800217 	ldw	r18,8(sp)
   29c4c:	dc400117 	ldw	r17,4(sp)
   29c50:	dc000017 	ldw	r16,0(sp)
   29c54:	dec00504 	addi	sp,sp,20
   29c58:	f800283a 	ret
   29c5c:	880d883a 	mov	r6,r17
   29c60:	880b883a 	mov	r5,r17
   29c64:	9809883a 	mov	r4,r19
   29c68:	00299740 	call	29974 <__multiply>
   29c6c:	88800015 	stw	r2,0(r17)
   29c70:	10000015 	stw	zero,0(r2)
   29c74:	003fdf06 	br	29bf4 <__pow5mult+0x50>
   29c78:	1025883a 	mov	r18,r2
   29c7c:	003fd906 	br	29be4 <__pow5mult+0x40>
   29c80:	100490ba 	slli	r2,r2,2
   29c84:	00c000f4 	movhi	r3,3
   29c88:	000f883a 	mov	r7,zero
   29c8c:	10c7883a 	add	r3,r2,r3
   29c90:	198eb017 	ldw	r6,15040(r3)
   29c94:	002959c0 	call	2959c <__multadd>
   29c98:	1025883a 	mov	r18,r2
   29c9c:	003fcc06 	br	29bd0 <__pow5mult+0x2c>
   29ca0:	01409c44 	movi	r5,625
   29ca4:	9809883a 	mov	r4,r19
   29ca8:	00299200 	call	29920 <__i2b>
   29cac:	98801215 	stw	r2,72(r19)
   29cb0:	1023883a 	mov	r17,r2
   29cb4:	10000015 	stw	zero,0(r2)
   29cb8:	003fcf06 	br	29bf8 <__pow5mult+0x54>

00029cbc <__lshift>:
   29cbc:	defff904 	addi	sp,sp,-28
   29cc0:	dd400515 	stw	r21,20(sp)
   29cc4:	dc800215 	stw	r18,8(sp)
   29cc8:	302bd17a 	srai	r21,r6,5
   29ccc:	2c800417 	ldw	r18,16(r5)
   29cd0:	28800217 	ldw	r2,8(r5)
   29cd4:	dd000415 	stw	r20,16(sp)
   29cd8:	aca5883a 	add	r18,r21,r18
   29cdc:	dcc00315 	stw	r19,12(sp)
   29ce0:	dc400115 	stw	r17,4(sp)
   29ce4:	dc000015 	stw	r16,0(sp)
   29ce8:	dfc00615 	stw	ra,24(sp)
   29cec:	94400044 	addi	r17,r18,1
   29cf0:	2821883a 	mov	r16,r5
   29cf4:	3029883a 	mov	r20,r6
   29cf8:	29400117 	ldw	r5,4(r5)
   29cfc:	2027883a 	mov	r19,r4
   29d00:	1440030e 	bge	r2,r17,29d10 <__lshift+0x54>
   29d04:	1085883a 	add	r2,r2,r2
   29d08:	29400044 	addi	r5,r5,1
   29d0c:	147ffd16 	blt	r2,r17,29d04 <__lshift+0x48>
   29d10:	9809883a 	mov	r4,r19
   29d14:	00294d40 	call	294d4 <_Balloc>
   29d18:	10004326 	beq	r2,zero,29e28 <__lshift+0x16c>
   29d1c:	12000504 	addi	r8,r2,20
   29d20:	0540090e 	bge	zero,r21,29d48 <__lshift+0x8c>
   29d24:	ad400144 	addi	r21,r21,5
   29d28:	a82a90ba 	slli	r21,r21,2
   29d2c:	4007883a 	mov	r3,r8
   29d30:	1549883a 	add	r4,r2,r21
   29d34:	18c00104 	addi	r3,r3,4
   29d38:	183fff15 	stw	zero,-4(r3)
   29d3c:	193ffd1e 	bne	r3,r4,29d34 <__lshift+0x78>
   29d40:	ad7ffb04 	addi	r21,r21,-20
   29d44:	4551883a 	add	r8,r8,r21
   29d48:	82400417 	ldw	r9,16(r16)
   29d4c:	80c00504 	addi	r3,r16,20
   29d50:	a14007cc 	andi	r5,r20,31
   29d54:	481290ba 	slli	r9,r9,2
   29d58:	1a53883a 	add	r9,r3,r9
   29d5c:	28002a26 	beq	r5,zero,29e08 <__lshift+0x14c>
   29d60:	02800804 	movi	r10,32
   29d64:	5155c83a 	sub	r10,r10,r5
   29d68:	4009883a 	mov	r4,r8
   29d6c:	000f883a 	mov	r7,zero
   29d70:	19800017 	ldw	r6,0(r3)
   29d74:	21000104 	addi	r4,r4,4
   29d78:	18c00104 	addi	r3,r3,4
   29d7c:	314c983a 	sll	r6,r6,r5
   29d80:	31ccb03a 	or	r6,r6,r7
   29d84:	21bfff15 	stw	r6,-4(r4)
   29d88:	19bfff17 	ldw	r6,-4(r3)
   29d8c:	328ed83a 	srl	r7,r6,r10
   29d90:	1a7ff736 	bltu	r3,r9,29d70 <__lshift+0xb4>
   29d94:	80c00544 	addi	r3,r16,21
   29d98:	48c02136 	bltu	r9,r3,29e20 <__lshift+0x164>
   29d9c:	4c07c83a 	sub	r3,r9,r16
   29da0:	18fffac4 	addi	r3,r3,-21
   29da4:	1806d0ba 	srli	r3,r3,2
   29da8:	18c00044 	addi	r3,r3,1
   29dac:	180690ba 	slli	r3,r3,2
   29db0:	40d1883a 	add	r8,r8,r3
   29db4:	41c00015 	stw	r7,0(r8)
   29db8:	38000126 	beq	r7,zero,29dc0 <__lshift+0x104>
   29dbc:	8825883a 	mov	r18,r17
   29dc0:	14800415 	stw	r18,16(r2)
   29dc4:	80000726 	beq	r16,zero,29de4 <__lshift+0x128>
   29dc8:	81000117 	ldw	r4,4(r16)
   29dcc:	98c01317 	ldw	r3,76(r19)
   29dd0:	200890ba 	slli	r4,r4,2
   29dd4:	1907883a 	add	r3,r3,r4
   29dd8:	19000017 	ldw	r4,0(r3)
   29ddc:	81000015 	stw	r4,0(r16)
   29de0:	1c000015 	stw	r16,0(r3)
   29de4:	dfc00617 	ldw	ra,24(sp)
   29de8:	dd400517 	ldw	r21,20(sp)
   29dec:	dd000417 	ldw	r20,16(sp)
   29df0:	dcc00317 	ldw	r19,12(sp)
   29df4:	dc800217 	ldw	r18,8(sp)
   29df8:	dc400117 	ldw	r17,4(sp)
   29dfc:	dc000017 	ldw	r16,0(sp)
   29e00:	dec00704 	addi	sp,sp,28
   29e04:	f800283a 	ret
   29e08:	19000017 	ldw	r4,0(r3)
   29e0c:	18c00104 	addi	r3,r3,4
   29e10:	42000104 	addi	r8,r8,4
   29e14:	413fff15 	stw	r4,-4(r8)
   29e18:	1a7ffb36 	bltu	r3,r9,29e08 <__lshift+0x14c>
   29e1c:	003fe806 	br	29dc0 <__lshift+0x104>
   29e20:	00c00104 	movi	r3,4
   29e24:	003fe206 	br	29db0 <__lshift+0xf4>
   29e28:	01c000f4 	movhi	r7,3
   29e2c:	010000f4 	movhi	r4,3
   29e30:	39ce8e04 	addi	r7,r7,14904
   29e34:	000d883a 	mov	r6,zero
   29e38:	01407644 	movi	r5,473
   29e3c:	210ea204 	addi	r4,r4,14984
   29e40:	002c3b40 	call	2c3b4 <__assert_func>

00029e44 <__mcmp>:
   29e44:	21800417 	ldw	r6,16(r4)
   29e48:	28c00417 	ldw	r3,16(r5)
   29e4c:	30c5c83a 	sub	r2,r6,r3
   29e50:	30c00e1e 	bne	r6,r3,29e8c <__mcmp+0x48>
   29e54:	180690ba 	slli	r3,r3,2
   29e58:	21c00504 	addi	r7,r4,20
   29e5c:	29400504 	addi	r5,r5,20
   29e60:	38c9883a 	add	r4,r7,r3
   29e64:	28c7883a 	add	r3,r5,r3
   29e68:	00000106 	br	29e70 <__mcmp+0x2c>
   29e6c:	3900082e 	bgeu	r7,r4,29e90 <__mcmp+0x4c>
   29e70:	21bfff17 	ldw	r6,-4(r4)
   29e74:	197fff17 	ldw	r5,-4(r3)
   29e78:	213fff04 	addi	r4,r4,-4
   29e7c:	18ffff04 	addi	r3,r3,-4
   29e80:	317ffa26 	beq	r6,r5,29e6c <__mcmp+0x28>
   29e84:	3140032e 	bgeu	r6,r5,29e94 <__mcmp+0x50>
   29e88:	00bfffc4 	movi	r2,-1
   29e8c:	f800283a 	ret
   29e90:	f800283a 	ret
   29e94:	00800044 	movi	r2,1
   29e98:	f800283a 	ret

00029e9c <__mdiff>:
   29e9c:	28800417 	ldw	r2,16(r5)
   29ea0:	30c00417 	ldw	r3,16(r6)
   29ea4:	defffc04 	addi	sp,sp,-16
   29ea8:	dc800215 	stw	r18,8(sp)
   29eac:	dc400115 	stw	r17,4(sp)
   29eb0:	dc000015 	stw	r16,0(sp)
   29eb4:	dfc00315 	stw	ra,12(sp)
   29eb8:	2823883a 	mov	r17,r5
   29ebc:	3021883a 	mov	r16,r6
   29ec0:	10e5c83a 	sub	r18,r2,r3
   29ec4:	10c0641e 	bne	r2,r3,2a058 <__mdiff+0x1bc>
   29ec8:	180c90ba 	slli	r6,r3,2
   29ecc:	29400504 	addi	r5,r5,20
   29ed0:	80c00504 	addi	r3,r16,20
   29ed4:	2985883a 	add	r2,r5,r6
   29ed8:	1987883a 	add	r3,r3,r6
   29edc:	00000106 	br	29ee4 <__mdiff+0x48>
   29ee0:	2880642e 	bgeu	r5,r2,2a074 <__mdiff+0x1d8>
   29ee4:	11ffff17 	ldw	r7,-4(r2)
   29ee8:	19bfff17 	ldw	r6,-4(r3)
   29eec:	10bfff04 	addi	r2,r2,-4
   29ef0:	18ffff04 	addi	r3,r3,-4
   29ef4:	39bffa26 	beq	r7,r6,29ee0 <__mdiff+0x44>
   29ef8:	39805236 	bltu	r7,r6,2a044 <__mdiff+0x1a8>
   29efc:	89400117 	ldw	r5,4(r17)
   29f00:	00294d40 	call	294d4 <_Balloc>
   29f04:	10006226 	beq	r2,zero,2a090 <__mdiff+0x1f4>
   29f08:	8a400417 	ldw	r9,16(r17)
   29f0c:	83000417 	ldw	r12,16(r16)
   29f10:	8ac00504 	addi	r11,r17,20
   29f14:	481090ba 	slli	r8,r9,2
   29f18:	601890ba 	slli	r12,r12,2
   29f1c:	81800504 	addi	r6,r16,20
   29f20:	13400504 	addi	r13,r2,20
   29f24:	14800315 	stw	r18,12(r2)
   29f28:	5a11883a 	add	r8,r11,r8
   29f2c:	3319883a 	add	r12,r6,r12
   29f30:	681d883a 	mov	r14,r13
   29f34:	5815883a 	mov	r10,r11
   29f38:	0007883a 	mov	r3,zero
   29f3c:	51000017 	ldw	r4,0(r10)
   29f40:	31c00017 	ldw	r7,0(r6)
   29f44:	73800104 	addi	r14,r14,4
   29f48:	217fffcc 	andi	r5,r4,65535
   29f4c:	28cb883a 	add	r5,r5,r3
   29f50:	38ffffcc 	andi	r3,r7,65535
   29f54:	28cbc83a 	sub	r5,r5,r3
   29f58:	380ed43a 	srli	r7,r7,16
   29f5c:	2006d43a 	srli	r3,r4,16
   29f60:	2809d43a 	srai	r4,r5,16
   29f64:	297fffcc 	andi	r5,r5,65535
   29f68:	19c7c83a 	sub	r3,r3,r7
   29f6c:	1907883a 	add	r3,r3,r4
   29f70:	1808943a 	slli	r4,r3,16
   29f74:	31800104 	addi	r6,r6,4
   29f78:	1807d43a 	srai	r3,r3,16
   29f7c:	214ab03a 	or	r5,r4,r5
   29f80:	717fff15 	stw	r5,-4(r14)
   29f84:	52800104 	addi	r10,r10,4
   29f88:	333fec36 	bltu	r6,r12,29f3c <__mdiff+0xa0>
   29f8c:	640fc83a 	sub	r7,r12,r16
   29f90:	39fffac4 	addi	r7,r7,-21
   29f94:	84000544 	addi	r16,r16,21
   29f98:	380ed0ba 	srli	r7,r7,2
   29f9c:	64003336 	bltu	r12,r16,2a06c <__mdiff+0x1d0>
   29fa0:	380890ba 	slli	r4,r7,2
   29fa4:	6909883a 	add	r4,r13,r4
   29fa8:	64002e36 	bltu	r12,r16,2a064 <__mdiff+0x1c8>
   29fac:	39800044 	addi	r6,r7,1
   29fb0:	300c90ba 	slli	r6,r6,2
   29fb4:	5997883a 	add	r11,r11,r6
   29fb8:	699b883a 	add	r13,r13,r6
   29fbc:	5a00152e 	bgeu	r11,r8,2a014 <__mdiff+0x178>
   29fc0:	680f883a 	mov	r7,r13
   29fc4:	580d883a 	mov	r6,r11
   29fc8:	31000017 	ldw	r4,0(r6)
   29fcc:	39c00104 	addi	r7,r7,4
   29fd0:	31800104 	addi	r6,r6,4
   29fd4:	217fffcc 	andi	r5,r4,65535
   29fd8:	28cb883a 	add	r5,r5,r3
   29fdc:	2815d43a 	srai	r10,r5,16
   29fe0:	2006d43a 	srli	r3,r4,16
   29fe4:	297fffcc 	andi	r5,r5,65535
   29fe8:	1a87883a 	add	r3,r3,r10
   29fec:	1814943a 	slli	r10,r3,16
   29ff0:	1807d43a 	srai	r3,r3,16
   29ff4:	514ab03a 	or	r5,r10,r5
   29ff8:	397fff15 	stw	r5,-4(r7)
   29ffc:	323ff236 	bltu	r6,r8,29fc8 <__mdiff+0x12c>
   2a000:	413fffc4 	addi	r4,r8,-1
   2a004:	22c9c83a 	sub	r4,r4,r11
   2a008:	2008d0ba 	srli	r4,r4,2
   2a00c:	200890ba 	slli	r4,r4,2
   2a010:	6909883a 	add	r4,r13,r4
   2a014:	2800041e 	bne	r5,zero,2a028 <__mdiff+0x18c>
   2a018:	20ffff17 	ldw	r3,-4(r4)
   2a01c:	4a7fffc4 	addi	r9,r9,-1
   2a020:	213fff04 	addi	r4,r4,-4
   2a024:	183ffc26 	beq	r3,zero,2a018 <__mdiff+0x17c>
   2a028:	12400415 	stw	r9,16(r2)
   2a02c:	dfc00317 	ldw	ra,12(sp)
   2a030:	dc800217 	ldw	r18,8(sp)
   2a034:	dc400117 	ldw	r17,4(sp)
   2a038:	dc000017 	ldw	r16,0(sp)
   2a03c:	dec00404 	addi	sp,sp,16
   2a040:	f800283a 	ret
   2a044:	8805883a 	mov	r2,r17
   2a048:	04800044 	movi	r18,1
   2a04c:	8023883a 	mov	r17,r16
   2a050:	1021883a 	mov	r16,r2
   2a054:	003fa906 	br	29efc <__mdiff+0x60>
   2a058:	903ffa16 	blt	r18,zero,2a044 <__mdiff+0x1a8>
   2a05c:	0025883a 	mov	r18,zero
   2a060:	003fa606 	br	29efc <__mdiff+0x60>
   2a064:	01800104 	movi	r6,4
   2a068:	003fd206 	br	29fb4 <__mdiff+0x118>
   2a06c:	0009883a 	mov	r4,zero
   2a070:	003fcc06 	br	29fa4 <__mdiff+0x108>
   2a074:	000b883a 	mov	r5,zero
   2a078:	00294d40 	call	294d4 <_Balloc>
   2a07c:	10000b26 	beq	r2,zero,2a0ac <__mdiff+0x210>
   2a080:	00c00044 	movi	r3,1
   2a084:	10c00415 	stw	r3,16(r2)
   2a088:	10000515 	stw	zero,20(r2)
   2a08c:	003fe706 	br	2a02c <__mdiff+0x190>
   2a090:	01c000f4 	movhi	r7,3
   2a094:	010000f4 	movhi	r4,3
   2a098:	39ce8e04 	addi	r7,r7,14904
   2a09c:	000d883a 	mov	r6,zero
   2a0a0:	01409004 	movi	r5,576
   2a0a4:	210ea204 	addi	r4,r4,14984
   2a0a8:	002c3b40 	call	2c3b4 <__assert_func>
   2a0ac:	01c000f4 	movhi	r7,3
   2a0b0:	010000f4 	movhi	r4,3
   2a0b4:	39ce8e04 	addi	r7,r7,14904
   2a0b8:	000d883a 	mov	r6,zero
   2a0bc:	01408c84 	movi	r5,562
   2a0c0:	210ea204 	addi	r4,r4,14984
   2a0c4:	002c3b40 	call	2c3b4 <__assert_func>

0002a0c8 <__ulp>:
   2a0c8:	28dffc2c 	andhi	r3,r5,32752
   2a0cc:	017f3034 	movhi	r5,64704
   2a0d0:	1947883a 	add	r3,r3,r5
   2a0d4:	00c0020e 	bge	zero,r3,2a0e0 <__ulp+0x18>
   2a0d8:	0005883a 	mov	r2,zero
   2a0dc:	f800283a 	ret
   2a0e0:	00c7c83a 	sub	r3,zero,r3
   2a0e4:	1807d53a 	srai	r3,r3,20
   2a0e8:	18800508 	cmpgei	r2,r3,20
   2a0ec:	1000041e 	bne	r2,zero,2a100 <__ulp+0x38>
   2a0f0:	00800234 	movhi	r2,8
   2a0f4:	10c7d83a 	sra	r3,r2,r3
   2a0f8:	0005883a 	mov	r2,zero
   2a0fc:	f800283a 	ret
   2a100:	193ffb04 	addi	r4,r3,-20
   2a104:	208007c8 	cmpgei	r2,r4,31
   2a108:	0007883a 	mov	r3,zero
   2a10c:	1000031e 	bne	r2,zero,2a11c <__ulp+0x54>
   2a110:	00a00034 	movhi	r2,32768
   2a114:	1104d83a 	srl	r2,r2,r4
   2a118:	f800283a 	ret
   2a11c:	00800044 	movi	r2,1
   2a120:	f800283a 	ret

0002a124 <__b2d>:
   2a124:	defffa04 	addi	sp,sp,-24
   2a128:	dc400115 	stw	r17,4(sp)
   2a12c:	24400417 	ldw	r17,16(r4)
   2a130:	dc000015 	stw	r16,0(sp)
   2a134:	24000504 	addi	r16,r4,20
   2a138:	882290ba 	slli	r17,r17,2
   2a13c:	dc800215 	stw	r18,8(sp)
   2a140:	dd000415 	stw	r20,16(sp)
   2a144:	8463883a 	add	r17,r16,r17
   2a148:	8cbfff17 	ldw	r18,-4(r17)
   2a14c:	dcc00315 	stw	r19,12(sp)
   2a150:	dfc00515 	stw	ra,20(sp)
   2a154:	9009883a 	mov	r4,r18
   2a158:	2827883a 	mov	r19,r5
   2a15c:	002980c0 	call	2980c <__hi0bits>
   2a160:	01000804 	movi	r4,32
   2a164:	2087c83a 	sub	r3,r4,r2
   2a168:	98c00015 	stw	r3,0(r19)
   2a16c:	10c002c8 	cmpgei	r3,r2,11
   2a170:	8d3fff04 	addi	r20,r17,-4
   2a174:	18001f26 	beq	r3,zero,2a1f4 <__b2d+0xd0>
   2a178:	10fffd44 	addi	r3,r2,-11
   2a17c:	85000e2e 	bgeu	r16,r20,2a1b8 <__b2d+0x94>
   2a180:	88bffe17 	ldw	r2,-8(r17)
   2a184:	18001226 	beq	r3,zero,2a1d0 <__b2d+0xac>
   2a188:	20c9c83a 	sub	r4,r4,r3
   2a18c:	110cd83a 	srl	r6,r2,r4
   2a190:	90e4983a 	sll	r18,r18,r3
   2a194:	10c4983a 	sll	r2,r2,r3
   2a198:	897ffe04 	addi	r5,r17,-8
   2a19c:	9186b03a 	or	r3,r18,r6
   2a1a0:	18cffc34 	orhi	r3,r3,16368
   2a1a4:	81400b2e 	bgeu	r16,r5,2a1d4 <__b2d+0xb0>
   2a1a8:	897ffd17 	ldw	r5,-12(r17)
   2a1ac:	2908d83a 	srl	r4,r5,r4
   2a1b0:	1104b03a 	or	r2,r2,r4
   2a1b4:	00000706 	br	2a1d4 <__b2d+0xb0>
   2a1b8:	18000426 	beq	r3,zero,2a1cc <__b2d+0xa8>
   2a1bc:	90c6983a 	sll	r3,r18,r3
   2a1c0:	0005883a 	mov	r2,zero
   2a1c4:	18cffc34 	orhi	r3,r3,16368
   2a1c8:	00000206 	br	2a1d4 <__b2d+0xb0>
   2a1cc:	0005883a 	mov	r2,zero
   2a1d0:	90cffc34 	orhi	r3,r18,16368
   2a1d4:	dfc00517 	ldw	ra,20(sp)
   2a1d8:	dd000417 	ldw	r20,16(sp)
   2a1dc:	dcc00317 	ldw	r19,12(sp)
   2a1e0:	dc800217 	ldw	r18,8(sp)
   2a1e4:	dc400117 	ldw	r17,4(sp)
   2a1e8:	dc000017 	ldw	r16,0(sp)
   2a1ec:	dec00604 	addi	sp,sp,24
   2a1f0:	f800283a 	ret
   2a1f4:	014002c4 	movi	r5,11
   2a1f8:	2889c83a 	sub	r4,r5,r2
   2a1fc:	9106d83a 	srl	r3,r18,r4
   2a200:	18cffc34 	orhi	r3,r3,16368
   2a204:	85000536 	bltu	r16,r20,2a21c <__b2d+0xf8>
   2a208:	000b883a 	mov	r5,zero
   2a20c:	10800544 	addi	r2,r2,21
   2a210:	9084983a 	sll	r2,r18,r2
   2a214:	1144b03a 	or	r2,r2,r5
   2a218:	003fee06 	br	2a1d4 <__b2d+0xb0>
   2a21c:	897ffe17 	ldw	r5,-8(r17)
   2a220:	290ad83a 	srl	r5,r5,r4
   2a224:	003ff906 	br	2a20c <__b2d+0xe8>

0002a228 <__d2b>:
   2a228:	defff804 	addi	sp,sp,-32
   2a22c:	dd000615 	stw	r20,24(sp)
   2a230:	2829883a 	mov	r20,r5
   2a234:	01400044 	movi	r5,1
   2a238:	dcc00515 	stw	r19,20(sp)
   2a23c:	dc000215 	stw	r16,8(sp)
   2a240:	dfc00715 	stw	ra,28(sp)
   2a244:	dc800415 	stw	r18,16(sp)
   2a248:	dc400315 	stw	r17,12(sp)
   2a24c:	3021883a 	mov	r16,r6
   2a250:	3827883a 	mov	r19,r7
   2a254:	00294d40 	call	294d4 <_Balloc>
   2a258:	10004526 	beq	r2,zero,2a370 <__d2b+0x148>
   2a25c:	8024d53a 	srli	r18,r16,20
   2a260:	01800434 	movhi	r6,16
   2a264:	31bfffc4 	addi	r6,r6,-1
   2a268:	9481ffcc 	andi	r18,r18,2047
   2a26c:	1023883a 	mov	r17,r2
   2a270:	81a0703a 	and	r16,r16,r6
   2a274:	90000126 	beq	r18,zero,2a27c <__d2b+0x54>
   2a278:	84000434 	orhi	r16,r16,16
   2a27c:	dc000115 	stw	r16,4(sp)
   2a280:	a0002226 	beq	r20,zero,2a30c <__d2b+0xe4>
   2a284:	d809883a 	mov	r4,sp
   2a288:	dd000015 	stw	r20,0(sp)
   2a28c:	00298700 	call	29870 <__lo0bits>
   2a290:	d8c00117 	ldw	r3,4(sp)
   2a294:	10003326 	beq	r2,zero,2a364 <__d2b+0x13c>
   2a298:	01000804 	movi	r4,32
   2a29c:	2089c83a 	sub	r4,r4,r2
   2a2a0:	1908983a 	sll	r4,r3,r4
   2a2a4:	d9400017 	ldw	r5,0(sp)
   2a2a8:	1886d83a 	srl	r3,r3,r2
   2a2ac:	2148b03a 	or	r4,r4,r5
   2a2b0:	89000515 	stw	r4,20(r17)
   2a2b4:	d8c00115 	stw	r3,4(sp)
   2a2b8:	88c00615 	stw	r3,24(r17)
   2a2bc:	1800271e 	bne	r3,zero,2a35c <__d2b+0x134>
   2a2c0:	04000044 	movi	r16,1
   2a2c4:	8c000415 	stw	r16,16(r17)
   2a2c8:	90001926 	beq	r18,zero,2a330 <__d2b+0x108>
   2a2cc:	00c00d44 	movi	r3,53
   2a2d0:	94bef344 	addi	r18,r18,-1075
   2a2d4:	90a5883a 	add	r18,r18,r2
   2a2d8:	1885c83a 	sub	r2,r3,r2
   2a2dc:	d8c00817 	ldw	r3,32(sp)
   2a2e0:	9c800015 	stw	r18,0(r19)
   2a2e4:	18800015 	stw	r2,0(r3)
   2a2e8:	8805883a 	mov	r2,r17
   2a2ec:	dfc00717 	ldw	ra,28(sp)
   2a2f0:	dd000617 	ldw	r20,24(sp)
   2a2f4:	dcc00517 	ldw	r19,20(sp)
   2a2f8:	dc800417 	ldw	r18,16(sp)
   2a2fc:	dc400317 	ldw	r17,12(sp)
   2a300:	dc000217 	ldw	r16,8(sp)
   2a304:	dec00804 	addi	sp,sp,32
   2a308:	f800283a 	ret
   2a30c:	d9000104 	addi	r4,sp,4
   2a310:	00298700 	call	29870 <__lo0bits>
   2a314:	00c00044 	movi	r3,1
   2a318:	88c00415 	stw	r3,16(r17)
   2a31c:	d8c00117 	ldw	r3,4(sp)
   2a320:	10800804 	addi	r2,r2,32
   2a324:	04000044 	movi	r16,1
   2a328:	88c00515 	stw	r3,20(r17)
   2a32c:	903fe71e 	bne	r18,zero,2a2cc <__d2b+0xa4>
   2a330:	800690ba 	slli	r3,r16,2
   2a334:	10bef384 	addi	r2,r2,-1074
   2a338:	98800015 	stw	r2,0(r19)
   2a33c:	88c5883a 	add	r2,r17,r3
   2a340:	11000417 	ldw	r4,16(r2)
   2a344:	8020917a 	slli	r16,r16,5
   2a348:	002980c0 	call	2980c <__hi0bits>
   2a34c:	80a1c83a 	sub	r16,r16,r2
   2a350:	d8800817 	ldw	r2,32(sp)
   2a354:	14000015 	stw	r16,0(r2)
   2a358:	003fe306 	br	2a2e8 <__d2b+0xc0>
   2a35c:	04000084 	movi	r16,2
   2a360:	003fd806 	br	2a2c4 <__d2b+0x9c>
   2a364:	d9000017 	ldw	r4,0(sp)
   2a368:	89000515 	stw	r4,20(r17)
   2a36c:	003fd206 	br	2a2b8 <__d2b+0x90>
   2a370:	01c000f4 	movhi	r7,3
   2a374:	010000f4 	movhi	r4,3
   2a378:	39ce8e04 	addi	r7,r7,14904
   2a37c:	000d883a 	mov	r6,zero
   2a380:	0140c284 	movi	r5,778
   2a384:	210ea204 	addi	r4,r4,14984
   2a388:	002c3b40 	call	2c3b4 <__assert_func>

0002a38c <__ratio>:
   2a38c:	defff904 	addi	sp,sp,-28
   2a390:	dc400315 	stw	r17,12(sp)
   2a394:	2823883a 	mov	r17,r5
   2a398:	d80b883a 	mov	r5,sp
   2a39c:	dfc00615 	stw	ra,24(sp)
   2a3a0:	dcc00515 	stw	r19,20(sp)
   2a3a4:	dc800415 	stw	r18,16(sp)
   2a3a8:	2027883a 	mov	r19,r4
   2a3ac:	dc000215 	stw	r16,8(sp)
   2a3b0:	002a1240 	call	2a124 <__b2d>
   2a3b4:	d9400104 	addi	r5,sp,4
   2a3b8:	8809883a 	mov	r4,r17
   2a3bc:	1025883a 	mov	r18,r2
   2a3c0:	1821883a 	mov	r16,r3
   2a3c4:	002a1240 	call	2a124 <__b2d>
   2a3c8:	89400417 	ldw	r5,16(r17)
   2a3cc:	99000417 	ldw	r4,16(r19)
   2a3d0:	d9800117 	ldw	r6,4(sp)
   2a3d4:	180f883a 	mov	r7,r3
   2a3d8:	2149c83a 	sub	r4,r4,r5
   2a3dc:	d9400017 	ldw	r5,0(sp)
   2a3e0:	2008917a 	slli	r4,r4,5
   2a3e4:	298bc83a 	sub	r5,r5,r6
   2a3e8:	2149883a 	add	r4,r4,r5
   2a3ec:	100d883a 	mov	r6,r2
   2a3f0:	01000c0e 	bge	zero,r4,2a424 <__ratio+0x98>
   2a3f4:	2008953a 	slli	r4,r4,20
   2a3f8:	2421883a 	add	r16,r4,r16
   2a3fc:	9009883a 	mov	r4,r18
   2a400:	800b883a 	mov	r5,r16
   2a404:	002e2800 	call	2e280 <__divdf3>
   2a408:	dfc00617 	ldw	ra,24(sp)
   2a40c:	dcc00517 	ldw	r19,20(sp)
   2a410:	dc800417 	ldw	r18,16(sp)
   2a414:	dc400317 	ldw	r17,12(sp)
   2a418:	dc000217 	ldw	r16,8(sp)
   2a41c:	dec00704 	addi	sp,sp,28
   2a420:	f800283a 	ret
   2a424:	00bffc34 	movhi	r2,65520
   2a428:	2089383a 	mul	r4,r4,r2
   2a42c:	20cf883a 	add	r7,r4,r3
   2a430:	003ff206 	br	2a3fc <__ratio+0x70>

0002a434 <_mprec_log10>:
   2a434:	defffe04 	addi	sp,sp,-8
   2a438:	dc000015 	stw	r16,0(sp)
   2a43c:	dfc00115 	stw	ra,4(sp)
   2a440:	20800608 	cmpgei	r2,r4,24
   2a444:	2021883a 	mov	r16,r4
   2a448:	10000f26 	beq	r2,zero,2a488 <_mprec_log10+0x54>
   2a44c:	0009883a 	mov	r4,zero
   2a450:	014ffc34 	movhi	r5,16368
   2a454:	000d883a 	mov	r6,zero
   2a458:	01d00934 	movhi	r7,16420
   2a45c:	002ed400 	call	2ed40 <__muldf3>
   2a460:	843fffc4 	addi	r16,r16,-1
   2a464:	1009883a 	mov	r4,r2
   2a468:	180b883a 	mov	r5,r3
   2a46c:	803ff91e 	bne	r16,zero,2a454 <_mprec_log10+0x20>
   2a470:	2005883a 	mov	r2,r4
   2a474:	2807883a 	mov	r3,r5
   2a478:	dfc00117 	ldw	ra,4(sp)
   2a47c:	dc000017 	ldw	r16,0(sp)
   2a480:	dec00204 	addi	sp,sp,8
   2a484:	f800283a 	ret
   2a488:	202090fa 	slli	r16,r4,3
   2a48c:	008000f4 	movhi	r2,3
   2a490:	108ec804 	addi	r2,r2,15136
   2a494:	1421883a 	add	r16,r2,r16
   2a498:	81000017 	ldw	r4,0(r16)
   2a49c:	81400117 	ldw	r5,4(r16)
   2a4a0:	003ff306 	br	2a470 <_mprec_log10+0x3c>

0002a4a4 <__copybits>:
   2a4a4:	297fffc4 	addi	r5,r5,-1
   2a4a8:	280fd17a 	srai	r7,r5,5
   2a4ac:	31400417 	ldw	r5,16(r6)
   2a4b0:	30800504 	addi	r2,r6,20
   2a4b4:	39c00044 	addi	r7,r7,1
   2a4b8:	280a90ba 	slli	r5,r5,2
   2a4bc:	380e90ba 	slli	r7,r7,2
   2a4c0:	114b883a 	add	r5,r2,r5
   2a4c4:	21cf883a 	add	r7,r4,r7
   2a4c8:	11400c2e 	bgeu	r2,r5,2a4fc <__copybits+0x58>
   2a4cc:	2007883a 	mov	r3,r4
   2a4d0:	12000017 	ldw	r8,0(r2)
   2a4d4:	10800104 	addi	r2,r2,4
   2a4d8:	18c00104 	addi	r3,r3,4
   2a4dc:	1a3fff15 	stw	r8,-4(r3)
   2a4e0:	117ffb36 	bltu	r2,r5,2a4d0 <__copybits+0x2c>
   2a4e4:	2985c83a 	sub	r2,r5,r6
   2a4e8:	10bffac4 	addi	r2,r2,-21
   2a4ec:	1004d0ba 	srli	r2,r2,2
   2a4f0:	10800044 	addi	r2,r2,1
   2a4f4:	100490ba 	slli	r2,r2,2
   2a4f8:	2089883a 	add	r4,r4,r2
   2a4fc:	21c0032e 	bgeu	r4,r7,2a50c <__copybits+0x68>
   2a500:	21000104 	addi	r4,r4,4
   2a504:	203fff15 	stw	zero,-4(r4)
   2a508:	21fffd36 	bltu	r4,r7,2a500 <__copybits+0x5c>
   2a50c:	f800283a 	ret

0002a510 <__any_on>:
   2a510:	20c00417 	ldw	r3,16(r4)
   2a514:	280dd17a 	srai	r6,r5,5
   2a518:	21000504 	addi	r4,r4,20
   2a51c:	1980080e 	bge	r3,r6,2a540 <__any_on+0x30>
   2a520:	180490ba 	slli	r2,r3,2
   2a524:	2085883a 	add	r2,r4,r2
   2a528:	20800f2e 	bgeu	r4,r2,2a568 <__any_on+0x58>
   2a52c:	10ffff17 	ldw	r3,-4(r2)
   2a530:	10bfff04 	addi	r2,r2,-4
   2a534:	183ffc26 	beq	r3,zero,2a528 <__any_on+0x18>
   2a538:	00800044 	movi	r2,1
   2a53c:	f800283a 	ret
   2a540:	300490ba 	slli	r2,r6,2
   2a544:	2085883a 	add	r2,r4,r2
   2a548:	30fff70e 	bge	r6,r3,2a528 <__any_on+0x18>
   2a54c:	294007cc 	andi	r5,r5,31
   2a550:	283ff526 	beq	r5,zero,2a528 <__any_on+0x18>
   2a554:	11800017 	ldw	r6,0(r2)
   2a558:	3146d83a 	srl	r3,r6,r5
   2a55c:	194a983a 	sll	r5,r3,r5
   2a560:	317ff51e 	bne	r6,r5,2a538 <__any_on+0x28>
   2a564:	003ff006 	br	2a528 <__any_on+0x18>
   2a568:	0005883a 	mov	r2,zero
   2a56c:	f800283a 	ret

0002a570 <_putc_r>:
   2a570:	defffc04 	addi	sp,sp,-16
   2a574:	dc400215 	stw	r17,8(sp)
   2a578:	dfc00315 	stw	ra,12(sp)
   2a57c:	2023883a 	mov	r17,r4
   2a580:	20000226 	beq	r4,zero,2a58c <_putc_r+0x1c>
   2a584:	20800e17 	ldw	r2,56(r4)
   2a588:	10000e26 	beq	r2,zero,2a5c4 <_putc_r+0x54>
   2a58c:	30800217 	ldw	r2,8(r6)
   2a590:	10bfffc4 	addi	r2,r2,-1
   2a594:	30800215 	stw	r2,8(r6)
   2a598:	10001316 	blt	r2,zero,2a5e8 <_putc_r+0x78>
   2a59c:	30800017 	ldw	r2,0(r6)
   2a5a0:	11400005 	stb	r5,0(r2)
   2a5a4:	30800017 	ldw	r2,0(r6)
   2a5a8:	10c00044 	addi	r3,r2,1
   2a5ac:	30c00015 	stw	r3,0(r6)
   2a5b0:	10800003 	ldbu	r2,0(r2)
   2a5b4:	dfc00317 	ldw	ra,12(sp)
   2a5b8:	dc400217 	ldw	r17,8(sp)
   2a5bc:	dec00404 	addi	sp,sp,16
   2a5c0:	f800283a 	ret
   2a5c4:	d9800115 	stw	r6,4(sp)
   2a5c8:	d9400015 	stw	r5,0(sp)
   2a5cc:	00284d80 	call	284d8 <__sinit>
   2a5d0:	d9800117 	ldw	r6,4(sp)
   2a5d4:	d9400017 	ldw	r5,0(sp)
   2a5d8:	30800217 	ldw	r2,8(r6)
   2a5dc:	10bfffc4 	addi	r2,r2,-1
   2a5e0:	30800215 	stw	r2,8(r6)
   2a5e4:	103fed0e 	bge	r2,zero,2a59c <_putc_r+0x2c>
   2a5e8:	30c00617 	ldw	r3,24(r6)
   2a5ec:	10c00e16 	blt	r2,r3,2a628 <_putc_r+0xb8>
   2a5f0:	30800017 	ldw	r2,0(r6)
   2a5f4:	11400005 	stb	r5,0(r2)
   2a5f8:	30c00017 	ldw	r3,0(r6)
   2a5fc:	18800003 	ldbu	r2,0(r3)
   2a600:	108002a0 	cmpeqi	r2,r2,10
   2a604:	1000071e 	bne	r2,zero,2a624 <_putc_r+0xb4>
   2a608:	18800044 	addi	r2,r3,1
   2a60c:	30800015 	stw	r2,0(r6)
   2a610:	18800003 	ldbu	r2,0(r3)
   2a614:	dfc00317 	ldw	ra,12(sp)
   2a618:	dc400217 	ldw	r17,8(sp)
   2a61c:	dec00404 	addi	sp,sp,16
   2a620:	f800283a 	ret
   2a624:	01400284 	movi	r5,10
   2a628:	8809883a 	mov	r4,r17
   2a62c:	dfc00317 	ldw	ra,12(sp)
   2a630:	dc400217 	ldw	r17,8(sp)
   2a634:	dec00404 	addi	sp,sp,16
   2a638:	002c2541 	jmpi	2c254 <__swbuf_r>

0002a63c <putc>:
   2a63c:	defffc04 	addi	sp,sp,-16
   2a640:	008000f4 	movhi	r2,3
   2a644:	dc800215 	stw	r18,8(sp)
   2a648:	14990c17 	ldw	r18,25648(r2)
   2a64c:	dc400115 	stw	r17,4(sp)
   2a650:	dfc00315 	stw	ra,12(sp)
   2a654:	2023883a 	mov	r17,r4
   2a658:	90000226 	beq	r18,zero,2a664 <putc+0x28>
   2a65c:	90800e17 	ldw	r2,56(r18)
   2a660:	10000f26 	beq	r2,zero,2a6a0 <putc+0x64>
   2a664:	28800217 	ldw	r2,8(r5)
   2a668:	10bfffc4 	addi	r2,r2,-1
   2a66c:	28800215 	stw	r2,8(r5)
   2a670:	10001316 	blt	r2,zero,2a6c0 <putc+0x84>
   2a674:	28800017 	ldw	r2,0(r5)
   2a678:	14400005 	stb	r17,0(r2)
   2a67c:	28800017 	ldw	r2,0(r5)
   2a680:	10c00044 	addi	r3,r2,1
   2a684:	28c00015 	stw	r3,0(r5)
   2a688:	10800003 	ldbu	r2,0(r2)
   2a68c:	dfc00317 	ldw	ra,12(sp)
   2a690:	dc800217 	ldw	r18,8(sp)
   2a694:	dc400117 	ldw	r17,4(sp)
   2a698:	dec00404 	addi	sp,sp,16
   2a69c:	f800283a 	ret
   2a6a0:	9009883a 	mov	r4,r18
   2a6a4:	d9400015 	stw	r5,0(sp)
   2a6a8:	00284d80 	call	284d8 <__sinit>
   2a6ac:	d9400017 	ldw	r5,0(sp)
   2a6b0:	28800217 	ldw	r2,8(r5)
   2a6b4:	10bfffc4 	addi	r2,r2,-1
   2a6b8:	28800215 	stw	r2,8(r5)
   2a6bc:	103fed0e 	bge	r2,zero,2a674 <putc+0x38>
   2a6c0:	28c00617 	ldw	r3,24(r5)
   2a6c4:	10c00a16 	blt	r2,r3,2a6f0 <putc+0xb4>
   2a6c8:	28800017 	ldw	r2,0(r5)
   2a6cc:	14400005 	stb	r17,0(r2)
   2a6d0:	28c00017 	ldw	r3,0(r5)
   2a6d4:	18800003 	ldbu	r2,0(r3)
   2a6d8:	108002a0 	cmpeqi	r2,r2,10
   2a6dc:	10000c1e 	bne	r2,zero,2a710 <putc+0xd4>
   2a6e0:	18800044 	addi	r2,r3,1
   2a6e4:	28800015 	stw	r2,0(r5)
   2a6e8:	18800003 	ldbu	r2,0(r3)
   2a6ec:	003fe706 	br	2a68c <putc+0x50>
   2a6f0:	280d883a 	mov	r6,r5
   2a6f4:	880b883a 	mov	r5,r17
   2a6f8:	9009883a 	mov	r4,r18
   2a6fc:	dfc00317 	ldw	ra,12(sp)
   2a700:	dc800217 	ldw	r18,8(sp)
   2a704:	dc400117 	ldw	r17,4(sp)
   2a708:	dec00404 	addi	sp,sp,16
   2a70c:	002c2541 	jmpi	2c254 <__swbuf_r>
   2a710:	280d883a 	mov	r6,r5
   2a714:	01400284 	movi	r5,10
   2a718:	003ff706 	br	2a6f8 <putc+0xbc>

0002a71c <_read_r>:
   2a71c:	2807883a 	mov	r3,r5
   2a720:	defffe04 	addi	sp,sp,-8
   2a724:	dc000015 	stw	r16,0(sp)
   2a728:	300b883a 	mov	r5,r6
   2a72c:	00800134 	movhi	r2,4
   2a730:	380d883a 	mov	r6,r7
   2a734:	2021883a 	mov	r16,r4
   2a738:	1809883a 	mov	r4,r3
   2a73c:	dfc00115 	stw	ra,4(sp)
   2a740:	10222d15 	stw	zero,-30540(r2)
   2a744:	0030ac00 	call	30ac0 <read>
   2a748:	10ffffd8 	cmpnei	r3,r2,-1
   2a74c:	18000426 	beq	r3,zero,2a760 <_read_r+0x44>
   2a750:	dfc00117 	ldw	ra,4(sp)
   2a754:	dc000017 	ldw	r16,0(sp)
   2a758:	dec00204 	addi	sp,sp,8
   2a75c:	f800283a 	ret
   2a760:	00c00134 	movhi	r3,4
   2a764:	18e22d17 	ldw	r3,-30540(r3)
   2a768:	183ff926 	beq	r3,zero,2a750 <_read_r+0x34>
   2a76c:	80c00015 	stw	r3,0(r16)
   2a770:	dfc00117 	ldw	ra,4(sp)
   2a774:	dc000017 	ldw	r16,0(sp)
   2a778:	dec00204 	addi	sp,sp,8
   2a77c:	f800283a 	ret

0002a780 <_realloc_r>:
   2a780:	defff504 	addi	sp,sp,-44
   2a784:	dc800315 	stw	r18,12(sp)
   2a788:	dfc00a15 	stw	ra,40(sp)
   2a78c:	df000915 	stw	fp,36(sp)
   2a790:	ddc00815 	stw	r23,32(sp)
   2a794:	dd800715 	stw	r22,28(sp)
   2a798:	dd400615 	stw	r21,24(sp)
   2a79c:	dd000515 	stw	r20,20(sp)
   2a7a0:	dcc00415 	stw	r19,16(sp)
   2a7a4:	dc400215 	stw	r17,8(sp)
   2a7a8:	dc000115 	stw	r16,4(sp)
   2a7ac:	3025883a 	mov	r18,r6
   2a7b0:	28008b26 	beq	r5,zero,2a9e0 <_realloc_r+0x260>
   2a7b4:	2821883a 	mov	r16,r5
   2a7b8:	2027883a 	mov	r19,r4
   2a7bc:	944002c4 	addi	r17,r18,11
   2a7c0:	00307f40 	call	307f4 <__malloc_lock>
   2a7c4:	888005f0 	cmpltui	r2,r17,23
   2a7c8:	1000521e 	bne	r2,zero,2a914 <_realloc_r+0x194>
   2a7cc:	017ffe04 	movi	r5,-8
   2a7d0:	8962703a 	and	r17,r17,r5
   2a7d4:	8807883a 	mov	r3,r17
   2a7d8:	88005116 	blt	r17,zero,2a920 <_realloc_r+0x1a0>
   2a7dc:	8c805036 	bltu	r17,r18,2a920 <_realloc_r+0x1a0>
   2a7e0:	80bfff17 	ldw	r2,-4(r16)
   2a7e4:	017fff04 	movi	r5,-4
   2a7e8:	857ffe04 	addi	r21,r16,-8
   2a7ec:	1168703a 	and	r20,r2,r5
   2a7f0:	ad2d883a 	add	r22,r21,r20
   2a7f4:	a0c0390e 	bge	r20,r3,2a8dc <_realloc_r+0x15c>
   2a7f8:	070000f4 	movhi	fp,3
   2a7fc:	e712f804 	addi	fp,fp,19424
   2a800:	e2000217 	ldw	r8,8(fp)
   2a804:	b1000117 	ldw	r4,4(r22)
   2a808:	45808e26 	beq	r8,r22,2aa44 <_realloc_r+0x2c4>
   2a80c:	01bfff84 	movi	r6,-2
   2a810:	218c703a 	and	r6,r4,r6
   2a814:	b18d883a 	add	r6,r22,r6
   2a818:	31800117 	ldw	r6,4(r6)
   2a81c:	3180004c 	andi	r6,r6,1
   2a820:	30004f1e 	bne	r6,zero,2a960 <_realloc_r+0x1e0>
   2a824:	2148703a 	and	r4,r4,r5
   2a828:	a10b883a 	add	r5,r20,r4
   2a82c:	28c0bf0e 	bge	r5,r3,2ab2c <_realloc_r+0x3ac>
   2a830:	1080004c 	andi	r2,r2,1
   2a834:	10004c1e 	bne	r2,zero,2a968 <_realloc_r+0x1e8>
   2a838:	81fffe17 	ldw	r7,-8(r16)
   2a83c:	00bfff04 	movi	r2,-4
   2a840:	a9cfc83a 	sub	r7,r21,r7
   2a844:	39400117 	ldw	r5,4(r7)
   2a848:	288a703a 	and	r5,r5,r2
   2a84c:	b0000426 	beq	r22,zero,2a860 <_realloc_r+0xe0>
   2a850:	a16f883a 	add	r23,r20,r5
   2a854:	b92f883a 	add	r23,r23,r4
   2a858:	4580bf26 	beq	r8,r22,2ab58 <_realloc_r+0x3d8>
   2a85c:	b8c0930e 	bge	r23,r3,2aaac <_realloc_r+0x32c>
   2a860:	38004126 	beq	r7,zero,2a968 <_realloc_r+0x1e8>
   2a864:	a16f883a 	add	r23,r20,r5
   2a868:	b8c03f16 	blt	r23,r3,2a968 <_realloc_r+0x1e8>
   2a86c:	38800317 	ldw	r2,12(r7)
   2a870:	38c00217 	ldw	r3,8(r7)
   2a874:	a1bfff04 	addi	r6,r20,-4
   2a878:	31400968 	cmpgeui	r5,r6,37
   2a87c:	18800315 	stw	r2,12(r3)
   2a880:	10c00215 	stw	r3,8(r2)
   2a884:	39000204 	addi	r4,r7,8
   2a888:	3ded883a 	add	r22,r7,r23
   2a88c:	2800941e 	bne	r5,zero,2aae0 <_realloc_r+0x360>
   2a890:	30800530 	cmpltui	r2,r6,20
   2a894:	80c00017 	ldw	r3,0(r16)
   2a898:	1000df1e 	bne	r2,zero,2ac18 <_realloc_r+0x498>
   2a89c:	38c00215 	stw	r3,8(r7)
   2a8a0:	80c00117 	ldw	r3,4(r16)
   2a8a4:	30800728 	cmpgeui	r2,r6,28
   2a8a8:	38c00315 	stw	r3,12(r7)
   2a8ac:	1000dc1e 	bne	r2,zero,2ac20 <_realloc_r+0x4a0>
   2a8b0:	80c00217 	ldw	r3,8(r16)
   2a8b4:	38800404 	addi	r2,r7,16
   2a8b8:	84000204 	addi	r16,r16,8
   2a8bc:	10c00015 	stw	r3,0(r2)
   2a8c0:	80c00117 	ldw	r3,4(r16)
   2a8c4:	b829883a 	mov	r20,r23
   2a8c8:	382b883a 	mov	r21,r7
   2a8cc:	10c00115 	stw	r3,4(r2)
   2a8d0:	80c00217 	ldw	r3,8(r16)
   2a8d4:	2021883a 	mov	r16,r4
   2a8d8:	10c00215 	stw	r3,8(r2)
   2a8dc:	a9800117 	ldw	r6,4(r21)
   2a8e0:	a445c83a 	sub	r2,r20,r17
   2a8e4:	10c00430 	cmpltui	r3,r2,16
   2a8e8:	3180004c 	andi	r6,r6,1
   2a8ec:	18004926 	beq	r3,zero,2aa14 <_realloc_r+0x294>
   2a8f0:	a18cb03a 	or	r6,r20,r6
   2a8f4:	a9800115 	stw	r6,4(r21)
   2a8f8:	b0800117 	ldw	r2,4(r22)
   2a8fc:	10800054 	ori	r2,r2,1
   2a900:	b0800115 	stw	r2,4(r22)
   2a904:	9809883a 	mov	r4,r19
   2a908:	00308180 	call	30818 <__malloc_unlock>
   2a90c:	8025883a 	mov	r18,r16
   2a910:	00000606 	br	2a92c <_realloc_r+0x1ac>
   2a914:	04400404 	movi	r17,16
   2a918:	00c00404 	movi	r3,16
   2a91c:	8cbfb02e 	bgeu	r17,r18,2a7e0 <_realloc_r+0x60>
   2a920:	00800304 	movi	r2,12
   2a924:	98800015 	stw	r2,0(r19)
   2a928:	0025883a 	mov	r18,zero
   2a92c:	9005883a 	mov	r2,r18
   2a930:	dfc00a17 	ldw	ra,40(sp)
   2a934:	df000917 	ldw	fp,36(sp)
   2a938:	ddc00817 	ldw	r23,32(sp)
   2a93c:	dd800717 	ldw	r22,28(sp)
   2a940:	dd400617 	ldw	r21,24(sp)
   2a944:	dd000517 	ldw	r20,20(sp)
   2a948:	dcc00417 	ldw	r19,16(sp)
   2a94c:	dc800317 	ldw	r18,12(sp)
   2a950:	dc400217 	ldw	r17,8(sp)
   2a954:	dc000117 	ldw	r16,4(sp)
   2a958:	dec00b04 	addi	sp,sp,44
   2a95c:	f800283a 	ret
   2a960:	1080004c 	andi	r2,r2,1
   2a964:	10006c26 	beq	r2,zero,2ab18 <_realloc_r+0x398>
   2a968:	900b883a 	mov	r5,r18
   2a96c:	9809883a 	mov	r4,r19
   2a970:	00233600 	call	23360 <_malloc_r>
   2a974:	1025883a 	mov	r18,r2
   2a978:	10001626 	beq	r2,zero,2a9d4 <_realloc_r+0x254>
   2a97c:	80bfff17 	ldw	r2,-4(r16)
   2a980:	013fff84 	movi	r4,-2
   2a984:	90fffe04 	addi	r3,r18,-8
   2a988:	1104703a 	and	r2,r2,r4
   2a98c:	a885883a 	add	r2,r21,r2
   2a990:	10c05b26 	beq	r2,r3,2ab00 <_realloc_r+0x380>
   2a994:	a1bfff04 	addi	r6,r20,-4
   2a998:	30800968 	cmpgeui	r2,r6,37
   2a99c:	10006a1e 	bne	r2,zero,2ab48 <_realloc_r+0x3c8>
   2a9a0:	30800530 	cmpltui	r2,r6,20
   2a9a4:	81000017 	ldw	r4,0(r16)
   2a9a8:	10003726 	beq	r2,zero,2aa88 <_realloc_r+0x308>
   2a9ac:	9005883a 	mov	r2,r18
   2a9b0:	8007883a 	mov	r3,r16
   2a9b4:	11000015 	stw	r4,0(r2)
   2a9b8:	19000117 	ldw	r4,4(r3)
   2a9bc:	11000115 	stw	r4,4(r2)
   2a9c0:	18c00217 	ldw	r3,8(r3)
   2a9c4:	10c00215 	stw	r3,8(r2)
   2a9c8:	800b883a 	mov	r5,r16
   2a9cc:	9809883a 	mov	r4,r19
   2a9d0:	00286f40 	call	286f4 <_free_r>
   2a9d4:	9809883a 	mov	r4,r19
   2a9d8:	00308180 	call	30818 <__malloc_unlock>
   2a9dc:	003fd306 	br	2a92c <_realloc_r+0x1ac>
   2a9e0:	300b883a 	mov	r5,r6
   2a9e4:	dfc00a17 	ldw	ra,40(sp)
   2a9e8:	df000917 	ldw	fp,36(sp)
   2a9ec:	ddc00817 	ldw	r23,32(sp)
   2a9f0:	dd800717 	ldw	r22,28(sp)
   2a9f4:	dd400617 	ldw	r21,24(sp)
   2a9f8:	dd000517 	ldw	r20,20(sp)
   2a9fc:	dcc00417 	ldw	r19,16(sp)
   2aa00:	dc800317 	ldw	r18,12(sp)
   2aa04:	dc400217 	ldw	r17,8(sp)
   2aa08:	dc000117 	ldw	r16,4(sp)
   2aa0c:	dec00b04 	addi	sp,sp,44
   2aa10:	00233601 	jmpi	23360 <_malloc_r>
   2aa14:	344cb03a 	or	r6,r6,r17
   2aa18:	a9800115 	stw	r6,4(r21)
   2aa1c:	ac4b883a 	add	r5,r21,r17
   2aa20:	10800054 	ori	r2,r2,1
   2aa24:	28800115 	stw	r2,4(r5)
   2aa28:	b0800117 	ldw	r2,4(r22)
   2aa2c:	29400204 	addi	r5,r5,8
   2aa30:	9809883a 	mov	r4,r19
   2aa34:	10800054 	ori	r2,r2,1
   2aa38:	b0800115 	stw	r2,4(r22)
   2aa3c:	00286f40 	call	286f4 <_free_r>
   2aa40:	003fb006 	br	2a904 <_realloc_r+0x184>
   2aa44:	2148703a 	and	r4,r4,r5
   2aa48:	a10b883a 	add	r5,r20,r4
   2aa4c:	89800404 	addi	r6,r17,16
   2aa50:	29bf7716 	blt	r5,r6,2a830 <_realloc_r+0xb0>
   2aa54:	ac6b883a 	add	r21,r21,r17
   2aa58:	2c45c83a 	sub	r2,r5,r17
   2aa5c:	e5400215 	stw	r21,8(fp)
   2aa60:	10800054 	ori	r2,r2,1
   2aa64:	a8800115 	stw	r2,4(r21)
   2aa68:	80bfff17 	ldw	r2,-4(r16)
   2aa6c:	9809883a 	mov	r4,r19
   2aa70:	8025883a 	mov	r18,r16
   2aa74:	1080004c 	andi	r2,r2,1
   2aa78:	1462b03a 	or	r17,r2,r17
   2aa7c:	847fff15 	stw	r17,-4(r16)
   2aa80:	00308180 	call	30818 <__malloc_unlock>
   2aa84:	003fa906 	br	2a92c <_realloc_r+0x1ac>
   2aa88:	91000015 	stw	r4,0(r18)
   2aa8c:	80c00117 	ldw	r3,4(r16)
   2aa90:	30800728 	cmpgeui	r2,r6,28
   2aa94:	90c00115 	stw	r3,4(r18)
   2aa98:	1000551e 	bne	r2,zero,2abf0 <_realloc_r+0x470>
   2aa9c:	81000217 	ldw	r4,8(r16)
   2aaa0:	80c00204 	addi	r3,r16,8
   2aaa4:	90800204 	addi	r2,r18,8
   2aaa8:	003fc206 	br	2a9b4 <_realloc_r+0x234>
   2aaac:	b0800317 	ldw	r2,12(r22)
   2aab0:	b0c00217 	ldw	r3,8(r22)
   2aab4:	a1bfff04 	addi	r6,r20,-4
   2aab8:	31400968 	cmpgeui	r5,r6,37
   2aabc:	18800315 	stw	r2,12(r3)
   2aac0:	10c00215 	stw	r3,8(r2)
   2aac4:	38c00217 	ldw	r3,8(r7)
   2aac8:	38800317 	ldw	r2,12(r7)
   2aacc:	39000204 	addi	r4,r7,8
   2aad0:	3ded883a 	add	r22,r7,r23
   2aad4:	18800315 	stw	r2,12(r3)
   2aad8:	10c00215 	stw	r3,8(r2)
   2aadc:	283f6c26 	beq	r5,zero,2a890 <_realloc_r+0x110>
   2aae0:	800b883a 	mov	r5,r16
   2aae4:	d9c00015 	stw	r7,0(sp)
   2aae8:	00293a80 	call	293a8 <memmove>
   2aaec:	d9c00017 	ldw	r7,0(sp)
   2aaf0:	1021883a 	mov	r16,r2
   2aaf4:	b829883a 	mov	r20,r23
   2aaf8:	382b883a 	mov	r21,r7
   2aafc:	003f7706 	br	2a8dc <_realloc_r+0x15c>
   2ab00:	90bfff17 	ldw	r2,-4(r18)
   2ab04:	00ffff04 	movi	r3,-4
   2ab08:	10c4703a 	and	r2,r2,r3
   2ab0c:	a0a9883a 	add	r20,r20,r2
   2ab10:	ad2d883a 	add	r22,r21,r20
   2ab14:	003f7106 	br	2a8dc <_realloc_r+0x15c>
   2ab18:	81fffe17 	ldw	r7,-8(r16)
   2ab1c:	a9cfc83a 	sub	r7,r21,r7
   2ab20:	39000117 	ldw	r4,4(r7)
   2ab24:	214a703a 	and	r5,r4,r5
   2ab28:	003f4d06 	br	2a860 <_realloc_r+0xe0>
   2ab2c:	b0800317 	ldw	r2,12(r22)
   2ab30:	b0c00217 	ldw	r3,8(r22)
   2ab34:	2829883a 	mov	r20,r5
   2ab38:	a96d883a 	add	r22,r21,r5
   2ab3c:	18800315 	stw	r2,12(r3)
   2ab40:	10c00215 	stw	r3,8(r2)
   2ab44:	003f6506 	br	2a8dc <_realloc_r+0x15c>
   2ab48:	800b883a 	mov	r5,r16
   2ab4c:	9009883a 	mov	r4,r18
   2ab50:	00293a80 	call	293a8 <memmove>
   2ab54:	003f9c06 	br	2a9c8 <_realloc_r+0x248>
   2ab58:	88800404 	addi	r2,r17,16
   2ab5c:	b8bf4016 	blt	r23,r2,2a860 <_realloc_r+0xe0>
   2ab60:	38800317 	ldw	r2,12(r7)
   2ab64:	38c00217 	ldw	r3,8(r7)
   2ab68:	a1bfff04 	addi	r6,r20,-4
   2ab6c:	31000968 	cmpgeui	r4,r6,37
   2ab70:	18800315 	stw	r2,12(r3)
   2ab74:	10c00215 	stw	r3,8(r2)
   2ab78:	3c800204 	addi	r18,r7,8
   2ab7c:	20003b1e 	bne	r4,zero,2ac6c <_realloc_r+0x4ec>
   2ab80:	30800530 	cmpltui	r2,r6,20
   2ab84:	80c00017 	ldw	r3,0(r16)
   2ab88:	1000361e 	bne	r2,zero,2ac64 <_realloc_r+0x4e4>
   2ab8c:	38c00215 	stw	r3,8(r7)
   2ab90:	80c00117 	ldw	r3,4(r16)
   2ab94:	30800728 	cmpgeui	r2,r6,28
   2ab98:	38c00315 	stw	r3,12(r7)
   2ab9c:	1000401e 	bne	r2,zero,2aca0 <_realloc_r+0x520>
   2aba0:	80c00217 	ldw	r3,8(r16)
   2aba4:	38800404 	addi	r2,r7,16
   2aba8:	84000204 	addi	r16,r16,8
   2abac:	10c00015 	stw	r3,0(r2)
   2abb0:	80c00117 	ldw	r3,4(r16)
   2abb4:	10c00115 	stw	r3,4(r2)
   2abb8:	80c00217 	ldw	r3,8(r16)
   2abbc:	10c00215 	stw	r3,8(r2)
   2abc0:	3c47883a 	add	r3,r7,r17
   2abc4:	bc45c83a 	sub	r2,r23,r17
   2abc8:	e0c00215 	stw	r3,8(fp)
   2abcc:	10800054 	ori	r2,r2,1
   2abd0:	18800115 	stw	r2,4(r3)
   2abd4:	38800117 	ldw	r2,4(r7)
   2abd8:	9809883a 	mov	r4,r19
   2abdc:	1080004c 	andi	r2,r2,1
   2abe0:	1462b03a 	or	r17,r2,r17
   2abe4:	3c400115 	stw	r17,4(r7)
   2abe8:	00308180 	call	30818 <__malloc_unlock>
   2abec:	003f4f06 	br	2a92c <_realloc_r+0x1ac>
   2abf0:	80800217 	ldw	r2,8(r16)
   2abf4:	31800920 	cmpeqi	r6,r6,36
   2abf8:	90800215 	stw	r2,8(r18)
   2abfc:	80800317 	ldw	r2,12(r16)
   2ac00:	90800315 	stw	r2,12(r18)
   2ac04:	81000417 	ldw	r4,16(r16)
   2ac08:	30000f1e 	bne	r6,zero,2ac48 <_realloc_r+0x4c8>
   2ac0c:	80c00404 	addi	r3,r16,16
   2ac10:	90800404 	addi	r2,r18,16
   2ac14:	003f6706 	br	2a9b4 <_realloc_r+0x234>
   2ac18:	2005883a 	mov	r2,r4
   2ac1c:	003f2706 	br	2a8bc <_realloc_r+0x13c>
   2ac20:	80800217 	ldw	r2,8(r16)
   2ac24:	31800920 	cmpeqi	r6,r6,36
   2ac28:	38800415 	stw	r2,16(r7)
   2ac2c:	80800317 	ldw	r2,12(r16)
   2ac30:	38800515 	stw	r2,20(r7)
   2ac34:	80c00417 	ldw	r3,16(r16)
   2ac38:	3000121e 	bne	r6,zero,2ac84 <_realloc_r+0x504>
   2ac3c:	38800604 	addi	r2,r7,24
   2ac40:	84000404 	addi	r16,r16,16
   2ac44:	003f1d06 	br	2a8bc <_realloc_r+0x13c>
   2ac48:	91000415 	stw	r4,16(r18)
   2ac4c:	81000517 	ldw	r4,20(r16)
   2ac50:	80c00604 	addi	r3,r16,24
   2ac54:	90800604 	addi	r2,r18,24
   2ac58:	91000515 	stw	r4,20(r18)
   2ac5c:	81000617 	ldw	r4,24(r16)
   2ac60:	003f5406 	br	2a9b4 <_realloc_r+0x234>
   2ac64:	9005883a 	mov	r2,r18
   2ac68:	003fd006 	br	2abac <_realloc_r+0x42c>
   2ac6c:	800b883a 	mov	r5,r16
   2ac70:	9009883a 	mov	r4,r18
   2ac74:	d9c00015 	stw	r7,0(sp)
   2ac78:	00293a80 	call	293a8 <memmove>
   2ac7c:	d9c00017 	ldw	r7,0(sp)
   2ac80:	003fcf06 	br	2abc0 <_realloc_r+0x440>
   2ac84:	84000604 	addi	r16,r16,24
   2ac88:	38c00615 	stw	r3,24(r7)
   2ac8c:	80ffff17 	ldw	r3,-4(r16)
   2ac90:	38800804 	addi	r2,r7,32
   2ac94:	38c00715 	stw	r3,28(r7)
   2ac98:	80c00017 	ldw	r3,0(r16)
   2ac9c:	003f0706 	br	2a8bc <_realloc_r+0x13c>
   2aca0:	80800217 	ldw	r2,8(r16)
   2aca4:	31800920 	cmpeqi	r6,r6,36
   2aca8:	38800415 	stw	r2,16(r7)
   2acac:	80800317 	ldw	r2,12(r16)
   2acb0:	38800515 	stw	r2,20(r7)
   2acb4:	80c00417 	ldw	r3,16(r16)
   2acb8:	3000031e 	bne	r6,zero,2acc8 <_realloc_r+0x548>
   2acbc:	38800604 	addi	r2,r7,24
   2acc0:	84000404 	addi	r16,r16,16
   2acc4:	003fb906 	br	2abac <_realloc_r+0x42c>
   2acc8:	84000604 	addi	r16,r16,24
   2accc:	38c00615 	stw	r3,24(r7)
   2acd0:	80ffff17 	ldw	r3,-4(r16)
   2acd4:	38800804 	addi	r2,r7,32
   2acd8:	38c00715 	stw	r3,28(r7)
   2acdc:	80c00017 	ldw	r3,0(r16)
   2ace0:	003fb206 	br	2abac <_realloc_r+0x42c>

0002ace4 <__srget_r>:
   2ace4:	defffd04 	addi	sp,sp,-12
   2ace8:	dc400115 	stw	r17,4(sp)
   2acec:	dc000015 	stw	r16,0(sp)
   2acf0:	dfc00215 	stw	ra,8(sp)
   2acf4:	2023883a 	mov	r17,r4
   2acf8:	2821883a 	mov	r16,r5
   2acfc:	20000226 	beq	r4,zero,2ad08 <__srget_r+0x24>
   2ad00:	20800e17 	ldw	r2,56(r4)
   2ad04:	10001026 	beq	r2,zero,2ad48 <__srget_r+0x64>
   2ad08:	800b883a 	mov	r5,r16
   2ad0c:	8809883a 	mov	r4,r17
   2ad10:	0023e140 	call	23e14 <__srefill_r>
   2ad14:	10000e1e 	bne	r2,zero,2ad50 <__srget_r+0x6c>
   2ad18:	80c00017 	ldw	r3,0(r16)
   2ad1c:	80800117 	ldw	r2,4(r16)
   2ad20:	19000044 	addi	r4,r3,1
   2ad24:	10bfffc4 	addi	r2,r2,-1
   2ad28:	80800115 	stw	r2,4(r16)
   2ad2c:	81000015 	stw	r4,0(r16)
   2ad30:	18800003 	ldbu	r2,0(r3)
   2ad34:	dfc00217 	ldw	ra,8(sp)
   2ad38:	dc400117 	ldw	r17,4(sp)
   2ad3c:	dc000017 	ldw	r16,0(sp)
   2ad40:	dec00304 	addi	sp,sp,12
   2ad44:	f800283a 	ret
   2ad48:	00284d80 	call	284d8 <__sinit>
   2ad4c:	003fee06 	br	2ad08 <__srget_r+0x24>
   2ad50:	00bfffc4 	movi	r2,-1
   2ad54:	003ff706 	br	2ad34 <__srget_r+0x50>

0002ad58 <__srget>:
   2ad58:	008000f4 	movhi	r2,3
   2ad5c:	200b883a 	mov	r5,r4
   2ad60:	11190c17 	ldw	r4,25648(r2)
   2ad64:	002ace41 	jmpi	2ace4 <__srget_r>

0002ad68 <__sprint_r.part.0>:
   2ad68:	28801917 	ldw	r2,100(r5)
   2ad6c:	defff604 	addi	sp,sp,-40
   2ad70:	dcc00315 	stw	r19,12(sp)
   2ad74:	dfc00915 	stw	ra,36(sp)
   2ad78:	df000815 	stw	fp,32(sp)
   2ad7c:	ddc00715 	stw	r23,28(sp)
   2ad80:	dd800615 	stw	r22,24(sp)
   2ad84:	dd400515 	stw	r21,20(sp)
   2ad88:	dd000415 	stw	r20,16(sp)
   2ad8c:	dc800215 	stw	r18,8(sp)
   2ad90:	dc400115 	stw	r17,4(sp)
   2ad94:	dc000015 	stw	r16,0(sp)
   2ad98:	1088000c 	andi	r2,r2,8192
   2ad9c:	3027883a 	mov	r19,r6
   2ada0:	10002c26 	beq	r2,zero,2ae54 <__sprint_r.part.0+0xec>
   2ada4:	30800217 	ldw	r2,8(r6)
   2ada8:	35000017 	ldw	r20,0(r6)
   2adac:	2821883a 	mov	r16,r5
   2adb0:	2023883a 	mov	r17,r4
   2adb4:	05bfff04 	movi	r22,-4
   2adb8:	10002426 	beq	r2,zero,2ae4c <__sprint_r.part.0+0xe4>
   2adbc:	a5400117 	ldw	r21,4(r20)
   2adc0:	a5c00017 	ldw	r23,0(r20)
   2adc4:	a824d0ba 	srli	r18,r21,2
   2adc8:	90001b26 	beq	r18,zero,2ae38 <__sprint_r.part.0+0xd0>
   2adcc:	0039883a 	mov	fp,zero
   2add0:	00000206 	br	2addc <__sprint_r.part.0+0x74>
   2add4:	bdc00104 	addi	r23,r23,4
   2add8:	97001626 	beq	r18,fp,2ae34 <__sprint_r.part.0+0xcc>
   2addc:	b9400017 	ldw	r5,0(r23)
   2ade0:	800d883a 	mov	r6,r16
   2ade4:	8809883a 	mov	r4,r17
   2ade8:	002c7a40 	call	2c7a4 <_fputwc_r>
   2adec:	10bfffe0 	cmpeqi	r2,r2,-1
   2adf0:	e7000044 	addi	fp,fp,1
   2adf4:	103ff726 	beq	r2,zero,2add4 <__sprint_r.part.0+0x6c>
   2adf8:	00bfffc4 	movi	r2,-1
   2adfc:	98000215 	stw	zero,8(r19)
   2ae00:	98000115 	stw	zero,4(r19)
   2ae04:	dfc00917 	ldw	ra,36(sp)
   2ae08:	df000817 	ldw	fp,32(sp)
   2ae0c:	ddc00717 	ldw	r23,28(sp)
   2ae10:	dd800617 	ldw	r22,24(sp)
   2ae14:	dd400517 	ldw	r21,20(sp)
   2ae18:	dd000417 	ldw	r20,16(sp)
   2ae1c:	dcc00317 	ldw	r19,12(sp)
   2ae20:	dc800217 	ldw	r18,8(sp)
   2ae24:	dc400117 	ldw	r17,4(sp)
   2ae28:	dc000017 	ldw	r16,0(sp)
   2ae2c:	dec00a04 	addi	sp,sp,40
   2ae30:	f800283a 	ret
   2ae34:	98800217 	ldw	r2,8(r19)
   2ae38:	adaa703a 	and	r21,r21,r22
   2ae3c:	1545c83a 	sub	r2,r2,r21
   2ae40:	98800215 	stw	r2,8(r19)
   2ae44:	a5000204 	addi	r20,r20,8
   2ae48:	103fdc1e 	bne	r2,zero,2adbc <__sprint_r.part.0+0x54>
   2ae4c:	0005883a 	mov	r2,zero
   2ae50:	003fea06 	br	2adfc <__sprint_r.part.0+0x94>
   2ae54:	00289f00 	call	289f0 <__sfvwrite_r>
   2ae58:	003fe806 	br	2adfc <__sprint_r.part.0+0x94>

0002ae5c <__sprint_r>:
   2ae5c:	30c00217 	ldw	r3,8(r6)
   2ae60:	18000126 	beq	r3,zero,2ae68 <__sprint_r+0xc>
   2ae64:	002ad681 	jmpi	2ad68 <__sprint_r.part.0>
   2ae68:	30000115 	stw	zero,4(r6)
   2ae6c:	0005883a 	mov	r2,zero
   2ae70:	f800283a 	ret

0002ae74 <___vfiprintf_internal_r>:
   2ae74:	deffcf04 	addi	sp,sp,-196
   2ae78:	dd802d15 	stw	r22,180(sp)
   2ae7c:	dd402c15 	stw	r21,176(sp)
   2ae80:	dd002b15 	stw	r20,172(sp)
   2ae84:	dfc03015 	stw	ra,192(sp)
   2ae88:	df002f15 	stw	fp,188(sp)
   2ae8c:	ddc02e15 	stw	r23,184(sp)
   2ae90:	dcc02a15 	stw	r19,168(sp)
   2ae94:	dc802915 	stw	r18,164(sp)
   2ae98:	dc402815 	stw	r17,160(sp)
   2ae9c:	dc002715 	stw	r16,156(sp)
   2aea0:	d9c00415 	stw	r7,16(sp)
   2aea4:	202d883a 	mov	r22,r4
   2aea8:	282b883a 	mov	r21,r5
   2aeac:	3029883a 	mov	r20,r6
   2aeb0:	20000226 	beq	r4,zero,2aebc <___vfiprintf_internal_r+0x48>
   2aeb4:	20800e17 	ldw	r2,56(r4)
   2aeb8:	1001b226 	beq	r2,zero,2b584 <___vfiprintf_internal_r+0x710>
   2aebc:	a880030b 	ldhu	r2,12(r21)
   2aec0:	10c8000c 	andi	r3,r2,8192
   2aec4:	1800061e 	bne	r3,zero,2aee0 <___vfiprintf_internal_r+0x6c>
   2aec8:	a8c01917 	ldw	r3,100(r21)
   2aecc:	0137ffc4 	movi	r4,-8193
   2aed0:	10880014 	ori	r2,r2,8192
   2aed4:	1906703a 	and	r3,r3,r4
   2aed8:	a880030d 	sth	r2,12(r21)
   2aedc:	a8c01915 	stw	r3,100(r21)
   2aee0:	10c0020c 	andi	r3,r2,8
   2aee4:	18010626 	beq	r3,zero,2b300 <___vfiprintf_internal_r+0x48c>
   2aee8:	a8c00417 	ldw	r3,16(r21)
   2aeec:	18010426 	beq	r3,zero,2b300 <___vfiprintf_internal_r+0x48c>
   2aef0:	1080068c 	andi	r2,r2,26
   2aef4:	10800298 	cmpnei	r2,r2,10
   2aef8:	10010926 	beq	r2,zero,2b320 <___vfiprintf_internal_r+0x4ac>
   2aefc:	dc801704 	addi	r18,sp,92
   2af00:	dc800a15 	stw	r18,40(sp)
   2af04:	d8000c15 	stw	zero,48(sp)
   2af08:	d8000b15 	stw	zero,44(sp)
   2af0c:	9021883a 	mov	r16,r18
   2af10:	d8000515 	stw	zero,20(sp)
   2af14:	d8000115 	stw	zero,4(sp)
   2af18:	a0c00007 	ldb	r3,0(r20)
   2af1c:	1800e626 	beq	r3,zero,2b2b8 <___vfiprintf_internal_r+0x444>
   2af20:	a023883a 	mov	r17,r20
   2af24:	00000306 	br	2af34 <___vfiprintf_internal_r+0xc0>
   2af28:	88c00047 	ldb	r3,1(r17)
   2af2c:	8c400044 	addi	r17,r17,1
   2af30:	18012826 	beq	r3,zero,2b3d4 <___vfiprintf_internal_r+0x560>
   2af34:	18c00958 	cmpnei	r3,r3,37
   2af38:	183ffb1e 	bne	r3,zero,2af28 <___vfiprintf_internal_r+0xb4>
   2af3c:	8d27c83a 	sub	r19,r17,r20
   2af40:	8d01261e 	bne	r17,r20,2b3dc <___vfiprintf_internal_r+0x568>
   2af44:	88800003 	ldbu	r2,0(r17)
   2af48:	10803fcc 	andi	r2,r2,255
   2af4c:	1080201c 	xori	r2,r2,128
   2af50:	10bfe004 	addi	r2,r2,-128
   2af54:	1000d826 	beq	r2,zero,2b2b8 <___vfiprintf_internal_r+0x444>
   2af58:	88800047 	ldb	r2,1(r17)
   2af5c:	8d000044 	addi	r20,r17,1
   2af60:	d8000945 	stb	zero,37(sp)
   2af64:	000b883a 	mov	r5,zero
   2af68:	000d883a 	mov	r6,zero
   2af6c:	023fffc4 	movi	r8,-1
   2af70:	0023883a 	mov	r17,zero
   2af74:	001b883a 	mov	r13,zero
   2af78:	a5000044 	addi	r20,r20,1
   2af7c:	10fff804 	addi	r3,r2,-32
   2af80:	19001668 	cmpgeui	r4,r3,89
   2af84:	20006a1e 	bne	r4,zero,2b130 <___vfiprintf_internal_r+0x2bc>
   2af88:	180690ba 	slli	r3,r3,2
   2af8c:	010000f4 	movhi	r4,3
   2af90:	1909883a 	add	r4,r3,r4
   2af94:	20ebe717 	ldw	r3,-20580(r4)
   2af98:	1800683a 	jmp	r3
   2af9c:	0002b88c 	andi	zero,zero,2786
   2afa0:	0002b130 	cmpltui	zero,zero,2756
   2afa4:	0002b130 	cmpltui	zero,zero,2756
   2afa8:	0002b880 	call	2b88 <__alt_mem_onchip_memory2_0-0x1d478>
   2afac:	0002b130 	cmpltui	zero,zero,2756
   2afb0:	0002b130 	cmpltui	zero,zero,2756
   2afb4:	0002b130 	cmpltui	zero,zero,2756
   2afb8:	0002b130 	cmpltui	zero,zero,2756
   2afbc:	0002b130 	cmpltui	zero,zero,2756
   2afc0:	0002b130 	cmpltui	zero,zero,2756
   2afc4:	0002b858 	cmpnei	zero,zero,2785
   2afc8:	0002b848 	cmpgei	zero,zero,2785
   2afcc:	0002b130 	cmpltui	zero,zero,2756
   2afd0:	0002b830 	cmpltui	zero,zero,2784
   2afd4:	0002b7ec 	andhi	zero,zero,2783
   2afd8:	0002b130 	cmpltui	zero,zero,2756
   2afdc:	0002b7e0 	cmpeqi	zero,zero,2783
   2afe0:	0002b100 	call	2b10 <__alt_mem_onchip_memory2_0-0x1d4f0>
   2afe4:	0002b100 	call	2b10 <__alt_mem_onchip_memory2_0-0x1d4f0>
   2afe8:	0002b100 	call	2b10 <__alt_mem_onchip_memory2_0-0x1d4f0>
   2afec:	0002b100 	call	2b10 <__alt_mem_onchip_memory2_0-0x1d4f0>
   2aff0:	0002b100 	call	2b10 <__alt_mem_onchip_memory2_0-0x1d4f0>
   2aff4:	0002b100 	call	2b10 <__alt_mem_onchip_memory2_0-0x1d4f0>
   2aff8:	0002b100 	call	2b10 <__alt_mem_onchip_memory2_0-0x1d4f0>
   2affc:	0002b100 	call	2b10 <__alt_mem_onchip_memory2_0-0x1d4f0>
   2b000:	0002b100 	call	2b10 <__alt_mem_onchip_memory2_0-0x1d4f0>
   2b004:	0002b130 	cmpltui	zero,zero,2756
   2b008:	0002b130 	cmpltui	zero,zero,2756
   2b00c:	0002b130 	cmpltui	zero,zero,2756
   2b010:	0002b130 	cmpltui	zero,zero,2756
   2b014:	0002b130 	cmpltui	zero,zero,2756
   2b018:	0002b130 	cmpltui	zero,zero,2756
   2b01c:	0002b130 	cmpltui	zero,zero,2756
   2b020:	0002b130 	cmpltui	zero,zero,2756
   2b024:	0002b130 	cmpltui	zero,zero,2756
   2b028:	0002b130 	cmpltui	zero,zero,2756
   2b02c:	0002b6fc 	xorhi	zero,zero,2779
   2b030:	0002b130 	cmpltui	zero,zero,2756
   2b034:	0002b130 	cmpltui	zero,zero,2756
   2b038:	0002b130 	cmpltui	zero,zero,2756
   2b03c:	0002b130 	cmpltui	zero,zero,2756
   2b040:	0002b130 	cmpltui	zero,zero,2756
   2b044:	0002b130 	cmpltui	zero,zero,2756
   2b048:	0002b130 	cmpltui	zero,zero,2756
   2b04c:	0002b130 	cmpltui	zero,zero,2756
   2b050:	0002b130 	cmpltui	zero,zero,2756
   2b054:	0002b130 	cmpltui	zero,zero,2756
   2b058:	0002b36c 	andhi	zero,zero,2765
   2b05c:	0002b130 	cmpltui	zero,zero,2756
   2b060:	0002b130 	cmpltui	zero,zero,2756
   2b064:	0002b130 	cmpltui	zero,zero,2756
   2b068:	0002b130 	cmpltui	zero,zero,2756
   2b06c:	0002b130 	cmpltui	zero,zero,2756
   2b070:	0002b344 	movi	zero,2765
   2b074:	0002b130 	cmpltui	zero,zero,2756
   2b078:	0002b130 	cmpltui	zero,zero,2756
   2b07c:	0002b6b4 	movhi	zero,2778
   2b080:	0002b130 	cmpltui	zero,zero,2756
   2b084:	0002b130 	cmpltui	zero,zero,2756
   2b088:	0002b130 	cmpltui	zero,zero,2756
   2b08c:	0002b130 	cmpltui	zero,zero,2756
   2b090:	0002b130 	cmpltui	zero,zero,2756
   2b094:	0002b130 	cmpltui	zero,zero,2756
   2b098:	0002b130 	cmpltui	zero,zero,2756
   2b09c:	0002b130 	cmpltui	zero,zero,2756
   2b0a0:	0002b130 	cmpltui	zero,zero,2756
   2b0a4:	0002b130 	cmpltui	zero,zero,2756
   2b0a8:	0002b68c 	andi	zero,zero,2778
   2b0ac:	0002b58c 	andi	zero,zero,2774
   2b0b0:	0002b130 	cmpltui	zero,zero,2756
   2b0b4:	0002b130 	cmpltui	zero,zero,2756
   2b0b8:	0002b130 	cmpltui	zero,zero,2756
   2b0bc:	0002b630 	cmpltui	zero,zero,2776
   2b0c0:	0002b58c 	andi	zero,zero,2774
   2b0c4:	0002b130 	cmpltui	zero,zero,2756
   2b0c8:	0002b130 	cmpltui	zero,zero,2756
   2b0cc:	0002b678 	rdprs	zero,zero,2777
   2b0d0:	0002b130 	cmpltui	zero,zero,2756
   2b0d4:	0002b63c 	xorhi	zero,zero,2776
   2b0d8:	0002b370 	cmpltui	zero,zero,2765
   2b0dc:	0002b964 	muli	zero,zero,2789
   2b0e0:	0002b958 	cmpnei	zero,zero,2789
   2b0e4:	0002b130 	cmpltui	zero,zero,2756
   2b0e8:	0002b900 	call	2b90 <__alt_mem_onchip_memory2_0-0x1d470>
   2b0ec:	0002b130 	cmpltui	zero,zero,2756
   2b0f0:	0002b348 	cmpgei	zero,zero,2765
   2b0f4:	0002b130 	cmpltui	zero,zero,2756
   2b0f8:	0002b130 	cmpltui	zero,zero,2756
   2b0fc:	0002b8b8 	rdprs	zero,zero,2786
   2b100:	0023883a 	mov	r17,zero
   2b104:	10fff404 	addi	r3,r2,-48
   2b108:	a0800007 	ldb	r2,0(r20)
   2b10c:	8c4002a4 	muli	r17,r17,10
   2b110:	a5000044 	addi	r20,r20,1
   2b114:	1c63883a 	add	r17,r3,r17
   2b118:	10fff404 	addi	r3,r2,-48
   2b11c:	190002b0 	cmpltui	r4,r3,10
   2b120:	203ff91e 	bne	r4,zero,2b108 <___vfiprintf_internal_r+0x294>
   2b124:	10fff804 	addi	r3,r2,-32
   2b128:	19001668 	cmpgeui	r4,r3,89
   2b12c:	203f9626 	beq	r4,zero,2af88 <___vfiprintf_internal_r+0x114>
   2b130:	29403fcc 	andi	r5,r5,255
   2b134:	2803e11e 	bne	r5,zero,2c0bc <___vfiprintf_internal_r+0x1248>
   2b138:	10005f26 	beq	r2,zero,2b2b8 <___vfiprintf_internal_r+0x444>
   2b13c:	d8800d05 	stb	r2,52(sp)
   2b140:	d8000945 	stb	zero,37(sp)
   2b144:	05c00044 	movi	r23,1
   2b148:	07000044 	movi	fp,1
   2b14c:	dcc00d04 	addi	r19,sp,52
   2b150:	db400015 	stw	r13,0(sp)
   2b154:	0011883a 	mov	r8,zero
   2b158:	d8800017 	ldw	r2,0(sp)
   2b15c:	1380008c 	andi	r14,r2,2
   2b160:	70000126 	beq	r14,zero,2b168 <___vfiprintf_internal_r+0x2f4>
   2b164:	bdc00084 	addi	r23,r23,2
   2b168:	d8800017 	ldw	r2,0(sp)
   2b16c:	d9000b17 	ldw	r4,44(sp)
   2b170:	1340210c 	andi	r13,r2,132
   2b174:	21800044 	addi	r6,r4,1
   2b178:	d8800c17 	ldw	r2,48(sp)
   2b17c:	300b883a 	mov	r5,r6
   2b180:	6800021e 	bne	r13,zero,2b18c <___vfiprintf_internal_r+0x318>
   2b184:	8dc7c83a 	sub	r3,r17,r23
   2b188:	00c2d516 	blt	zero,r3,2bce0 <___vfiprintf_internal_r+0xe6c>
   2b18c:	d8c00947 	ldb	r3,37(sp)
   2b190:	81800204 	addi	r6,r16,8
   2b194:	18000d26 	beq	r3,zero,2b1cc <___vfiprintf_internal_r+0x358>
   2b198:	d8c00944 	addi	r3,sp,37
   2b19c:	10800044 	addi	r2,r2,1
   2b1a0:	80c00015 	stw	r3,0(r16)
   2b1a4:	00c00044 	movi	r3,1
   2b1a8:	80c00115 	stw	r3,4(r16)
   2b1ac:	d8800c15 	stw	r2,48(sp)
   2b1b0:	d9400b15 	stw	r5,44(sp)
   2b1b4:	28c00208 	cmpgei	r3,r5,8
   2b1b8:	1802aa1e 	bne	r3,zero,2bc64 <___vfiprintf_internal_r+0xdf0>
   2b1bc:	2809883a 	mov	r4,r5
   2b1c0:	3021883a 	mov	r16,r6
   2b1c4:	29400044 	addi	r5,r5,1
   2b1c8:	31800204 	addi	r6,r6,8
   2b1cc:	70001826 	beq	r14,zero,2b230 <___vfiprintf_internal_r+0x3bc>
   2b1d0:	d8c00984 	addi	r3,sp,38
   2b1d4:	10800084 	addi	r2,r2,2
   2b1d8:	80c00015 	stw	r3,0(r16)
   2b1dc:	00c00084 	movi	r3,2
   2b1e0:	80c00115 	stw	r3,4(r16)
   2b1e4:	d8800c15 	stw	r2,48(sp)
   2b1e8:	d9400b15 	stw	r5,44(sp)
   2b1ec:	28c00208 	cmpgei	r3,r5,8
   2b1f0:	1802b426 	beq	r3,zero,2bcc4 <___vfiprintf_internal_r+0xe50>
   2b1f4:	10031026 	beq	r2,zero,2be38 <___vfiprintf_internal_r+0xfc4>
   2b1f8:	d9800a04 	addi	r6,sp,40
   2b1fc:	a80b883a 	mov	r5,r21
   2b200:	b009883a 	mov	r4,r22
   2b204:	da000315 	stw	r8,12(sp)
   2b208:	db400215 	stw	r13,8(sp)
   2b20c:	002ad680 	call	2ad68 <__sprint_r.part.0>
   2b210:	10002b1e 	bne	r2,zero,2b2c0 <___vfiprintf_internal_r+0x44c>
   2b214:	d9000b17 	ldw	r4,44(sp)
   2b218:	d8800c17 	ldw	r2,48(sp)
   2b21c:	da000317 	ldw	r8,12(sp)
   2b220:	db400217 	ldw	r13,8(sp)
   2b224:	d9801904 	addi	r6,sp,100
   2b228:	21400044 	addi	r5,r4,1
   2b22c:	9021883a 	mov	r16,r18
   2b230:	6b402018 	cmpnei	r13,r13,128
   2b234:	68020a26 	beq	r13,zero,2ba60 <___vfiprintf_internal_r+0xbec>
   2b238:	4711c83a 	sub	r8,r8,fp
   2b23c:	02024916 	blt	zero,r8,2bb64 <___vfiprintf_internal_r+0xcf0>
   2b240:	e085883a 	add	r2,fp,r2
   2b244:	d9400b15 	stw	r5,44(sp)
   2b248:	84c00015 	stw	r19,0(r16)
   2b24c:	87000115 	stw	fp,4(r16)
   2b250:	d8800c15 	stw	r2,48(sp)
   2b254:	29400210 	cmplti	r5,r5,8
   2b258:	2800081e 	bne	r5,zero,2b27c <___vfiprintf_internal_r+0x408>
   2b25c:	10008f26 	beq	r2,zero,2b49c <___vfiprintf_internal_r+0x628>
   2b260:	d9800a04 	addi	r6,sp,40
   2b264:	a80b883a 	mov	r5,r21
   2b268:	b009883a 	mov	r4,r22
   2b26c:	002ad680 	call	2ad68 <__sprint_r.part.0>
   2b270:	1000131e 	bne	r2,zero,2b2c0 <___vfiprintf_internal_r+0x44c>
   2b274:	d8800c17 	ldw	r2,48(sp)
   2b278:	900d883a 	mov	r6,r18
   2b27c:	d8c00017 	ldw	r3,0(sp)
   2b280:	1cc0010c 	andi	r19,r3,4
   2b284:	98000226 	beq	r19,zero,2b290 <___vfiprintf_internal_r+0x41c>
   2b288:	8de1c83a 	sub	r16,r17,r23
   2b28c:	04008a16 	blt	zero,r16,2b4b8 <___vfiprintf_internal_r+0x644>
   2b290:	8dc0010e 	bge	r17,r23,2b298 <___vfiprintf_internal_r+0x424>
   2b294:	b823883a 	mov	r17,r23
   2b298:	d8c00117 	ldw	r3,4(sp)
   2b29c:	1c47883a 	add	r3,r3,r17
   2b2a0:	d8c00115 	stw	r3,4(sp)
   2b2a4:	1002651e 	bne	r2,zero,2bc3c <___vfiprintf_internal_r+0xdc8>
   2b2a8:	a0c00007 	ldb	r3,0(r20)
   2b2ac:	d8000b15 	stw	zero,44(sp)
   2b2b0:	9021883a 	mov	r16,r18
   2b2b4:	183f1a1e 	bne	r3,zero,2af20 <___vfiprintf_internal_r+0xac>
   2b2b8:	d8800c17 	ldw	r2,48(sp)
   2b2bc:	1003811e 	bne	r2,zero,2c0c4 <___vfiprintf_internal_r+0x1250>
   2b2c0:	a880030b 	ldhu	r2,12(r21)
   2b2c4:	1080100c 	andi	r2,r2,64
   2b2c8:	10039c1e 	bne	r2,zero,2c13c <___vfiprintf_internal_r+0x12c8>
   2b2cc:	d8800117 	ldw	r2,4(sp)
   2b2d0:	dfc03017 	ldw	ra,192(sp)
   2b2d4:	df002f17 	ldw	fp,188(sp)
   2b2d8:	ddc02e17 	ldw	r23,184(sp)
   2b2dc:	dd802d17 	ldw	r22,180(sp)
   2b2e0:	dd402c17 	ldw	r21,176(sp)
   2b2e4:	dd002b17 	ldw	r20,172(sp)
   2b2e8:	dcc02a17 	ldw	r19,168(sp)
   2b2ec:	dc802917 	ldw	r18,164(sp)
   2b2f0:	dc402817 	ldw	r17,160(sp)
   2b2f4:	dc002717 	ldw	r16,156(sp)
   2b2f8:	dec03104 	addi	sp,sp,196
   2b2fc:	f800283a 	ret
   2b300:	a80b883a 	mov	r5,r21
   2b304:	b009883a 	mov	r4,r22
   2b308:	002642c0 	call	2642c <__swsetup_r>
   2b30c:	10038b1e 	bne	r2,zero,2c13c <___vfiprintf_internal_r+0x12c8>
   2b310:	a880030b 	ldhu	r2,12(r21)
   2b314:	1080068c 	andi	r2,r2,26
   2b318:	10800298 	cmpnei	r2,r2,10
   2b31c:	103ef71e 	bne	r2,zero,2aefc <___vfiprintf_internal_r+0x88>
   2b320:	a880038f 	ldh	r2,14(r21)
   2b324:	103ef516 	blt	r2,zero,2aefc <___vfiprintf_internal_r+0x88>
   2b328:	d9c00417 	ldw	r7,16(sp)
   2b32c:	a00d883a 	mov	r6,r20
   2b330:	a80b883a 	mov	r5,r21
   2b334:	b009883a 	mov	r4,r22
   2b338:	002c1940 	call	2c194 <__sbprintf>
   2b33c:	d8800115 	stw	r2,4(sp)
   2b340:	003fe206 	br	2b2cc <___vfiprintf_internal_r+0x458>
   2b344:	6b400414 	ori	r13,r13,16
   2b348:	6880080c 	andi	r2,r13,32
   2b34c:	10004726 	beq	r2,zero,2b46c <___vfiprintf_internal_r+0x5f8>
   2b350:	d8c00417 	ldw	r3,16(sp)
   2b354:	00800044 	movi	r2,1
   2b358:	1dc00017 	ldw	r23,0(r3)
   2b35c:	1f000117 	ldw	fp,4(r3)
   2b360:	18c00204 	addi	r3,r3,8
   2b364:	d8c00415 	stw	r3,16(sp)
   2b368:	00000906 	br	2b390 <___vfiprintf_internal_r+0x51c>
   2b36c:	6b400414 	ori	r13,r13,16
   2b370:	6880080c 	andi	r2,r13,32
   2b374:	10003126 	beq	r2,zero,2b43c <___vfiprintf_internal_r+0x5c8>
   2b378:	d8c00417 	ldw	r3,16(sp)
   2b37c:	0005883a 	mov	r2,zero
   2b380:	1dc00017 	ldw	r23,0(r3)
   2b384:	1f000117 	ldw	fp,4(r3)
   2b388:	18c00204 	addi	r3,r3,8
   2b38c:	d8c00415 	stw	r3,16(sp)
   2b390:	d8000945 	stb	zero,37(sp)
   2b394:	40ffffe0 	cmpeqi	r3,r8,-1
   2b398:	001d883a 	mov	r14,zero
   2b39c:	1800f21e 	bne	r3,zero,2b768 <___vfiprintf_internal_r+0x8f4>
   2b3a0:	04ffdfc4 	movi	r19,-129
   2b3a4:	6cc8703a 	and	r4,r13,r19
   2b3a8:	bf06b03a 	or	r3,r23,fp
   2b3ac:	d9000015 	stw	r4,0(sp)
   2b3b0:	1802491e 	bne	r3,zero,2bcd8 <___vfiprintf_internal_r+0xe64>
   2b3b4:	4003071e 	bne	r8,zero,2bfd4 <___vfiprintf_internal_r+0x1160>
   2b3b8:	1002a41e 	bne	r2,zero,2be4c <___vfiprintf_internal_r+0xfd8>
   2b3bc:	6f00004c 	andi	fp,r13,1
   2b3c0:	e002b626 	beq	fp,zero,2be9c <___vfiprintf_internal_r+0x1028>
   2b3c4:	00800c04 	movi	r2,48
   2b3c8:	d88016c5 	stb	r2,91(sp)
   2b3cc:	dcc016c4 	addi	r19,sp,91
   2b3d0:	00008e06 	br	2b60c <___vfiprintf_internal_r+0x798>
   2b3d4:	8d27c83a 	sub	r19,r17,r20
   2b3d8:	8d3fb726 	beq	r17,r20,2b2b8 <___vfiprintf_internal_r+0x444>
   2b3dc:	d8c00c17 	ldw	r3,48(sp)
   2b3e0:	d8800b17 	ldw	r2,44(sp)
   2b3e4:	85000015 	stw	r20,0(r16)
   2b3e8:	98c7883a 	add	r3,r19,r3
   2b3ec:	10800044 	addi	r2,r2,1
   2b3f0:	d8800b15 	stw	r2,44(sp)
   2b3f4:	84c00115 	stw	r19,4(r16)
   2b3f8:	d8c00c15 	stw	r3,48(sp)
   2b3fc:	10800208 	cmpgei	r2,r2,8
   2b400:	1000061e 	bne	r2,zero,2b41c <___vfiprintf_internal_r+0x5a8>
   2b404:	84000204 	addi	r16,r16,8
   2b408:	d8c00117 	ldw	r3,4(sp)
   2b40c:	88800003 	ldbu	r2,0(r17)
   2b410:	1cc7883a 	add	r3,r3,r19
   2b414:	d8c00115 	stw	r3,4(sp)
   2b418:	003ecb06 	br	2af48 <___vfiprintf_internal_r+0xd4>
   2b41c:	18027d26 	beq	r3,zero,2be14 <___vfiprintf_internal_r+0xfa0>
   2b420:	d9800a04 	addi	r6,sp,40
   2b424:	a80b883a 	mov	r5,r21
   2b428:	b009883a 	mov	r4,r22
   2b42c:	002ad680 	call	2ad68 <__sprint_r.part.0>
   2b430:	103fa31e 	bne	r2,zero,2b2c0 <___vfiprintf_internal_r+0x44c>
   2b434:	9021883a 	mov	r16,r18
   2b438:	003ff306 	br	2b408 <___vfiprintf_internal_r+0x594>
   2b43c:	d9000417 	ldw	r4,16(sp)
   2b440:	6880040c 	andi	r2,r13,16
   2b444:	20c00104 	addi	r3,r4,4
   2b448:	1002a11e 	bne	r2,zero,2bed0 <___vfiprintf_internal_r+0x105c>
   2b44c:	6880100c 	andi	r2,r13,64
   2b450:	1002f426 	beq	r2,zero,2c024 <___vfiprintf_internal_r+0x11b0>
   2b454:	d8800417 	ldw	r2,16(sp)
   2b458:	0039883a 	mov	fp,zero
   2b45c:	d8c00415 	stw	r3,16(sp)
   2b460:	15c0000b 	ldhu	r23,0(r2)
   2b464:	0005883a 	mov	r2,zero
   2b468:	003fc906 	br	2b390 <___vfiprintf_internal_r+0x51c>
   2b46c:	d9000417 	ldw	r4,16(sp)
   2b470:	6880040c 	andi	r2,r13,16
   2b474:	20c00104 	addi	r3,r4,4
   2b478:	1002a91e 	bne	r2,zero,2bf20 <___vfiprintf_internal_r+0x10ac>
   2b47c:	6880100c 	andi	r2,r13,64
   2b480:	1002ee26 	beq	r2,zero,2c03c <___vfiprintf_internal_r+0x11c8>
   2b484:	d8800417 	ldw	r2,16(sp)
   2b488:	0039883a 	mov	fp,zero
   2b48c:	d8c00415 	stw	r3,16(sp)
   2b490:	15c0000b 	ldhu	r23,0(r2)
   2b494:	00800044 	movi	r2,1
   2b498:	003fbd06 	br	2b390 <___vfiprintf_internal_r+0x51c>
   2b49c:	d8c00017 	ldw	r3,0(sp)
   2b4a0:	d8000b15 	stw	zero,44(sp)
   2b4a4:	1cc0010c 	andi	r19,r3,4
   2b4a8:	98024826 	beq	r19,zero,2bdcc <___vfiprintf_internal_r+0xf58>
   2b4ac:	8de1c83a 	sub	r16,r17,r23
   2b4b0:	0402460e 	bge	zero,r16,2bdcc <___vfiprintf_internal_r+0xf58>
   2b4b4:	900d883a 	mov	r6,r18
   2b4b8:	80c00450 	cmplti	r3,r16,17
   2b4bc:	d9000b17 	ldw	r4,44(sp)
   2b4c0:	01c000f4 	movhi	r7,3
   2b4c4:	1803151e 	bne	r3,zero,2c11c <___vfiprintf_internal_r+0x12a8>
   2b4c8:	39cefe04 	addi	r7,r7,15352
   2b4cc:	04c00404 	movi	r19,16
   2b4d0:	00000606 	br	2b4ec <___vfiprintf_internal_r+0x678>
   2b4d4:	21400084 	addi	r5,r4,2
   2b4d8:	31800204 	addi	r6,r6,8
   2b4dc:	1809883a 	mov	r4,r3
   2b4e0:	843ffc04 	addi	r16,r16,-16
   2b4e4:	80c00448 	cmpgei	r3,r16,17
   2b4e8:	18001726 	beq	r3,zero,2b548 <___vfiprintf_internal_r+0x6d4>
   2b4ec:	20c00044 	addi	r3,r4,1
   2b4f0:	10800404 	addi	r2,r2,16
   2b4f4:	31c00015 	stw	r7,0(r6)
   2b4f8:	34c00115 	stw	r19,4(r6)
   2b4fc:	d8800c15 	stw	r2,48(sp)
   2b500:	d8c00b15 	stw	r3,44(sp)
   2b504:	19400208 	cmpgei	r5,r3,8
   2b508:	283ff226 	beq	r5,zero,2b4d4 <___vfiprintf_internal_r+0x660>
   2b50c:	d9800a04 	addi	r6,sp,40
   2b510:	a80b883a 	mov	r5,r21
   2b514:	b009883a 	mov	r4,r22
   2b518:	10014d26 	beq	r2,zero,2ba50 <___vfiprintf_internal_r+0xbdc>
   2b51c:	d9c00015 	stw	r7,0(sp)
   2b520:	002ad680 	call	2ad68 <__sprint_r.part.0>
   2b524:	103f661e 	bne	r2,zero,2b2c0 <___vfiprintf_internal_r+0x44c>
   2b528:	d9000b17 	ldw	r4,44(sp)
   2b52c:	843ffc04 	addi	r16,r16,-16
   2b530:	80c00448 	cmpgei	r3,r16,17
   2b534:	d8800c17 	ldw	r2,48(sp)
   2b538:	d9c00017 	ldw	r7,0(sp)
   2b53c:	900d883a 	mov	r6,r18
   2b540:	21400044 	addi	r5,r4,1
   2b544:	183fe91e 	bne	r3,zero,2b4ec <___vfiprintf_internal_r+0x678>
   2b548:	1405883a 	add	r2,r2,r16
   2b54c:	d9400b15 	stw	r5,44(sp)
   2b550:	31c00015 	stw	r7,0(r6)
   2b554:	34000115 	stw	r16,4(r6)
   2b558:	d8800c15 	stw	r2,48(sp)
   2b55c:	29400210 	cmplti	r5,r5,8
   2b560:	283f4b1e 	bne	r5,zero,2b290 <___vfiprintf_internal_r+0x41c>
   2b564:	10021926 	beq	r2,zero,2bdcc <___vfiprintf_internal_r+0xf58>
   2b568:	d9800a04 	addi	r6,sp,40
   2b56c:	a80b883a 	mov	r5,r21
   2b570:	b009883a 	mov	r4,r22
   2b574:	002ad680 	call	2ad68 <__sprint_r.part.0>
   2b578:	103f511e 	bne	r2,zero,2b2c0 <___vfiprintf_internal_r+0x44c>
   2b57c:	d8800c17 	ldw	r2,48(sp)
   2b580:	003f4306 	br	2b290 <___vfiprintf_internal_r+0x41c>
   2b584:	00284d80 	call	284d8 <__sinit>
   2b588:	003e4c06 	br	2aebc <___vfiprintf_internal_r+0x48>
   2b58c:	29403fcc 	andi	r5,r5,255
   2b590:	2802de1e 	bne	r5,zero,2c10c <___vfiprintf_internal_r+0x1298>
   2b594:	6880080c 	andi	r2,r13,32
   2b598:	10005d26 	beq	r2,zero,2b710 <___vfiprintf_internal_r+0x89c>
   2b59c:	d8c00417 	ldw	r3,16(sp)
   2b5a0:	18800117 	ldw	r2,4(r3)
   2b5a4:	1dc00017 	ldw	r23,0(r3)
   2b5a8:	18c00204 	addi	r3,r3,8
   2b5ac:	d8c00415 	stw	r3,16(sp)
   2b5b0:	1039883a 	mov	fp,r2
   2b5b4:	10006216 	blt	r2,zero,2b740 <___vfiprintf_internal_r+0x8cc>
   2b5b8:	40bfffd8 	cmpnei	r2,r8,-1
   2b5bc:	10000a26 	beq	r2,zero,2b5e8 <___vfiprintf_internal_r+0x774>
   2b5c0:	00ffdfc4 	movi	r3,-129
   2b5c4:	bf04b03a 	or	r2,r23,fp
   2b5c8:	db800943 	ldbu	r14,37(sp)
   2b5cc:	68da703a 	and	r13,r13,r3
   2b5d0:	1000061e 	bne	r2,zero,2b5ec <___vfiprintf_internal_r+0x778>
   2b5d4:	4000081e 	bne	r8,zero,2b5f8 <___vfiprintf_internal_r+0x784>
   2b5d8:	0039883a 	mov	fp,zero
   2b5dc:	db400015 	stw	r13,0(sp)
   2b5e0:	9027883a 	mov	r19,r18
   2b5e4:	00000906 	br	2b60c <___vfiprintf_internal_r+0x798>
   2b5e8:	db800943 	ldbu	r14,37(sp)
   2b5ec:	e000ec1e 	bne	fp,zero,2b9a0 <___vfiprintf_internal_r+0xb2c>
   2b5f0:	b88002a8 	cmpgeui	r2,r23,10
   2b5f4:	1000ea1e 	bne	r2,zero,2b9a0 <___vfiprintf_internal_r+0xb2c>
   2b5f8:	bdc00c04 	addi	r23,r23,48
   2b5fc:	ddc016c5 	stb	r23,91(sp)
   2b600:	db400015 	stw	r13,0(sp)
   2b604:	07000044 	movi	fp,1
   2b608:	dcc016c4 	addi	r19,sp,91
   2b60c:	402f883a 	mov	r23,r8
   2b610:	4700010e 	bge	r8,fp,2b618 <___vfiprintf_internal_r+0x7a4>
   2b614:	e02f883a 	mov	r23,fp
   2b618:	73803fcc 	andi	r14,r14,255
   2b61c:	7380201c 	xori	r14,r14,128
   2b620:	73bfe004 	addi	r14,r14,-128
   2b624:	703ecc26 	beq	r14,zero,2b158 <___vfiprintf_internal_r+0x2e4>
   2b628:	bdc00044 	addi	r23,r23,1
   2b62c:	003eca06 	br	2b158 <___vfiprintf_internal_r+0x2e4>
   2b630:	a0800007 	ldb	r2,0(r20)
   2b634:	6b401014 	ori	r13,r13,64
   2b638:	003e4f06 	br	2af78 <___vfiprintf_internal_r+0x104>
   2b63c:	29403fcc 	andi	r5,r5,255
   2b640:	2802b01e 	bne	r5,zero,2c104 <___vfiprintf_internal_r+0x1290>
   2b644:	d9000417 	ldw	r4,16(sp)
   2b648:	6880080c 	andi	r2,r13,32
   2b64c:	20c00017 	ldw	r3,0(r4)
   2b650:	21000104 	addi	r4,r4,4
   2b654:	1002231e 	bne	r2,zero,2bee4 <___vfiprintf_internal_r+0x1070>
   2b658:	6880040c 	andi	r2,r13,16
   2b65c:	1002511e 	bne	r2,zero,2bfa4 <___vfiprintf_internal_r+0x1130>
   2b660:	6b40100c 	andi	r13,r13,64
   2b664:	68024f26 	beq	r13,zero,2bfa4 <___vfiprintf_internal_r+0x1130>
   2b668:	d8800117 	ldw	r2,4(sp)
   2b66c:	d9000415 	stw	r4,16(sp)
   2b670:	1880000d 	sth	r2,0(r3)
   2b674:	003e2806 	br	2af18 <___vfiprintf_internal_r+0xa4>
   2b678:	a0800007 	ldb	r2,0(r20)
   2b67c:	10c01b18 	cmpnei	r3,r2,108
   2b680:	18025826 	beq	r3,zero,2bfe4 <___vfiprintf_internal_r+0x1170>
   2b684:	6b400414 	ori	r13,r13,16
   2b688:	003e3b06 	br	2af78 <___vfiprintf_internal_r+0x104>
   2b68c:	d8c00417 	ldw	r3,16(sp)
   2b690:	d8000945 	stb	zero,37(sp)
   2b694:	05c00044 	movi	r23,1
   2b698:	18800017 	ldw	r2,0(r3)
   2b69c:	18c00104 	addi	r3,r3,4
   2b6a0:	d8c00415 	stw	r3,16(sp)
   2b6a4:	d8800d05 	stb	r2,52(sp)
   2b6a8:	07000044 	movi	fp,1
   2b6ac:	dcc00d04 	addi	r19,sp,52
   2b6b0:	003ea706 	br	2b150 <___vfiprintf_internal_r+0x2dc>
   2b6b4:	29403fcc 	andi	r5,r5,255
   2b6b8:	2802961e 	bne	r5,zero,2c114 <___vfiprintf_internal_r+0x12a0>
   2b6bc:	00c000f4 	movhi	r3,3
   2b6c0:	18ce7504 	addi	r3,r3,14804
   2b6c4:	d8c00515 	stw	r3,20(sp)
   2b6c8:	68c0080c 	andi	r3,r13,32
   2b6cc:	18008126 	beq	r3,zero,2b8d4 <___vfiprintf_internal_r+0xa60>
   2b6d0:	d8c00417 	ldw	r3,16(sp)
   2b6d4:	1dc00017 	ldw	r23,0(r3)
   2b6d8:	1f000117 	ldw	fp,4(r3)
   2b6dc:	18c00204 	addi	r3,r3,8
   2b6e0:	d8c00415 	stw	r3,16(sp)
   2b6e4:	68c0004c 	andi	r3,r13,1
   2b6e8:	18000226 	beq	r3,zero,2b6f4 <___vfiprintf_internal_r+0x880>
   2b6ec:	bf06b03a 	or	r3,r23,fp
   2b6f0:	1801f11e 	bne	r3,zero,2beb8 <___vfiprintf_internal_r+0x1044>
   2b6f4:	00800084 	movi	r2,2
   2b6f8:	003f2506 	br	2b390 <___vfiprintf_internal_r+0x51c>
   2b6fc:	29403fcc 	andi	r5,r5,255
   2b700:	28027e1e 	bne	r5,zero,2c0fc <___vfiprintf_internal_r+0x1288>
   2b704:	6b400414 	ori	r13,r13,16
   2b708:	6880080c 	andi	r2,r13,32
   2b70c:	103fa31e 	bne	r2,zero,2b59c <___vfiprintf_internal_r+0x728>
   2b710:	d9000417 	ldw	r4,16(sp)
   2b714:	6880040c 	andi	r2,r13,16
   2b718:	20c00104 	addi	r3,r4,4
   2b71c:	1001f71e 	bne	r2,zero,2befc <___vfiprintf_internal_r+0x1088>
   2b720:	6880100c 	andi	r2,r13,64
   2b724:	10025026 	beq	r2,zero,2c068 <___vfiprintf_internal_r+0x11f4>
   2b728:	d8800417 	ldw	r2,16(sp)
   2b72c:	d8c00415 	stw	r3,16(sp)
   2b730:	15c0000f 	ldh	r23,0(r2)
   2b734:	b839d7fa 	srai	fp,r23,31
   2b738:	e005883a 	mov	r2,fp
   2b73c:	103f9e0e 	bge	r2,zero,2b5b8 <___vfiprintf_internal_r+0x744>
   2b740:	b804c03a 	cmpne	r2,r23,zero
   2b744:	0739c83a 	sub	fp,zero,fp
   2b748:	e0b9c83a 	sub	fp,fp,r2
   2b74c:	00800b44 	movi	r2,45
   2b750:	d8800945 	stb	r2,37(sp)
   2b754:	40ffffe0 	cmpeqi	r3,r8,-1
   2b758:	05efc83a 	sub	r23,zero,r23
   2b75c:	03800b44 	movi	r14,45
   2b760:	00800044 	movi	r2,1
   2b764:	183f0e26 	beq	r3,zero,2b3a0 <___vfiprintf_internal_r+0x52c>
   2b768:	10c00060 	cmpeqi	r3,r2,1
   2b76c:	183f9f1e 	bne	r3,zero,2b5ec <___vfiprintf_internal_r+0x778>
   2b770:	108000a0 	cmpeqi	r2,r2,2
   2b774:	9027883a 	mov	r19,r18
   2b778:	1000a61e 	bne	r2,zero,2ba14 <___vfiprintf_internal_r+0xba0>
   2b77c:	e006977a 	slli	r3,fp,29
   2b780:	b804d0fa 	srli	r2,r23,3
   2b784:	e038d0fa 	srli	fp,fp,3
   2b788:	b90001cc 	andi	r4,r23,7
   2b78c:	21000c04 	addi	r4,r4,48
   2b790:	18aeb03a 	or	r23,r3,r2
   2b794:	993fffc5 	stb	r4,-1(r19)
   2b798:	bf04b03a 	or	r2,r23,fp
   2b79c:	980b883a 	mov	r5,r19
   2b7a0:	9cffffc4 	addi	r19,r19,-1
   2b7a4:	103ff51e 	bne	r2,zero,2b77c <___vfiprintf_internal_r+0x908>
   2b7a8:	6880004c 	andi	r2,r13,1
   2b7ac:	1000a526 	beq	r2,zero,2ba44 <___vfiprintf_internal_r+0xbd0>
   2b7b0:	21003fcc 	andi	r4,r4,255
   2b7b4:	2100201c 	xori	r4,r4,128
   2b7b8:	213fe004 	addi	r4,r4,-128
   2b7bc:	20800c18 	cmpnei	r2,r4,48
   2b7c0:	1000a026 	beq	r2,zero,2ba44 <___vfiprintf_internal_r+0xbd0>
   2b7c4:	297fff84 	addi	r5,r5,-2
   2b7c8:	00800c04 	movi	r2,48
   2b7cc:	98bfffc5 	stb	r2,-1(r19)
   2b7d0:	9179c83a 	sub	fp,r18,r5
   2b7d4:	db400015 	stw	r13,0(sp)
   2b7d8:	2827883a 	mov	r19,r5
   2b7dc:	003f8b06 	br	2b60c <___vfiprintf_internal_r+0x798>
   2b7e0:	a0800007 	ldb	r2,0(r20)
   2b7e4:	6b402014 	ori	r13,r13,128
   2b7e8:	003de306 	br	2af78 <___vfiprintf_internal_r+0x104>
   2b7ec:	a0800007 	ldb	r2,0(r20)
   2b7f0:	a1000044 	addi	r4,r20,1
   2b7f4:	10c00aa0 	cmpeqi	r3,r2,42
   2b7f8:	1802531e 	bne	r3,zero,2c148 <___vfiprintf_internal_r+0x12d4>
   2b7fc:	10fff404 	addi	r3,r2,-48
   2b800:	19c002b0 	cmpltui	r7,r3,10
   2b804:	2029883a 	mov	r20,r4
   2b808:	0011883a 	mov	r8,zero
   2b80c:	383ddb26 	beq	r7,zero,2af7c <___vfiprintf_internal_r+0x108>
   2b810:	a0800007 	ldb	r2,0(r20)
   2b814:	420002a4 	muli	r8,r8,10
   2b818:	a5000044 	addi	r20,r20,1
   2b81c:	40d1883a 	add	r8,r8,r3
   2b820:	10fff404 	addi	r3,r2,-48
   2b824:	190002b0 	cmpltui	r4,r3,10
   2b828:	203ff91e 	bne	r4,zero,2b810 <___vfiprintf_internal_r+0x99c>
   2b82c:	003dd306 	br	2af7c <___vfiprintf_internal_r+0x108>
   2b830:	a0800003 	ldbu	r2,0(r20)
   2b834:	10803fcc 	andi	r2,r2,255
   2b838:	1080201c 	xori	r2,r2,128
   2b83c:	6b400114 	ori	r13,r13,4
   2b840:	10bfe004 	addi	r2,r2,-128
   2b844:	003dcc06 	br	2af78 <___vfiprintf_internal_r+0x104>
   2b848:	a0800007 	ldb	r2,0(r20)
   2b84c:	01400044 	movi	r5,1
   2b850:	01800ac4 	movi	r6,43
   2b854:	003dc806 	br	2af78 <___vfiprintf_internal_r+0x104>
   2b858:	d8c00417 	ldw	r3,16(sp)
   2b85c:	a0800003 	ldbu	r2,0(r20)
   2b860:	1c400017 	ldw	r17,0(r3)
   2b864:	18c00104 	addi	r3,r3,4
   2b868:	8801b916 	blt	r17,zero,2bf50 <___vfiprintf_internal_r+0x10dc>
   2b86c:	d8c00415 	stw	r3,16(sp)
   2b870:	10803fcc 	andi	r2,r2,255
   2b874:	1080201c 	xori	r2,r2,128
   2b878:	10bfe004 	addi	r2,r2,-128
   2b87c:	003dbe06 	br	2af78 <___vfiprintf_internal_r+0x104>
   2b880:	a0800007 	ldb	r2,0(r20)
   2b884:	6b400054 	ori	r13,r13,1
   2b888:	003dbb06 	br	2af78 <___vfiprintf_internal_r+0x104>
   2b88c:	30c03fcc 	andi	r3,r6,255
   2b890:	18c0201c 	xori	r3,r3,128
   2b894:	18ffe004 	addi	r3,r3,-128
   2b898:	a0800003 	ldbu	r2,0(r20)
   2b89c:	183ff41e 	bne	r3,zero,2b870 <___vfiprintf_internal_r+0x9fc>
   2b8a0:	10803fcc 	andi	r2,r2,255
   2b8a4:	1080201c 	xori	r2,r2,128
   2b8a8:	01400044 	movi	r5,1
   2b8ac:	01800804 	movi	r6,32
   2b8b0:	10bfe004 	addi	r2,r2,-128
   2b8b4:	003db006 	br	2af78 <___vfiprintf_internal_r+0x104>
   2b8b8:	29403fcc 	andi	r5,r5,255
   2b8bc:	28020a1e 	bne	r5,zero,2c0e8 <___vfiprintf_internal_r+0x1274>
   2b8c0:	00c000f4 	movhi	r3,3
   2b8c4:	18ce7a04 	addi	r3,r3,14824
   2b8c8:	d8c00515 	stw	r3,20(sp)
   2b8cc:	68c0080c 	andi	r3,r13,32
   2b8d0:	183f7f1e 	bne	r3,zero,2b6d0 <___vfiprintf_internal_r+0x85c>
   2b8d4:	d9400417 	ldw	r5,16(sp)
   2b8d8:	68c0040c 	andi	r3,r13,16
   2b8dc:	29000104 	addi	r4,r5,4
   2b8e0:	18018b1e 	bne	r3,zero,2bf10 <___vfiprintf_internal_r+0x109c>
   2b8e4:	68c0100c 	andi	r3,r13,64
   2b8e8:	1801da26 	beq	r3,zero,2c054 <___vfiprintf_internal_r+0x11e0>
   2b8ec:	d8c00417 	ldw	r3,16(sp)
   2b8f0:	0039883a 	mov	fp,zero
   2b8f4:	d9000415 	stw	r4,16(sp)
   2b8f8:	1dc0000b 	ldhu	r23,0(r3)
   2b8fc:	003f7906 	br	2b6e4 <___vfiprintf_internal_r+0x870>
   2b900:	d8800417 	ldw	r2,16(sp)
   2b904:	d8000945 	stb	zero,37(sp)
   2b908:	14c00017 	ldw	r19,0(r2)
   2b90c:	10c00104 	addi	r3,r2,4
   2b910:	9801bb26 	beq	r19,zero,2c000 <___vfiprintf_internal_r+0x118c>
   2b914:	40bfffe0 	cmpeqi	r2,r8,-1
   2b918:	1001901e 	bne	r2,zero,2bf5c <___vfiprintf_internal_r+0x10e8>
   2b91c:	400d883a 	mov	r6,r8
   2b920:	000b883a 	mov	r5,zero
   2b924:	9809883a 	mov	r4,r19
   2b928:	d8c00315 	stw	r3,12(sp)
   2b92c:	db400215 	stw	r13,8(sp)
   2b930:	da000015 	stw	r8,0(sp)
   2b934:	00291d40 	call	291d4 <memchr>
   2b938:	da000017 	ldw	r8,0(sp)
   2b93c:	db400217 	ldw	r13,8(sp)
   2b940:	d8c00317 	ldw	r3,12(sp)
   2b944:	1001e426 	beq	r2,zero,2c0d8 <___vfiprintf_internal_r+0x1264>
   2b948:	14f9c83a 	sub	fp,r2,r19
   2b94c:	e02f883a 	mov	r23,fp
   2b950:	d8c00415 	stw	r3,16(sp)
   2b954:	003dfe06 	br	2b150 <___vfiprintf_internal_r+0x2dc>
   2b958:	a0800007 	ldb	r2,0(r20)
   2b95c:	6b400814 	ori	r13,r13,32
   2b960:	003d8506 	br	2af78 <___vfiprintf_internal_r+0x104>
   2b964:	d8c00417 	ldw	r3,16(sp)
   2b968:	00800c04 	movi	r2,48
   2b96c:	d8800985 	stb	r2,38(sp)
   2b970:	00801e04 	movi	r2,120
   2b974:	010000f4 	movhi	r4,3
   2b978:	d88009c5 	stb	r2,39(sp)
   2b97c:	18800104 	addi	r2,r3,4
   2b980:	d8800415 	stw	r2,16(sp)
   2b984:	208e7a04 	addi	r2,r4,14824
   2b988:	d8800515 	stw	r2,20(sp)
   2b98c:	1dc00017 	ldw	r23,0(r3)
   2b990:	0039883a 	mov	fp,zero
   2b994:	6b400094 	ori	r13,r13,2
   2b998:	00800084 	movi	r2,2
   2b99c:	003e7c06 	br	2b390 <___vfiprintf_internal_r+0x51c>
   2b9a0:	9027883a 	mov	r19,r18
   2b9a4:	b809883a 	mov	r4,r23
   2b9a8:	e00b883a 	mov	r5,fp
   2b9ac:	01800284 	movi	r6,10
   2b9b0:	000f883a 	mov	r7,zero
   2b9b4:	db800315 	stw	r14,12(sp)
   2b9b8:	da000215 	stw	r8,8(sp)
   2b9bc:	db400015 	stw	r13,0(sp)
   2b9c0:	002d3d40 	call	2d3d4 <__umoddi3>
   2b9c4:	10800c04 	addi	r2,r2,48
   2b9c8:	b809883a 	mov	r4,r23
   2b9cc:	e00b883a 	mov	r5,fp
   2b9d0:	98bfffc5 	stb	r2,-1(r19)
   2b9d4:	01800284 	movi	r6,10
   2b9d8:	000f883a 	mov	r7,zero
   2b9dc:	002ce440 	call	2ce44 <__udivdi3>
   2b9e0:	e009883a 	mov	r4,fp
   2b9e4:	b80b883a 	mov	r5,r23
   2b9e8:	db400017 	ldw	r13,0(sp)
   2b9ec:	da000217 	ldw	r8,8(sp)
   2b9f0:	db800317 	ldw	r14,12(sp)
   2b9f4:	9cffffc4 	addi	r19,r19,-1
   2b9f8:	102f883a 	mov	r23,r2
   2b9fc:	1839883a 	mov	fp,r3
   2ba00:	203fe81e 	bne	r4,zero,2b9a4 <___vfiprintf_internal_r+0xb30>
   2ba04:	294002a8 	cmpgeui	r5,r5,10
   2ba08:	283fe61e 	bne	r5,zero,2b9a4 <___vfiprintf_internal_r+0xb30>
   2ba0c:	94f9c83a 	sub	fp,r18,r19
   2ba10:	003efe06 	br	2b60c <___vfiprintf_internal_r+0x798>
   2ba14:	d9000517 	ldw	r4,20(sp)
   2ba18:	b88003cc 	andi	r2,r23,15
   2ba1c:	e006973a 	slli	r3,fp,28
   2ba20:	b82ed13a 	srli	r23,r23,4
   2ba24:	2085883a 	add	r2,r4,r2
   2ba28:	10800003 	ldbu	r2,0(r2)
   2ba2c:	e038d13a 	srli	fp,fp,4
   2ba30:	1deeb03a 	or	r23,r3,r23
   2ba34:	98bfffc5 	stb	r2,-1(r19)
   2ba38:	bf04b03a 	or	r2,r23,fp
   2ba3c:	9cffffc4 	addi	r19,r19,-1
   2ba40:	103ff41e 	bne	r2,zero,2ba14 <___vfiprintf_internal_r+0xba0>
   2ba44:	94f9c83a 	sub	fp,r18,r19
   2ba48:	db400015 	stw	r13,0(sp)
   2ba4c:	003eef06 	br	2b60c <___vfiprintf_internal_r+0x798>
   2ba50:	01400044 	movi	r5,1
   2ba54:	0009883a 	mov	r4,zero
   2ba58:	900d883a 	mov	r6,r18
   2ba5c:	003ea006 	br	2b4e0 <___vfiprintf_internal_r+0x66c>
   2ba60:	8dc7c83a 	sub	r3,r17,r23
   2ba64:	00fdf40e 	bge	zero,r3,2b238 <___vfiprintf_internal_r+0x3c4>
   2ba68:	19c00450 	cmplti	r7,r3,17
   2ba6c:	3801ae1e 	bne	r7,zero,2c128 <___vfiprintf_internal_r+0x12b4>
   2ba70:	01c000f4 	movhi	r7,3
   2ba74:	39cefa04 	addi	r7,r7,15336
   2ba78:	03400404 	movi	r13,16
   2ba7c:	00000606 	br	2ba98 <___vfiprintf_internal_r+0xc24>
   2ba80:	23800084 	addi	r14,r4,2
   2ba84:	84000204 	addi	r16,r16,8
   2ba88:	2809883a 	mov	r4,r5
   2ba8c:	18fffc04 	addi	r3,r3,-16
   2ba90:	19400448 	cmpgei	r5,r3,17
   2ba94:	28001c26 	beq	r5,zero,2bb08 <___vfiprintf_internal_r+0xc94>
   2ba98:	21400044 	addi	r5,r4,1
   2ba9c:	10800404 	addi	r2,r2,16
   2baa0:	81c00015 	stw	r7,0(r16)
   2baa4:	83400115 	stw	r13,4(r16)
   2baa8:	d8800c15 	stw	r2,48(sp)
   2baac:	d9400b15 	stw	r5,44(sp)
   2bab0:	29800208 	cmpgei	r6,r5,8
   2bab4:	303ff226 	beq	r6,zero,2ba80 <___vfiprintf_internal_r+0xc0c>
   2bab8:	d9800a04 	addi	r6,sp,40
   2babc:	a80b883a 	mov	r5,r21
   2bac0:	b009883a 	mov	r4,r22
   2bac4:	10006326 	beq	r2,zero,2bc54 <___vfiprintf_internal_r+0xde0>
   2bac8:	d9c00615 	stw	r7,24(sp)
   2bacc:	d8c00315 	stw	r3,12(sp)
   2bad0:	da000215 	stw	r8,8(sp)
   2bad4:	002ad680 	call	2ad68 <__sprint_r.part.0>
   2bad8:	103df91e 	bne	r2,zero,2b2c0 <___vfiprintf_internal_r+0x44c>
   2badc:	d8c00317 	ldw	r3,12(sp)
   2bae0:	d9000b17 	ldw	r4,44(sp)
   2bae4:	d8800c17 	ldw	r2,48(sp)
   2bae8:	18fffc04 	addi	r3,r3,-16
   2baec:	19400448 	cmpgei	r5,r3,17
   2baf0:	d9c00617 	ldw	r7,24(sp)
   2baf4:	da000217 	ldw	r8,8(sp)
   2baf8:	9021883a 	mov	r16,r18
   2bafc:	23800044 	addi	r14,r4,1
   2bb00:	03400404 	movi	r13,16
   2bb04:	283fe41e 	bne	r5,zero,2ba98 <___vfiprintf_internal_r+0xc24>
   2bb08:	83400204 	addi	r13,r16,8
   2bb0c:	10c5883a 	add	r2,r2,r3
   2bb10:	80c00115 	stw	r3,4(r16)
   2bb14:	81c00015 	stw	r7,0(r16)
   2bb18:	d8800c15 	stw	r2,48(sp)
   2bb1c:	db800b15 	stw	r14,44(sp)
   2bb20:	70c00208 	cmpgei	r3,r14,8
   2bb24:	1800df26 	beq	r3,zero,2bea4 <___vfiprintf_internal_r+0x1030>
   2bb28:	10015826 	beq	r2,zero,2c08c <___vfiprintf_internal_r+0x1218>
   2bb2c:	d9800a04 	addi	r6,sp,40
   2bb30:	a80b883a 	mov	r5,r21
   2bb34:	b009883a 	mov	r4,r22
   2bb38:	da000215 	stw	r8,8(sp)
   2bb3c:	002ad680 	call	2ad68 <__sprint_r.part.0>
   2bb40:	103ddf1e 	bne	r2,zero,2b2c0 <___vfiprintf_internal_r+0x44c>
   2bb44:	da000217 	ldw	r8,8(sp)
   2bb48:	d9000b17 	ldw	r4,44(sp)
   2bb4c:	d8800c17 	ldw	r2,48(sp)
   2bb50:	4711c83a 	sub	r8,r8,fp
   2bb54:	d9801904 	addi	r6,sp,100
   2bb58:	21400044 	addi	r5,r4,1
   2bb5c:	9021883a 	mov	r16,r18
   2bb60:	023db70e 	bge	zero,r8,2b240 <___vfiprintf_internal_r+0x3cc>
   2bb64:	40c00450 	cmplti	r3,r8,17
   2bb68:	01c000f4 	movhi	r7,3
   2bb6c:	1801441e 	bne	r3,zero,2c080 <___vfiprintf_internal_r+0x120c>
   2bb70:	39cefa04 	addi	r7,r7,15336
   2bb74:	03400404 	movi	r13,16
   2bb78:	00000606 	br	2bb94 <___vfiprintf_internal_r+0xd20>
   2bb7c:	21400084 	addi	r5,r4,2
   2bb80:	84000204 	addi	r16,r16,8
   2bb84:	1809883a 	mov	r4,r3
   2bb88:	423ffc04 	addi	r8,r8,-16
   2bb8c:	40c00448 	cmpgei	r3,r8,17
   2bb90:	18001a26 	beq	r3,zero,2bbfc <___vfiprintf_internal_r+0xd88>
   2bb94:	20c00044 	addi	r3,r4,1
   2bb98:	10800404 	addi	r2,r2,16
   2bb9c:	81c00015 	stw	r7,0(r16)
   2bba0:	83400115 	stw	r13,4(r16)
   2bba4:	d8800c15 	stw	r2,48(sp)
   2bba8:	d8c00b15 	stw	r3,44(sp)
   2bbac:	19400208 	cmpgei	r5,r3,8
   2bbb0:	283ff226 	beq	r5,zero,2bb7c <___vfiprintf_internal_r+0xd08>
   2bbb4:	d9800a04 	addi	r6,sp,40
   2bbb8:	a80b883a 	mov	r5,r21
   2bbbc:	b009883a 	mov	r4,r22
   2bbc0:	10001a26 	beq	r2,zero,2bc2c <___vfiprintf_internal_r+0xdb8>
   2bbc4:	d9c00315 	stw	r7,12(sp)
   2bbc8:	da000215 	stw	r8,8(sp)
   2bbcc:	002ad680 	call	2ad68 <__sprint_r.part.0>
   2bbd0:	103dbb1e 	bne	r2,zero,2b2c0 <___vfiprintf_internal_r+0x44c>
   2bbd4:	da000217 	ldw	r8,8(sp)
   2bbd8:	d9000b17 	ldw	r4,44(sp)
   2bbdc:	d8800c17 	ldw	r2,48(sp)
   2bbe0:	423ffc04 	addi	r8,r8,-16
   2bbe4:	40c00448 	cmpgei	r3,r8,17
   2bbe8:	d9c00317 	ldw	r7,12(sp)
   2bbec:	9021883a 	mov	r16,r18
   2bbf0:	21400044 	addi	r5,r4,1
   2bbf4:	03400404 	movi	r13,16
   2bbf8:	183fe61e 	bne	r3,zero,2bb94 <___vfiprintf_internal_r+0xd20>
   2bbfc:	81000204 	addi	r4,r16,8
   2bc00:	1205883a 	add	r2,r2,r8
   2bc04:	81c00015 	stw	r7,0(r16)
   2bc08:	82000115 	stw	r8,4(r16)
   2bc0c:	d8800c15 	stw	r2,48(sp)
   2bc10:	d9400b15 	stw	r5,44(sp)
   2bc14:	28c00208 	cmpgei	r3,r5,8
   2bc18:	1800721e 	bne	r3,zero,2bde4 <___vfiprintf_internal_r+0xf70>
   2bc1c:	29400044 	addi	r5,r5,1
   2bc20:	21800204 	addi	r6,r4,8
   2bc24:	2021883a 	mov	r16,r4
   2bc28:	003d8506 	br	2b240 <___vfiprintf_internal_r+0x3cc>
   2bc2c:	01400044 	movi	r5,1
   2bc30:	0009883a 	mov	r4,zero
   2bc34:	9021883a 	mov	r16,r18
   2bc38:	003fd306 	br	2bb88 <___vfiprintf_internal_r+0xd14>
   2bc3c:	d9800a04 	addi	r6,sp,40
   2bc40:	a80b883a 	mov	r5,r21
   2bc44:	b009883a 	mov	r4,r22
   2bc48:	002ad680 	call	2ad68 <__sprint_r.part.0>
   2bc4c:	103d9626 	beq	r2,zero,2b2a8 <___vfiprintf_internal_r+0x434>
   2bc50:	003d9b06 	br	2b2c0 <___vfiprintf_internal_r+0x44c>
   2bc54:	03800044 	movi	r14,1
   2bc58:	0009883a 	mov	r4,zero
   2bc5c:	9021883a 	mov	r16,r18
   2bc60:	003f8a06 	br	2ba8c <___vfiprintf_internal_r+0xc18>
   2bc64:	10006e26 	beq	r2,zero,2be20 <___vfiprintf_internal_r+0xfac>
   2bc68:	d9800a04 	addi	r6,sp,40
   2bc6c:	a80b883a 	mov	r5,r21
   2bc70:	b009883a 	mov	r4,r22
   2bc74:	da000615 	stw	r8,24(sp)
   2bc78:	db400315 	stw	r13,12(sp)
   2bc7c:	db800215 	stw	r14,8(sp)
   2bc80:	002ad680 	call	2ad68 <__sprint_r.part.0>
   2bc84:	103d8e1e 	bne	r2,zero,2b2c0 <___vfiprintf_internal_r+0x44c>
   2bc88:	d9000b17 	ldw	r4,44(sp)
   2bc8c:	d8800c17 	ldw	r2,48(sp)
   2bc90:	da000617 	ldw	r8,24(sp)
   2bc94:	db400317 	ldw	r13,12(sp)
   2bc98:	db800217 	ldw	r14,8(sp)
   2bc9c:	d9801904 	addi	r6,sp,100
   2bca0:	21400044 	addi	r5,r4,1
   2bca4:	9021883a 	mov	r16,r18
   2bca8:	003d4806 	br	2b1cc <___vfiprintf_internal_r+0x358>
   2bcac:	d8800984 	addi	r2,sp,38
   2bcb0:	d8801715 	stw	r2,92(sp)
   2bcb4:	00800084 	movi	r2,2
   2bcb8:	d8801815 	stw	r2,96(sp)
   2bcbc:	d9801904 	addi	r6,sp,100
   2bcc0:	01400044 	movi	r5,1
   2bcc4:	3021883a 	mov	r16,r6
   2bcc8:	2809883a 	mov	r4,r5
   2bccc:	21400044 	addi	r5,r4,1
   2bcd0:	81800204 	addi	r6,r16,8
   2bcd4:	003d5606 	br	2b230 <___vfiprintf_internal_r+0x3bc>
   2bcd8:	db400017 	ldw	r13,0(sp)
   2bcdc:	003ea206 	br	2b768 <___vfiprintf_internal_r+0x8f4>
   2bce0:	19400450 	cmplti	r5,r3,17
   2bce4:	01c000f4 	movhi	r7,3
   2bce8:	2801011e 	bne	r5,zero,2c0f0 <___vfiprintf_internal_r+0x127c>
   2bcec:	39cefe04 	addi	r7,r7,15352
   2bcf0:	03c00404 	movi	r15,16
   2bcf4:	00000706 	br	2bd14 <___vfiprintf_internal_r+0xea0>
   2bcf8:	27c00084 	addi	ra,r4,2
   2bcfc:	84000204 	addi	r16,r16,8
   2bd00:	3009883a 	mov	r4,r6
   2bd04:	18fffc04 	addi	r3,r3,-16
   2bd08:	19400448 	cmpgei	r5,r3,17
   2bd0c:	28002026 	beq	r5,zero,2bd90 <___vfiprintf_internal_r+0xf1c>
   2bd10:	21800044 	addi	r6,r4,1
   2bd14:	10800404 	addi	r2,r2,16
   2bd18:	81c00015 	stw	r7,0(r16)
   2bd1c:	83c00115 	stw	r15,4(r16)
   2bd20:	d8800c15 	stw	r2,48(sp)
   2bd24:	d9800b15 	stw	r6,44(sp)
   2bd28:	31400208 	cmpgei	r5,r6,8
   2bd2c:	283ff226 	beq	r5,zero,2bcf8 <___vfiprintf_internal_r+0xe84>
   2bd30:	d9800a04 	addi	r6,sp,40
   2bd34:	a80b883a 	mov	r5,r21
   2bd38:	b009883a 	mov	r4,r22
   2bd3c:	10001f26 	beq	r2,zero,2bdbc <___vfiprintf_internal_r+0xf48>
   2bd40:	d9c00815 	stw	r7,32(sp)
   2bd44:	d8c00715 	stw	r3,28(sp)
   2bd48:	da000615 	stw	r8,24(sp)
   2bd4c:	db400315 	stw	r13,12(sp)
   2bd50:	db800215 	stw	r14,8(sp)
   2bd54:	002ad680 	call	2ad68 <__sprint_r.part.0>
   2bd58:	103d591e 	bne	r2,zero,2b2c0 <___vfiprintf_internal_r+0x44c>
   2bd5c:	d8c00717 	ldw	r3,28(sp)
   2bd60:	d9000b17 	ldw	r4,44(sp)
   2bd64:	d8800c17 	ldw	r2,48(sp)
   2bd68:	18fffc04 	addi	r3,r3,-16
   2bd6c:	19400448 	cmpgei	r5,r3,17
   2bd70:	d9c00817 	ldw	r7,32(sp)
   2bd74:	da000617 	ldw	r8,24(sp)
   2bd78:	db400317 	ldw	r13,12(sp)
   2bd7c:	db800217 	ldw	r14,8(sp)
   2bd80:	9021883a 	mov	r16,r18
   2bd84:	27c00044 	addi	ra,r4,1
   2bd88:	03c00404 	movi	r15,16
   2bd8c:	283fe01e 	bne	r5,zero,2bd10 <___vfiprintf_internal_r+0xe9c>
   2bd90:	10c5883a 	add	r2,r2,r3
   2bd94:	80c00115 	stw	r3,4(r16)
   2bd98:	81c00015 	stw	r7,0(r16)
   2bd9c:	d8800c15 	stw	r2,48(sp)
   2bda0:	dfc00b15 	stw	ra,44(sp)
   2bda4:	f8c00208 	cmpgei	r3,ra,8
   2bda8:	18002b1e 	bne	r3,zero,2be58 <___vfiprintf_internal_r+0xfe4>
   2bdac:	84000204 	addi	r16,r16,8
   2bdb0:	f9400044 	addi	r5,ra,1
   2bdb4:	f809883a 	mov	r4,ra
   2bdb8:	003cf406 	br	2b18c <___vfiprintf_internal_r+0x318>
   2bdbc:	0009883a 	mov	r4,zero
   2bdc0:	07c00044 	movi	ra,1
   2bdc4:	9021883a 	mov	r16,r18
   2bdc8:	003fce06 	br	2bd04 <___vfiprintf_internal_r+0xe90>
   2bdcc:	8dc0010e 	bge	r17,r23,2bdd4 <___vfiprintf_internal_r+0xf60>
   2bdd0:	b823883a 	mov	r17,r23
   2bdd4:	d8800117 	ldw	r2,4(sp)
   2bdd8:	1445883a 	add	r2,r2,r17
   2bddc:	d8800115 	stw	r2,4(sp)
   2bde0:	003d3106 	br	2b2a8 <___vfiprintf_internal_r+0x434>
   2bde4:	10007326 	beq	r2,zero,2bfb4 <___vfiprintf_internal_r+0x1140>
   2bde8:	d9800a04 	addi	r6,sp,40
   2bdec:	a80b883a 	mov	r5,r21
   2bdf0:	b009883a 	mov	r4,r22
   2bdf4:	002ad680 	call	2ad68 <__sprint_r.part.0>
   2bdf8:	103d311e 	bne	r2,zero,2b2c0 <___vfiprintf_internal_r+0x44c>
   2bdfc:	d9400b17 	ldw	r5,44(sp)
   2be00:	d8800c17 	ldw	r2,48(sp)
   2be04:	d9801904 	addi	r6,sp,100
   2be08:	29400044 	addi	r5,r5,1
   2be0c:	9021883a 	mov	r16,r18
   2be10:	003d0b06 	br	2b240 <___vfiprintf_internal_r+0x3cc>
   2be14:	d8000b15 	stw	zero,44(sp)
   2be18:	9021883a 	mov	r16,r18
   2be1c:	003d7a06 	br	2b408 <___vfiprintf_internal_r+0x594>
   2be20:	7000441e 	bne	r14,zero,2bf34 <___vfiprintf_internal_r+0x10c0>
   2be24:	0009883a 	mov	r4,zero
   2be28:	d9801904 	addi	r6,sp,100
   2be2c:	01400044 	movi	r5,1
   2be30:	9021883a 	mov	r16,r18
   2be34:	003cfe06 	br	2b230 <___vfiprintf_internal_r+0x3bc>
   2be38:	d9801904 	addi	r6,sp,100
   2be3c:	01400044 	movi	r5,1
   2be40:	0009883a 	mov	r4,zero
   2be44:	9021883a 	mov	r16,r18
   2be48:	003cf906 	br	2b230 <___vfiprintf_internal_r+0x3bc>
   2be4c:	0039883a 	mov	fp,zero
   2be50:	9027883a 	mov	r19,r18
   2be54:	003ded06 	br	2b60c <___vfiprintf_internal_r+0x798>
   2be58:	10004a26 	beq	r2,zero,2bf84 <___vfiprintf_internal_r+0x1110>
   2be5c:	d9800a04 	addi	r6,sp,40
   2be60:	a80b883a 	mov	r5,r21
   2be64:	b009883a 	mov	r4,r22
   2be68:	da000615 	stw	r8,24(sp)
   2be6c:	db400315 	stw	r13,12(sp)
   2be70:	db800215 	stw	r14,8(sp)
   2be74:	002ad680 	call	2ad68 <__sprint_r.part.0>
   2be78:	103d111e 	bne	r2,zero,2b2c0 <___vfiprintf_internal_r+0x44c>
   2be7c:	d9000b17 	ldw	r4,44(sp)
   2be80:	d8800c17 	ldw	r2,48(sp)
   2be84:	da000617 	ldw	r8,24(sp)
   2be88:	db400317 	ldw	r13,12(sp)
   2be8c:	db800217 	ldw	r14,8(sp)
   2be90:	9021883a 	mov	r16,r18
   2be94:	21400044 	addi	r5,r4,1
   2be98:	003cbc06 	br	2b18c <___vfiprintf_internal_r+0x318>
   2be9c:	9027883a 	mov	r19,r18
   2bea0:	003dda06 	br	2b60c <___vfiprintf_internal_r+0x798>
   2bea4:	71400044 	addi	r5,r14,1
   2bea8:	69800204 	addi	r6,r13,8
   2beac:	7009883a 	mov	r4,r14
   2beb0:	6821883a 	mov	r16,r13
   2beb4:	003ce006 	br	2b238 <___vfiprintf_internal_r+0x3c4>
   2beb8:	00c00c04 	movi	r3,48
   2bebc:	d88009c5 	stb	r2,39(sp)
   2bec0:	d8c00985 	stb	r3,38(sp)
   2bec4:	6b400094 	ori	r13,r13,2
   2bec8:	00800084 	movi	r2,2
   2becc:	003d3006 	br	2b390 <___vfiprintf_internal_r+0x51c>
   2bed0:	25c00017 	ldw	r23,0(r4)
   2bed4:	0039883a 	mov	fp,zero
   2bed8:	d8c00415 	stw	r3,16(sp)
   2bedc:	0005883a 	mov	r2,zero
   2bee0:	003d2b06 	br	2b390 <___vfiprintf_internal_r+0x51c>
   2bee4:	d9400117 	ldw	r5,4(sp)
   2bee8:	d9000415 	stw	r4,16(sp)
   2beec:	2805d7fa 	srai	r2,r5,31
   2bef0:	19400015 	stw	r5,0(r3)
   2bef4:	18800115 	stw	r2,4(r3)
   2bef8:	003c0706 	br	2af18 <___vfiprintf_internal_r+0xa4>
   2befc:	25c00017 	ldw	r23,0(r4)
   2bf00:	d8c00415 	stw	r3,16(sp)
   2bf04:	b839d7fa 	srai	fp,r23,31
   2bf08:	e005883a 	mov	r2,fp
   2bf0c:	003da906 	br	2b5b4 <___vfiprintf_internal_r+0x740>
   2bf10:	2dc00017 	ldw	r23,0(r5)
   2bf14:	0039883a 	mov	fp,zero
   2bf18:	d9000415 	stw	r4,16(sp)
   2bf1c:	003df106 	br	2b6e4 <___vfiprintf_internal_r+0x870>
   2bf20:	25c00017 	ldw	r23,0(r4)
   2bf24:	0039883a 	mov	fp,zero
   2bf28:	d8c00415 	stw	r3,16(sp)
   2bf2c:	00800044 	movi	r2,1
   2bf30:	003d1706 	br	2b390 <___vfiprintf_internal_r+0x51c>
   2bf34:	d8800984 	addi	r2,sp,38
   2bf38:	d8801715 	stw	r2,92(sp)
   2bf3c:	00800084 	movi	r2,2
   2bf40:	d8801815 	stw	r2,96(sp)
   2bf44:	dc001904 	addi	r16,sp,100
   2bf48:	01000044 	movi	r4,1
   2bf4c:	003f5f06 	br	2bccc <___vfiprintf_internal_r+0xe58>
   2bf50:	0463c83a 	sub	r17,zero,r17
   2bf54:	d8c00415 	stw	r3,16(sp)
   2bf58:	003e3606 	br	2b834 <___vfiprintf_internal_r+0x9c0>
   2bf5c:	9809883a 	mov	r4,r19
   2bf60:	d8c00215 	stw	r3,8(sp)
   2bf64:	db400015 	stw	r13,0(sp)
   2bf68:	00241780 	call	24178 <strlen>
   2bf6c:	d8c00217 	ldw	r3,8(sp)
   2bf70:	db400017 	ldw	r13,0(sp)
   2bf74:	1039883a 	mov	fp,r2
   2bf78:	102f883a 	mov	r23,r2
   2bf7c:	d8c00415 	stw	r3,16(sp)
   2bf80:	003c7306 	br	2b150 <___vfiprintf_internal_r+0x2dc>
   2bf84:	d8c00947 	ldb	r3,37(sp)
   2bf88:	1800451e 	bne	r3,zero,2c0a0 <___vfiprintf_internal_r+0x122c>
   2bf8c:	703f471e 	bne	r14,zero,2bcac <___vfiprintf_internal_r+0xe38>
   2bf90:	0009883a 	mov	r4,zero
   2bf94:	d9801904 	addi	r6,sp,100
   2bf98:	01400044 	movi	r5,1
   2bf9c:	9021883a 	mov	r16,r18
   2bfa0:	003ca506 	br	2b238 <___vfiprintf_internal_r+0x3c4>
   2bfa4:	d8800117 	ldw	r2,4(sp)
   2bfa8:	18800015 	stw	r2,0(r3)
   2bfac:	d9000415 	stw	r4,16(sp)
   2bfb0:	003bd906 	br	2af18 <___vfiprintf_internal_r+0xa4>
   2bfb4:	00c00044 	movi	r3,1
   2bfb8:	e005883a 	mov	r2,fp
   2bfbc:	dcc01715 	stw	r19,92(sp)
   2bfc0:	df001815 	stw	fp,96(sp)
   2bfc4:	df000c15 	stw	fp,48(sp)
   2bfc8:	d8c00b15 	stw	r3,44(sp)
   2bfcc:	d9801904 	addi	r6,sp,100
   2bfd0:	003caa06 	br	2b27c <___vfiprintf_internal_r+0x408>
   2bfd4:	10c00060 	cmpeqi	r3,r2,1
   2bfd8:	db400017 	ldw	r13,0(sp)
   2bfdc:	183de426 	beq	r3,zero,2b770 <___vfiprintf_internal_r+0x8fc>
   2bfe0:	003d8506 	br	2b5f8 <___vfiprintf_internal_r+0x784>
   2bfe4:	a0800043 	ldbu	r2,1(r20)
   2bfe8:	6b400814 	ori	r13,r13,32
   2bfec:	a5000044 	addi	r20,r20,1
   2bff0:	10803fcc 	andi	r2,r2,255
   2bff4:	1080201c 	xori	r2,r2,128
   2bff8:	10bfe004 	addi	r2,r2,-128
   2bffc:	003bde06 	br	2af78 <___vfiprintf_internal_r+0x104>
   2c000:	408001f0 	cmpltui	r2,r8,7
   2c004:	4039883a 	mov	fp,r8
   2c008:	1000011e 	bne	r2,zero,2c010 <___vfiprintf_internal_r+0x119c>
   2c00c:	07000184 	movi	fp,6
   2c010:	04c000f4 	movhi	r19,3
   2c014:	e02f883a 	mov	r23,fp
   2c018:	d8c00415 	stw	r3,16(sp)
   2c01c:	9cce7f04 	addi	r19,r19,14844
   2c020:	003c4b06 	br	2b150 <___vfiprintf_internal_r+0x2dc>
   2c024:	d8800417 	ldw	r2,16(sp)
   2c028:	0039883a 	mov	fp,zero
   2c02c:	d8c00415 	stw	r3,16(sp)
   2c030:	15c00017 	ldw	r23,0(r2)
   2c034:	0005883a 	mov	r2,zero
   2c038:	003cd506 	br	2b390 <___vfiprintf_internal_r+0x51c>
   2c03c:	d8800417 	ldw	r2,16(sp)
   2c040:	0039883a 	mov	fp,zero
   2c044:	d8c00415 	stw	r3,16(sp)
   2c048:	15c00017 	ldw	r23,0(r2)
   2c04c:	00800044 	movi	r2,1
   2c050:	003ccf06 	br	2b390 <___vfiprintf_internal_r+0x51c>
   2c054:	d8c00417 	ldw	r3,16(sp)
   2c058:	0039883a 	mov	fp,zero
   2c05c:	d9000415 	stw	r4,16(sp)
   2c060:	1dc00017 	ldw	r23,0(r3)
   2c064:	003d9f06 	br	2b6e4 <___vfiprintf_internal_r+0x870>
   2c068:	d8800417 	ldw	r2,16(sp)
   2c06c:	d8c00415 	stw	r3,16(sp)
   2c070:	15c00017 	ldw	r23,0(r2)
   2c074:	b839d7fa 	srai	fp,r23,31
   2c078:	e005883a 	mov	r2,fp
   2c07c:	003d4d06 	br	2b5b4 <___vfiprintf_internal_r+0x740>
   2c080:	3009883a 	mov	r4,r6
   2c084:	39cefa04 	addi	r7,r7,15336
   2c088:	003edd06 	br	2bc00 <___vfiprintf_internal_r+0xd8c>
   2c08c:	d9801904 	addi	r6,sp,100
   2c090:	01400044 	movi	r5,1
   2c094:	0009883a 	mov	r4,zero
   2c098:	9021883a 	mov	r16,r18
   2c09c:	003c6606 	br	2b238 <___vfiprintf_internal_r+0x3c4>
   2c0a0:	d8800944 	addi	r2,sp,37
   2c0a4:	d8801715 	stw	r2,92(sp)
   2c0a8:	00800044 	movi	r2,1
   2c0ac:	d8801815 	stw	r2,96(sp)
   2c0b0:	d9801904 	addi	r6,sp,100
   2c0b4:	01400044 	movi	r5,1
   2c0b8:	003c4006 	br	2b1bc <___vfiprintf_internal_r+0x348>
   2c0bc:	d9800945 	stb	r6,37(sp)
   2c0c0:	003c1d06 	br	2b138 <___vfiprintf_internal_r+0x2c4>
   2c0c4:	d9800a04 	addi	r6,sp,40
   2c0c8:	a80b883a 	mov	r5,r21
   2c0cc:	b009883a 	mov	r4,r22
   2c0d0:	002ad680 	call	2ad68 <__sprint_r.part.0>
   2c0d4:	003c7a06 	br	2b2c0 <___vfiprintf_internal_r+0x44c>
   2c0d8:	402f883a 	mov	r23,r8
   2c0dc:	d8c00415 	stw	r3,16(sp)
   2c0e0:	4039883a 	mov	fp,r8
   2c0e4:	003c1a06 	br	2b150 <___vfiprintf_internal_r+0x2dc>
   2c0e8:	d9800945 	stb	r6,37(sp)
   2c0ec:	003df406 	br	2b8c0 <___vfiprintf_internal_r+0xa4c>
   2c0f0:	303f883a 	mov	ra,r6
   2c0f4:	39cefe04 	addi	r7,r7,15352
   2c0f8:	003f2506 	br	2bd90 <___vfiprintf_internal_r+0xf1c>
   2c0fc:	d9800945 	stb	r6,37(sp)
   2c100:	003d8006 	br	2b704 <___vfiprintf_internal_r+0x890>
   2c104:	d9800945 	stb	r6,37(sp)
   2c108:	003d4e06 	br	2b644 <___vfiprintf_internal_r+0x7d0>
   2c10c:	d9800945 	stb	r6,37(sp)
   2c110:	003d2006 	br	2b594 <___vfiprintf_internal_r+0x720>
   2c114:	d9800945 	stb	r6,37(sp)
   2c118:	003d6806 	br	2b6bc <___vfiprintf_internal_r+0x848>
   2c11c:	21400044 	addi	r5,r4,1
   2c120:	39cefe04 	addi	r7,r7,15352
   2c124:	003d0806 	br	2b548 <___vfiprintf_internal_r+0x6d4>
   2c128:	01c000f4 	movhi	r7,3
   2c12c:	301b883a 	mov	r13,r6
   2c130:	281d883a 	mov	r14,r5
   2c134:	39cefa04 	addi	r7,r7,15336
   2c138:	003e7406 	br	2bb0c <___vfiprintf_internal_r+0xc98>
   2c13c:	00bfffc4 	movi	r2,-1
   2c140:	d8800115 	stw	r2,4(sp)
   2c144:	003c6106 	br	2b2cc <___vfiprintf_internal_r+0x458>
   2c148:	d8800417 	ldw	r2,16(sp)
   2c14c:	12000017 	ldw	r8,0(r2)
   2c150:	10c00104 	addi	r3,r2,4
   2c154:	4000010e 	bge	r8,zero,2c15c <___vfiprintf_internal_r+0x12e8>
   2c158:	023fffc4 	movi	r8,-1
   2c15c:	a0800043 	ldbu	r2,1(r20)
   2c160:	d8c00415 	stw	r3,16(sp)
   2c164:	2029883a 	mov	r20,r4
   2c168:	10803fcc 	andi	r2,r2,255
   2c16c:	1080201c 	xori	r2,r2,128
   2c170:	10bfe004 	addi	r2,r2,-128
   2c174:	003b8006 	br	2af78 <___vfiprintf_internal_r+0x104>

0002c178 <__vfiprintf_internal>:
   2c178:	00c000f4 	movhi	r3,3
   2c17c:	2005883a 	mov	r2,r4
   2c180:	19190c17 	ldw	r4,25648(r3)
   2c184:	300f883a 	mov	r7,r6
   2c188:	280d883a 	mov	r6,r5
   2c18c:	100b883a 	mov	r5,r2
   2c190:	002ae741 	jmpi	2ae74 <___vfiprintf_internal_r>

0002c194 <__sbprintf>:
   2c194:	2880030b 	ldhu	r2,12(r5)
   2c198:	2b001917 	ldw	r12,100(r5)
   2c19c:	2ac0038b 	ldhu	r11,14(r5)
   2c1a0:	2a800717 	ldw	r10,28(r5)
   2c1a4:	2a400917 	ldw	r9,36(r5)
   2c1a8:	defee204 	addi	sp,sp,-1144
   2c1ac:	da001a04 	addi	r8,sp,104
   2c1b0:	00c10004 	movi	r3,1024
   2c1b4:	dc011a15 	stw	r16,1128(sp)
   2c1b8:	10bfff4c 	andi	r2,r2,65533
   2c1bc:	2821883a 	mov	r16,r5
   2c1c0:	d80b883a 	mov	r5,sp
   2c1c4:	dc811c15 	stw	r18,1136(sp)
   2c1c8:	dc411b15 	stw	r17,1132(sp)
   2c1cc:	dfc11d15 	stw	ra,1140(sp)
   2c1d0:	2025883a 	mov	r18,r4
   2c1d4:	d880030d 	sth	r2,12(sp)
   2c1d8:	db001915 	stw	r12,100(sp)
   2c1dc:	dac0038d 	sth	r11,14(sp)
   2c1e0:	da800715 	stw	r10,28(sp)
   2c1e4:	da400915 	stw	r9,36(sp)
   2c1e8:	da000015 	stw	r8,0(sp)
   2c1ec:	da000415 	stw	r8,16(sp)
   2c1f0:	d8c00215 	stw	r3,8(sp)
   2c1f4:	d8c00515 	stw	r3,20(sp)
   2c1f8:	d8000615 	stw	zero,24(sp)
   2c1fc:	002ae740 	call	2ae74 <___vfiprintf_internal_r>
   2c200:	1023883a 	mov	r17,r2
   2c204:	10000d0e 	bge	r2,zero,2c23c <__sbprintf+0xa8>
   2c208:	d880030b 	ldhu	r2,12(sp)
   2c20c:	1080100c 	andi	r2,r2,64
   2c210:	10000326 	beq	r2,zero,2c220 <__sbprintf+0x8c>
   2c214:	8080030b 	ldhu	r2,12(r16)
   2c218:	10801014 	ori	r2,r2,64
   2c21c:	8080030d 	sth	r2,12(r16)
   2c220:	8805883a 	mov	r2,r17
   2c224:	dfc11d17 	ldw	ra,1140(sp)
   2c228:	dc811c17 	ldw	r18,1136(sp)
   2c22c:	dc411b17 	ldw	r17,1132(sp)
   2c230:	dc011a17 	ldw	r16,1128(sp)
   2c234:	dec11e04 	addi	sp,sp,1144
   2c238:	f800283a 	ret
   2c23c:	d80b883a 	mov	r5,sp
   2c240:	9009883a 	mov	r4,r18
   2c244:	00281540 	call	28154 <_fflush_r>
   2c248:	103fef26 	beq	r2,zero,2c208 <__sbprintf+0x74>
   2c24c:	047fffc4 	movi	r17,-1
   2c250:	003fed06 	br	2c208 <__sbprintf+0x74>

0002c254 <__swbuf_r>:
   2c254:	defffb04 	addi	sp,sp,-20
   2c258:	dcc00315 	stw	r19,12(sp)
   2c25c:	dc400115 	stw	r17,4(sp)
   2c260:	dc000015 	stw	r16,0(sp)
   2c264:	dfc00415 	stw	ra,16(sp)
   2c268:	dc800215 	stw	r18,8(sp)
   2c26c:	2027883a 	mov	r19,r4
   2c270:	2823883a 	mov	r17,r5
   2c274:	3021883a 	mov	r16,r6
   2c278:	20000226 	beq	r4,zero,2c284 <__swbuf_r+0x30>
   2c27c:	20800e17 	ldw	r2,56(r4)
   2c280:	10003e26 	beq	r2,zero,2c37c <__swbuf_r+0x128>
   2c284:	80800617 	ldw	r2,24(r16)
   2c288:	80c0030b 	ldhu	r3,12(r16)
   2c28c:	80800215 	stw	r2,8(r16)
   2c290:	1880020c 	andi	r2,r3,8
   2c294:	10001f26 	beq	r2,zero,2c314 <__swbuf_r+0xc0>
   2c298:	80800417 	ldw	r2,16(r16)
   2c29c:	10001d26 	beq	r2,zero,2c314 <__swbuf_r+0xc0>
   2c2a0:	1948000c 	andi	r5,r3,8192
   2c2a4:	8c803fcc 	andi	r18,r17,255
   2c2a8:	28002326 	beq	r5,zero,2c338 <__swbuf_r+0xe4>
   2c2ac:	80c00017 	ldw	r3,0(r16)
   2c2b0:	81000517 	ldw	r4,20(r16)
   2c2b4:	1885c83a 	sub	r2,r3,r2
   2c2b8:	1100290e 	bge	r2,r4,2c360 <__swbuf_r+0x10c>
   2c2bc:	10800044 	addi	r2,r2,1
   2c2c0:	81400217 	ldw	r5,8(r16)
   2c2c4:	19000044 	addi	r4,r3,1
   2c2c8:	81000015 	stw	r4,0(r16)
   2c2cc:	297fffc4 	addi	r5,r5,-1
   2c2d0:	81400215 	stw	r5,8(r16)
   2c2d4:	1c400005 	stb	r17,0(r3)
   2c2d8:	80c00517 	ldw	r3,20(r16)
   2c2dc:	18802926 	beq	r3,r2,2c384 <__swbuf_r+0x130>
   2c2e0:	8080030b 	ldhu	r2,12(r16)
   2c2e4:	1080004c 	andi	r2,r2,1
   2c2e8:	10000226 	beq	r2,zero,2c2f4 <__swbuf_r+0xa0>
   2c2ec:	90800298 	cmpnei	r2,r18,10
   2c2f0:	10002426 	beq	r2,zero,2c384 <__swbuf_r+0x130>
   2c2f4:	9005883a 	mov	r2,r18
   2c2f8:	dfc00417 	ldw	ra,16(sp)
   2c2fc:	dcc00317 	ldw	r19,12(sp)
   2c300:	dc800217 	ldw	r18,8(sp)
   2c304:	dc400117 	ldw	r17,4(sp)
   2c308:	dc000017 	ldw	r16,0(sp)
   2c30c:	dec00504 	addi	sp,sp,20
   2c310:	f800283a 	ret
   2c314:	800b883a 	mov	r5,r16
   2c318:	9809883a 	mov	r4,r19
   2c31c:	002642c0 	call	2642c <__swsetup_r>
   2c320:	10001c1e 	bne	r2,zero,2c394 <__swbuf_r+0x140>
   2c324:	80c0030b 	ldhu	r3,12(r16)
   2c328:	80800417 	ldw	r2,16(r16)
   2c32c:	8c803fcc 	andi	r18,r17,255
   2c330:	1948000c 	andi	r5,r3,8192
   2c334:	283fdd1e 	bne	r5,zero,2c2ac <__swbuf_r+0x58>
   2c338:	81001917 	ldw	r4,100(r16)
   2c33c:	18c80014 	ori	r3,r3,8192
   2c340:	0177ffc4 	movi	r5,-8193
   2c344:	2148703a 	and	r4,r4,r5
   2c348:	80c0030d 	sth	r3,12(r16)
   2c34c:	80c00017 	ldw	r3,0(r16)
   2c350:	81001915 	stw	r4,100(r16)
   2c354:	81000517 	ldw	r4,20(r16)
   2c358:	1885c83a 	sub	r2,r3,r2
   2c35c:	113fd716 	blt	r2,r4,2c2bc <__swbuf_r+0x68>
   2c360:	800b883a 	mov	r5,r16
   2c364:	9809883a 	mov	r4,r19
   2c368:	00281540 	call	28154 <_fflush_r>
   2c36c:	1000091e 	bne	r2,zero,2c394 <__swbuf_r+0x140>
   2c370:	80c00017 	ldw	r3,0(r16)
   2c374:	00800044 	movi	r2,1
   2c378:	003fd106 	br	2c2c0 <__swbuf_r+0x6c>
   2c37c:	00284d80 	call	284d8 <__sinit>
   2c380:	003fc006 	br	2c284 <__swbuf_r+0x30>
   2c384:	800b883a 	mov	r5,r16
   2c388:	9809883a 	mov	r4,r19
   2c38c:	00281540 	call	28154 <_fflush_r>
   2c390:	103fd826 	beq	r2,zero,2c2f4 <__swbuf_r+0xa0>
   2c394:	04bfffc4 	movi	r18,-1
   2c398:	003fd606 	br	2c2f4 <__swbuf_r+0xa0>

0002c39c <__swbuf>:
   2c39c:	00c000f4 	movhi	r3,3
   2c3a0:	2005883a 	mov	r2,r4
   2c3a4:	19190c17 	ldw	r4,25648(r3)
   2c3a8:	280d883a 	mov	r6,r5
   2c3ac:	100b883a 	mov	r5,r2
   2c3b0:	002c2541 	jmpi	2c254 <__swbuf_r>

0002c3b4 <__assert_func>:
   2c3b4:	008000f4 	movhi	r2,3
   2c3b8:	12190c17 	ldw	r8,25648(r2)
   2c3bc:	defffc04 	addi	sp,sp,-16
   2c3c0:	3807883a 	mov	r3,r7
   2c3c4:	3005883a 	mov	r2,r6
   2c3c8:	dfc00315 	stw	ra,12(sp)
   2c3cc:	42400317 	ldw	r9,12(r8)
   2c3d0:	200f883a 	mov	r7,r4
   2c3d4:	2811883a 	mov	r8,r5
   2c3d8:	180d883a 	mov	r6,r3
   2c3dc:	10000a26 	beq	r2,zero,2c408 <__assert_func+0x54>
   2c3e0:	00c000f4 	movhi	r3,3
   2c3e4:	18cf0204 	addi	r3,r3,15368
   2c3e8:	014000f4 	movhi	r5,3
   2c3ec:	294f0604 	addi	r5,r5,15384
   2c3f0:	4809883a 	mov	r4,r9
   2c3f4:	d8c00115 	stw	r3,4(sp)
   2c3f8:	da000015 	stw	r8,0(sp)
   2c3fc:	d8800215 	stw	r2,8(sp)
   2c400:	002c6080 	call	2c608 <fiprintf>
   2c404:	002cb140 	call	2cb14 <abort>
   2c408:	00c000f4 	movhi	r3,3
   2c40c:	18cf0504 	addi	r3,r3,15380
   2c410:	1805883a 	mov	r2,r3
   2c414:	003ff406 	br	2c3e8 <__assert_func+0x34>

0002c418 <__assert>:
   2c418:	deffff04 	addi	sp,sp,-4
   2c41c:	300f883a 	mov	r7,r6
   2c420:	000d883a 	mov	r6,zero
   2c424:	dfc00015 	stw	ra,0(sp)
   2c428:	002c3b40 	call	2c3b4 <__assert_func>

0002c42c <_calloc_r>:
   2c42c:	298b383a 	mul	r5,r5,r6
   2c430:	deffff04 	addi	sp,sp,-4
   2c434:	dfc00015 	stw	ra,0(sp)
   2c438:	00233600 	call	23360 <_malloc_r>
   2c43c:	1009883a 	mov	r4,r2
   2c440:	10000c26 	beq	r2,zero,2c474 <_calloc_r+0x48>
   2c444:	11bfff17 	ldw	r6,-4(r2)
   2c448:	00bfff04 	movi	r2,-4
   2c44c:	308c703a 	and	r6,r6,r2
   2c450:	31bfff04 	addi	r6,r6,-4
   2c454:	30800968 	cmpgeui	r2,r6,37
   2c458:	1000141e 	bne	r2,zero,2c4ac <_calloc_r+0x80>
   2c45c:	30800530 	cmpltui	r2,r6,20
   2c460:	10000826 	beq	r2,zero,2c484 <_calloc_r+0x58>
   2c464:	2005883a 	mov	r2,r4
   2c468:	10000015 	stw	zero,0(r2)
   2c46c:	10000115 	stw	zero,4(r2)
   2c470:	10000215 	stw	zero,8(r2)
   2c474:	2005883a 	mov	r2,r4
   2c478:	dfc00017 	ldw	ra,0(sp)
   2c47c:	dec00104 	addi	sp,sp,4
   2c480:	f800283a 	ret
   2c484:	20000015 	stw	zero,0(r4)
   2c488:	20000115 	stw	zero,4(r4)
   2c48c:	30800728 	cmpgeui	r2,r6,28
   2c490:	10000d26 	beq	r2,zero,2c4c8 <_calloc_r+0x9c>
   2c494:	20000215 	stw	zero,8(r4)
   2c498:	20000315 	stw	zero,12(r4)
   2c49c:	31800920 	cmpeqi	r6,r6,36
   2c4a0:	30000b1e 	bne	r6,zero,2c4d0 <_calloc_r+0xa4>
   2c4a4:	20800404 	addi	r2,r4,16
   2c4a8:	003fef06 	br	2c468 <_calloc_r+0x3c>
   2c4ac:	000b883a 	mov	r5,zero
   2c4b0:	0023b400 	call	23b40 <memset>
   2c4b4:	1009883a 	mov	r4,r2
   2c4b8:	2005883a 	mov	r2,r4
   2c4bc:	dfc00017 	ldw	ra,0(sp)
   2c4c0:	dec00104 	addi	sp,sp,4
   2c4c4:	f800283a 	ret
   2c4c8:	20800204 	addi	r2,r4,8
   2c4cc:	003fe606 	br	2c468 <_calloc_r+0x3c>
   2c4d0:	20000415 	stw	zero,16(r4)
   2c4d4:	20800604 	addi	r2,r4,24
   2c4d8:	20000515 	stw	zero,20(r4)
   2c4dc:	003fe206 	br	2c468 <_calloc_r+0x3c>

0002c4e0 <_fclose_r>:
   2c4e0:	defffc04 	addi	sp,sp,-16
   2c4e4:	dfc00315 	stw	ra,12(sp)
   2c4e8:	dc800215 	stw	r18,8(sp)
   2c4ec:	dc400115 	stw	r17,4(sp)
   2c4f0:	dc000015 	stw	r16,0(sp)
   2c4f4:	28000726 	beq	r5,zero,2c514 <_fclose_r+0x34>
   2c4f8:	2821883a 	mov	r16,r5
   2c4fc:	2023883a 	mov	r17,r4
   2c500:	20000226 	beq	r4,zero,2c50c <_fclose_r+0x2c>
   2c504:	20800e17 	ldw	r2,56(r4)
   2c508:	10002726 	beq	r2,zero,2c5a8 <_fclose_r+0xc8>
   2c50c:	8080030f 	ldh	r2,12(r16)
   2c510:	1000081e 	bne	r2,zero,2c534 <_fclose_r+0x54>
   2c514:	0025883a 	mov	r18,zero
   2c518:	9005883a 	mov	r2,r18
   2c51c:	dfc00317 	ldw	ra,12(sp)
   2c520:	dc800217 	ldw	r18,8(sp)
   2c524:	dc400117 	ldw	r17,4(sp)
   2c528:	dc000017 	ldw	r16,0(sp)
   2c52c:	dec00404 	addi	sp,sp,16
   2c530:	f800283a 	ret
   2c534:	800b883a 	mov	r5,r16
   2c538:	8809883a 	mov	r4,r17
   2c53c:	0027f2c0 	call	27f2c <__sflush_r>
   2c540:	80c00b17 	ldw	r3,44(r16)
   2c544:	1025883a 	mov	r18,r2
   2c548:	18000426 	beq	r3,zero,2c55c <_fclose_r+0x7c>
   2c54c:	81400717 	ldw	r5,28(r16)
   2c550:	8809883a 	mov	r4,r17
   2c554:	183ee83a 	callr	r3
   2c558:	10001716 	blt	r2,zero,2c5b8 <_fclose_r+0xd8>
   2c55c:	8080030b 	ldhu	r2,12(r16)
   2c560:	1080200c 	andi	r2,r2,128
   2c564:	1000181e 	bne	r2,zero,2c5c8 <_fclose_r+0xe8>
   2c568:	81400c17 	ldw	r5,48(r16)
   2c56c:	28000526 	beq	r5,zero,2c584 <_fclose_r+0xa4>
   2c570:	80801004 	addi	r2,r16,64
   2c574:	28800226 	beq	r5,r2,2c580 <_fclose_r+0xa0>
   2c578:	8809883a 	mov	r4,r17
   2c57c:	00286f40 	call	286f4 <_free_r>
   2c580:	80000c15 	stw	zero,48(r16)
   2c584:	81401117 	ldw	r5,68(r16)
   2c588:	28000326 	beq	r5,zero,2c598 <_fclose_r+0xb8>
   2c58c:	8809883a 	mov	r4,r17
   2c590:	00286f40 	call	286f4 <_free_r>
   2c594:	80001115 	stw	zero,68(r16)
   2c598:	00284e80 	call	284e8 <__sfp_lock_acquire>
   2c59c:	8000030d 	sth	zero,12(r16)
   2c5a0:	00284ec0 	call	284ec <__sfp_lock_release>
   2c5a4:	003fdc06 	br	2c518 <_fclose_r+0x38>
   2c5a8:	00284d80 	call	284d8 <__sinit>
   2c5ac:	8080030f 	ldh	r2,12(r16)
   2c5b0:	103fd826 	beq	r2,zero,2c514 <_fclose_r+0x34>
   2c5b4:	003fdf06 	br	2c534 <_fclose_r+0x54>
   2c5b8:	8080030b 	ldhu	r2,12(r16)
   2c5bc:	04bfffc4 	movi	r18,-1
   2c5c0:	1080200c 	andi	r2,r2,128
   2c5c4:	103fe826 	beq	r2,zero,2c568 <_fclose_r+0x88>
   2c5c8:	81400417 	ldw	r5,16(r16)
   2c5cc:	8809883a 	mov	r4,r17
   2c5d0:	00286f40 	call	286f4 <_free_r>
   2c5d4:	003fe406 	br	2c568 <_fclose_r+0x88>

0002c5d8 <fclose>:
   2c5d8:	008000f4 	movhi	r2,3
   2c5dc:	200b883a 	mov	r5,r4
   2c5e0:	11190c17 	ldw	r4,25648(r2)
   2c5e4:	002c4e01 	jmpi	2c4e0 <_fclose_r>

0002c5e8 <_fiprintf_r>:
   2c5e8:	defffe04 	addi	sp,sp,-8
   2c5ec:	dfc00015 	stw	ra,0(sp)
   2c5f0:	d9c00115 	stw	r7,4(sp)
   2c5f4:	d9c00104 	addi	r7,sp,4
   2c5f8:	002c9e00 	call	2c9e0 <_vfiprintf_r>
   2c5fc:	dfc00017 	ldw	ra,0(sp)
   2c600:	dec00204 	addi	sp,sp,8
   2c604:	f800283a 	ret

0002c608 <fiprintf>:
   2c608:	defffd04 	addi	sp,sp,-12
   2c60c:	2005883a 	mov	r2,r4
   2c610:	dfc00015 	stw	ra,0(sp)
   2c614:	d9800115 	stw	r6,4(sp)
   2c618:	d9c00215 	stw	r7,8(sp)
   2c61c:	00c000f4 	movhi	r3,3
   2c620:	19190c17 	ldw	r4,25648(r3)
   2c624:	280d883a 	mov	r6,r5
   2c628:	d9c00104 	addi	r7,sp,4
   2c62c:	100b883a 	mov	r5,r2
   2c630:	002c9e00 	call	2c9e0 <_vfiprintf_r>
   2c634:	dfc00017 	ldw	ra,0(sp)
   2c638:	dec00304 	addi	sp,sp,12
   2c63c:	f800283a 	ret

0002c640 <__fputwc>:
   2c640:	defff904 	addi	sp,sp,-28
   2c644:	dcc00415 	stw	r19,16(sp)
   2c648:	dc800315 	stw	r18,12(sp)
   2c64c:	dc000115 	stw	r16,4(sp)
   2c650:	dfc00615 	stw	ra,24(sp)
   2c654:	dd000515 	stw	r20,20(sp)
   2c658:	dc400215 	stw	r17,8(sp)
   2c65c:	2025883a 	mov	r18,r4
   2c660:	2827883a 	mov	r19,r5
   2c664:	3021883a 	mov	r16,r6
   2c668:	002c8b40 	call	2c8b4 <__locale_mb_cur_max>
   2c66c:	10800058 	cmpnei	r2,r2,1
   2c670:	1000071e 	bne	r2,zero,2c690 <__fputwc+0x50>
   2c674:	98bfffc4 	addi	r2,r19,-1
   2c678:	10803fe8 	cmpgeui	r2,r2,255
   2c67c:	1000041e 	bne	r2,zero,2c690 <__fputwc+0x50>
   2c680:	980b883a 	mov	r5,r19
   2c684:	dcc000c5 	stb	r19,3(sp)
   2c688:	05000044 	movi	r20,1
   2c68c:	00000a06 	br	2c6b8 <__fputwc+0x78>
   2c690:	81c01704 	addi	r7,r16,92
   2c694:	980d883a 	mov	r6,r19
   2c698:	d94000c4 	addi	r5,sp,3
   2c69c:	9009883a 	mov	r4,r18
   2c6a0:	002c9e40 	call	2c9e4 <_wcrtomb_r>
   2c6a4:	1029883a 	mov	r20,r2
   2c6a8:	10bfffd8 	cmpnei	r2,r2,-1
   2c6ac:	10003926 	beq	r2,zero,2c794 <__fputwc+0x154>
   2c6b0:	a0001f26 	beq	r20,zero,2c730 <__fputwc+0xf0>
   2c6b4:	d94000c3 	ldbu	r5,3(sp)
   2c6b8:	0023883a 	mov	r17,zero
   2c6bc:	00000a06 	br	2c6e8 <__fputwc+0xa8>
   2c6c0:	80800017 	ldw	r2,0(r16)
   2c6c4:	11400005 	stb	r5,0(r2)
   2c6c8:	80c00017 	ldw	r3,0(r16)
   2c6cc:	18c00044 	addi	r3,r3,1
   2c6d0:	80c00015 	stw	r3,0(r16)
   2c6d4:	8c400044 	addi	r17,r17,1
   2c6d8:	d88000c4 	addi	r2,sp,3
   2c6dc:	1447883a 	add	r3,r2,r17
   2c6e0:	8d00132e 	bgeu	r17,r20,2c730 <__fputwc+0xf0>
   2c6e4:	19400003 	ldbu	r5,0(r3)
   2c6e8:	80c00217 	ldw	r3,8(r16)
   2c6ec:	18ffffc4 	addi	r3,r3,-1
   2c6f0:	80c00215 	stw	r3,8(r16)
   2c6f4:	183ff20e 	bge	r3,zero,2c6c0 <__fputwc+0x80>
   2c6f8:	80800617 	ldw	r2,24(r16)
   2c6fc:	18801616 	blt	r3,r2,2c758 <__fputwc+0x118>
   2c700:	80800017 	ldw	r2,0(r16)
   2c704:	11400005 	stb	r5,0(r2)
   2c708:	80800017 	ldw	r2,0(r16)
   2c70c:	10c00003 	ldbu	r3,0(r2)
   2c710:	10800044 	addi	r2,r2,1
   2c714:	18c002a0 	cmpeqi	r3,r3,10
   2c718:	1800181e 	bne	r3,zero,2c77c <__fputwc+0x13c>
   2c71c:	80800015 	stw	r2,0(r16)
   2c720:	8c400044 	addi	r17,r17,1
   2c724:	d88000c4 	addi	r2,sp,3
   2c728:	1447883a 	add	r3,r2,r17
   2c72c:	8d3fed36 	bltu	r17,r20,2c6e4 <__fputwc+0xa4>
   2c730:	9829883a 	mov	r20,r19
   2c734:	a005883a 	mov	r2,r20
   2c738:	dfc00617 	ldw	ra,24(sp)
   2c73c:	dd000517 	ldw	r20,20(sp)
   2c740:	dcc00417 	ldw	r19,16(sp)
   2c744:	dc800317 	ldw	r18,12(sp)
   2c748:	dc400217 	ldw	r17,8(sp)
   2c74c:	dc000117 	ldw	r16,4(sp)
   2c750:	dec00704 	addi	sp,sp,28
   2c754:	f800283a 	ret
   2c758:	29403fcc 	andi	r5,r5,255
   2c75c:	800d883a 	mov	r6,r16
   2c760:	9009883a 	mov	r4,r18
   2c764:	002c2540 	call	2c254 <__swbuf_r>
   2c768:	10ffffe0 	cmpeqi	r3,r2,-1
   2c76c:	18c03fcc 	andi	r3,r3,255
   2c770:	183fd826 	beq	r3,zero,2c6d4 <__fputwc+0x94>
   2c774:	053fffc4 	movi	r20,-1
   2c778:	003fee06 	br	2c734 <__fputwc+0xf4>
   2c77c:	800d883a 	mov	r6,r16
   2c780:	01400284 	movi	r5,10
   2c784:	9009883a 	mov	r4,r18
   2c788:	002c2540 	call	2c254 <__swbuf_r>
   2c78c:	10ffffe0 	cmpeqi	r3,r2,-1
   2c790:	003ff606 	br	2c76c <__fputwc+0x12c>
   2c794:	8080030b 	ldhu	r2,12(r16)
   2c798:	10801014 	ori	r2,r2,64
   2c79c:	8080030d 	sth	r2,12(r16)
   2c7a0:	003fe406 	br	2c734 <__fputwc+0xf4>

0002c7a4 <_fputwc_r>:
   2c7a4:	3080030b 	ldhu	r2,12(r6)
   2c7a8:	10c8000c 	andi	r3,r2,8192
   2c7ac:	1800051e 	bne	r3,zero,2c7c4 <_fputwc_r+0x20>
   2c7b0:	30c01917 	ldw	r3,100(r6)
   2c7b4:	10880014 	ori	r2,r2,8192
   2c7b8:	3080030d 	sth	r2,12(r6)
   2c7bc:	18880014 	ori	r2,r3,8192
   2c7c0:	30801915 	stw	r2,100(r6)
   2c7c4:	002c6401 	jmpi	2c640 <__fputwc>

0002c7c8 <fputwc>:
   2c7c8:	defffc04 	addi	sp,sp,-16
   2c7cc:	008000f4 	movhi	r2,3
   2c7d0:	dc000215 	stw	r16,8(sp)
   2c7d4:	14190c17 	ldw	r16,25648(r2)
   2c7d8:	dfc00315 	stw	ra,12(sp)
   2c7dc:	280d883a 	mov	r6,r5
   2c7e0:	200b883a 	mov	r5,r4
   2c7e4:	80000226 	beq	r16,zero,2c7f0 <fputwc+0x28>
   2c7e8:	80800e17 	ldw	r2,56(r16)
   2c7ec:	10000d26 	beq	r2,zero,2c824 <fputwc+0x5c>
   2c7f0:	3080030b 	ldhu	r2,12(r6)
   2c7f4:	10c8000c 	andi	r3,r2,8192
   2c7f8:	1800051e 	bne	r3,zero,2c810 <fputwc+0x48>
   2c7fc:	30c01917 	ldw	r3,100(r6)
   2c800:	10880014 	ori	r2,r2,8192
   2c804:	3080030d 	sth	r2,12(r6)
   2c808:	18880014 	ori	r2,r3,8192
   2c80c:	30801915 	stw	r2,100(r6)
   2c810:	8009883a 	mov	r4,r16
   2c814:	dfc00317 	ldw	ra,12(sp)
   2c818:	dc000217 	ldw	r16,8(sp)
   2c81c:	dec00404 	addi	sp,sp,16
   2c820:	002c6401 	jmpi	2c640 <__fputwc>
   2c824:	d9000015 	stw	r4,0(sp)
   2c828:	8009883a 	mov	r4,r16
   2c82c:	d9800115 	stw	r6,4(sp)
   2c830:	00284d80 	call	284d8 <__sinit>
   2c834:	d9800117 	ldw	r6,4(sp)
   2c838:	d9400017 	ldw	r5,0(sp)
   2c83c:	003fec06 	br	2c7f0 <fputwc+0x28>

0002c840 <_setlocale_r>:
   2c840:	30001626 	beq	r6,zero,2c89c <_setlocale_r+0x5c>
   2c844:	014000f4 	movhi	r5,3
   2c848:	defffe04 	addi	sp,sp,-8
   2c84c:	294f1304 	addi	r5,r5,15436
   2c850:	3009883a 	mov	r4,r6
   2c854:	dc000015 	stw	r16,0(sp)
   2c858:	dfc00115 	stw	ra,4(sp)
   2c85c:	3021883a 	mov	r16,r6
   2c860:	002c9280 	call	2c928 <strcmp>
   2c864:	1000061e 	bne	r2,zero,2c880 <_setlocale_r+0x40>
   2c868:	008000f4 	movhi	r2,3
   2c86c:	108f1204 	addi	r2,r2,15432
   2c870:	dfc00117 	ldw	ra,4(sp)
   2c874:	dc000017 	ldw	r16,0(sp)
   2c878:	dec00204 	addi	sp,sp,8
   2c87c:	f800283a 	ret
   2c880:	80800003 	ldbu	r2,0(r16)
   2c884:	10bfef44 	addi	r2,r2,-67
   2c888:	10000726 	beq	r2,zero,2c8a8 <_setlocale_r+0x68>
   2c88c:	80800003 	ldbu	r2,0(r16)
   2c890:	103ff526 	beq	r2,zero,2c868 <_setlocale_r+0x28>
   2c894:	0005883a 	mov	r2,zero
   2c898:	003ff506 	br	2c870 <_setlocale_r+0x30>
   2c89c:	008000f4 	movhi	r2,3
   2c8a0:	108f1204 	addi	r2,r2,15432
   2c8a4:	f800283a 	ret
   2c8a8:	80800043 	ldbu	r2,1(r16)
   2c8ac:	103fee26 	beq	r2,zero,2c868 <_setlocale_r+0x28>
   2c8b0:	003ff606 	br	2c88c <_setlocale_r+0x4c>

0002c8b4 <__locale_mb_cur_max>:
   2c8b4:	008000f4 	movhi	r2,3
   2c8b8:	10944407 	ldb	r2,20752(r2)
   2c8bc:	f800283a 	ret

0002c8c0 <setlocale>:
   2c8c0:	00c000f4 	movhi	r3,3
   2c8c4:	2005883a 	mov	r2,r4
   2c8c8:	19190c17 	ldw	r4,25648(r3)
   2c8cc:	280d883a 	mov	r6,r5
   2c8d0:	100b883a 	mov	r5,r2
   2c8d4:	002c8401 	jmpi	2c840 <_setlocale_r>

0002c8d8 <_mbtowc_r>:
   2c8d8:	008000f4 	movhi	r2,3
   2c8dc:	10943317 	ldw	r2,20684(r2)
   2c8e0:	1000683a 	jmp	r2

0002c8e4 <__ascii_mbtowc>:
   2c8e4:	deffff04 	addi	sp,sp,-4
   2c8e8:	28000826 	beq	r5,zero,2c90c <__ascii_mbtowc+0x28>
   2c8ec:	30000926 	beq	r6,zero,2c914 <__ascii_mbtowc+0x30>
   2c8f0:	38000b26 	beq	r7,zero,2c920 <__ascii_mbtowc+0x3c>
   2c8f4:	30800003 	ldbu	r2,0(r6)
   2c8f8:	28800015 	stw	r2,0(r5)
   2c8fc:	30800003 	ldbu	r2,0(r6)
   2c900:	1004c03a 	cmpne	r2,r2,zero
   2c904:	dec00104 	addi	sp,sp,4
   2c908:	f800283a 	ret
   2c90c:	d80b883a 	mov	r5,sp
   2c910:	303ff71e 	bne	r6,zero,2c8f0 <__ascii_mbtowc+0xc>
   2c914:	0005883a 	mov	r2,zero
   2c918:	dec00104 	addi	sp,sp,4
   2c91c:	f800283a 	ret
   2c920:	00bfff84 	movi	r2,-2
   2c924:	003ff706 	br	2c904 <__ascii_mbtowc+0x20>

0002c928 <strcmp>:
   2c928:	2144b03a 	or	r2,r4,r5
   2c92c:	108000cc 	andi	r2,r2,3
   2c930:	1000141e 	bne	r2,zero,2c984 <strcmp+0x5c>
   2c934:	20800017 	ldw	r2,0(r4)
   2c938:	28c00017 	ldw	r3,0(r5)
   2c93c:	10c0111e 	bne	r2,r3,2c984 <strcmp+0x5c>
   2c940:	01ffbff4 	movhi	r7,65279
   2c944:	01a02074 	movhi	r6,32897
   2c948:	39ffbfc4 	addi	r7,r7,-257
   2c94c:	31a02004 	addi	r6,r6,-32640
   2c950:	00000306 	br	2c960 <strcmp+0x38>
   2c954:	20800017 	ldw	r2,0(r4)
   2c958:	28c00017 	ldw	r3,0(r5)
   2c95c:	10c0091e 	bne	r2,r3,2c984 <strcmp+0x5c>
   2c960:	11c7883a 	add	r3,r2,r7
   2c964:	0084303a 	nor	r2,zero,r2
   2c968:	1884703a 	and	r2,r3,r2
   2c96c:	1184703a 	and	r2,r2,r6
   2c970:	21000104 	addi	r4,r4,4
   2c974:	29400104 	addi	r5,r5,4
   2c978:	103ff626 	beq	r2,zero,2c954 <strcmp+0x2c>
   2c97c:	0005883a 	mov	r2,zero
   2c980:	f800283a 	ret
   2c984:	20c00003 	ldbu	r3,0(r4)
   2c988:	18803fcc 	andi	r2,r3,255
   2c98c:	1080201c 	xori	r2,r2,128
   2c990:	10bfe004 	addi	r2,r2,-128
   2c994:	1000071e 	bne	r2,zero,2c9b4 <strcmp+0x8c>
   2c998:	00000a06 	br	2c9c4 <strcmp+0x9c>
   2c99c:	20c00003 	ldbu	r3,0(r4)
   2c9a0:	29400044 	addi	r5,r5,1
   2c9a4:	18803fcc 	andi	r2,r3,255
   2c9a8:	1080201c 	xori	r2,r2,128
   2c9ac:	10bfe004 	addi	r2,r2,-128
   2c9b0:	10000726 	beq	r2,zero,2c9d0 <strcmp+0xa8>
   2c9b4:	29800007 	ldb	r6,0(r5)
   2c9b8:	21000044 	addi	r4,r4,1
   2c9bc:	30bff726 	beq	r6,r2,2c99c <strcmp+0x74>
   2c9c0:	18803fcc 	andi	r2,r3,255
   2c9c4:	28c00003 	ldbu	r3,0(r5)
   2c9c8:	10c5c83a 	sub	r2,r2,r3
   2c9cc:	f800283a 	ret
   2c9d0:	28c00003 	ldbu	r3,0(r5)
   2c9d4:	0005883a 	mov	r2,zero
   2c9d8:	10c5c83a 	sub	r2,r2,r3
   2c9dc:	f800283a 	ret

0002c9e0 <_vfiprintf_r>:
   2c9e0:	002ae741 	jmpi	2ae74 <___vfiprintf_internal_r>

0002c9e4 <_wcrtomb_r>:
   2c9e4:	defffa04 	addi	sp,sp,-24
   2c9e8:	dc400415 	stw	r17,16(sp)
   2c9ec:	dc000315 	stw	r16,12(sp)
   2c9f0:	008000f4 	movhi	r2,3
   2c9f4:	dfc00515 	stw	ra,20(sp)
   2c9f8:	10943217 	ldw	r2,20680(r2)
   2c9fc:	2023883a 	mov	r17,r4
   2ca00:	3821883a 	mov	r16,r7
   2ca04:	28000826 	beq	r5,zero,2ca28 <_wcrtomb_r+0x44>
   2ca08:	103ee83a 	callr	r2
   2ca0c:	10ffffd8 	cmpnei	r3,r2,-1
   2ca10:	18000a26 	beq	r3,zero,2ca3c <_wcrtomb_r+0x58>
   2ca14:	dfc00517 	ldw	ra,20(sp)
   2ca18:	dc400417 	ldw	r17,16(sp)
   2ca1c:	dc000317 	ldw	r16,12(sp)
   2ca20:	dec00604 	addi	sp,sp,24
   2ca24:	f800283a 	ret
   2ca28:	000d883a 	mov	r6,zero
   2ca2c:	d9400084 	addi	r5,sp,2
   2ca30:	103ee83a 	callr	r2
   2ca34:	10ffffd8 	cmpnei	r3,r2,-1
   2ca38:	183ff61e 	bne	r3,zero,2ca14 <_wcrtomb_r+0x30>
   2ca3c:	00802284 	movi	r2,138
   2ca40:	80000015 	stw	zero,0(r16)
   2ca44:	88800015 	stw	r2,0(r17)
   2ca48:	00bfffc4 	movi	r2,-1
   2ca4c:	003ff106 	br	2ca14 <_wcrtomb_r+0x30>

0002ca50 <wcrtomb>:
   2ca50:	defffa04 	addi	sp,sp,-24
   2ca54:	00c000f4 	movhi	r3,3
   2ca58:	dc400415 	stw	r17,16(sp)
   2ca5c:	dc000315 	stw	r16,12(sp)
   2ca60:	1c590c17 	ldw	r17,25648(r3)
   2ca64:	dfc00515 	stw	ra,20(sp)
   2ca68:	00c000f4 	movhi	r3,3
   2ca6c:	18d43217 	ldw	r3,20680(r3)
   2ca70:	3021883a 	mov	r16,r6
   2ca74:	20000c26 	beq	r4,zero,2caa8 <wcrtomb+0x58>
   2ca78:	280d883a 	mov	r6,r5
   2ca7c:	800f883a 	mov	r7,r16
   2ca80:	200b883a 	mov	r5,r4
   2ca84:	8809883a 	mov	r4,r17
   2ca88:	183ee83a 	callr	r3
   2ca8c:	10ffffd8 	cmpnei	r3,r2,-1
   2ca90:	18000c26 	beq	r3,zero,2cac4 <wcrtomb+0x74>
   2ca94:	dfc00517 	ldw	ra,20(sp)
   2ca98:	dc400417 	ldw	r17,16(sp)
   2ca9c:	dc000317 	ldw	r16,12(sp)
   2caa0:	dec00604 	addi	sp,sp,24
   2caa4:	f800283a 	ret
   2caa8:	300f883a 	mov	r7,r6
   2caac:	d9400084 	addi	r5,sp,2
   2cab0:	000d883a 	mov	r6,zero
   2cab4:	8809883a 	mov	r4,r17
   2cab8:	183ee83a 	callr	r3
   2cabc:	10ffffd8 	cmpnei	r3,r2,-1
   2cac0:	183ff41e 	bne	r3,zero,2ca94 <wcrtomb+0x44>
   2cac4:	00802284 	movi	r2,138
   2cac8:	80000015 	stw	zero,0(r16)
   2cacc:	88800015 	stw	r2,0(r17)
   2cad0:	00bfffc4 	movi	r2,-1
   2cad4:	003fef06 	br	2ca94 <wcrtomb+0x44>

0002cad8 <_wctomb_r>:
   2cad8:	008000f4 	movhi	r2,3
   2cadc:	10943217 	ldw	r2,20680(r2)
   2cae0:	1000683a 	jmp	r2

0002cae4 <__ascii_wctomb>:
   2cae4:	28000926 	beq	r5,zero,2cb0c <__ascii_wctomb+0x28>
   2cae8:	30804030 	cmpltui	r2,r6,256
   2caec:	10000326 	beq	r2,zero,2cafc <__ascii_wctomb+0x18>
   2caf0:	29800005 	stb	r6,0(r5)
   2caf4:	00800044 	movi	r2,1
   2caf8:	f800283a 	ret
   2cafc:	00802284 	movi	r2,138
   2cb00:	20800015 	stw	r2,0(r4)
   2cb04:	00bfffc4 	movi	r2,-1
   2cb08:	f800283a 	ret
   2cb0c:	0005883a 	mov	r2,zero
   2cb10:	f800283a 	ret

0002cb14 <abort>:
   2cb14:	deffff04 	addi	sp,sp,-4
   2cb18:	01000184 	movi	r4,6
   2cb1c:	dfc00015 	stw	ra,0(sp)
   2cb20:	002cd8c0 	call	2cd8c <raise>
   2cb24:	01000044 	movi	r4,1
   2cb28:	00300900 	call	30090 <_exit>

0002cb2c <_init_signal_r.part.0>:
   2cb2c:	defffe04 	addi	sp,sp,-8
   2cb30:	01402004 	movi	r5,128
   2cb34:	dc000015 	stw	r16,0(sp)
   2cb38:	dfc00115 	stw	ra,4(sp)
   2cb3c:	2021883a 	mov	r16,r4
   2cb40:	00233600 	call	23360 <_malloc_r>
   2cb44:	8080b715 	stw	r2,732(r16)
   2cb48:	10000926 	beq	r2,zero,2cb70 <_init_signal_r.part.0+0x44>
   2cb4c:	10c02004 	addi	r3,r2,128
   2cb50:	10000015 	stw	zero,0(r2)
   2cb54:	10800104 	addi	r2,r2,4
   2cb58:	10fffd1e 	bne	r2,r3,2cb50 <_init_signal_r.part.0+0x24>
   2cb5c:	0005883a 	mov	r2,zero
   2cb60:	dfc00117 	ldw	ra,4(sp)
   2cb64:	dc000017 	ldw	r16,0(sp)
   2cb68:	dec00204 	addi	sp,sp,8
   2cb6c:	f800283a 	ret
   2cb70:	00bfffc4 	movi	r2,-1
   2cb74:	003ffa06 	br	2cb60 <_init_signal_r.part.0+0x34>

0002cb78 <_init_signal_r>:
   2cb78:	2080b717 	ldw	r2,732(r4)
   2cb7c:	10000226 	beq	r2,zero,2cb88 <_init_signal_r+0x10>
   2cb80:	0005883a 	mov	r2,zero
   2cb84:	f800283a 	ret
   2cb88:	002cb2c1 	jmpi	2cb2c <_init_signal_r.part.0>

0002cb8c <_signal_r>:
   2cb8c:	defffc04 	addi	sp,sp,-16
   2cb90:	dc000215 	stw	r16,8(sp)
   2cb94:	dfc00315 	stw	ra,12(sp)
   2cb98:	28800830 	cmpltui	r2,r5,32
   2cb9c:	2021883a 	mov	r16,r4
   2cba0:	10000a26 	beq	r2,zero,2cbcc <_signal_r+0x40>
   2cba4:	2080b717 	ldw	r2,732(r4)
   2cba8:	10000f26 	beq	r2,zero,2cbe8 <_signal_r+0x5c>
   2cbac:	280a90ba 	slli	r5,r5,2
   2cbb0:	114b883a 	add	r5,r2,r5
   2cbb4:	28800017 	ldw	r2,0(r5)
   2cbb8:	29800015 	stw	r6,0(r5)
   2cbbc:	dfc00317 	ldw	ra,12(sp)
   2cbc0:	dc000217 	ldw	r16,8(sp)
   2cbc4:	dec00404 	addi	sp,sp,16
   2cbc8:	f800283a 	ret
   2cbcc:	00800584 	movi	r2,22
   2cbd0:	20800015 	stw	r2,0(r4)
   2cbd4:	00bfffc4 	movi	r2,-1
   2cbd8:	dfc00317 	ldw	ra,12(sp)
   2cbdc:	dc000217 	ldw	r16,8(sp)
   2cbe0:	dec00404 	addi	sp,sp,16
   2cbe4:	f800283a 	ret
   2cbe8:	d9800115 	stw	r6,4(sp)
   2cbec:	d9400015 	stw	r5,0(sp)
   2cbf0:	002cb2c0 	call	2cb2c <_init_signal_r.part.0>
   2cbf4:	1000041e 	bne	r2,zero,2cc08 <_signal_r+0x7c>
   2cbf8:	8080b717 	ldw	r2,732(r16)
   2cbfc:	d9800117 	ldw	r6,4(sp)
   2cc00:	d9400017 	ldw	r5,0(sp)
   2cc04:	003fe906 	br	2cbac <_signal_r+0x20>
   2cc08:	00bfffc4 	movi	r2,-1
   2cc0c:	003feb06 	br	2cbbc <_signal_r+0x30>

0002cc10 <_raise_r>:
   2cc10:	28800830 	cmpltui	r2,r5,32
   2cc14:	10002b26 	beq	r2,zero,2ccc4 <_raise_r+0xb4>
   2cc18:	2080b717 	ldw	r2,732(r4)
   2cc1c:	defffd04 	addi	sp,sp,-12
   2cc20:	dc000115 	stw	r16,4(sp)
   2cc24:	dfc00215 	stw	ra,8(sp)
   2cc28:	2821883a 	mov	r16,r5
   2cc2c:	10001026 	beq	r2,zero,2cc70 <_raise_r+0x60>
   2cc30:	280690ba 	slli	r3,r5,2
   2cc34:	10c5883a 	add	r2,r2,r3
   2cc38:	10c00017 	ldw	r3,0(r2)
   2cc3c:	18000c26 	beq	r3,zero,2cc70 <_raise_r+0x60>
   2cc40:	19400060 	cmpeqi	r5,r3,1
   2cc44:	28001a1e 	bne	r5,zero,2ccb0 <_raise_r+0xa0>
   2cc48:	197fffd8 	cmpnei	r5,r3,-1
   2cc4c:	28001126 	beq	r5,zero,2cc94 <_raise_r+0x84>
   2cc50:	10000015 	stw	zero,0(r2)
   2cc54:	8009883a 	mov	r4,r16
   2cc58:	183ee83a 	callr	r3
   2cc5c:	0005883a 	mov	r2,zero
   2cc60:	dfc00217 	ldw	ra,8(sp)
   2cc64:	dc000117 	ldw	r16,4(sp)
   2cc68:	dec00304 	addi	sp,sp,12
   2cc6c:	f800283a 	ret
   2cc70:	d9000015 	stw	r4,0(sp)
   2cc74:	002ce400 	call	2ce40 <_getpid_r>
   2cc78:	d9000017 	ldw	r4,0(sp)
   2cc7c:	800d883a 	mov	r6,r16
   2cc80:	100b883a 	mov	r5,r2
   2cc84:	dfc00217 	ldw	ra,8(sp)
   2cc88:	dc000117 	ldw	r16,4(sp)
   2cc8c:	dec00304 	addi	sp,sp,12
   2cc90:	002cde01 	jmpi	2cde0 <_kill_r>
   2cc94:	00800584 	movi	r2,22
   2cc98:	20800015 	stw	r2,0(r4)
   2cc9c:	00800044 	movi	r2,1
   2cca0:	dfc00217 	ldw	ra,8(sp)
   2cca4:	dc000117 	ldw	r16,4(sp)
   2cca8:	dec00304 	addi	sp,sp,12
   2ccac:	f800283a 	ret
   2ccb0:	0005883a 	mov	r2,zero
   2ccb4:	dfc00217 	ldw	ra,8(sp)
   2ccb8:	dc000117 	ldw	r16,4(sp)
   2ccbc:	dec00304 	addi	sp,sp,12
   2ccc0:	f800283a 	ret
   2ccc4:	00800584 	movi	r2,22
   2ccc8:	20800015 	stw	r2,0(r4)
   2cccc:	00bfffc4 	movi	r2,-1
   2ccd0:	f800283a 	ret

0002ccd4 <__sigtramp_r>:
   2ccd4:	28800830 	cmpltui	r2,r5,32
   2ccd8:	10002a26 	beq	r2,zero,2cd84 <__sigtramp_r+0xb0>
   2ccdc:	2080b717 	ldw	r2,732(r4)
   2cce0:	defffd04 	addi	sp,sp,-12
   2cce4:	dc400115 	stw	r17,4(sp)
   2cce8:	dfc00215 	stw	ra,8(sp)
   2ccec:	2023883a 	mov	r17,r4
   2ccf0:	10001526 	beq	r2,zero,2cd48 <__sigtramp_r+0x74>
   2ccf4:	280690ba 	slli	r3,r5,2
   2ccf8:	10c5883a 	add	r2,r2,r3
   2ccfc:	10c00017 	ldw	r3,0(r2)
   2cd00:	18000c26 	beq	r3,zero,2cd34 <__sigtramp_r+0x60>
   2cd04:	193fffe0 	cmpeqi	r4,r3,-1
   2cd08:	20001a1e 	bne	r4,zero,2cd74 <__sigtramp_r+0xa0>
   2cd0c:	19000060 	cmpeqi	r4,r3,1
   2cd10:	2000131e 	bne	r4,zero,2cd60 <__sigtramp_r+0x8c>
   2cd14:	10000015 	stw	zero,0(r2)
   2cd18:	2809883a 	mov	r4,r5
   2cd1c:	183ee83a 	callr	r3
   2cd20:	0005883a 	mov	r2,zero
   2cd24:	dfc00217 	ldw	ra,8(sp)
   2cd28:	dc400117 	ldw	r17,4(sp)
   2cd2c:	dec00304 	addi	sp,sp,12
   2cd30:	f800283a 	ret
   2cd34:	00800044 	movi	r2,1
   2cd38:	dfc00217 	ldw	ra,8(sp)
   2cd3c:	dc400117 	ldw	r17,4(sp)
   2cd40:	dec00304 	addi	sp,sp,12
   2cd44:	f800283a 	ret
   2cd48:	d9400015 	stw	r5,0(sp)
   2cd4c:	002cb2c0 	call	2cb2c <_init_signal_r.part.0>
   2cd50:	10000a1e 	bne	r2,zero,2cd7c <__sigtramp_r+0xa8>
   2cd54:	8880b717 	ldw	r2,732(r17)
   2cd58:	d9400017 	ldw	r5,0(sp)
   2cd5c:	003fe506 	br	2ccf4 <__sigtramp_r+0x20>
   2cd60:	008000c4 	movi	r2,3
   2cd64:	dfc00217 	ldw	ra,8(sp)
   2cd68:	dc400117 	ldw	r17,4(sp)
   2cd6c:	dec00304 	addi	sp,sp,12
   2cd70:	f800283a 	ret
   2cd74:	00800084 	movi	r2,2
   2cd78:	003fea06 	br	2cd24 <__sigtramp_r+0x50>
   2cd7c:	00bfffc4 	movi	r2,-1
   2cd80:	003fe806 	br	2cd24 <__sigtramp_r+0x50>
   2cd84:	00bfffc4 	movi	r2,-1
   2cd88:	f800283a 	ret

0002cd8c <raise>:
   2cd8c:	008000f4 	movhi	r2,3
   2cd90:	200b883a 	mov	r5,r4
   2cd94:	11190c17 	ldw	r4,25648(r2)
   2cd98:	002cc101 	jmpi	2cc10 <_raise_r>

0002cd9c <signal>:
   2cd9c:	00c000f4 	movhi	r3,3
   2cda0:	2005883a 	mov	r2,r4
   2cda4:	19190c17 	ldw	r4,25648(r3)
   2cda8:	280d883a 	mov	r6,r5
   2cdac:	100b883a 	mov	r5,r2
   2cdb0:	002cb8c1 	jmpi	2cb8c <_signal_r>

0002cdb4 <_init_signal>:
   2cdb4:	008000f4 	movhi	r2,3
   2cdb8:	11190c17 	ldw	r4,25648(r2)
   2cdbc:	2080b717 	ldw	r2,732(r4)
   2cdc0:	10000226 	beq	r2,zero,2cdcc <_init_signal+0x18>
   2cdc4:	0005883a 	mov	r2,zero
   2cdc8:	f800283a 	ret
   2cdcc:	002cb2c1 	jmpi	2cb2c <_init_signal_r.part.0>

0002cdd0 <__sigtramp>:
   2cdd0:	008000f4 	movhi	r2,3
   2cdd4:	200b883a 	mov	r5,r4
   2cdd8:	11190c17 	ldw	r4,25648(r2)
   2cddc:	002ccd41 	jmpi	2ccd4 <__sigtramp_r>

0002cde0 <_kill_r>:
   2cde0:	2807883a 	mov	r3,r5
   2cde4:	defffe04 	addi	sp,sp,-8
   2cde8:	dc000015 	stw	r16,0(sp)
   2cdec:	00800134 	movhi	r2,4
   2cdf0:	300b883a 	mov	r5,r6
   2cdf4:	2021883a 	mov	r16,r4
   2cdf8:	1809883a 	mov	r4,r3
   2cdfc:	dfc00115 	stw	ra,4(sp)
   2ce00:	10222d15 	stw	zero,-30540(r2)
   2ce04:	00304500 	call	30450 <kill>
   2ce08:	10ffffd8 	cmpnei	r3,r2,-1
   2ce0c:	18000426 	beq	r3,zero,2ce20 <_kill_r+0x40>
   2ce10:	dfc00117 	ldw	ra,4(sp)
   2ce14:	dc000017 	ldw	r16,0(sp)
   2ce18:	dec00204 	addi	sp,sp,8
   2ce1c:	f800283a 	ret
   2ce20:	00c00134 	movhi	r3,4
   2ce24:	18e22d17 	ldw	r3,-30540(r3)
   2ce28:	183ff926 	beq	r3,zero,2ce10 <_kill_r+0x30>
   2ce2c:	80c00015 	stw	r3,0(r16)
   2ce30:	dfc00117 	ldw	ra,4(sp)
   2ce34:	dc000017 	ldw	r16,0(sp)
   2ce38:	dec00204 	addi	sp,sp,8
   2ce3c:	f800283a 	ret

0002ce40 <_getpid_r>:
   2ce40:	00303141 	jmpi	30314 <getpid>

0002ce44 <__udivdi3>:
   2ce44:	defff504 	addi	sp,sp,-44
   2ce48:	dcc00415 	stw	r19,16(sp)
   2ce4c:	dc000115 	stw	r16,4(sp)
   2ce50:	dfc00a15 	stw	ra,40(sp)
   2ce54:	df000915 	stw	fp,36(sp)
   2ce58:	ddc00815 	stw	r23,32(sp)
   2ce5c:	dd800715 	stw	r22,28(sp)
   2ce60:	dd400615 	stw	r21,24(sp)
   2ce64:	dd000515 	stw	r20,20(sp)
   2ce68:	dc800315 	stw	r18,12(sp)
   2ce6c:	dc400215 	stw	r17,8(sp)
   2ce70:	2027883a 	mov	r19,r4
   2ce74:	2821883a 	mov	r16,r5
   2ce78:	3800411e 	bne	r7,zero,2cf80 <__udivdi3+0x13c>
   2ce7c:	3829883a 	mov	r20,r7
   2ce80:	3023883a 	mov	r17,r6
   2ce84:	2025883a 	mov	r18,r4
   2ce88:	29805d2e 	bgeu	r5,r6,2d000 <__udivdi3+0x1bc>
   2ce8c:	00bfffd4 	movui	r2,65535
   2ce90:	282b883a 	mov	r21,r5
   2ce94:	1180a02e 	bgeu	r2,r6,2d118 <__udivdi3+0x2d4>
   2ce98:	00804034 	movhi	r2,256
   2ce9c:	30813636 	bltu	r6,r2,2d378 <__udivdi3+0x534>
   2cea0:	3006d63a 	srli	r3,r6,24
   2cea4:	05000604 	movi	r20,24
   2cea8:	008000f4 	movhi	r2,3
   2ceac:	1885883a 	add	r2,r3,r2
   2ceb0:	108fb703 	ldbu	r2,16092(r2)
   2ceb4:	00c00804 	movi	r3,32
   2ceb8:	1505883a 	add	r2,r2,r20
   2cebc:	1889c83a 	sub	r4,r3,r2
   2cec0:	18800526 	beq	r3,r2,2ced8 <__udivdi3+0x94>
   2cec4:	8120983a 	sll	r16,r16,r4
   2cec8:	9884d83a 	srl	r2,r19,r2
   2cecc:	3122983a 	sll	r17,r6,r4
   2ced0:	9924983a 	sll	r18,r19,r4
   2ced4:	142ab03a 	or	r21,r2,r16
   2ced8:	882cd43a 	srli	r22,r17,16
   2cedc:	a809883a 	mov	r4,r21
   2cee0:	8d3fffcc 	andi	r20,r17,65535
   2cee4:	b00b883a 	mov	r5,r22
   2cee8:	0022a040 	call	22a04 <__umodsi3>
   2ceec:	a809883a 	mov	r4,r21
   2cef0:	b00b883a 	mov	r5,r22
   2cef4:	1027883a 	mov	r19,r2
   2cef8:	00229a00 	call	229a0 <__udivsi3>
   2cefc:	9826943a 	slli	r19,r19,16
   2cf00:	9008d43a 	srli	r4,r18,16
   2cf04:	1021883a 	mov	r16,r2
   2cf08:	a085383a 	mul	r2,r20,r2
   2cf0c:	9908b03a 	or	r4,r19,r4
   2cf10:	2080052e 	bgeu	r4,r2,2cf28 <__udivdi3+0xe4>
   2cf14:	2449883a 	add	r4,r4,r17
   2cf18:	80ffffc4 	addi	r3,r16,-1
   2cf1c:	24400136 	bltu	r4,r17,2cf24 <__udivdi3+0xe0>
   2cf20:	20812636 	bltu	r4,r2,2d3bc <__udivdi3+0x578>
   2cf24:	1821883a 	mov	r16,r3
   2cf28:	20a7c83a 	sub	r19,r4,r2
   2cf2c:	9809883a 	mov	r4,r19
   2cf30:	b00b883a 	mov	r5,r22
   2cf34:	0022a040 	call	22a04 <__umodsi3>
   2cf38:	9809883a 	mov	r4,r19
   2cf3c:	b00b883a 	mov	r5,r22
   2cf40:	1027883a 	mov	r19,r2
   2cf44:	9826943a 	slli	r19,r19,16
   2cf48:	00229a00 	call	229a0 <__udivsi3>
   2cf4c:	a0a9383a 	mul	r20,r20,r2
   2cf50:	94bfffcc 	andi	r18,r18,65535
   2cf54:	9ca4b03a 	or	r18,r19,r18
   2cf58:	9500052e 	bgeu	r18,r20,2cf70 <__udivdi3+0x12c>
   2cf5c:	8ca5883a 	add	r18,r17,r18
   2cf60:	10ffffc4 	addi	r3,r2,-1
   2cf64:	94400136 	bltu	r18,r17,2cf6c <__udivdi3+0x128>
   2cf68:	95011236 	bltu	r18,r20,2d3b4 <__udivdi3+0x570>
   2cf6c:	1805883a 	mov	r2,r3
   2cf70:	8020943a 	slli	r16,r16,16
   2cf74:	0007883a 	mov	r3,zero
   2cf78:	8084b03a 	or	r2,r16,r2
   2cf7c:	00000306 	br	2cf8c <__udivdi3+0x148>
   2cf80:	29c00e2e 	bgeu	r5,r7,2cfbc <__udivdi3+0x178>
   2cf84:	0007883a 	mov	r3,zero
   2cf88:	0005883a 	mov	r2,zero
   2cf8c:	dfc00a17 	ldw	ra,40(sp)
   2cf90:	df000917 	ldw	fp,36(sp)
   2cf94:	ddc00817 	ldw	r23,32(sp)
   2cf98:	dd800717 	ldw	r22,28(sp)
   2cf9c:	dd400617 	ldw	r21,24(sp)
   2cfa0:	dd000517 	ldw	r20,20(sp)
   2cfa4:	dcc00417 	ldw	r19,16(sp)
   2cfa8:	dc800317 	ldw	r18,12(sp)
   2cfac:	dc400217 	ldw	r17,8(sp)
   2cfb0:	dc000117 	ldw	r16,4(sp)
   2cfb4:	dec00b04 	addi	sp,sp,44
   2cfb8:	f800283a 	ret
   2cfbc:	00bfffd4 	movui	r2,65535
   2cfc0:	11c05a2e 	bgeu	r2,r7,2d12c <__udivdi3+0x2e8>
   2cfc4:	00804034 	movhi	r2,256
   2cfc8:	3880dd36 	bltu	r7,r2,2d340 <__udivdi3+0x4fc>
   2cfcc:	3806d63a 	srli	r3,r7,24
   2cfd0:	01000604 	movi	r4,24
   2cfd4:	008000f4 	movhi	r2,3
   2cfd8:	1885883a 	add	r2,r3,r2
   2cfdc:	10cfb703 	ldbu	r3,16092(r2)
   2cfe0:	00800804 	movi	r2,32
   2cfe4:	1907883a 	add	r3,r3,r4
   2cfe8:	10ebc83a 	sub	r21,r2,r3
   2cfec:	10c0861e 	bne	r2,r3,2d208 <__udivdi3+0x3c4>
   2cff0:	3c00d836 	bltu	r7,r16,2d354 <__udivdi3+0x510>
   2cff4:	9985403a 	cmpgeu	r2,r19,r6
   2cff8:	0007883a 	mov	r3,zero
   2cffc:	003fe306 	br	2cf8c <__udivdi3+0x148>
   2d000:	3000041e 	bne	r6,zero,2d014 <__udivdi3+0x1d0>
   2d004:	000b883a 	mov	r5,zero
   2d008:	01000044 	movi	r4,1
   2d00c:	00229a00 	call	229a0 <__udivsi3>
   2d010:	1023883a 	mov	r17,r2
   2d014:	00bfffd4 	movui	r2,65535
   2d018:	14403a2e 	bgeu	r2,r17,2d104 <__udivdi3+0x2c0>
   2d01c:	00804034 	movhi	r2,256
   2d020:	8880d236 	bltu	r17,r2,2d36c <__udivdi3+0x528>
   2d024:	8806d63a 	srli	r3,r17,24
   2d028:	05000604 	movi	r20,24
   2d02c:	008000f4 	movhi	r2,3
   2d030:	1885883a 	add	r2,r3,r2
   2d034:	108fb703 	ldbu	r2,16092(r2)
   2d038:	00c00804 	movi	r3,32
   2d03c:	1505883a 	add	r2,r2,r20
   2d040:	188dc83a 	sub	r6,r3,r2
   2d044:	18803e1e 	bne	r3,r2,2d140 <__udivdi3+0x2fc>
   2d048:	882ad43a 	srli	r21,r17,16
   2d04c:	8461c83a 	sub	r16,r16,r17
   2d050:	8cffffcc 	andi	r19,r17,65535
   2d054:	00c00044 	movi	r3,1
   2d058:	8009883a 	mov	r4,r16
   2d05c:	a80b883a 	mov	r5,r21
   2d060:	d8c00015 	stw	r3,0(sp)
   2d064:	0022a040 	call	22a04 <__umodsi3>
   2d068:	8009883a 	mov	r4,r16
   2d06c:	a80b883a 	mov	r5,r21
   2d070:	1021883a 	mov	r16,r2
   2d074:	00229a00 	call	229a0 <__udivsi3>
   2d078:	8020943a 	slli	r16,r16,16
   2d07c:	9008d43a 	srli	r4,r18,16
   2d080:	1029883a 	mov	r20,r2
   2d084:	14c5383a 	mul	r2,r2,r19
   2d088:	8108b03a 	or	r4,r16,r4
   2d08c:	d8c00017 	ldw	r3,0(sp)
   2d090:	2080052e 	bgeu	r4,r2,2d0a8 <__udivdi3+0x264>
   2d094:	2449883a 	add	r4,r4,r17
   2d098:	a17fffc4 	addi	r5,r20,-1
   2d09c:	24400136 	bltu	r4,r17,2d0a4 <__udivdi3+0x260>
   2d0a0:	2080c936 	bltu	r4,r2,2d3c8 <__udivdi3+0x584>
   2d0a4:	2829883a 	mov	r20,r5
   2d0a8:	20a1c83a 	sub	r16,r4,r2
   2d0ac:	8009883a 	mov	r4,r16
   2d0b0:	a80b883a 	mov	r5,r21
   2d0b4:	d8c00015 	stw	r3,0(sp)
   2d0b8:	0022a040 	call	22a04 <__umodsi3>
   2d0bc:	8009883a 	mov	r4,r16
   2d0c0:	a80b883a 	mov	r5,r21
   2d0c4:	1021883a 	mov	r16,r2
   2d0c8:	8020943a 	slli	r16,r16,16
   2d0cc:	00229a00 	call	229a0 <__udivsi3>
   2d0d0:	14e7383a 	mul	r19,r2,r19
   2d0d4:	94bfffcc 	andi	r18,r18,65535
   2d0d8:	84a4b03a 	or	r18,r16,r18
   2d0dc:	d8c00017 	ldw	r3,0(sp)
   2d0e0:	94c0052e 	bgeu	r18,r19,2d0f8 <__udivdi3+0x2b4>
   2d0e4:	8ca5883a 	add	r18,r17,r18
   2d0e8:	113fffc4 	addi	r4,r2,-1
   2d0ec:	94400136 	bltu	r18,r17,2d0f4 <__udivdi3+0x2b0>
   2d0f0:	94c0ae36 	bltu	r18,r19,2d3ac <__udivdi3+0x568>
   2d0f4:	2005883a 	mov	r2,r4
   2d0f8:	a00c943a 	slli	r6,r20,16
   2d0fc:	3084b03a 	or	r2,r6,r2
   2d100:	003fa206 	br	2cf8c <__udivdi3+0x148>
   2d104:	88804030 	cmpltui	r2,r17,256
   2d108:	10009e1e 	bne	r2,zero,2d384 <__udivdi3+0x540>
   2d10c:	8806d23a 	srli	r3,r17,8
   2d110:	05000204 	movi	r20,8
   2d114:	003fc506 	br	2d02c <__udivdi3+0x1e8>
   2d118:	30804030 	cmpltui	r2,r6,256
   2d11c:	10008b1e 	bne	r2,zero,2d34c <__udivdi3+0x508>
   2d120:	3006d23a 	srli	r3,r6,8
   2d124:	05000204 	movi	r20,8
   2d128:	003f5f06 	br	2cea8 <__udivdi3+0x64>
   2d12c:	38804030 	cmpltui	r2,r7,256
   2d130:	10008b1e 	bne	r2,zero,2d360 <__udivdi3+0x51c>
   2d134:	3806d23a 	srli	r3,r7,8
   2d138:	01000204 	movi	r4,8
   2d13c:	003fa506 	br	2cfd4 <__udivdi3+0x190>
   2d140:	89a2983a 	sll	r17,r17,r6
   2d144:	80acd83a 	srl	r22,r16,r2
   2d148:	81a0983a 	sll	r16,r16,r6
   2d14c:	882ad43a 	srli	r21,r17,16
   2d150:	9884d83a 	srl	r2,r19,r2
   2d154:	b009883a 	mov	r4,r22
   2d158:	a80b883a 	mov	r5,r21
   2d15c:	99a4983a 	sll	r18,r19,r6
   2d160:	1428b03a 	or	r20,r2,r16
   2d164:	0022a040 	call	22a04 <__umodsi3>
   2d168:	b009883a 	mov	r4,r22
   2d16c:	a80b883a 	mov	r5,r21
   2d170:	1021883a 	mov	r16,r2
   2d174:	00229a00 	call	229a0 <__udivsi3>
   2d178:	8008943a 	slli	r4,r16,16
   2d17c:	a00ad43a 	srli	r5,r20,16
   2d180:	8cffffcc 	andi	r19,r17,65535
   2d184:	98a1383a 	mul	r16,r19,r2
   2d188:	2148b03a 	or	r4,r4,r5
   2d18c:	102d883a 	mov	r22,r2
   2d190:	2400062e 	bgeu	r4,r16,2d1ac <__udivdi3+0x368>
   2d194:	2449883a 	add	r4,r4,r17
   2d198:	10bfffc4 	addi	r2,r2,-1
   2d19c:	24408136 	bltu	r4,r17,2d3a4 <__udivdi3+0x560>
   2d1a0:	2400802e 	bgeu	r4,r16,2d3a4 <__udivdi3+0x560>
   2d1a4:	b5bfff84 	addi	r22,r22,-2
   2d1a8:	2449883a 	add	r4,r4,r17
   2d1ac:	2421c83a 	sub	r16,r4,r16
   2d1b0:	8009883a 	mov	r4,r16
   2d1b4:	a80b883a 	mov	r5,r21
   2d1b8:	0022a040 	call	22a04 <__umodsi3>
   2d1bc:	8009883a 	mov	r4,r16
   2d1c0:	a80b883a 	mov	r5,r21
   2d1c4:	1021883a 	mov	r16,r2
   2d1c8:	8020943a 	slli	r16,r16,16
   2d1cc:	00229a00 	call	229a0 <__udivsi3>
   2d1d0:	9889383a 	mul	r4,r19,r2
   2d1d4:	a53fffcc 	andi	r20,r20,65535
   2d1d8:	8520b03a 	or	r16,r16,r20
   2d1dc:	8100062e 	bgeu	r16,r4,2d1f8 <__udivdi3+0x3b4>
   2d1e0:	8461883a 	add	r16,r16,r17
   2d1e4:	10ffffc4 	addi	r3,r2,-1
   2d1e8:	84406a36 	bltu	r16,r17,2d394 <__udivdi3+0x550>
   2d1ec:	8100692e 	bgeu	r16,r4,2d394 <__udivdi3+0x550>
   2d1f0:	10bfff84 	addi	r2,r2,-2
   2d1f4:	8461883a 	add	r16,r16,r17
   2d1f8:	b006943a 	slli	r3,r22,16
   2d1fc:	8121c83a 	sub	r16,r16,r4
   2d200:	1886b03a 	or	r3,r3,r2
   2d204:	003f9406 	br	2d058 <__udivdi3+0x214>
   2d208:	30ecd83a 	srl	r22,r6,r3
   2d20c:	3d4e983a 	sll	r7,r7,r21
   2d210:	80e4d83a 	srl	r18,r16,r3
   2d214:	98e2d83a 	srl	r17,r19,r3
   2d218:	b1ecb03a 	or	r22,r22,r7
   2d21c:	b038d43a 	srli	fp,r22,16
   2d220:	8546983a 	sll	r3,r16,r21
   2d224:	9009883a 	mov	r4,r18
   2d228:	e00b883a 	mov	r5,fp
   2d22c:	88e2b03a 	or	r17,r17,r3
   2d230:	3568983a 	sll	r20,r6,r21
   2d234:	0022a040 	call	22a04 <__umodsi3>
   2d238:	9009883a 	mov	r4,r18
   2d23c:	e00b883a 	mov	r5,fp
   2d240:	1025883a 	mov	r18,r2
   2d244:	00229a00 	call	229a0 <__udivsi3>
   2d248:	9008943a 	slli	r4,r18,16
   2d24c:	8806d43a 	srli	r3,r17,16
   2d250:	b5ffffcc 	andi	r23,r22,65535
   2d254:	b8a5383a 	mul	r18,r23,r2
   2d258:	20c8b03a 	or	r4,r4,r3
   2d25c:	1021883a 	mov	r16,r2
   2d260:	2480062e 	bgeu	r4,r18,2d27c <__udivdi3+0x438>
   2d264:	2589883a 	add	r4,r4,r22
   2d268:	10bfffc4 	addi	r2,r2,-1
   2d26c:	25804b36 	bltu	r4,r22,2d39c <__udivdi3+0x558>
   2d270:	24804a2e 	bgeu	r4,r18,2d39c <__udivdi3+0x558>
   2d274:	843fff84 	addi	r16,r16,-2
   2d278:	2589883a 	add	r4,r4,r22
   2d27c:	24a5c83a 	sub	r18,r4,r18
   2d280:	9009883a 	mov	r4,r18
   2d284:	e00b883a 	mov	r5,fp
   2d288:	0022a040 	call	22a04 <__umodsi3>
   2d28c:	9009883a 	mov	r4,r18
   2d290:	e00b883a 	mov	r5,fp
   2d294:	1025883a 	mov	r18,r2
   2d298:	9024943a 	slli	r18,r18,16
   2d29c:	00229a00 	call	229a0 <__udivsi3>
   2d2a0:	b8af383a 	mul	r23,r23,r2
   2d2a4:	8c7fffcc 	andi	r17,r17,65535
   2d2a8:	9462b03a 	or	r17,r18,r17
   2d2ac:	8dc0062e 	bgeu	r17,r23,2d2c8 <__udivdi3+0x484>
   2d2b0:	8da3883a 	add	r17,r17,r22
   2d2b4:	10ffffc4 	addi	r3,r2,-1
   2d2b8:	8d803436 	bltu	r17,r22,2d38c <__udivdi3+0x548>
   2d2bc:	8dc0332e 	bgeu	r17,r23,2d38c <__udivdi3+0x548>
   2d2c0:	10bfff84 	addi	r2,r2,-2
   2d2c4:	8da3883a 	add	r17,r17,r22
   2d2c8:	8020943a 	slli	r16,r16,16
   2d2cc:	10ffffcc 	andi	r3,r2,65535
   2d2d0:	a00ed43a 	srli	r7,r20,16
   2d2d4:	8084b03a 	or	r2,r16,r2
   2d2d8:	1008d43a 	srli	r4,r2,16
   2d2dc:	a1bfffcc 	andi	r6,r20,65535
   2d2e0:	1991383a 	mul	r8,r3,r6
   2d2e4:	218d383a 	mul	r6,r4,r6
   2d2e8:	19c7383a 	mul	r3,r3,r7
   2d2ec:	400ad43a 	srli	r5,r8,16
   2d2f0:	21c9383a 	mul	r4,r4,r7
   2d2f4:	1987883a 	add	r3,r3,r6
   2d2f8:	28c7883a 	add	r3,r5,r3
   2d2fc:	8de3c83a 	sub	r17,r17,r23
   2d300:	1980022e 	bgeu	r3,r6,2d30c <__udivdi3+0x4c8>
   2d304:	01400074 	movhi	r5,1
   2d308:	2149883a 	add	r4,r4,r5
   2d30c:	180ad43a 	srli	r5,r3,16
   2d310:	2909883a 	add	r4,r5,r4
   2d314:	89000836 	bltu	r17,r4,2d338 <__udivdi3+0x4f4>
   2d318:	89000226 	beq	r17,r4,2d324 <__udivdi3+0x4e0>
   2d31c:	0007883a 	mov	r3,zero
   2d320:	003f1a06 	br	2cf8c <__udivdi3+0x148>
   2d324:	1806943a 	slli	r3,r3,16
   2d328:	9d4c983a 	sll	r6,r19,r21
   2d32c:	423fffcc 	andi	r8,r8,65535
   2d330:	1a07883a 	add	r3,r3,r8
   2d334:	30fff92e 	bgeu	r6,r3,2d31c <__udivdi3+0x4d8>
   2d338:	10bfffc4 	addi	r2,r2,-1
   2d33c:	003ff706 	br	2d31c <__udivdi3+0x4d8>
   2d340:	3806d43a 	srli	r3,r7,16
   2d344:	01000404 	movi	r4,16
   2d348:	003f2206 	br	2cfd4 <__udivdi3+0x190>
   2d34c:	3007883a 	mov	r3,r6
   2d350:	003ed506 	br	2cea8 <__udivdi3+0x64>
   2d354:	0007883a 	mov	r3,zero
   2d358:	00800044 	movi	r2,1
   2d35c:	003f0b06 	br	2cf8c <__udivdi3+0x148>
   2d360:	3807883a 	mov	r3,r7
   2d364:	0009883a 	mov	r4,zero
   2d368:	003f1a06 	br	2cfd4 <__udivdi3+0x190>
   2d36c:	8806d43a 	srli	r3,r17,16
   2d370:	05000404 	movi	r20,16
   2d374:	003f2d06 	br	2d02c <__udivdi3+0x1e8>
   2d378:	3006d43a 	srli	r3,r6,16
   2d37c:	05000404 	movi	r20,16
   2d380:	003ec906 	br	2cea8 <__udivdi3+0x64>
   2d384:	8807883a 	mov	r3,r17
   2d388:	003f2806 	br	2d02c <__udivdi3+0x1e8>
   2d38c:	1805883a 	mov	r2,r3
   2d390:	003fcd06 	br	2d2c8 <__udivdi3+0x484>
   2d394:	1805883a 	mov	r2,r3
   2d398:	003f9706 	br	2d1f8 <__udivdi3+0x3b4>
   2d39c:	1021883a 	mov	r16,r2
   2d3a0:	003fb606 	br	2d27c <__udivdi3+0x438>
   2d3a4:	102d883a 	mov	r22,r2
   2d3a8:	003f8006 	br	2d1ac <__udivdi3+0x368>
   2d3ac:	10bfff84 	addi	r2,r2,-2
   2d3b0:	003f5106 	br	2d0f8 <__udivdi3+0x2b4>
   2d3b4:	10bfff84 	addi	r2,r2,-2
   2d3b8:	003eed06 	br	2cf70 <__udivdi3+0x12c>
   2d3bc:	843fff84 	addi	r16,r16,-2
   2d3c0:	2449883a 	add	r4,r4,r17
   2d3c4:	003ed806 	br	2cf28 <__udivdi3+0xe4>
   2d3c8:	a53fff84 	addi	r20,r20,-2
   2d3cc:	2449883a 	add	r4,r4,r17
   2d3d0:	003f3506 	br	2d0a8 <__udivdi3+0x264>

0002d3d4 <__umoddi3>:
   2d3d4:	defff504 	addi	sp,sp,-44
   2d3d8:	dc400215 	stw	r17,8(sp)
   2d3dc:	dc000115 	stw	r16,4(sp)
   2d3e0:	dfc00a15 	stw	ra,40(sp)
   2d3e4:	df000915 	stw	fp,36(sp)
   2d3e8:	ddc00815 	stw	r23,32(sp)
   2d3ec:	dd800715 	stw	r22,28(sp)
   2d3f0:	dd400615 	stw	r21,24(sp)
   2d3f4:	dd000515 	stw	r20,20(sp)
   2d3f8:	dcc00415 	stw	r19,16(sp)
   2d3fc:	dc800315 	stw	r18,12(sp)
   2d400:	2823883a 	mov	r17,r5
   2d404:	2021883a 	mov	r16,r4
   2d408:	3800371e 	bne	r7,zero,2d4e8 <__umoddi3+0x114>
   2d40c:	3825883a 	mov	r18,r7
   2d410:	3029883a 	mov	r20,r6
   2d414:	2027883a 	mov	r19,r4
   2d418:	2980572e 	bgeu	r5,r6,2d578 <__umoddi3+0x1a4>
   2d41c:	00bfffd4 	movui	r2,65535
   2d420:	282b883a 	mov	r21,r5
   2d424:	1180922e 	bgeu	r2,r6,2d670 <__umoddi3+0x29c>
   2d428:	00804034 	movhi	r2,256
   2d42c:	30812036 	bltu	r6,r2,2d8b0 <__umoddi3+0x4dc>
   2d430:	3006d63a 	srli	r3,r6,24
   2d434:	04800604 	movi	r18,24
   2d438:	008000f4 	movhi	r2,3
   2d43c:	1885883a 	add	r2,r3,r2
   2d440:	108fb703 	ldbu	r2,16092(r2)
   2d444:	00c00804 	movi	r3,32
   2d448:	1485883a 	add	r2,r2,r18
   2d44c:	18a5c83a 	sub	r18,r3,r2
   2d450:	18800526 	beq	r3,r2,2d468 <__umoddi3+0x94>
   2d454:	8ca2983a 	sll	r17,r17,r18
   2d458:	8084d83a 	srl	r2,r16,r2
   2d45c:	34a8983a 	sll	r20,r6,r18
   2d460:	84a6983a 	sll	r19,r16,r18
   2d464:	146ab03a 	or	r21,r2,r17
   2d468:	a02ed43a 	srli	r23,r20,16
   2d46c:	a809883a 	mov	r4,r21
   2d470:	a43fffcc 	andi	r16,r20,65535
   2d474:	b80b883a 	mov	r5,r23
   2d478:	0022a040 	call	22a04 <__umodsi3>
   2d47c:	a809883a 	mov	r4,r21
   2d480:	b80b883a 	mov	r5,r23
   2d484:	102d883a 	mov	r22,r2
   2d488:	00229a00 	call	229a0 <__udivsi3>
   2d48c:	b02c943a 	slli	r22,r22,16
   2d490:	9808d43a 	srli	r4,r19,16
   2d494:	80ab383a 	mul	r21,r16,r2
   2d498:	b108b03a 	or	r4,r22,r4
   2d49c:	2540042e 	bgeu	r4,r21,2d4b0 <__umoddi3+0xdc>
   2d4a0:	2509883a 	add	r4,r4,r20
   2d4a4:	25000236 	bltu	r4,r20,2d4b0 <__umoddi3+0xdc>
   2d4a8:	2540012e 	bgeu	r4,r21,2d4b0 <__umoddi3+0xdc>
   2d4ac:	2509883a 	add	r4,r4,r20
   2d4b0:	256bc83a 	sub	r21,r4,r21
   2d4b4:	b80b883a 	mov	r5,r23
   2d4b8:	a809883a 	mov	r4,r21
   2d4bc:	0022a040 	call	22a04 <__umodsi3>
   2d4c0:	1023883a 	mov	r17,r2
   2d4c4:	b80b883a 	mov	r5,r23
   2d4c8:	a809883a 	mov	r4,r21
   2d4cc:	00229a00 	call	229a0 <__udivsi3>
   2d4d0:	8822943a 	slli	r17,r17,16
   2d4d4:	8085383a 	mul	r2,r16,r2
   2d4d8:	98ffffcc 	andi	r3,r19,65535
   2d4dc:	88c6b03a 	or	r3,r17,r3
   2d4e0:	18805a2e 	bgeu	r3,r2,2d64c <__umoddi3+0x278>
   2d4e4:	00005506 	br	2d63c <__umoddi3+0x268>
   2d4e8:	2005883a 	mov	r2,r4
   2d4ec:	29c00d2e 	bgeu	r5,r7,2d524 <__umoddi3+0x150>
   2d4f0:	2807883a 	mov	r3,r5
   2d4f4:	dfc00a17 	ldw	ra,40(sp)
   2d4f8:	df000917 	ldw	fp,36(sp)
   2d4fc:	ddc00817 	ldw	r23,32(sp)
   2d500:	dd800717 	ldw	r22,28(sp)
   2d504:	dd400617 	ldw	r21,24(sp)
   2d508:	dd000517 	ldw	r20,20(sp)
   2d50c:	dcc00417 	ldw	r19,16(sp)
   2d510:	dc800317 	ldw	r18,12(sp)
   2d514:	dc400217 	ldw	r17,8(sp)
   2d518:	dc000117 	ldw	r16,4(sp)
   2d51c:	dec00b04 	addi	sp,sp,44
   2d520:	f800283a 	ret
   2d524:	013fffd4 	movui	r4,65535
   2d528:	2807883a 	mov	r3,r5
   2d52c:	21c0552e 	bgeu	r4,r7,2d684 <__umoddi3+0x2b0>
   2d530:	01004034 	movhi	r4,256
   2d534:	3900e336 	bltu	r7,r4,2d8c4 <__umoddi3+0x4f0>
   2d538:	3808d63a 	srli	r4,r7,24
   2d53c:	02000604 	movi	r8,24
   2d540:	014000f4 	movhi	r5,3
   2d544:	214b883a 	add	r5,r4,r5
   2d548:	2d4fb703 	ldbu	r21,16092(r5)
   2d54c:	01000804 	movi	r4,32
   2d550:	aa2b883a 	add	r21,r21,r8
   2d554:	2569c83a 	sub	r20,r4,r21
   2d558:	25404f1e 	bne	r4,r21,2d698 <__umoddi3+0x2c4>
   2d55c:	3c400136 	bltu	r7,r17,2d564 <__umoddi3+0x190>
   2d560:	81bfe436 	bltu	r16,r6,2d4f4 <__umoddi3+0x120>
   2d564:	8185c83a 	sub	r2,r16,r6
   2d568:	89cfc83a 	sub	r7,r17,r7
   2d56c:	8087803a 	cmpltu	r3,r16,r2
   2d570:	38c7c83a 	sub	r3,r7,r3
   2d574:	003fdf06 	br	2d4f4 <__umoddi3+0x120>
   2d578:	3000041e 	bne	r6,zero,2d58c <__umoddi3+0x1b8>
   2d57c:	000b883a 	mov	r5,zero
   2d580:	01000044 	movi	r4,1
   2d584:	00229a00 	call	229a0 <__udivsi3>
   2d588:	1029883a 	mov	r20,r2
   2d58c:	00bfffd4 	movui	r2,65535
   2d590:	1500322e 	bgeu	r2,r20,2d65c <__umoddi3+0x288>
   2d594:	00804034 	movhi	r2,256
   2d598:	a080cd36 	bltu	r20,r2,2d8d0 <__umoddi3+0x4fc>
   2d59c:	a006d63a 	srli	r3,r20,24
   2d5a0:	04800604 	movi	r18,24
   2d5a4:	008000f4 	movhi	r2,3
   2d5a8:	1885883a 	add	r2,r3,r2
   2d5ac:	158fb703 	ldbu	r22,16092(r2)
   2d5b0:	00800804 	movi	r2,32
   2d5b4:	b4ad883a 	add	r22,r22,r18
   2d5b8:	15a5c83a 	sub	r18,r2,r22
   2d5bc:	15808a1e 	bne	r2,r22,2d7e8 <__umoddi3+0x414>
   2d5c0:	a02ed43a 	srli	r23,r20,16
   2d5c4:	8d23c83a 	sub	r17,r17,r20
   2d5c8:	a57fffcc 	andi	r21,r20,65535
   2d5cc:	b80b883a 	mov	r5,r23
   2d5d0:	8809883a 	mov	r4,r17
   2d5d4:	0022a040 	call	22a04 <__umodsi3>
   2d5d8:	8809883a 	mov	r4,r17
   2d5dc:	b80b883a 	mov	r5,r23
   2d5e0:	102d883a 	mov	r22,r2
   2d5e4:	00229a00 	call	229a0 <__udivsi3>
   2d5e8:	b02c943a 	slli	r22,r22,16
   2d5ec:	9808d43a 	srli	r4,r19,16
   2d5f0:	1561383a 	mul	r16,r2,r21
   2d5f4:	b108b03a 	or	r4,r22,r4
   2d5f8:	2400032e 	bgeu	r4,r16,2d608 <__umoddi3+0x234>
   2d5fc:	2509883a 	add	r4,r4,r20
   2d600:	25000136 	bltu	r4,r20,2d608 <__umoddi3+0x234>
   2d604:	2400be36 	bltu	r4,r16,2d900 <__umoddi3+0x52c>
   2d608:	2421c83a 	sub	r16,r4,r16
   2d60c:	b80b883a 	mov	r5,r23
   2d610:	8009883a 	mov	r4,r16
   2d614:	0022a040 	call	22a04 <__umodsi3>
   2d618:	1023883a 	mov	r17,r2
   2d61c:	b80b883a 	mov	r5,r23
   2d620:	8009883a 	mov	r4,r16
   2d624:	00229a00 	call	229a0 <__udivsi3>
   2d628:	8822943a 	slli	r17,r17,16
   2d62c:	1545383a 	mul	r2,r2,r21
   2d630:	9cffffcc 	andi	r19,r19,65535
   2d634:	8cc6b03a 	or	r3,r17,r19
   2d638:	1880042e 	bgeu	r3,r2,2d64c <__umoddi3+0x278>
   2d63c:	1d07883a 	add	r3,r3,r20
   2d640:	1d000236 	bltu	r3,r20,2d64c <__umoddi3+0x278>
   2d644:	1880012e 	bgeu	r3,r2,2d64c <__umoddi3+0x278>
   2d648:	1d07883a 	add	r3,r3,r20
   2d64c:	1885c83a 	sub	r2,r3,r2
   2d650:	1484d83a 	srl	r2,r2,r18
   2d654:	0007883a 	mov	r3,zero
   2d658:	003fa606 	br	2d4f4 <__umoddi3+0x120>
   2d65c:	a0804030 	cmpltui	r2,r20,256
   2d660:	10009e1e 	bne	r2,zero,2d8dc <__umoddi3+0x508>
   2d664:	a006d23a 	srli	r3,r20,8
   2d668:	04800204 	movi	r18,8
   2d66c:	003fcd06 	br	2d5a4 <__umoddi3+0x1d0>
   2d670:	30804030 	cmpltui	r2,r6,256
   2d674:	1000911e 	bne	r2,zero,2d8bc <__umoddi3+0x4e8>
   2d678:	3006d23a 	srli	r3,r6,8
   2d67c:	04800204 	movi	r18,8
   2d680:	003f6d06 	br	2d438 <__umoddi3+0x64>
   2d684:	39004030 	cmpltui	r4,r7,256
   2d688:	2000961e 	bne	r4,zero,2d8e4 <__umoddi3+0x510>
   2d68c:	3808d23a 	srli	r4,r7,8
   2d690:	02000204 	movi	r8,8
   2d694:	003faa06 	br	2d540 <__umoddi3+0x16c>
   2d698:	3d0e983a 	sll	r7,r7,r20
   2d69c:	3544d83a 	srl	r2,r6,r21
   2d6a0:	8d64d83a 	srl	r18,r17,r21
   2d6a4:	8d22983a 	sll	r17,r17,r20
   2d6a8:	11eeb03a 	or	r23,r2,r7
   2d6ac:	b838d43a 	srli	fp,r23,16
   2d6b0:	8544d83a 	srl	r2,r16,r21
   2d6b4:	9009883a 	mov	r4,r18
   2d6b8:	e00b883a 	mov	r5,fp
   2d6bc:	3526983a 	sll	r19,r6,r20
   2d6c0:	1462b03a 	or	r17,r2,r17
   2d6c4:	0022a040 	call	22a04 <__umodsi3>
   2d6c8:	9009883a 	mov	r4,r18
   2d6cc:	e00b883a 	mov	r5,fp
   2d6d0:	1025883a 	mov	r18,r2
   2d6d4:	00229a00 	call	229a0 <__udivsi3>
   2d6d8:	9008943a 	slli	r4,r18,16
   2d6dc:	8806d43a 	srli	r3,r17,16
   2d6e0:	b9ffffcc 	andi	r7,r23,65535
   2d6e4:	38a5383a 	mul	r18,r7,r2
   2d6e8:	20c8b03a 	or	r4,r4,r3
   2d6ec:	8520983a 	sll	r16,r16,r20
   2d6f0:	102d883a 	mov	r22,r2
   2d6f4:	2480062e 	bgeu	r4,r18,2d710 <__umoddi3+0x33c>
   2d6f8:	25c9883a 	add	r4,r4,r23
   2d6fc:	10bfffc4 	addi	r2,r2,-1
   2d700:	25c07d36 	bltu	r4,r23,2d8f8 <__umoddi3+0x524>
   2d704:	24807c2e 	bgeu	r4,r18,2d8f8 <__umoddi3+0x524>
   2d708:	b5bfff84 	addi	r22,r22,-2
   2d70c:	25c9883a 	add	r4,r4,r23
   2d710:	24a5c83a 	sub	r18,r4,r18
   2d714:	9009883a 	mov	r4,r18
   2d718:	e00b883a 	mov	r5,fp
   2d71c:	d9c00015 	stw	r7,0(sp)
   2d720:	0022a040 	call	22a04 <__umodsi3>
   2d724:	9009883a 	mov	r4,r18
   2d728:	e00b883a 	mov	r5,fp
   2d72c:	1025883a 	mov	r18,r2
   2d730:	00229a00 	call	229a0 <__udivsi3>
   2d734:	d9c00017 	ldw	r7,0(sp)
   2d738:	9024943a 	slli	r18,r18,16
   2d73c:	8c7fffcc 	andi	r17,r17,65535
   2d740:	388f383a 	mul	r7,r7,r2
   2d744:	9448b03a 	or	r4,r18,r17
   2d748:	21c0062e 	bgeu	r4,r7,2d764 <__umoddi3+0x390>
   2d74c:	25c9883a 	add	r4,r4,r23
   2d750:	10ffffc4 	addi	r3,r2,-1
   2d754:	25c06636 	bltu	r4,r23,2d8f0 <__umoddi3+0x51c>
   2d758:	21c0652e 	bgeu	r4,r7,2d8f0 <__umoddi3+0x51c>
   2d75c:	10bfff84 	addi	r2,r2,-2
   2d760:	25c9883a 	add	r4,r4,r23
   2d764:	b00a943a 	slli	r5,r22,16
   2d768:	11bfffcc 	andi	r6,r2,65535
   2d76c:	9806d43a 	srli	r3,r19,16
   2d770:	2884b03a 	or	r2,r5,r2
   2d774:	102cd43a 	srli	r22,r2,16
   2d778:	997fffcc 	andi	r5,r19,65535
   2d77c:	3151383a 	mul	r8,r6,r5
   2d780:	b14b383a 	mul	r5,r22,r5
   2d784:	30cd383a 	mul	r6,r6,r3
   2d788:	4004d43a 	srli	r2,r8,16
   2d78c:	b0ed383a 	mul	r22,r22,r3
   2d790:	314d883a 	add	r6,r6,r5
   2d794:	1185883a 	add	r2,r2,r6
   2d798:	21c9c83a 	sub	r4,r4,r7
   2d79c:	1140022e 	bgeu	r2,r5,2d7a8 <__umoddi3+0x3d4>
   2d7a0:	00c00074 	movhi	r3,1
   2d7a4:	b0ed883a 	add	r22,r22,r3
   2d7a8:	1006d43a 	srli	r3,r2,16
   2d7ac:	1004943a 	slli	r2,r2,16
   2d7b0:	423fffcc 	andi	r8,r8,65535
   2d7b4:	1dad883a 	add	r22,r3,r22
   2d7b8:	1205883a 	add	r2,r2,r8
   2d7bc:	25803636 	bltu	r4,r22,2d898 <__umoddi3+0x4c4>
   2d7c0:	25803426 	beq	r4,r22,2d894 <__umoddi3+0x4c0>
   2d7c4:	8085c83a 	sub	r2,r16,r2
   2d7c8:	8087803a 	cmpltu	r3,r16,r2
   2d7cc:	2589c83a 	sub	r4,r4,r22
   2d7d0:	20c7c83a 	sub	r3,r4,r3
   2d7d4:	1d60983a 	sll	r16,r3,r21
   2d7d8:	1504d83a 	srl	r2,r2,r20
   2d7dc:	1d06d83a 	srl	r3,r3,r20
   2d7e0:	8084b03a 	or	r2,r16,r2
   2d7e4:	003f4306 	br	2d4f4 <__umoddi3+0x120>
   2d7e8:	a4a8983a 	sll	r20,r20,r18
   2d7ec:	8daad83a 	srl	r21,r17,r22
   2d7f0:	8ca2983a 	sll	r17,r17,r18
   2d7f4:	a02ed43a 	srli	r23,r20,16
   2d7f8:	a809883a 	mov	r4,r21
   2d7fc:	85acd83a 	srl	r22,r16,r22
   2d800:	b80b883a 	mov	r5,r23
   2d804:	0022a040 	call	22a04 <__umodsi3>
   2d808:	a809883a 	mov	r4,r21
   2d80c:	b80b883a 	mov	r5,r23
   2d810:	b46cb03a 	or	r22,r22,r17
   2d814:	1027883a 	mov	r19,r2
   2d818:	00229a00 	call	229a0 <__udivsi3>
   2d81c:	9826943a 	slli	r19,r19,16
   2d820:	b008d43a 	srli	r4,r22,16
   2d824:	a57fffcc 	andi	r21,r20,65535
   2d828:	a8a3383a 	mul	r17,r21,r2
   2d82c:	9908b03a 	or	r4,r19,r4
   2d830:	84a6983a 	sll	r19,r16,r18
   2d834:	2440042e 	bgeu	r4,r17,2d848 <__umoddi3+0x474>
   2d838:	2509883a 	add	r4,r4,r20
   2d83c:	25000236 	bltu	r4,r20,2d848 <__umoddi3+0x474>
   2d840:	2440012e 	bgeu	r4,r17,2d848 <__umoddi3+0x474>
   2d844:	2509883a 	add	r4,r4,r20
   2d848:	2463c83a 	sub	r17,r4,r17
   2d84c:	8809883a 	mov	r4,r17
   2d850:	b80b883a 	mov	r5,r23
   2d854:	0022a040 	call	22a04 <__umodsi3>
   2d858:	1021883a 	mov	r16,r2
   2d85c:	8809883a 	mov	r4,r17
   2d860:	b80b883a 	mov	r5,r23
   2d864:	8020943a 	slli	r16,r16,16
   2d868:	00229a00 	call	229a0 <__udivsi3>
   2d86c:	a885383a 	mul	r2,r21,r2
   2d870:	b47fffcc 	andi	r17,r22,65535
   2d874:	8462b03a 	or	r17,r16,r17
   2d878:	8880042e 	bgeu	r17,r2,2d88c <__umoddi3+0x4b8>
   2d87c:	8d23883a 	add	r17,r17,r20
   2d880:	8d000236 	bltu	r17,r20,2d88c <__umoddi3+0x4b8>
   2d884:	8880012e 	bgeu	r17,r2,2d88c <__umoddi3+0x4b8>
   2d888:	8d23883a 	add	r17,r17,r20
   2d88c:	88a3c83a 	sub	r17,r17,r2
   2d890:	003f4e06 	br	2d5cc <__umoddi3+0x1f8>
   2d894:	80bfcb2e 	bgeu	r16,r2,2d7c4 <__umoddi3+0x3f0>
   2d898:	14e7c83a 	sub	r19,r2,r19
   2d89c:	14c5803a 	cmpltu	r2,r2,r19
   2d8a0:	15c5883a 	add	r2,r2,r23
   2d8a4:	b0adc83a 	sub	r22,r22,r2
   2d8a8:	9805883a 	mov	r2,r19
   2d8ac:	003fc506 	br	2d7c4 <__umoddi3+0x3f0>
   2d8b0:	3006d43a 	srli	r3,r6,16
   2d8b4:	04800404 	movi	r18,16
   2d8b8:	003edf06 	br	2d438 <__umoddi3+0x64>
   2d8bc:	3007883a 	mov	r3,r6
   2d8c0:	003edd06 	br	2d438 <__umoddi3+0x64>
   2d8c4:	3808d43a 	srli	r4,r7,16
   2d8c8:	02000404 	movi	r8,16
   2d8cc:	003f1c06 	br	2d540 <__umoddi3+0x16c>
   2d8d0:	a006d43a 	srli	r3,r20,16
   2d8d4:	04800404 	movi	r18,16
   2d8d8:	003f3206 	br	2d5a4 <__umoddi3+0x1d0>
   2d8dc:	a007883a 	mov	r3,r20
   2d8e0:	003f3006 	br	2d5a4 <__umoddi3+0x1d0>
   2d8e4:	3809883a 	mov	r4,r7
   2d8e8:	0011883a 	mov	r8,zero
   2d8ec:	003f1406 	br	2d540 <__umoddi3+0x16c>
   2d8f0:	1805883a 	mov	r2,r3
   2d8f4:	003f9b06 	br	2d764 <__umoddi3+0x390>
   2d8f8:	102d883a 	mov	r22,r2
   2d8fc:	003f8406 	br	2d710 <__umoddi3+0x33c>
   2d900:	2509883a 	add	r4,r4,r20
   2d904:	003f4006 	br	2d608 <__umoddi3+0x234>

0002d908 <__adddf3>:
   2d908:	02000434 	movhi	r8,16
   2d90c:	423fffc4 	addi	r8,r8,-1
   2d910:	3a12703a 	and	r9,r7,r8
   2d914:	2a06703a 	and	r3,r5,r8
   2d918:	2818d53a 	srli	r12,r5,20
   2d91c:	3804d53a 	srli	r2,r7,20
   2d920:	481490fa 	slli	r10,r9,3
   2d924:	280ad7fa 	srli	r5,r5,31
   2d928:	180690fa 	slli	r3,r3,3
   2d92c:	2016d77a 	srli	r11,r4,29
   2d930:	3012d77a 	srli	r9,r6,29
   2d934:	380ed7fa 	srli	r7,r7,31
   2d938:	defffb04 	addi	sp,sp,-20
   2d93c:	dc400115 	stw	r17,4(sp)
   2d940:	dc000015 	stw	r16,0(sp)
   2d944:	dfc00415 	stw	ra,16(sp)
   2d948:	dcc00315 	stw	r19,12(sp)
   2d94c:	dc800215 	stw	r18,8(sp)
   2d950:	201c90fa 	slli	r14,r4,3
   2d954:	301a90fa 	slli	r13,r6,3
   2d958:	6441ffcc 	andi	r17,r12,2047
   2d95c:	2821883a 	mov	r16,r5
   2d960:	58c6b03a 	or	r3,r11,r3
   2d964:	1081ffcc 	andi	r2,r2,2047
   2d968:	4a92b03a 	or	r9,r9,r10
   2d96c:	29c06326 	beq	r5,r7,2dafc <__adddf3+0x1f4>
   2d970:	888bc83a 	sub	r5,r17,r2
   2d974:	0140560e 	bge	zero,r5,2dad0 <__adddf3+0x1c8>
   2d978:	10007526 	beq	r2,zero,2db50 <__adddf3+0x248>
   2d97c:	8881ffd8 	cmpnei	r2,r17,2047
   2d980:	10012d26 	beq	r2,zero,2de38 <__adddf3+0x530>
   2d984:	4a402034 	orhi	r9,r9,128
   2d988:	28800e48 	cmpgei	r2,r5,57
   2d98c:	1000f41e 	bne	r2,zero,2dd60 <__adddf3+0x458>
   2d990:	28800808 	cmpgei	r2,r5,32
   2d994:	1001471e 	bne	r2,zero,2deb4 <__adddf3+0x5ac>
   2d998:	00800804 	movi	r2,32
   2d99c:	1145c83a 	sub	r2,r2,r5
   2d9a0:	6948d83a 	srl	r4,r13,r5
   2d9a4:	48a4983a 	sll	r18,r9,r2
   2d9a8:	6884983a 	sll	r2,r13,r2
   2d9ac:	494ad83a 	srl	r5,r9,r5
   2d9b0:	9124b03a 	or	r18,r18,r4
   2d9b4:	101ac03a 	cmpne	r13,r2,zero
   2d9b8:	9364b03a 	or	r18,r18,r13
   2d9bc:	1947c83a 	sub	r3,r3,r5
   2d9c0:	74a5c83a 	sub	r18,r14,r18
   2d9c4:	7489803a 	cmpltu	r4,r14,r18
   2d9c8:	1909c83a 	sub	r4,r3,r4
   2d9cc:	2080202c 	andhi	r2,r4,128
   2d9d0:	10008626 	beq	r2,zero,2dbec <__adddf3+0x2e4>
   2d9d4:	00802034 	movhi	r2,128
   2d9d8:	10bfffc4 	addi	r2,r2,-1
   2d9dc:	20a6703a 	and	r19,r4,r2
   2d9e0:	9800d626 	beq	r19,zero,2dd3c <__adddf3+0x434>
   2d9e4:	9809883a 	mov	r4,r19
   2d9e8:	002ff040 	call	2ff04 <__clzsi2>
   2d9ec:	133ffe04 	addi	r12,r2,-8
   2d9f0:	01000804 	movi	r4,32
   2d9f4:	2309c83a 	sub	r4,r4,r12
   2d9f8:	9108d83a 	srl	r4,r18,r4
   2d9fc:	9b04983a 	sll	r2,r19,r12
   2da00:	9324983a 	sll	r18,r18,r12
   2da04:	2088b03a 	or	r4,r4,r2
   2da08:	6440c716 	blt	r12,r17,2dd28 <__adddf3+0x420>
   2da0c:	6459c83a 	sub	r12,r12,r17
   2da10:	62000044 	addi	r8,r12,1
   2da14:	40800808 	cmpgei	r2,r8,32
   2da18:	1001191e 	bne	r2,zero,2de80 <__adddf3+0x578>
   2da1c:	00800804 	movi	r2,32
   2da20:	1205c83a 	sub	r2,r2,r8
   2da24:	9206d83a 	srl	r3,r18,r8
   2da28:	90a4983a 	sll	r18,r18,r2
   2da2c:	2084983a 	sll	r2,r4,r2
   2da30:	2208d83a 	srl	r4,r4,r8
   2da34:	9024c03a 	cmpne	r18,r18,zero
   2da38:	10c4b03a 	or	r2,r2,r3
   2da3c:	14a4b03a 	or	r18,r2,r18
   2da40:	0023883a 	mov	r17,zero
   2da44:	908001cc 	andi	r2,r18,7
   2da48:	10000726 	beq	r2,zero,2da68 <__adddf3+0x160>
   2da4c:	908003cc 	andi	r2,r18,15
   2da50:	10800120 	cmpeqi	r2,r2,4
   2da54:	1000041e 	bne	r2,zero,2da68 <__adddf3+0x160>
   2da58:	90c00104 	addi	r3,r18,4
   2da5c:	1ca5803a 	cmpltu	r18,r3,r18
   2da60:	2489883a 	add	r4,r4,r18
   2da64:	1825883a 	mov	r18,r3
   2da68:	2080202c 	andhi	r2,r4,128
   2da6c:	10006126 	beq	r2,zero,2dbf4 <__adddf3+0x2ec>
   2da70:	89400044 	addi	r5,r17,1
   2da74:	2881ffe0 	cmpeqi	r2,r5,2047
   2da78:	2941ffcc 	andi	r5,r5,2047
   2da7c:	1000731e 	bne	r2,zero,2dc4c <__adddf3+0x344>
   2da80:	023fe034 	movhi	r8,65408
   2da84:	423fffc4 	addi	r8,r8,-1
   2da88:	2210703a 	and	r8,r4,r8
   2da8c:	4006927a 	slli	r3,r8,9
   2da90:	9024d0fa 	srli	r18,r18,3
   2da94:	4004977a 	slli	r2,r8,29
   2da98:	1806d33a 	srli	r3,r3,12
   2da9c:	1484b03a 	or	r2,r2,r18
   2daa0:	280a953a 	slli	r5,r5,20
   2daa4:	84003fcc 	andi	r16,r16,255
   2daa8:	802097fa 	slli	r16,r16,31
   2daac:	28c6b03a 	or	r3,r5,r3
   2dab0:	1c06b03a 	or	r3,r3,r16
   2dab4:	dfc00417 	ldw	ra,16(sp)
   2dab8:	dcc00317 	ldw	r19,12(sp)
   2dabc:	dc800217 	ldw	r18,8(sp)
   2dac0:	dc400117 	ldw	r17,4(sp)
   2dac4:	dc000017 	ldw	r16,0(sp)
   2dac8:	dec00504 	addi	sp,sp,20
   2dacc:	f800283a 	ret
   2dad0:	28002726 	beq	r5,zero,2db70 <__adddf3+0x268>
   2dad4:	144bc83a 	sub	r5,r2,r17
   2dad8:	8800be1e 	bne	r17,zero,2ddd4 <__adddf3+0x4cc>
   2dadc:	1b88b03a 	or	r4,r3,r14
   2dae0:	20013126 	beq	r4,zero,2dfa8 <__adddf3+0x6a0>
   2dae4:	293fffc4 	addi	r4,r5,-1
   2dae8:	20017226 	beq	r4,zero,2e0b4 <__adddf3+0x7ac>
   2daec:	2941ffd8 	cmpnei	r5,r5,2047
   2daf0:	2801c226 	beq	r5,zero,2e1fc <__adddf3+0x8f4>
   2daf4:	200b883a 	mov	r5,r4
   2daf8:	0000b906 	br	2dde0 <__adddf3+0x4d8>
   2dafc:	888bc83a 	sub	r5,r17,r2
   2db00:	0140700e 	bge	zero,r5,2dcc4 <__adddf3+0x3bc>
   2db04:	10002a26 	beq	r2,zero,2dbb0 <__adddf3+0x2a8>
   2db08:	8881ffd8 	cmpnei	r2,r17,2047
   2db0c:	1000ca26 	beq	r2,zero,2de38 <__adddf3+0x530>
   2db10:	4a402034 	orhi	r9,r9,128
   2db14:	28800e48 	cmpgei	r2,r5,57
   2db18:	1000421e 	bne	r2,zero,2dc24 <__adddf3+0x31c>
   2db1c:	28800808 	cmpgei	r2,r5,32
   2db20:	1000ff26 	beq	r2,zero,2df20 <__adddf3+0x618>
   2db24:	2cbff804 	addi	r18,r5,-32
   2db28:	29000820 	cmpeqi	r4,r5,32
   2db2c:	4c84d83a 	srl	r2,r9,r18
   2db30:	2000041e 	bne	r4,zero,2db44 <__adddf3+0x23c>
   2db34:	01001004 	movi	r4,64
   2db38:	214bc83a 	sub	r5,r4,r5
   2db3c:	4952983a 	sll	r9,r9,r5
   2db40:	6a5ab03a 	or	r13,r13,r9
   2db44:	6824c03a 	cmpne	r18,r13,zero
   2db48:	90a4b03a 	or	r18,r18,r2
   2db4c:	00003706 	br	2dc2c <__adddf3+0x324>
   2db50:	4b44b03a 	or	r2,r9,r13
   2db54:	1000b126 	beq	r2,zero,2de1c <__adddf3+0x514>
   2db58:	28bfffc4 	addi	r2,r5,-1
   2db5c:	10011a26 	beq	r2,zero,2dfc8 <__adddf3+0x6c0>
   2db60:	2941ffd8 	cmpnei	r5,r5,2047
   2db64:	28012526 	beq	r5,zero,2dffc <__adddf3+0x6f4>
   2db68:	100b883a 	mov	r5,r2
   2db6c:	003f8606 	br	2d988 <__adddf3+0x80>
   2db70:	8a800044 	addi	r10,r17,1
   2db74:	5281ff8c 	andi	r10,r10,2046
   2db78:	50008b1e 	bne	r10,zero,2dda8 <__adddf3+0x4a0>
   2db7c:	1b96b03a 	or	r11,r3,r14
   2db80:	4b44b03a 	or	r2,r9,r13
   2db84:	8801031e 	bne	r17,zero,2df94 <__adddf3+0x68c>
   2db88:	58014126 	beq	r11,zero,2e090 <__adddf3+0x788>
   2db8c:	1001571e 	bne	r2,zero,2e0ec <__adddf3+0x7e4>
   2db90:	1804977a 	slli	r2,r3,29
   2db94:	01480034 	movhi	r5,8192
   2db98:	297fffc4 	addi	r5,r5,-1
   2db9c:	2148703a 	and	r4,r4,r5
   2dba0:	1810d0fa 	srli	r8,r3,3
   2dba4:	1104b03a 	or	r2,r2,r4
   2dba8:	500b883a 	mov	r5,r10
   2dbac:	00001806 	br	2dc10 <__adddf3+0x308>
   2dbb0:	4b44b03a 	or	r2,r9,r13
   2dbb4:	10010a26 	beq	r2,zero,2dfe0 <__adddf3+0x6d8>
   2dbb8:	28bfffc4 	addi	r2,r5,-1
   2dbbc:	10000426 	beq	r2,zero,2dbd0 <__adddf3+0x2c8>
   2dbc0:	2941ffd8 	cmpnei	r5,r5,2047
   2dbc4:	28014226 	beq	r5,zero,2e0d0 <__adddf3+0x7c8>
   2dbc8:	100b883a 	mov	r5,r2
   2dbcc:	003fd106 	br	2db14 <__adddf3+0x20c>
   2dbd0:	7365883a 	add	r18,r14,r13
   2dbd4:	1a47883a 	add	r3,r3,r9
   2dbd8:	9389803a 	cmpltu	r4,r18,r14
   2dbdc:	1909883a 	add	r4,r3,r4
   2dbe0:	2080202c 	andhi	r2,r4,128
   2dbe4:	10009b1e 	bne	r2,zero,2de54 <__adddf3+0x54c>
   2dbe8:	04400044 	movi	r17,1
   2dbec:	908001cc 	andi	r2,r18,7
   2dbf0:	103f961e 	bne	r2,zero,2da4c <__adddf3+0x144>
   2dbf4:	9024d0fa 	srli	r18,r18,3
   2dbf8:	2004977a 	slli	r2,r4,29
   2dbfc:	2010d0fa 	srli	r8,r4,3
   2dc00:	880b883a 	mov	r5,r17
   2dc04:	9084b03a 	or	r2,r18,r2
   2dc08:	28c1ffe0 	cmpeqi	r3,r5,2047
   2dc0c:	1800251e 	bne	r3,zero,2dca4 <__adddf3+0x39c>
   2dc10:	00c00434 	movhi	r3,16
   2dc14:	18ffffc4 	addi	r3,r3,-1
   2dc18:	40c6703a 	and	r3,r8,r3
   2dc1c:	2941ffcc 	andi	r5,r5,2047
   2dc20:	003f9f06 	br	2daa0 <__adddf3+0x198>
   2dc24:	4b64b03a 	or	r18,r9,r13
   2dc28:	9024c03a 	cmpne	r18,r18,zero
   2dc2c:	93a5883a 	add	r18,r18,r14
   2dc30:	9389803a 	cmpltu	r4,r18,r14
   2dc34:	20c9883a 	add	r4,r4,r3
   2dc38:	2080202c 	andhi	r2,r4,128
   2dc3c:	103feb26 	beq	r2,zero,2dbec <__adddf3+0x2e4>
   2dc40:	8c400044 	addi	r17,r17,1
   2dc44:	8881ffe0 	cmpeqi	r2,r17,2047
   2dc48:	10008326 	beq	r2,zero,2de58 <__adddf3+0x550>
   2dc4c:	0141ffc4 	movi	r5,2047
   2dc50:	0007883a 	mov	r3,zero
   2dc54:	0005883a 	mov	r2,zero
   2dc58:	003f9106 	br	2daa0 <__adddf3+0x198>
   2dc5c:	4b44b03a 	or	r2,r9,r13
   2dc60:	180a977a 	slli	r5,r3,29
   2dc64:	1810d0fa 	srli	r8,r3,3
   2dc68:	10016c26 	beq	r2,zero,2e21c <__adddf3+0x914>
   2dc6c:	00c80034 	movhi	r3,8192
   2dc70:	18ffffc4 	addi	r3,r3,-1
   2dc74:	20c4703a 	and	r2,r4,r3
   2dc78:	4100022c 	andhi	r4,r8,8
   2dc7c:	1144b03a 	or	r2,r2,r5
   2dc80:	20000826 	beq	r4,zero,2dca4 <__adddf3+0x39c>
   2dc84:	4808d0fa 	srli	r4,r9,3
   2dc88:	2140022c 	andhi	r5,r4,8
   2dc8c:	2800051e 	bne	r5,zero,2dca4 <__adddf3+0x39c>
   2dc90:	4804977a 	slli	r2,r9,29
   2dc94:	30cc703a 	and	r6,r6,r3
   2dc98:	3821883a 	mov	r16,r7
   2dc9c:	3084b03a 	or	r2,r6,r2
   2dca0:	2011883a 	mov	r8,r4
   2dca4:	4086b03a 	or	r3,r8,r2
   2dca8:	18017126 	beq	r3,zero,2e270 <__adddf3+0x968>
   2dcac:	01000434 	movhi	r4,16
   2dcb0:	40c00234 	orhi	r3,r8,8
   2dcb4:	213fffc4 	addi	r4,r4,-1
   2dcb8:	1906703a 	and	r3,r3,r4
   2dcbc:	0141ffc4 	movi	r5,2047
   2dcc0:	003f7706 	br	2daa0 <__adddf3+0x198>
   2dcc4:	28002926 	beq	r5,zero,2dd6c <__adddf3+0x464>
   2dcc8:	144bc83a 	sub	r5,r2,r17
   2dccc:	88008c26 	beq	r17,zero,2df00 <__adddf3+0x5f8>
   2dcd0:	1101ffd8 	cmpnei	r4,r2,2047
   2dcd4:	20011126 	beq	r4,zero,2e11c <__adddf3+0x814>
   2dcd8:	18c02034 	orhi	r3,r3,128
   2dcdc:	29000e48 	cmpgei	r4,r5,57
   2dce0:	2000d51e 	bne	r4,zero,2e038 <__adddf3+0x730>
   2dce4:	29000808 	cmpgei	r4,r5,32
   2dce8:	2001511e 	bne	r4,zero,2e230 <__adddf3+0x928>
   2dcec:	01000804 	movi	r4,32
   2dcf0:	2149c83a 	sub	r4,r4,r5
   2dcf4:	1924983a 	sll	r18,r3,r4
   2dcf8:	714cd83a 	srl	r6,r14,r5
   2dcfc:	7108983a 	sll	r4,r14,r4
   2dd00:	194ad83a 	srl	r5,r3,r5
   2dd04:	91a4b03a 	or	r18,r18,r6
   2dd08:	2006c03a 	cmpne	r3,r4,zero
   2dd0c:	90e4b03a 	or	r18,r18,r3
   2dd10:	4953883a 	add	r9,r9,r5
   2dd14:	9365883a 	add	r18,r18,r13
   2dd18:	9349803a 	cmpltu	r4,r18,r13
   2dd1c:	2249883a 	add	r4,r4,r9
   2dd20:	1023883a 	mov	r17,r2
   2dd24:	003fc406 	br	2dc38 <__adddf3+0x330>
   2dd28:	023fe034 	movhi	r8,65408
   2dd2c:	423fffc4 	addi	r8,r8,-1
   2dd30:	8b23c83a 	sub	r17,r17,r12
   2dd34:	2208703a 	and	r4,r4,r8
   2dd38:	003f4206 	br	2da44 <__adddf3+0x13c>
   2dd3c:	9009883a 	mov	r4,r18
   2dd40:	002ff040 	call	2ff04 <__clzsi2>
   2dd44:	13000604 	addi	r12,r2,24
   2dd48:	60c00808 	cmpgei	r3,r12,32
   2dd4c:	183f2826 	beq	r3,zero,2d9f0 <__adddf3+0xe8>
   2dd50:	113ffe04 	addi	r4,r2,-8
   2dd54:	9108983a 	sll	r4,r18,r4
   2dd58:	0025883a 	mov	r18,zero
   2dd5c:	003f2a06 	br	2da08 <__adddf3+0x100>
   2dd60:	4b64b03a 	or	r18,r9,r13
   2dd64:	9024c03a 	cmpne	r18,r18,zero
   2dd68:	003f1506 	br	2d9c0 <__adddf3+0xb8>
   2dd6c:	8a000044 	addi	r8,r17,1
   2dd70:	4081ff8c 	andi	r2,r8,2046
   2dd74:	1000751e 	bne	r2,zero,2df4c <__adddf3+0x644>
   2dd78:	1b84b03a 	or	r2,r3,r14
   2dd7c:	8800bc1e 	bne	r17,zero,2e070 <__adddf3+0x768>
   2dd80:	10010c26 	beq	r2,zero,2e1b4 <__adddf3+0x8ac>
   2dd84:	4b44b03a 	or	r2,r9,r13
   2dd88:	1001111e 	bne	r2,zero,2e1d0 <__adddf3+0x8c8>
   2dd8c:	180c977a 	slli	r6,r3,29
   2dd90:	00880034 	movhi	r2,8192
   2dd94:	10bfffc4 	addi	r2,r2,-1
   2dd98:	2084703a 	and	r2,r4,r2
   2dd9c:	1810d0fa 	srli	r8,r3,3
   2dda0:	1184b03a 	or	r2,r2,r6
   2dda4:	003f9a06 	br	2dc10 <__adddf3+0x308>
   2dda8:	7365c83a 	sub	r18,r14,r13
   2ddac:	1a67c83a 	sub	r19,r3,r9
   2ddb0:	7489803a 	cmpltu	r4,r14,r18
   2ddb4:	9927c83a 	sub	r19,r19,r4
   2ddb8:	9880202c 	andhi	r2,r19,128
   2ddbc:	10006f1e 	bne	r2,zero,2df7c <__adddf3+0x674>
   2ddc0:	94c4b03a 	or	r2,r18,r19
   2ddc4:	103f061e 	bne	r2,zero,2d9e0 <__adddf3+0xd8>
   2ddc8:	0011883a 	mov	r8,zero
   2ddcc:	0021883a 	mov	r16,zero
   2ddd0:	003f8f06 	br	2dc10 <__adddf3+0x308>
   2ddd4:	1101ffd8 	cmpnei	r4,r2,2047
   2ddd8:	20008f26 	beq	r4,zero,2e018 <__adddf3+0x710>
   2dddc:	18c02034 	orhi	r3,r3,128
   2dde0:	29000e48 	cmpgei	r4,r5,57
   2dde4:	20003e1e 	bne	r4,zero,2dee0 <__adddf3+0x5d8>
   2dde8:	29000808 	cmpgei	r4,r5,32
   2ddec:	2000951e 	bne	r4,zero,2e044 <__adddf3+0x73c>
   2ddf0:	01000804 	movi	r4,32
   2ddf4:	2149c83a 	sub	r4,r4,r5
   2ddf8:	1924983a 	sll	r18,r3,r4
   2ddfc:	714cd83a 	srl	r6,r14,r5
   2de00:	711c983a 	sll	r14,r14,r4
   2de04:	1946d83a 	srl	r3,r3,r5
   2de08:	91a4b03a 	or	r18,r18,r6
   2de0c:	701cc03a 	cmpne	r14,r14,zero
   2de10:	93a4b03a 	or	r18,r18,r14
   2de14:	48d3c83a 	sub	r9,r9,r3
   2de18:	00003306 	br	2dee8 <__adddf3+0x5e0>
   2de1c:	1824977a 	slli	r18,r3,29
   2de20:	01880034 	movhi	r6,8192
   2de24:	31bfffc4 	addi	r6,r6,-1
   2de28:	2184703a 	and	r2,r4,r6
   2de2c:	1810d0fa 	srli	r8,r3,3
   2de30:	1484b03a 	or	r2,r2,r18
   2de34:	003f7406 	br	2dc08 <__adddf3+0x300>
   2de38:	1804977a 	slli	r2,r3,29
   2de3c:	01480034 	movhi	r5,8192
   2de40:	297fffc4 	addi	r5,r5,-1
   2de44:	2148703a 	and	r4,r4,r5
   2de48:	1810d0fa 	srli	r8,r3,3
   2de4c:	1104b03a 	or	r2,r2,r4
   2de50:	003f9406 	br	2dca4 <__adddf3+0x39c>
   2de54:	04400084 	movi	r17,2
   2de58:	00bfe034 	movhi	r2,65408
   2de5c:	10bfffc4 	addi	r2,r2,-1
   2de60:	9006d07a 	srli	r3,r18,1
   2de64:	2088703a 	and	r4,r4,r2
   2de68:	200497fa 	slli	r2,r4,31
   2de6c:	9480004c 	andi	r18,r18,1
   2de70:	1ca4b03a 	or	r18,r3,r18
   2de74:	2008d07a 	srli	r4,r4,1
   2de78:	14a4b03a 	or	r18,r2,r18
   2de7c:	003ef106 	br	2da44 <__adddf3+0x13c>
   2de80:	633ff844 	addi	r12,r12,-31
   2de84:	40800820 	cmpeqi	r2,r8,32
   2de88:	2318d83a 	srl	r12,r4,r12
   2de8c:	1000041e 	bne	r2,zero,2dea0 <__adddf3+0x598>
   2de90:	00801004 	movi	r2,64
   2de94:	1211c83a 	sub	r8,r2,r8
   2de98:	2208983a 	sll	r4,r4,r8
   2de9c:	9124b03a 	or	r18,r18,r4
   2dea0:	9024c03a 	cmpne	r18,r18,zero
   2dea4:	9324b03a 	or	r18,r18,r12
   2dea8:	0009883a 	mov	r4,zero
   2deac:	0023883a 	mov	r17,zero
   2deb0:	003f4e06 	br	2dbec <__adddf3+0x2e4>
   2deb4:	2cbff804 	addi	r18,r5,-32
   2deb8:	29000820 	cmpeqi	r4,r5,32
   2debc:	4c84d83a 	srl	r2,r9,r18
   2dec0:	2000041e 	bne	r4,zero,2ded4 <__adddf3+0x5cc>
   2dec4:	01001004 	movi	r4,64
   2dec8:	214bc83a 	sub	r5,r4,r5
   2decc:	4952983a 	sll	r9,r9,r5
   2ded0:	6a5ab03a 	or	r13,r13,r9
   2ded4:	6824c03a 	cmpne	r18,r13,zero
   2ded8:	90a4b03a 	or	r18,r18,r2
   2dedc:	003eb806 	br	2d9c0 <__adddf3+0xb8>
   2dee0:	1b88b03a 	or	r4,r3,r14
   2dee4:	2024c03a 	cmpne	r18,r4,zero
   2dee8:	6ca5c83a 	sub	r18,r13,r18
   2deec:	6c89803a 	cmpltu	r4,r13,r18
   2def0:	4909c83a 	sub	r4,r9,r4
   2def4:	3821883a 	mov	r16,r7
   2def8:	1023883a 	mov	r17,r2
   2defc:	003eb306 	br	2d9cc <__adddf3+0xc4>
   2df00:	1b88b03a 	or	r4,r3,r14
   2df04:	20008c26 	beq	r4,zero,2e138 <__adddf3+0x830>
   2df08:	293fffc4 	addi	r4,r5,-1
   2df0c:	2000d326 	beq	r4,zero,2e25c <__adddf3+0x954>
   2df10:	2941ffd8 	cmpnei	r5,r5,2047
   2df14:	28008126 	beq	r5,zero,2e11c <__adddf3+0x814>
   2df18:	200b883a 	mov	r5,r4
   2df1c:	003f6f06 	br	2dcdc <__adddf3+0x3d4>
   2df20:	00800804 	movi	r2,32
   2df24:	1145c83a 	sub	r2,r2,r5
   2df28:	6948d83a 	srl	r4,r13,r5
   2df2c:	48a4983a 	sll	r18,r9,r2
   2df30:	6884983a 	sll	r2,r13,r2
   2df34:	494ad83a 	srl	r5,r9,r5
   2df38:	9124b03a 	or	r18,r18,r4
   2df3c:	101ac03a 	cmpne	r13,r2,zero
   2df40:	9364b03a 	or	r18,r18,r13
   2df44:	1947883a 	add	r3,r3,r5
   2df48:	003f3806 	br	2dc2c <__adddf3+0x324>
   2df4c:	4081ffe0 	cmpeqi	r2,r8,2047
   2df50:	103f3e1e 	bne	r2,zero,2dc4c <__adddf3+0x344>
   2df54:	7345883a 	add	r2,r14,r13
   2df58:	139d803a 	cmpltu	r14,r2,r14
   2df5c:	1a49883a 	add	r4,r3,r9
   2df60:	2389883a 	add	r4,r4,r14
   2df64:	202497fa 	slli	r18,r4,31
   2df68:	1004d07a 	srli	r2,r2,1
   2df6c:	2008d07a 	srli	r4,r4,1
   2df70:	4023883a 	mov	r17,r8
   2df74:	90a4b03a 	or	r18,r18,r2
   2df78:	003f1c06 	br	2dbec <__adddf3+0x2e4>
   2df7c:	6ba5c83a 	sub	r18,r13,r14
   2df80:	48c9c83a 	sub	r4,r9,r3
   2df84:	6c85803a 	cmpltu	r2,r13,r18
   2df88:	20a7c83a 	sub	r19,r4,r2
   2df8c:	3821883a 	mov	r16,r7
   2df90:	003e9306 	br	2d9e0 <__adddf3+0xd8>
   2df94:	58006f1e 	bne	r11,zero,2e154 <__adddf3+0x84c>
   2df98:	10001f1e 	bne	r2,zero,2e018 <__adddf3+0x710>
   2df9c:	00bfffc4 	movi	r2,-1
   2dfa0:	0021883a 	mov	r16,zero
   2dfa4:	003f4106 	br	2dcac <__adddf3+0x3a4>
   2dfa8:	4808977a 	slli	r4,r9,29
   2dfac:	00c80034 	movhi	r3,8192
   2dfb0:	18ffffc4 	addi	r3,r3,-1
   2dfb4:	30c4703a 	and	r2,r6,r3
   2dfb8:	4810d0fa 	srli	r8,r9,3
   2dfbc:	1104b03a 	or	r2,r2,r4
   2dfc0:	3821883a 	mov	r16,r7
   2dfc4:	003f1006 	br	2dc08 <__adddf3+0x300>
   2dfc8:	7365c83a 	sub	r18,r14,r13
   2dfcc:	1a47c83a 	sub	r3,r3,r9
   2dfd0:	7489803a 	cmpltu	r4,r14,r18
   2dfd4:	1909c83a 	sub	r4,r3,r4
   2dfd8:	04400044 	movi	r17,1
   2dfdc:	003e7b06 	br	2d9cc <__adddf3+0xc4>
   2dfe0:	1824977a 	slli	r18,r3,29
   2dfe4:	01c80034 	movhi	r7,8192
   2dfe8:	39ffffc4 	addi	r7,r7,-1
   2dfec:	21c4703a 	and	r2,r4,r7
   2dff0:	1810d0fa 	srli	r8,r3,3
   2dff4:	1484b03a 	or	r2,r2,r18
   2dff8:	003f0306 	br	2dc08 <__adddf3+0x300>
   2dffc:	1824977a 	slli	r18,r3,29
   2e000:	01480034 	movhi	r5,8192
   2e004:	297fffc4 	addi	r5,r5,-1
   2e008:	2144703a 	and	r2,r4,r5
   2e00c:	1810d0fa 	srli	r8,r3,3
   2e010:	1484b03a 	or	r2,r2,r18
   2e014:	003f2306 	br	2dca4 <__adddf3+0x39c>
   2e018:	4806977a 	slli	r3,r9,29
   2e01c:	00880034 	movhi	r2,8192
   2e020:	10bfffc4 	addi	r2,r2,-1
   2e024:	3084703a 	and	r2,r6,r2
   2e028:	4810d0fa 	srli	r8,r9,3
   2e02c:	10c4b03a 	or	r2,r2,r3
   2e030:	3821883a 	mov	r16,r7
   2e034:	003f1b06 	br	2dca4 <__adddf3+0x39c>
   2e038:	1b88b03a 	or	r4,r3,r14
   2e03c:	2024c03a 	cmpne	r18,r4,zero
   2e040:	003f3406 	br	2dd14 <__adddf3+0x40c>
   2e044:	2cbff804 	addi	r18,r5,-32
   2e048:	29800820 	cmpeqi	r6,r5,32
   2e04c:	1c88d83a 	srl	r4,r3,r18
   2e050:	3000041e 	bne	r6,zero,2e064 <__adddf3+0x75c>
   2e054:	01801004 	movi	r6,64
   2e058:	314bc83a 	sub	r5,r6,r5
   2e05c:	1946983a 	sll	r3,r3,r5
   2e060:	70dcb03a 	or	r14,r14,r3
   2e064:	7024c03a 	cmpne	r18,r14,zero
   2e068:	9124b03a 	or	r18,r18,r4
   2e06c:	003f9e06 	br	2dee8 <__adddf3+0x5e0>
   2e070:	103efa1e 	bne	r2,zero,2dc5c <__adddf3+0x354>
   2e074:	4804977a 	slli	r2,r9,29
   2e078:	00c80034 	movhi	r3,8192
   2e07c:	18ffffc4 	addi	r3,r3,-1
   2e080:	30cc703a 	and	r6,r6,r3
   2e084:	4810d0fa 	srli	r8,r9,3
   2e088:	1184b03a 	or	r2,r2,r6
   2e08c:	003f0506 	br	2dca4 <__adddf3+0x39c>
   2e090:	10004426 	beq	r2,zero,2e1a4 <__adddf3+0x89c>
   2e094:	4806977a 	slli	r3,r9,29
   2e098:	00880034 	movhi	r2,8192
   2e09c:	10bfffc4 	addi	r2,r2,-1
   2e0a0:	3084703a 	and	r2,r6,r2
   2e0a4:	4810d0fa 	srli	r8,r9,3
   2e0a8:	10c4b03a 	or	r2,r2,r3
   2e0ac:	3821883a 	mov	r16,r7
   2e0b0:	003ed706 	br	2dc10 <__adddf3+0x308>
   2e0b4:	6ba5c83a 	sub	r18,r13,r14
   2e0b8:	48c7c83a 	sub	r3,r9,r3
   2e0bc:	6c85803a 	cmpltu	r2,r13,r18
   2e0c0:	1889c83a 	sub	r4,r3,r2
   2e0c4:	3821883a 	mov	r16,r7
   2e0c8:	04400044 	movi	r17,1
   2e0cc:	003e3f06 	br	2d9cc <__adddf3+0xc4>
   2e0d0:	180a977a 	slli	r5,r3,29
   2e0d4:	00880034 	movhi	r2,8192
   2e0d8:	10bfffc4 	addi	r2,r2,-1
   2e0dc:	2084703a 	and	r2,r4,r2
   2e0e0:	1810d0fa 	srli	r8,r3,3
   2e0e4:	1144b03a 	or	r2,r2,r5
   2e0e8:	003eee06 	br	2dca4 <__adddf3+0x39c>
   2e0ec:	7365c83a 	sub	r18,r14,r13
   2e0f0:	7485803a 	cmpltu	r2,r14,r18
   2e0f4:	1a49c83a 	sub	r4,r3,r9
   2e0f8:	2089c83a 	sub	r4,r4,r2
   2e0fc:	2080202c 	andhi	r2,r4,128
   2e100:	10002626 	beq	r2,zero,2e19c <__adddf3+0x894>
   2e104:	6ba5c83a 	sub	r18,r13,r14
   2e108:	48c7c83a 	sub	r3,r9,r3
   2e10c:	6c85803a 	cmpltu	r2,r13,r18
   2e110:	1889c83a 	sub	r4,r3,r2
   2e114:	3821883a 	mov	r16,r7
   2e118:	003e4a06 	br	2da44 <__adddf3+0x13c>
   2e11c:	4806977a 	slli	r3,r9,29
   2e120:	00880034 	movhi	r2,8192
   2e124:	10bfffc4 	addi	r2,r2,-1
   2e128:	3084703a 	and	r2,r6,r2
   2e12c:	4810d0fa 	srli	r8,r9,3
   2e130:	10c4b03a 	or	r2,r2,r3
   2e134:	003edb06 	br	2dca4 <__adddf3+0x39c>
   2e138:	4806977a 	slli	r3,r9,29
   2e13c:	00880034 	movhi	r2,8192
   2e140:	10bfffc4 	addi	r2,r2,-1
   2e144:	3084703a 	and	r2,r6,r2
   2e148:	4810d0fa 	srli	r8,r9,3
   2e14c:	10c4b03a 	or	r2,r2,r3
   2e150:	003ead06 	br	2dc08 <__adddf3+0x300>
   2e154:	180a977a 	slli	r5,r3,29
   2e158:	1810d0fa 	srli	r8,r3,3
   2e15c:	10002f26 	beq	r2,zero,2e21c <__adddf3+0x914>
   2e160:	00c80034 	movhi	r3,8192
   2e164:	18ffffc4 	addi	r3,r3,-1
   2e168:	20c4703a 	and	r2,r4,r3
   2e16c:	4100022c 	andhi	r4,r8,8
   2e170:	1144b03a 	or	r2,r2,r5
   2e174:	203ecb26 	beq	r4,zero,2dca4 <__adddf3+0x39c>
   2e178:	4808d0fa 	srli	r4,r9,3
   2e17c:	2140022c 	andhi	r5,r4,8
   2e180:	283ec81e 	bne	r5,zero,2dca4 <__adddf3+0x39c>
   2e184:	4812977a 	slli	r9,r9,29
   2e188:	30c4703a 	and	r2,r6,r3
   2e18c:	3821883a 	mov	r16,r7
   2e190:	1244b03a 	or	r2,r2,r9
   2e194:	2011883a 	mov	r8,r4
   2e198:	003ec206 	br	2dca4 <__adddf3+0x39c>
   2e19c:	9104b03a 	or	r2,r18,r4
   2e1a0:	103e921e 	bne	r2,zero,2dbec <__adddf3+0x2e4>
   2e1a4:	0011883a 	mov	r8,zero
   2e1a8:	100b883a 	mov	r5,r2
   2e1ac:	0021883a 	mov	r16,zero
   2e1b0:	003e9706 	br	2dc10 <__adddf3+0x308>
   2e1b4:	4804977a 	slli	r2,r9,29
   2e1b8:	00c80034 	movhi	r3,8192
   2e1bc:	18ffffc4 	addi	r3,r3,-1
   2e1c0:	30cc703a 	and	r6,r6,r3
   2e1c4:	4810d0fa 	srli	r8,r9,3
   2e1c8:	1184b03a 	or	r2,r2,r6
   2e1cc:	003e9006 	br	2dc10 <__adddf3+0x308>
   2e1d0:	7365883a 	add	r18,r14,r13
   2e1d4:	1a47883a 	add	r3,r3,r9
   2e1d8:	9389803a 	cmpltu	r4,r18,r14
   2e1dc:	1909883a 	add	r4,r3,r4
   2e1e0:	2080202c 	andhi	r2,r4,128
   2e1e4:	103e8126 	beq	r2,zero,2dbec <__adddf3+0x2e4>
   2e1e8:	00bfe034 	movhi	r2,65408
   2e1ec:	10bfffc4 	addi	r2,r2,-1
   2e1f0:	2088703a 	and	r4,r4,r2
   2e1f4:	04400044 	movi	r17,1
   2e1f8:	003e7c06 	br	2dbec <__adddf3+0x2e4>
   2e1fc:	4804977a 	slli	r2,r9,29
   2e200:	00c80034 	movhi	r3,8192
   2e204:	18ffffc4 	addi	r3,r3,-1
   2e208:	30cc703a 	and	r6,r6,r3
   2e20c:	4810d0fa 	srli	r8,r9,3
   2e210:	1184b03a 	or	r2,r2,r6
   2e214:	3821883a 	mov	r16,r7
   2e218:	003ea206 	br	2dca4 <__adddf3+0x39c>
   2e21c:	00880034 	movhi	r2,8192
   2e220:	10bfffc4 	addi	r2,r2,-1
   2e224:	2084703a 	and	r2,r4,r2
   2e228:	1144b03a 	or	r2,r2,r5
   2e22c:	003e9d06 	br	2dca4 <__adddf3+0x39c>
   2e230:	293ff804 	addi	r4,r5,-32
   2e234:	29800820 	cmpeqi	r6,r5,32
   2e238:	1908d83a 	srl	r4,r3,r4
   2e23c:	3000041e 	bne	r6,zero,2e250 <__adddf3+0x948>
   2e240:	01801004 	movi	r6,64
   2e244:	314bc83a 	sub	r5,r6,r5
   2e248:	1946983a 	sll	r3,r3,r5
   2e24c:	70dcb03a 	or	r14,r14,r3
   2e250:	7024c03a 	cmpne	r18,r14,zero
   2e254:	9124b03a 	or	r18,r18,r4
   2e258:	003eae06 	br	2dd14 <__adddf3+0x40c>
   2e25c:	7365883a 	add	r18,r14,r13
   2e260:	1a47883a 	add	r3,r3,r9
   2e264:	9345803a 	cmpltu	r2,r18,r13
   2e268:	1889883a 	add	r4,r3,r2
   2e26c:	003e5c06 	br	2dbe0 <__adddf3+0x2d8>
   2e270:	0005883a 	mov	r2,zero
   2e274:	0141ffc4 	movi	r5,2047
   2e278:	0007883a 	mov	r3,zero
   2e27c:	003e0806 	br	2daa0 <__adddf3+0x198>

0002e280 <__divdf3>:
   2e280:	2804d53a 	srli	r2,r5,20
   2e284:	defff204 	addi	sp,sp,-56
   2e288:	dc000415 	stw	r16,16(sp)
   2e28c:	04000434 	movhi	r16,16
   2e290:	ddc00b15 	stw	r23,44(sp)
   2e294:	dd800a15 	stw	r22,40(sp)
   2e298:	dc800615 	stw	r18,24(sp)
   2e29c:	843fffc4 	addi	r16,r16,-1
   2e2a0:	dfc00d15 	stw	ra,52(sp)
   2e2a4:	df000c15 	stw	fp,48(sp)
   2e2a8:	dd400915 	stw	r21,36(sp)
   2e2ac:	dd000815 	stw	r20,32(sp)
   2e2b0:	dcc00715 	stw	r19,28(sp)
   2e2b4:	dc400515 	stw	r17,20(sp)
   2e2b8:	1081ffcc 	andi	r2,r2,2047
   2e2bc:	282cd7fa 	srli	r22,r5,31
   2e2c0:	302f883a 	mov	r23,r6
   2e2c4:	2025883a 	mov	r18,r4
   2e2c8:	2c20703a 	and	r16,r5,r16
   2e2cc:	10005326 	beq	r2,zero,2e41c <__divdf3+0x19c>
   2e2d0:	10c1ffe0 	cmpeqi	r3,r2,2047
   2e2d4:	1800661e 	bne	r3,zero,2e470 <__divdf3+0x1f0>
   2e2d8:	2028d77a 	srli	r20,r4,29
   2e2dc:	800a90fa 	slli	r5,r16,3
   2e2e0:	202490fa 	slli	r18,r4,3
   2e2e4:	14ff0044 	addi	r19,r2,-1023
   2e2e8:	a14ab03a 	or	r5,r20,r5
   2e2ec:	2d002034 	orhi	r20,r5,128
   2e2f0:	0021883a 	mov	r16,zero
   2e2f4:	0039883a 	mov	fp,zero
   2e2f8:	3804d53a 	srli	r2,r7,20
   2e2fc:	00c00434 	movhi	r3,16
   2e300:	18ffffc4 	addi	r3,r3,-1
   2e304:	1081ffcc 	andi	r2,r2,2047
   2e308:	3810d7fa 	srli	r8,r7,31
   2e30c:	38e2703a 	and	r17,r7,r3
   2e310:	10005e26 	beq	r2,zero,2e48c <__divdf3+0x20c>
   2e314:	10c1ffe0 	cmpeqi	r3,r2,2047
   2e318:	1800201e 	bne	r3,zero,2e39c <__divdf3+0x11c>
   2e31c:	880690fa 	slli	r3,r17,3
   2e320:	b822d77a 	srli	r17,r23,29
   2e324:	b81290fa 	slli	r9,r23,3
   2e328:	10bf0044 	addi	r2,r2,-1023
   2e32c:	88c6b03a 	or	r3,r17,r3
   2e330:	1c402034 	orhi	r17,r3,128
   2e334:	98a7c83a 	sub	r19,r19,r2
   2e338:	0007883a 	mov	r3,zero
   2e33c:	80800428 	cmpgeui	r2,r16,16
   2e340:	b22af03a 	xor	r21,r22,r8
   2e344:	1000ac1e 	bne	r2,zero,2e5f8 <__divdf3+0x378>
   2e348:	800490ba 	slli	r2,r16,2
   2e34c:	018000f4 	movhi	r6,3
   2e350:	118d883a 	add	r6,r2,r6
   2e354:	30b8d717 	ldw	r2,-7332(r6)
   2e358:	1000683a 	jmp	r2
   2e35c:	0002e5f8 	rdprs	zero,zero,2967
   2e360:	0002e40c 	andi	zero,zero,2960
   2e364:	0002e3b8 	rdprs	zero,zero,2958
   2e368:	0002e540 	call	2e54 <__alt_mem_onchip_memory2_0-0x1d1ac>
   2e36c:	0002e3b8 	rdprs	zero,zero,2958
   2e370:	0002e59c 	xori	zero,zero,2966
   2e374:	0002e3b8 	rdprs	zero,zero,2958
   2e378:	0002e540 	call	2e54 <__alt_mem_onchip_memory2_0-0x1d1ac>
   2e37c:	0002e40c 	andi	zero,zero,2960
   2e380:	0002e40c 	andi	zero,zero,2960
   2e384:	0002e59c 	xori	zero,zero,2966
   2e388:	0002e540 	call	2e54 <__alt_mem_onchip_memory2_0-0x1d1ac>
   2e38c:	0002e4d8 	cmpnei	zero,zero,2963
   2e390:	0002e4d8 	cmpnei	zero,zero,2963
   2e394:	0002e4d8 	cmpnei	zero,zero,2963
   2e398:	0002e5b4 	movhi	zero,2966
   2e39c:	8dd2b03a 	or	r9,r17,r23
   2e3a0:	9cfe0044 	addi	r19,r19,-2047
   2e3a4:	48006b1e 	bne	r9,zero,2e554 <__divdf3+0x2d4>
   2e3a8:	84000094 	ori	r16,r16,2
   2e3ac:	0023883a 	mov	r17,zero
   2e3b0:	00c00084 	movi	r3,2
   2e3b4:	003fe106 	br	2e33c <__divdf3+0xbc>
   2e3b8:	0007883a 	mov	r3,zero
   2e3bc:	000b883a 	mov	r5,zero
   2e3c0:	0025883a 	mov	r18,zero
   2e3c4:	a8803fcc 	andi	r2,r21,255
   2e3c8:	1806953a 	slli	r3,r3,20
   2e3cc:	100497fa 	slli	r2,r2,31
   2e3d0:	1946b03a 	or	r3,r3,r5
   2e3d4:	1886b03a 	or	r3,r3,r2
   2e3d8:	9005883a 	mov	r2,r18
   2e3dc:	dfc00d17 	ldw	ra,52(sp)
   2e3e0:	df000c17 	ldw	fp,48(sp)
   2e3e4:	ddc00b17 	ldw	r23,44(sp)
   2e3e8:	dd800a17 	ldw	r22,40(sp)
   2e3ec:	dd400917 	ldw	r21,36(sp)
   2e3f0:	dd000817 	ldw	r20,32(sp)
   2e3f4:	dcc00717 	ldw	r19,28(sp)
   2e3f8:	dc800617 	ldw	r18,24(sp)
   2e3fc:	dc400517 	ldw	r17,20(sp)
   2e400:	dc000417 	ldw	r16,16(sp)
   2e404:	dec00e04 	addi	sp,sp,56
   2e408:	f800283a 	ret
   2e40c:	00c1ffc4 	movi	r3,2047
   2e410:	000b883a 	mov	r5,zero
   2e414:	0025883a 	mov	r18,zero
   2e418:	003fea06 	br	2e3c4 <__divdf3+0x144>
   2e41c:	2428b03a 	or	r20,r4,r16
   2e420:	2023883a 	mov	r17,r4
   2e424:	a0005326 	beq	r20,zero,2e574 <__divdf3+0x2f4>
   2e428:	d9c00015 	stw	r7,0(sp)
   2e42c:	80014126 	beq	r16,zero,2e934 <__divdf3+0x6b4>
   2e430:	8009883a 	mov	r4,r16
   2e434:	002ff040 	call	2ff04 <__clzsi2>
   2e438:	d9c00017 	ldw	r7,0(sp)
   2e43c:	10fffd44 	addi	r3,r2,-11
   2e440:	05000744 	movi	r20,29
   2e444:	113ffe04 	addi	r4,r2,-8
   2e448:	a0e9c83a 	sub	r20,r20,r3
   2e44c:	810a983a 	sll	r5,r16,r4
   2e450:	8d28d83a 	srl	r20,r17,r20
   2e454:	8924983a 	sll	r18,r17,r4
   2e458:	a168b03a 	or	r20,r20,r5
   2e45c:	04ff0344 	movi	r19,-1011
   2e460:	98a7c83a 	sub	r19,r19,r2
   2e464:	0021883a 	mov	r16,zero
   2e468:	0039883a 	mov	fp,zero
   2e46c:	003fa206 	br	2e2f8 <__divdf3+0x78>
   2e470:	2428b03a 	or	r20,r4,r16
   2e474:	a000441e 	bne	r20,zero,2e588 <__divdf3+0x308>
   2e478:	0025883a 	mov	r18,zero
   2e47c:	04000204 	movi	r16,8
   2e480:	04c1ffc4 	movi	r19,2047
   2e484:	07000084 	movi	fp,2
   2e488:	003f9b06 	br	2e2f8 <__divdf3+0x78>
   2e48c:	8dd2b03a 	or	r9,r17,r23
   2e490:	48003426 	beq	r9,zero,2e564 <__divdf3+0x2e4>
   2e494:	da000015 	stw	r8,0(sp)
   2e498:	88013126 	beq	r17,zero,2e960 <__divdf3+0x6e0>
   2e49c:	8809883a 	mov	r4,r17
   2e4a0:	002ff040 	call	2ff04 <__clzsi2>
   2e4a4:	da000017 	ldw	r8,0(sp)
   2e4a8:	117ffd44 	addi	r5,r2,-11
   2e4ac:	01000744 	movi	r4,29
   2e4b0:	127ffe04 	addi	r9,r2,-8
   2e4b4:	2149c83a 	sub	r4,r4,r5
   2e4b8:	8a46983a 	sll	r3,r17,r9
   2e4bc:	b908d83a 	srl	r4,r23,r4
   2e4c0:	ba52983a 	sll	r9,r23,r9
   2e4c4:	20e2b03a 	or	r17,r4,r3
   2e4c8:	14c5883a 	add	r2,r2,r19
   2e4cc:	14c0fcc4 	addi	r19,r2,1011
   2e4d0:	0007883a 	mov	r3,zero
   2e4d4:	003f9906 	br	2e33c <__divdf3+0xbc>
   2e4d8:	b02b883a 	mov	r21,r22
   2e4dc:	e08000a0 	cmpeqi	r2,fp,2
   2e4e0:	103fca1e 	bne	r2,zero,2e40c <__divdf3+0x18c>
   2e4e4:	e08000e0 	cmpeqi	r2,fp,3
   2e4e8:	1001741e 	bne	r2,zero,2eabc <__divdf3+0x83c>
   2e4ec:	e0800060 	cmpeqi	r2,fp,1
   2e4f0:	103fb11e 	bne	r2,zero,2e3b8 <__divdf3+0x138>
   2e4f4:	9c40ffc4 	addi	r17,r19,1023
   2e4f8:	0440de0e 	bge	zero,r17,2e874 <__divdf3+0x5f4>
   2e4fc:	908001cc 	andi	r2,r18,7
   2e500:	10014a1e 	bne	r2,zero,2ea2c <__divdf3+0x7ac>
   2e504:	900cd0fa 	srli	r6,r18,3
   2e508:	a080402c 	andhi	r2,r20,256
   2e50c:	10000426 	beq	r2,zero,2e520 <__divdf3+0x2a0>
   2e510:	00bfc034 	movhi	r2,65280
   2e514:	10bfffc4 	addi	r2,r2,-1
   2e518:	a0a8703a 	and	r20,r20,r2
   2e51c:	9c410004 	addi	r17,r19,1024
   2e520:	8881ffc8 	cmpgei	r2,r17,2047
   2e524:	103fb91e 	bne	r2,zero,2e40c <__divdf3+0x18c>
   2e528:	a008977a 	slli	r4,r20,29
   2e52c:	a00a927a 	slli	r5,r20,9
   2e530:	88c1ffcc 	andi	r3,r17,2047
   2e534:	21a4b03a 	or	r18,r4,r6
   2e538:	280ad33a 	srli	r5,r5,12
   2e53c:	003fa106 	br	2e3c4 <__divdf3+0x144>
   2e540:	402b883a 	mov	r21,r8
   2e544:	8829883a 	mov	r20,r17
   2e548:	4825883a 	mov	r18,r9
   2e54c:	1839883a 	mov	fp,r3
   2e550:	003fe206 	br	2e4dc <__divdf3+0x25c>
   2e554:	840000d4 	ori	r16,r16,3
   2e558:	b813883a 	mov	r9,r23
   2e55c:	00c000c4 	movi	r3,3
   2e560:	003f7606 	br	2e33c <__divdf3+0xbc>
   2e564:	84000054 	ori	r16,r16,1
   2e568:	0023883a 	mov	r17,zero
   2e56c:	00c00044 	movi	r3,1
   2e570:	003f7206 	br	2e33c <__divdf3+0xbc>
   2e574:	0025883a 	mov	r18,zero
   2e578:	04000104 	movi	r16,4
   2e57c:	0027883a 	mov	r19,zero
   2e580:	07000044 	movi	fp,1
   2e584:	003f5c06 	br	2e2f8 <__divdf3+0x78>
   2e588:	8029883a 	mov	r20,r16
   2e58c:	04c1ffc4 	movi	r19,2047
   2e590:	04000304 	movi	r16,12
   2e594:	070000c4 	movi	fp,3
   2e598:	003f5706 	br	2e2f8 <__divdf3+0x78>
   2e59c:	01400434 	movhi	r5,16
   2e5a0:	002b883a 	mov	r21,zero
   2e5a4:	297fffc4 	addi	r5,r5,-1
   2e5a8:	04bfffc4 	movi	r18,-1
   2e5ac:	00c1ffc4 	movi	r3,2047
   2e5b0:	003f8406 	br	2e3c4 <__divdf3+0x144>
   2e5b4:	a080022c 	andhi	r2,r20,8
   2e5b8:	10000926 	beq	r2,zero,2e5e0 <__divdf3+0x360>
   2e5bc:	8880022c 	andhi	r2,r17,8
   2e5c0:	1000071e 	bne	r2,zero,2e5e0 <__divdf3+0x360>
   2e5c4:	00800434 	movhi	r2,16
   2e5c8:	89400234 	orhi	r5,r17,8
   2e5cc:	10bfffc4 	addi	r2,r2,-1
   2e5d0:	288a703a 	and	r5,r5,r2
   2e5d4:	402b883a 	mov	r21,r8
   2e5d8:	4825883a 	mov	r18,r9
   2e5dc:	003ff306 	br	2e5ac <__divdf3+0x32c>
   2e5e0:	00800434 	movhi	r2,16
   2e5e4:	a1400234 	orhi	r5,r20,8
   2e5e8:	10bfffc4 	addi	r2,r2,-1
   2e5ec:	288a703a 	and	r5,r5,r2
   2e5f0:	b02b883a 	mov	r21,r22
   2e5f4:	003fed06 	br	2e5ac <__divdf3+0x32c>
   2e5f8:	8d00c836 	bltu	r17,r20,2e91c <__divdf3+0x69c>
   2e5fc:	8d00c626 	beq	r17,r20,2e918 <__divdf3+0x698>
   2e600:	9cffffc4 	addi	r19,r19,-1
   2e604:	0021883a 	mov	r16,zero
   2e608:	8806923a 	slli	r3,r17,8
   2e60c:	480cd63a 	srli	r6,r9,24
   2e610:	4804923a 	slli	r2,r9,8
   2e614:	1838d43a 	srli	fp,r3,16
   2e618:	a009883a 	mov	r4,r20
   2e61c:	30ecb03a 	or	r22,r6,r3
   2e620:	e00b883a 	mov	r5,fp
   2e624:	d8800015 	stw	r2,0(sp)
   2e628:	00229a00 	call	229a0 <__udivsi3>
   2e62c:	a009883a 	mov	r4,r20
   2e630:	e00b883a 	mov	r5,fp
   2e634:	d8800115 	stw	r2,4(sp)
   2e638:	0022a040 	call	22a04 <__umodsi3>
   2e63c:	d8c00117 	ldw	r3,4(sp)
   2e640:	1004943a 	slli	r2,r2,16
   2e644:	9008d43a 	srli	r4,r18,16
   2e648:	b5ffffcc 	andi	r23,r22,65535
   2e64c:	b8e3383a 	mul	r17,r23,r3
   2e650:	2088b03a 	or	r4,r4,r2
   2e654:	2440042e 	bgeu	r4,r17,2e668 <__divdf3+0x3e8>
   2e658:	2589883a 	add	r4,r4,r22
   2e65c:	18bfffc4 	addi	r2,r3,-1
   2e660:	2580d32e 	bgeu	r4,r22,2e9b0 <__divdf3+0x730>
   2e664:	1007883a 	mov	r3,r2
   2e668:	2463c83a 	sub	r17,r4,r17
   2e66c:	e00b883a 	mov	r5,fp
   2e670:	8809883a 	mov	r4,r17
   2e674:	d8c00115 	stw	r3,4(sp)
   2e678:	00229a00 	call	229a0 <__udivsi3>
   2e67c:	8809883a 	mov	r4,r17
   2e680:	e00b883a 	mov	r5,fp
   2e684:	1029883a 	mov	r20,r2
   2e688:	0022a040 	call	22a04 <__umodsi3>
   2e68c:	1008943a 	slli	r4,r2,16
   2e690:	bd13383a 	mul	r9,r23,r20
   2e694:	94bfffcc 	andi	r18,r18,65535
   2e698:	9108b03a 	or	r4,r18,r4
   2e69c:	d8c00117 	ldw	r3,4(sp)
   2e6a0:	2240042e 	bgeu	r4,r9,2e6b4 <__divdf3+0x434>
   2e6a4:	2589883a 	add	r4,r4,r22
   2e6a8:	a0bfffc4 	addi	r2,r20,-1
   2e6ac:	2580bc2e 	bgeu	r4,r22,2e9a0 <__divdf3+0x720>
   2e6b0:	1029883a 	mov	r20,r2
   2e6b4:	180a943a 	slli	r5,r3,16
   2e6b8:	d8800017 	ldw	r2,0(sp)
   2e6bc:	2249c83a 	sub	r4,r4,r9
   2e6c0:	2d28b03a 	or	r20,r5,r20
   2e6c4:	100ed43a 	srli	r7,r2,16
   2e6c8:	123fffcc 	andi	r8,r2,65535
   2e6cc:	a00ad43a 	srli	r5,r20,16
   2e6d0:	a0bfffcc 	andi	r2,r20,65535
   2e6d4:	1225383a 	mul	r18,r2,r8
   2e6d8:	2a15383a 	mul	r10,r5,r8
   2e6dc:	3887383a 	mul	r3,r7,r2
   2e6e0:	9004d43a 	srli	r2,r18,16
   2e6e4:	29cb383a 	mul	r5,r5,r7
   2e6e8:	1a87883a 	add	r3,r3,r10
   2e6ec:	10c5883a 	add	r2,r2,r3
   2e6f0:	1280022e 	bgeu	r2,r10,2e6fc <__divdf3+0x47c>
   2e6f4:	00c00074 	movhi	r3,1
   2e6f8:	28cb883a 	add	r5,r5,r3
   2e6fc:	1006d43a 	srli	r3,r2,16
   2e700:	1004943a 	slli	r2,r2,16
   2e704:	94bfffcc 	andi	r18,r18,65535
   2e708:	1947883a 	add	r3,r3,r5
   2e70c:	14a5883a 	add	r18,r2,r18
   2e710:	20c07636 	bltu	r4,r3,2e8ec <__divdf3+0x66c>
   2e714:	20c07426 	beq	r4,r3,2e8e8 <__divdf3+0x668>
   2e718:	84a5c83a 	sub	r18,r16,r18
   2e71c:	20c9c83a 	sub	r4,r4,r3
   2e720:	84a1803a 	cmpltu	r16,r16,r18
   2e724:	2421c83a 	sub	r16,r4,r16
   2e728:	9c40ffc4 	addi	r17,r19,1023
   2e72c:	b400ba26 	beq	r22,r16,2ea18 <__divdf3+0x798>
   2e730:	8009883a 	mov	r4,r16
   2e734:	e00b883a 	mov	r5,fp
   2e738:	da000315 	stw	r8,12(sp)
   2e73c:	d9c00215 	stw	r7,8(sp)
   2e740:	00229a00 	call	229a0 <__udivsi3>
   2e744:	8009883a 	mov	r4,r16
   2e748:	e00b883a 	mov	r5,fp
   2e74c:	d8800115 	stw	r2,4(sp)
   2e750:	0022a040 	call	22a04 <__umodsi3>
   2e754:	da400117 	ldw	r9,4(sp)
   2e758:	1004943a 	slli	r2,r2,16
   2e75c:	9008d43a 	srli	r4,r18,16
   2e760:	ba61383a 	mul	r16,r23,r9
   2e764:	d9c00217 	ldw	r7,8(sp)
   2e768:	2088b03a 	or	r4,r4,r2
   2e76c:	da000317 	ldw	r8,12(sp)
   2e770:	2400062e 	bgeu	r4,r16,2e78c <__divdf3+0x50c>
   2e774:	2589883a 	add	r4,r4,r22
   2e778:	48bfffc4 	addi	r2,r9,-1
   2e77c:	2580b536 	bltu	r4,r22,2ea54 <__divdf3+0x7d4>
   2e780:	2400b42e 	bgeu	r4,r16,2ea54 <__divdf3+0x7d4>
   2e784:	4a7fff84 	addi	r9,r9,-2
   2e788:	2589883a 	add	r4,r4,r22
   2e78c:	2421c83a 	sub	r16,r4,r16
   2e790:	8009883a 	mov	r4,r16
   2e794:	e00b883a 	mov	r5,fp
   2e798:	da000315 	stw	r8,12(sp)
   2e79c:	da400215 	stw	r9,8(sp)
   2e7a0:	d9c00115 	stw	r7,4(sp)
   2e7a4:	00229a00 	call	229a0 <__udivsi3>
   2e7a8:	8009883a 	mov	r4,r16
   2e7ac:	e00b883a 	mov	r5,fp
   2e7b0:	1021883a 	mov	r16,r2
   2e7b4:	0022a040 	call	22a04 <__umodsi3>
   2e7b8:	1004943a 	slli	r2,r2,16
   2e7bc:	bc2f383a 	mul	r23,r23,r16
   2e7c0:	90ffffcc 	andi	r3,r18,65535
   2e7c4:	1886b03a 	or	r3,r3,r2
   2e7c8:	d9c00117 	ldw	r7,4(sp)
   2e7cc:	da400217 	ldw	r9,8(sp)
   2e7d0:	da000317 	ldw	r8,12(sp)
   2e7d4:	1dc0062e 	bgeu	r3,r23,2e7f0 <__divdf3+0x570>
   2e7d8:	1d87883a 	add	r3,r3,r22
   2e7dc:	80bfffc4 	addi	r2,r16,-1
   2e7e0:	1d809a36 	bltu	r3,r22,2ea4c <__divdf3+0x7cc>
   2e7e4:	1dc0992e 	bgeu	r3,r23,2ea4c <__divdf3+0x7cc>
   2e7e8:	843fff84 	addi	r16,r16,-2
   2e7ec:	1d87883a 	add	r3,r3,r22
   2e7f0:	4808943a 	slli	r4,r9,16
   2e7f4:	1defc83a 	sub	r23,r3,r23
   2e7f8:	2424b03a 	or	r18,r4,r16
   2e7fc:	900ad43a 	srli	r5,r18,16
   2e800:	90bfffcc 	andi	r2,r18,65535
   2e804:	4087383a 	mul	r3,r8,r2
   2e808:	3885383a 	mul	r2,r7,r2
   2e80c:	2a11383a 	mul	r8,r5,r8
   2e810:	1808d43a 	srli	r4,r3,16
   2e814:	394f383a 	mul	r7,r7,r5
   2e818:	1205883a 	add	r2,r2,r8
   2e81c:	2089883a 	add	r4,r4,r2
   2e820:	2200022e 	bgeu	r4,r8,2e82c <__divdf3+0x5ac>
   2e824:	00800074 	movhi	r2,1
   2e828:	388f883a 	add	r7,r7,r2
   2e82c:	2004d43a 	srli	r2,r4,16
   2e830:	2008943a 	slli	r4,r4,16
   2e834:	18ffffcc 	andi	r3,r3,65535
   2e838:	11cf883a 	add	r7,r2,r7
   2e83c:	20c9883a 	add	r4,r4,r3
   2e840:	b9c00436 	bltu	r23,r7,2e854 <__divdf3+0x5d4>
   2e844:	b9c00226 	beq	r23,r7,2e850 <__divdf3+0x5d0>
   2e848:	94800054 	ori	r18,r18,1
   2e84c:	003f2a06 	br	2e4f8 <__divdf3+0x278>
   2e850:	203f2926 	beq	r4,zero,2e4f8 <__divdf3+0x278>
   2e854:	b5ef883a 	add	r23,r22,r23
   2e858:	90bfffc4 	addi	r2,r18,-1
   2e85c:	bd806936 	bltu	r23,r22,2ea04 <__divdf3+0x784>
   2e860:	b9c08636 	bltu	r23,r7,2ea7c <__divdf3+0x7fc>
   2e864:	b9c09a26 	beq	r23,r7,2ead0 <__divdf3+0x850>
   2e868:	1025883a 	mov	r18,r2
   2e86c:	003ff606 	br	2e848 <__divdf3+0x5c8>
   2e870:	04bfffc4 	movi	r18,-1
   2e874:	01400044 	movi	r5,1
   2e878:	2c4bc83a 	sub	r5,r5,r17
   2e87c:	28800e48 	cmpgei	r2,r5,57
   2e880:	103ecd1e 	bne	r2,zero,2e3b8 <__divdf3+0x138>
   2e884:	28800808 	cmpgei	r2,r5,32
   2e888:	10004d1e 	bne	r2,zero,2e9c0 <__divdf3+0x740>
   2e88c:	98810784 	addi	r2,r19,1054
   2e890:	a086983a 	sll	r3,r20,r2
   2e894:	9148d83a 	srl	r4,r18,r5
   2e898:	9084983a 	sll	r2,r18,r2
   2e89c:	a14ad83a 	srl	r5,r20,r5
   2e8a0:	1924b03a 	or	r18,r3,r4
   2e8a4:	1004c03a 	cmpne	r2,r2,zero
   2e8a8:	90a4b03a 	or	r18,r18,r2
   2e8ac:	908001cc 	andi	r2,r18,7
   2e8b0:	10000726 	beq	r2,zero,2e8d0 <__divdf3+0x650>
   2e8b4:	908003cc 	andi	r2,r18,15
   2e8b8:	10800120 	cmpeqi	r2,r2,4
   2e8bc:	1000041e 	bne	r2,zero,2e8d0 <__divdf3+0x650>
   2e8c0:	90800104 	addi	r2,r18,4
   2e8c4:	14a5803a 	cmpltu	r18,r2,r18
   2e8c8:	2c8b883a 	add	r5,r5,r18
   2e8cc:	1025883a 	mov	r18,r2
   2e8d0:	2880202c 	andhi	r2,r5,128
   2e8d4:	10007526 	beq	r2,zero,2eaac <__divdf3+0x82c>
   2e8d8:	00c00044 	movi	r3,1
   2e8dc:	000b883a 	mov	r5,zero
   2e8e0:	0025883a 	mov	r18,zero
   2e8e4:	003eb706 	br	2e3c4 <__divdf3+0x144>
   2e8e8:	84bf8b2e 	bgeu	r16,r18,2e718 <__divdf3+0x498>
   2e8ec:	d8800017 	ldw	r2,0(sp)
   2e8f0:	80a1883a 	add	r16,r16,r2
   2e8f4:	8085803a 	cmpltu	r2,r16,r2
   2e8f8:	1585883a 	add	r2,r2,r22
   2e8fc:	2089883a 	add	r4,r4,r2
   2e900:	a0bfffc4 	addi	r2,r20,-1
   2e904:	b100222e 	bgeu	r22,r4,2e990 <__divdf3+0x710>
   2e908:	20c05536 	bltu	r4,r3,2ea60 <__divdf3+0x7e0>
   2e90c:	19005326 	beq	r3,r4,2ea5c <__divdf3+0x7dc>
   2e910:	1029883a 	mov	r20,r2
   2e914:	003f8006 	br	2e718 <__divdf3+0x498>
   2e918:	927f3936 	bltu	r18,r9,2e600 <__divdf3+0x380>
   2e91c:	a00897fa 	slli	r4,r20,31
   2e920:	9004d07a 	srli	r2,r18,1
   2e924:	902097fa 	slli	r16,r18,31
   2e928:	a028d07a 	srli	r20,r20,1
   2e92c:	20a4b03a 	or	r18,r4,r2
   2e930:	003f3506 	br	2e608 <__divdf3+0x388>
   2e934:	002ff040 	call	2ff04 <__clzsi2>
   2e938:	10c00544 	addi	r3,r2,21
   2e93c:	19000748 	cmpgei	r4,r3,29
   2e940:	100b883a 	mov	r5,r2
   2e944:	d9c00017 	ldw	r7,0(sp)
   2e948:	10800804 	addi	r2,r2,32
   2e94c:	203ebc26 	beq	r4,zero,2e440 <__divdf3+0x1c0>
   2e950:	297ffe04 	addi	r5,r5,-8
   2e954:	9168983a 	sll	r20,r18,r5
   2e958:	0025883a 	mov	r18,zero
   2e95c:	003ebf06 	br	2e45c <__divdf3+0x1dc>
   2e960:	b809883a 	mov	r4,r23
   2e964:	002ff040 	call	2ff04 <__clzsi2>
   2e968:	11400544 	addi	r5,r2,21
   2e96c:	29000748 	cmpgei	r4,r5,29
   2e970:	1007883a 	mov	r3,r2
   2e974:	da000017 	ldw	r8,0(sp)
   2e978:	10800804 	addi	r2,r2,32
   2e97c:	203ecb26 	beq	r4,zero,2e4ac <__divdf3+0x22c>
   2e980:	18fffe04 	addi	r3,r3,-8
   2e984:	b8e2983a 	sll	r17,r23,r3
   2e988:	0013883a 	mov	r9,zero
   2e98c:	003ece06 	br	2e4c8 <__divdf3+0x248>
   2e990:	b13fdf1e 	bne	r22,r4,2e910 <__divdf3+0x690>
   2e994:	d9400017 	ldw	r5,0(sp)
   2e998:	817fdd36 	bltu	r16,r5,2e910 <__divdf3+0x690>
   2e99c:	003fda06 	br	2e908 <__divdf3+0x688>
   2e9a0:	227f432e 	bgeu	r4,r9,2e6b0 <__divdf3+0x430>
   2e9a4:	a53fff84 	addi	r20,r20,-2
   2e9a8:	2589883a 	add	r4,r4,r22
   2e9ac:	003f4106 	br	2e6b4 <__divdf3+0x434>
   2e9b0:	247f2c2e 	bgeu	r4,r17,2e664 <__divdf3+0x3e4>
   2e9b4:	18ffff84 	addi	r3,r3,-2
   2e9b8:	2589883a 	add	r4,r4,r22
   2e9bc:	003f2a06 	br	2e668 <__divdf3+0x3e8>
   2e9c0:	00fff844 	movi	r3,-31
   2e9c4:	1c47c83a 	sub	r3,r3,r17
   2e9c8:	29400820 	cmpeqi	r5,r5,32
   2e9cc:	a0c6d83a 	srl	r3,r20,r3
   2e9d0:	2800031e 	bne	r5,zero,2e9e0 <__divdf3+0x760>
   2e9d4:	99410f84 	addi	r5,r19,1086
   2e9d8:	a14a983a 	sll	r5,r20,r5
   2e9dc:	9164b03a 	or	r18,r18,r5
   2e9e0:	9024c03a 	cmpne	r18,r18,zero
   2e9e4:	90e4b03a 	or	r18,r18,r3
   2e9e8:	910001cc 	andi	r4,r18,7
   2e9ec:	20002b1e 	bne	r4,zero,2ea9c <__divdf3+0x81c>
   2e9f0:	000b883a 	mov	r5,zero
   2e9f4:	9024d0fa 	srli	r18,r18,3
   2e9f8:	0007883a 	mov	r3,zero
   2e9fc:	9124b03a 	or	r18,r18,r4
   2ea00:	003e7006 	br	2e3c4 <__divdf3+0x144>
   2ea04:	1025883a 	mov	r18,r2
   2ea08:	b9ff8f1e 	bne	r23,r7,2e848 <__divdf3+0x5c8>
   2ea0c:	d8800017 	ldw	r2,0(sp)
   2ea10:	20bf8d1e 	bne	r4,r2,2e848 <__divdf3+0x5c8>
   2ea14:	003eb806 	br	2e4f8 <__divdf3+0x278>
   2ea18:	047f950e 	bge	zero,r17,2e870 <__divdf3+0x5f0>
   2ea1c:	000d883a 	mov	r6,zero
   2ea20:	01000044 	movi	r4,1
   2ea24:	a129883a 	add	r20,r20,r4
   2ea28:	003eb706 	br	2e508 <__divdf3+0x288>
   2ea2c:	908003cc 	andi	r2,r18,15
   2ea30:	10800118 	cmpnei	r2,r2,4
   2ea34:	103eb326 	beq	r2,zero,2e504 <__divdf3+0x284>
   2ea38:	91800104 	addi	r6,r18,4
   2ea3c:	013ffec4 	movi	r4,-5
   2ea40:	300cd0fa 	srli	r6,r6,3
   2ea44:	2489803a 	cmpltu	r4,r4,r18
   2ea48:	003ff606 	br	2ea24 <__divdf3+0x7a4>
   2ea4c:	1021883a 	mov	r16,r2
   2ea50:	003f6706 	br	2e7f0 <__divdf3+0x570>
   2ea54:	1013883a 	mov	r9,r2
   2ea58:	003f4c06 	br	2e78c <__divdf3+0x50c>
   2ea5c:	84bfac2e 	bgeu	r16,r18,2e910 <__divdf3+0x690>
   2ea60:	d8800017 	ldw	r2,0(sp)
   2ea64:	a53fff84 	addi	r20,r20,-2
   2ea68:	80a1883a 	add	r16,r16,r2
   2ea6c:	8085803a 	cmpltu	r2,r16,r2
   2ea70:	1585883a 	add	r2,r2,r22
   2ea74:	2089883a 	add	r4,r4,r2
   2ea78:	003f2706 	br	2e718 <__divdf3+0x498>
   2ea7c:	d8c00017 	ldw	r3,0(sp)
   2ea80:	94bfff84 	addi	r18,r18,-2
   2ea84:	18c5883a 	add	r2,r3,r3
   2ea88:	10c7803a 	cmpltu	r3,r2,r3
   2ea8c:	1d8d883a 	add	r6,r3,r22
   2ea90:	b9af883a 	add	r23,r23,r6
   2ea94:	d8800015 	stw	r2,0(sp)
   2ea98:	003fdb06 	br	2ea08 <__divdf3+0x788>
   2ea9c:	908003cc 	andi	r2,r18,15
   2eaa0:	10800118 	cmpnei	r2,r2,4
   2eaa4:	000b883a 	mov	r5,zero
   2eaa8:	103f851e 	bne	r2,zero,2e8c0 <__divdf3+0x640>
   2eaac:	2804927a 	slli	r2,r5,9
   2eab0:	2808977a 	slli	r4,r5,29
   2eab4:	100ad33a 	srli	r5,r2,12
   2eab8:	003fce06 	br	2e9f4 <__divdf3+0x774>
   2eabc:	00800434 	movhi	r2,16
   2eac0:	a1400234 	orhi	r5,r20,8
   2eac4:	10bfffc4 	addi	r2,r2,-1
   2eac8:	288a703a 	and	r5,r5,r2
   2eacc:	003eb706 	br	2e5ac <__divdf3+0x32c>
   2ead0:	d8c00017 	ldw	r3,0(sp)
   2ead4:	193fe936 	bltu	r3,r4,2ea7c <__divdf3+0x7fc>
   2ead8:	1025883a 	mov	r18,r2
   2eadc:	003fcb06 	br	2ea0c <__divdf3+0x78c>

0002eae0 <__eqdf2>:
   2eae0:	2810d53a 	srli	r8,r5,20
   2eae4:	3806d53a 	srli	r3,r7,20
   2eae8:	00800434 	movhi	r2,16
   2eaec:	4201ffcc 	andi	r8,r8,2047
   2eaf0:	10bfffc4 	addi	r2,r2,-1
   2eaf4:	4241ffd8 	cmpnei	r9,r8,2047
   2eaf8:	2814d7fa 	srli	r10,r5,31
   2eafc:	3816d7fa 	srli	r11,r7,31
   2eb00:	288a703a 	and	r5,r5,r2
   2eb04:	388e703a 	and	r7,r7,r2
   2eb08:	1881ffcc 	andi	r2,r3,2047
   2eb0c:	48000626 	beq	r9,zero,2eb28 <__eqdf2+0x48>
   2eb10:	10c1ffe0 	cmpeqi	r3,r2,2047
   2eb14:	1800021e 	bne	r3,zero,2eb20 <__eqdf2+0x40>
   2eb18:	4080011e 	bne	r8,r2,2eb20 <__eqdf2+0x40>
   2eb1c:	29c00826 	beq	r5,r7,2eb40 <__eqdf2+0x60>
   2eb20:	00800044 	movi	r2,1
   2eb24:	f800283a 	ret
   2eb28:	2906b03a 	or	r3,r5,r4
   2eb2c:	183ffc1e 	bne	r3,zero,2eb20 <__eqdf2+0x40>
   2eb30:	1081ffd8 	cmpnei	r2,r2,2047
   2eb34:	103ffa1e 	bne	r2,zero,2eb20 <__eqdf2+0x40>
   2eb38:	398eb03a 	or	r7,r7,r6
   2eb3c:	383ff81e 	bne	r7,zero,2eb20 <__eqdf2+0x40>
   2eb40:	21bff71e 	bne	r4,r6,2eb20 <__eqdf2+0x40>
   2eb44:	52c00426 	beq	r10,r11,2eb58 <__eqdf2+0x78>
   2eb48:	403ff51e 	bne	r8,zero,2eb20 <__eqdf2+0x40>
   2eb4c:	290ab03a 	or	r5,r5,r4
   2eb50:	2804c03a 	cmpne	r2,r5,zero
   2eb54:	f800283a 	ret
   2eb58:	0005883a 	mov	r2,zero
   2eb5c:	f800283a 	ret

0002eb60 <__gedf2>:
   2eb60:	2810d53a 	srli	r8,r5,20
   2eb64:	3812d53a 	srli	r9,r7,20
   2eb68:	00c00434 	movhi	r3,16
   2eb6c:	4201ffcc 	andi	r8,r8,2047
   2eb70:	18ffffc4 	addi	r3,r3,-1
   2eb74:	4281ffd8 	cmpnei	r10,r8,2047
   2eb78:	2816d7fa 	srli	r11,r5,31
   2eb7c:	3804d7fa 	srli	r2,r7,31
   2eb80:	28ca703a 	and	r5,r5,r3
   2eb84:	38ce703a 	and	r7,r7,r3
   2eb88:	48c1ffcc 	andi	r3,r9,2047
   2eb8c:	50000b26 	beq	r10,zero,2ebbc <__gedf2+0x5c>
   2eb90:	1a41ffd8 	cmpnei	r9,r3,2047
   2eb94:	48000d26 	beq	r9,zero,2ebcc <__gedf2+0x6c>
   2eb98:	4000191e 	bne	r8,zero,2ec00 <__gedf2+0xa0>
   2eb9c:	2914b03a 	or	r10,r5,r4
   2eba0:	5013003a 	cmpeq	r9,r10,zero
   2eba4:	1800131e 	bne	r3,zero,2ebf4 <__gedf2+0x94>
   2eba8:	3998b03a 	or	r12,r7,r6
   2ebac:	6000111e 	bne	r12,zero,2ebf4 <__gedf2+0x94>
   2ebb0:	50000a1e 	bne	r10,zero,2ebdc <__gedf2+0x7c>
   2ebb4:	0005883a 	mov	r2,zero
   2ebb8:	f800283a 	ret
   2ebbc:	2912b03a 	or	r9,r5,r4
   2ebc0:	48001e1e 	bne	r9,zero,2ec3c <__gedf2+0xdc>
   2ebc4:	1a41ffe0 	cmpeqi	r9,r3,2047
   2ebc8:	48000d26 	beq	r9,zero,2ec00 <__gedf2+0xa0>
   2ebcc:	3992b03a 	or	r9,r7,r6
   2ebd0:	48001a1e 	bne	r9,zero,2ec3c <__gedf2+0xdc>
   2ebd4:	40000526 	beq	r8,zero,2ebec <__gedf2+0x8c>
   2ebd8:	58800d26 	beq	r11,r2,2ec10 <__gedf2+0xb0>
   2ebdc:	00800044 	movi	r2,1
   2ebe0:	58000626 	beq	r11,zero,2ebfc <__gedf2+0x9c>
   2ebe4:	00bfffc4 	movi	r2,-1
   2ebe8:	f800283a 	ret
   2ebec:	2912b03a 	or	r9,r5,r4
   2ebf0:	4813003a 	cmpeq	r9,r9,zero
   2ebf4:	483ff826 	beq	r9,zero,2ebd8 <__gedf2+0x78>
   2ebf8:	103ffa26 	beq	r2,zero,2ebe4 <__gedf2+0x84>
   2ebfc:	f800283a 	ret
   2ec00:	183ff51e 	bne	r3,zero,2ebd8 <__gedf2+0x78>
   2ec04:	3992b03a 	or	r9,r7,r6
   2ec08:	483ff31e 	bne	r9,zero,2ebd8 <__gedf2+0x78>
   2ec0c:	003ff306 	br	2ebdc <__gedf2+0x7c>
   2ec10:	1a000716 	blt	r3,r8,2ec30 <__gedf2+0xd0>
   2ec14:	40fff816 	blt	r8,r3,2ebf8 <__gedf2+0x98>
   2ec18:	397ff036 	bltu	r7,r5,2ebdc <__gedf2+0x7c>
   2ec1c:	29c00926 	beq	r5,r7,2ec44 <__gedf2+0xe4>
   2ec20:	29ffe42e 	bgeu	r5,r7,2ebb4 <__gedf2+0x54>
   2ec24:	583fef26 	beq	r11,zero,2ebe4 <__gedf2+0x84>
   2ec28:	5805883a 	mov	r2,r11
   2ec2c:	f800283a 	ret
   2ec30:	103fec1e 	bne	r2,zero,2ebe4 <__gedf2+0x84>
   2ec34:	00800044 	movi	r2,1
   2ec38:	f800283a 	ret
   2ec3c:	00bfff84 	movi	r2,-2
   2ec40:	f800283a 	ret
   2ec44:	313fe536 	bltu	r6,r4,2ebdc <__gedf2+0x7c>
   2ec48:	21bfda2e 	bgeu	r4,r6,2ebb4 <__gedf2+0x54>
   2ec4c:	003ff506 	br	2ec24 <__gedf2+0xc4>

0002ec50 <__ledf2>:
   2ec50:	2810d53a 	srli	r8,r5,20
   2ec54:	3812d53a 	srli	r9,r7,20
   2ec58:	00c00434 	movhi	r3,16
   2ec5c:	4201ffcc 	andi	r8,r8,2047
   2ec60:	18ffffc4 	addi	r3,r3,-1
   2ec64:	4281ffd8 	cmpnei	r10,r8,2047
   2ec68:	2816d7fa 	srli	r11,r5,31
   2ec6c:	3804d7fa 	srli	r2,r7,31
   2ec70:	28ca703a 	and	r5,r5,r3
   2ec74:	38ce703a 	and	r7,r7,r3
   2ec78:	48c1ffcc 	andi	r3,r9,2047
   2ec7c:	50000b26 	beq	r10,zero,2ecac <__ledf2+0x5c>
   2ec80:	1a41ffd8 	cmpnei	r9,r3,2047
   2ec84:	48000d26 	beq	r9,zero,2ecbc <__ledf2+0x6c>
   2ec88:	40001b1e 	bne	r8,zero,2ecf8 <__ledf2+0xa8>
   2ec8c:	2914b03a 	or	r10,r5,r4
   2ec90:	5013003a 	cmpeq	r9,r10,zero
   2ec94:	18000e1e 	bne	r3,zero,2ecd0 <__ledf2+0x80>
   2ec98:	3998b03a 	or	r12,r7,r6
   2ec9c:	60000c1e 	bne	r12,zero,2ecd0 <__ledf2+0x80>
   2eca0:	50000d1e 	bne	r10,zero,2ecd8 <__ledf2+0x88>
   2eca4:	0005883a 	mov	r2,zero
   2eca8:	f800283a 	ret
   2ecac:	2912b03a 	or	r9,r5,r4
   2ecb0:	48000d1e 	bne	r9,zero,2ece8 <__ledf2+0x98>
   2ecb4:	1a41ffe0 	cmpeqi	r9,r3,2047
   2ecb8:	48000f26 	beq	r9,zero,2ecf8 <__ledf2+0xa8>
   2ecbc:	3992b03a 	or	r9,r7,r6
   2ecc0:	4800091e 	bne	r9,zero,2ece8 <__ledf2+0x98>
   2ecc4:	4000031e 	bne	r8,zero,2ecd4 <__ledf2+0x84>
   2ecc8:	2912b03a 	or	r9,r5,r4
   2eccc:	4813003a 	cmpeq	r9,r9,zero
   2ecd0:	4800071e 	bne	r9,zero,2ecf0 <__ledf2+0xa0>
   2ecd4:	58800c26 	beq	r11,r2,2ed08 <__ledf2+0xb8>
   2ecd8:	00800044 	movi	r2,1
   2ecdc:	58000526 	beq	r11,zero,2ecf4 <__ledf2+0xa4>
   2ece0:	00bfffc4 	movi	r2,-1
   2ece4:	f800283a 	ret
   2ece8:	00800084 	movi	r2,2
   2ecec:	f800283a 	ret
   2ecf0:	103ffb26 	beq	r2,zero,2ece0 <__ledf2+0x90>
   2ecf4:	f800283a 	ret
   2ecf8:	183ff61e 	bne	r3,zero,2ecd4 <__ledf2+0x84>
   2ecfc:	3992b03a 	or	r9,r7,r6
   2ed00:	483ff41e 	bne	r9,zero,2ecd4 <__ledf2+0x84>
   2ed04:	003ff406 	br	2ecd8 <__ledf2+0x88>
   2ed08:	1a00030e 	bge	r3,r8,2ed18 <__ledf2+0xc8>
   2ed0c:	103ff41e 	bne	r2,zero,2ece0 <__ledf2+0x90>
   2ed10:	00800044 	movi	r2,1
   2ed14:	f800283a 	ret
   2ed18:	40fff516 	blt	r8,r3,2ecf0 <__ledf2+0xa0>
   2ed1c:	397fee36 	bltu	r7,r5,2ecd8 <__ledf2+0x88>
   2ed20:	29c00426 	beq	r5,r7,2ed34 <__ledf2+0xe4>
   2ed24:	29ffdf2e 	bgeu	r5,r7,2eca4 <__ledf2+0x54>
   2ed28:	583fed26 	beq	r11,zero,2ece0 <__ledf2+0x90>
   2ed2c:	5805883a 	mov	r2,r11
   2ed30:	f800283a 	ret
   2ed34:	313fe836 	bltu	r6,r4,2ecd8 <__ledf2+0x88>
   2ed38:	21bfda2e 	bgeu	r4,r6,2eca4 <__ledf2+0x54>
   2ed3c:	003ffa06 	br	2ed28 <__ledf2+0xd8>

0002ed40 <__muldf3>:
   2ed40:	2804d53a 	srli	r2,r5,20
   2ed44:	defff504 	addi	sp,sp,-44
   2ed48:	02000434 	movhi	r8,16
   2ed4c:	df000915 	stw	fp,36(sp)
   2ed50:	dd000515 	stw	r20,20(sp)
   2ed54:	dcc00415 	stw	r19,16(sp)
   2ed58:	dc000115 	stw	r16,4(sp)
   2ed5c:	423fffc4 	addi	r8,r8,-1
   2ed60:	dfc00a15 	stw	ra,40(sp)
   2ed64:	ddc00815 	stw	r23,32(sp)
   2ed68:	dd800715 	stw	r22,28(sp)
   2ed6c:	dd400615 	stw	r21,24(sp)
   2ed70:	dc800315 	stw	r18,12(sp)
   2ed74:	dc400215 	stw	r17,8(sp)
   2ed78:	1081ffcc 	andi	r2,r2,2047
   2ed7c:	2828d7fa 	srli	r20,r5,31
   2ed80:	2027883a 	mov	r19,r4
   2ed84:	3039883a 	mov	fp,r6
   2ed88:	2a20703a 	and	r16,r5,r8
   2ed8c:	10005a26 	beq	r2,zero,2eef8 <__muldf3+0x1b8>
   2ed90:	10c1ffe0 	cmpeqi	r3,r2,2047
   2ed94:	18006c1e 	bne	r3,zero,2ef48 <__muldf3+0x208>
   2ed98:	800a90fa 	slli	r5,r16,3
   2ed9c:	2020d77a 	srli	r16,r4,29
   2eda0:	202490fa 	slli	r18,r4,3
   2eda4:	14ff0044 	addi	r19,r2,-1023
   2eda8:	8160b03a 	or	r16,r16,r5
   2edac:	84002034 	orhi	r16,r16,128
   2edb0:	002b883a 	mov	r21,zero
   2edb4:	002d883a 	mov	r22,zero
   2edb8:	3804d53a 	srli	r2,r7,20
   2edbc:	00c00434 	movhi	r3,16
   2edc0:	18ffffc4 	addi	r3,r3,-1
   2edc4:	1081ffcc 	andi	r2,r2,2047
   2edc8:	382ed7fa 	srli	r23,r7,31
   2edcc:	38e2703a 	and	r17,r7,r3
   2edd0:	10006426 	beq	r2,zero,2ef64 <__muldf3+0x224>
   2edd4:	10c1ffe0 	cmpeqi	r3,r2,2047
   2edd8:	1800211e 	bne	r3,zero,2ee60 <__muldf3+0x120>
   2eddc:	880690fa 	slli	r3,r17,3
   2ede0:	e022d77a 	srli	r17,fp,29
   2ede4:	e00a90fa 	slli	r5,fp,3
   2ede8:	10bf0044 	addi	r2,r2,-1023
   2edec:	88e2b03a 	or	r17,r17,r3
   2edf0:	8c402034 	orhi	r17,r17,128
   2edf4:	98a7883a 	add	r19,r19,r2
   2edf8:	0007883a 	mov	r3,zero
   2edfc:	a9000428 	cmpgeui	r4,r21,16
   2ee00:	a5ccf03a 	xor	r6,r20,r23
   2ee04:	9a000044 	addi	r8,r19,1
   2ee08:	20006b1e 	bne	r4,zero,2efb8 <__muldf3+0x278>
   2ee0c:	a80490ba 	slli	r2,r21,2
   2ee10:	010000f4 	movhi	r4,3
   2ee14:	1109883a 	add	r4,r2,r4
   2ee18:	20bb8817 	ldw	r2,-4576(r4)
   2ee1c:	1000683a 	jmp	r2
   2ee20:	0002efb8 	rdprs	zero,zero,3006
   2ee24:	0002ee80 	call	2ee8 <__alt_mem_onchip_memory2_0-0x1d118>
   2ee28:	0002ee80 	call	2ee8 <__alt_mem_onchip_memory2_0-0x1d118>
   2ee2c:	0002ee7c 	xorhi	zero,zero,3001
   2ee30:	0002ee8c 	andi	zero,zero,3002
   2ee34:	0002ee8c 	andi	zero,zero,3002
   2ee38:	0002f208 	cmpgei	zero,zero,3016
   2ee3c:	0002ee7c 	xorhi	zero,zero,3001
   2ee40:	0002ee8c 	andi	zero,zero,3002
   2ee44:	0002f208 	cmpgei	zero,zero,3016
   2ee48:	0002ee8c 	andi	zero,zero,3002
   2ee4c:	0002ee7c 	xorhi	zero,zero,3001
   2ee50:	0002f1b8 	rdprs	zero,zero,3014
   2ee54:	0002f1b8 	rdprs	zero,zero,3014
   2ee58:	0002f1b8 	rdprs	zero,zero,3014
   2ee5c:	0002f294 	movui	zero,3018
   2ee60:	e44ab03a 	or	r5,fp,r17
   2ee64:	9cc1ffc4 	addi	r19,r19,2047
   2ee68:	2800d51e 	bne	r5,zero,2f1c0 <__muldf3+0x480>
   2ee6c:	ad400094 	ori	r21,r21,2
   2ee70:	0023883a 	mov	r17,zero
   2ee74:	00c00084 	movi	r3,2
   2ee78:	003fe006 	br	2edfc <__muldf3+0xbc>
   2ee7c:	b80d883a 	mov	r6,r23
   2ee80:	8821883a 	mov	r16,r17
   2ee84:	2825883a 	mov	r18,r5
   2ee88:	182d883a 	mov	r22,r3
   2ee8c:	b08000a0 	cmpeqi	r2,r22,2
   2ee90:	1000451e 	bne	r2,zero,2efa8 <__muldf3+0x268>
   2ee94:	b08000e0 	cmpeqi	r2,r22,3
   2ee98:	1001401e 	bne	r2,zero,2f39c <__muldf3+0x65c>
   2ee9c:	b0800060 	cmpeqi	r2,r22,1
   2eea0:	1000ab26 	beq	r2,zero,2f150 <__muldf3+0x410>
   2eea4:	0007883a 	mov	r3,zero
   2eea8:	0021883a 	mov	r16,zero
   2eeac:	0025883a 	mov	r18,zero
   2eeb0:	30803fcc 	andi	r2,r6,255
   2eeb4:	1806953a 	slli	r3,r3,20
   2eeb8:	100497fa 	slli	r2,r2,31
   2eebc:	1c06b03a 	or	r3,r3,r16
   2eec0:	1886b03a 	or	r3,r3,r2
   2eec4:	9005883a 	mov	r2,r18
   2eec8:	dfc00a17 	ldw	ra,40(sp)
   2eecc:	df000917 	ldw	fp,36(sp)
   2eed0:	ddc00817 	ldw	r23,32(sp)
   2eed4:	dd800717 	ldw	r22,28(sp)
   2eed8:	dd400617 	ldw	r21,24(sp)
   2eedc:	dd000517 	ldw	r20,20(sp)
   2eee0:	dcc00417 	ldw	r19,16(sp)
   2eee4:	dc800317 	ldw	r18,12(sp)
   2eee8:	dc400217 	ldw	r17,8(sp)
   2eeec:	dc000117 	ldw	r16,4(sp)
   2eef0:	dec00b04 	addi	sp,sp,44
   2eef4:	f800283a 	ret
   2eef8:	8124b03a 	or	r18,r16,r4
   2eefc:	9000bd26 	beq	r18,zero,2f1f4 <__muldf3+0x4b4>
   2ef00:	d9c00015 	stw	r7,0(sp)
   2ef04:	8000ff26 	beq	r16,zero,2f304 <__muldf3+0x5c4>
   2ef08:	8009883a 	mov	r4,r16
   2ef0c:	002ff040 	call	2ff04 <__clzsi2>
   2ef10:	d9c00017 	ldw	r7,0(sp)
   2ef14:	113ffd44 	addi	r4,r2,-11
   2ef18:	00c00744 	movi	r3,29
   2ef1c:	14bffe04 	addi	r18,r2,-8
   2ef20:	1907c83a 	sub	r3,r3,r4
   2ef24:	84a0983a 	sll	r16,r16,r18
   2ef28:	98c6d83a 	srl	r3,r19,r3
   2ef2c:	9ca4983a 	sll	r18,r19,r18
   2ef30:	1c20b03a 	or	r16,r3,r16
   2ef34:	04ff0344 	movi	r19,-1011
   2ef38:	98a7c83a 	sub	r19,r19,r2
   2ef3c:	002b883a 	mov	r21,zero
   2ef40:	002d883a 	mov	r22,zero
   2ef44:	003f9c06 	br	2edb8 <__muldf3+0x78>
   2ef48:	8124b03a 	or	r18,r16,r4
   2ef4c:	9000a41e 	bne	r18,zero,2f1e0 <__muldf3+0x4a0>
   2ef50:	0021883a 	mov	r16,zero
   2ef54:	05400204 	movi	r21,8
   2ef58:	04c1ffc4 	movi	r19,2047
   2ef5c:	05800084 	movi	r22,2
   2ef60:	003f9506 	br	2edb8 <__muldf3+0x78>
   2ef64:	e44ab03a 	or	r5,fp,r17
   2ef68:	28009926 	beq	r5,zero,2f1d0 <__muldf3+0x490>
   2ef6c:	8800da26 	beq	r17,zero,2f2d8 <__muldf3+0x598>
   2ef70:	8809883a 	mov	r4,r17
   2ef74:	002ff040 	call	2ff04 <__clzsi2>
   2ef78:	11bffd44 	addi	r6,r2,-11
   2ef7c:	01000744 	movi	r4,29
   2ef80:	117ffe04 	addi	r5,r2,-8
   2ef84:	2189c83a 	sub	r4,r4,r6
   2ef88:	8962983a 	sll	r17,r17,r5
   2ef8c:	e108d83a 	srl	r4,fp,r4
   2ef90:	e14a983a 	sll	r5,fp,r5
   2ef94:	2462b03a 	or	r17,r4,r17
   2ef98:	9885c83a 	sub	r2,r19,r2
   2ef9c:	14ff0344 	addi	r19,r2,-1011
   2efa0:	0007883a 	mov	r3,zero
   2efa4:	003f9506 	br	2edfc <__muldf3+0xbc>
   2efa8:	00c1ffc4 	movi	r3,2047
   2efac:	0021883a 	mov	r16,zero
   2efb0:	0025883a 	mov	r18,zero
   2efb4:	003fbe06 	br	2eeb0 <__muldf3+0x170>
   2efb8:	9008d43a 	srli	r4,r18,16
   2efbc:	281ed43a 	srli	r15,r5,16
   2efc0:	94bfffcc 	andi	r18,r18,65535
   2efc4:	297fffcc 	andi	r5,r5,65535
   2efc8:	2c85383a 	mul	r2,r5,r18
   2efcc:	214f383a 	mul	r7,r4,r5
   2efd0:	7c87383a 	mul	r3,r15,r18
   2efd4:	1012d43a 	srli	r9,r2,16
   2efd8:	23dd383a 	mul	r14,r4,r15
   2efdc:	19c7883a 	add	r3,r3,r7
   2efe0:	48d3883a 	add	r9,r9,r3
   2efe4:	49c0022e 	bgeu	r9,r7,2eff0 <__muldf3+0x2b0>
   2efe8:	00c00074 	movhi	r3,1
   2efec:	70dd883a 	add	r14,r14,r3
   2eff0:	881ad43a 	srli	r13,r17,16
   2eff4:	8c7fffcc 	andi	r17,r17,65535
   2eff8:	8c87383a 	mul	r3,r17,r18
   2effc:	244f383a 	mul	r7,r4,r17
   2f000:	6ca5383a 	mul	r18,r13,r18
   2f004:	1816d43a 	srli	r11,r3,16
   2f008:	4814943a 	slli	r10,r9,16
   2f00c:	91e5883a 	add	r18,r18,r7
   2f010:	10bfffcc 	andi	r2,r2,65535
   2f014:	5c97883a 	add	r11,r11,r18
   2f018:	4818d43a 	srli	r12,r9,16
   2f01c:	2349383a 	mul	r4,r4,r13
   2f020:	5095883a 	add	r10,r10,r2
   2f024:	59c0022e 	bgeu	r11,r7,2f030 <__muldf3+0x2f0>
   2f028:	00800074 	movhi	r2,1
   2f02c:	2089883a 	add	r4,r4,r2
   2f030:	8028d43a 	srli	r20,r16,16
   2f034:	827fffcc 	andi	r9,r16,65535
   2f038:	2a6b383a 	mul	r21,r5,r9
   2f03c:	7a45383a 	mul	r2,r15,r9
   2f040:	a14b383a 	mul	r5,r20,r5
   2f044:	580e943a 	slli	r7,r11,16
   2f048:	a82cd43a 	srli	r22,r21,16
   2f04c:	5824d43a 	srli	r18,r11,16
   2f050:	18ffffcc 	andi	r3,r3,65535
   2f054:	1145883a 	add	r2,r2,r5
   2f058:	38cf883a 	add	r7,r7,r3
   2f05c:	b085883a 	add	r2,r22,r2
   2f060:	7d1f383a 	mul	r15,r15,r20
   2f064:	9117883a 	add	r11,r18,r4
   2f068:	61c7883a 	add	r3,r12,r7
   2f06c:	1140022e 	bgeu	r2,r5,2f078 <__muldf3+0x338>
   2f070:	01000074 	movhi	r4,1
   2f074:	791f883a 	add	r15,r15,r4
   2f078:	8a65383a 	mul	r18,r17,r9
   2f07c:	6a53383a 	mul	r9,r13,r9
   2f080:	a463383a 	mul	r17,r20,r17
   2f084:	9020d43a 	srli	r16,r18,16
   2f088:	100ad43a 	srli	r5,r2,16
   2f08c:	1004943a 	slli	r2,r2,16
   2f090:	4c53883a 	add	r9,r9,r17
   2f094:	ab3fffcc 	andi	r12,r21,65535
   2f098:	8253883a 	add	r9,r16,r9
   2f09c:	6d1b383a 	mul	r13,r13,r20
   2f0a0:	2bdf883a 	add	r15,r5,r15
   2f0a4:	1305883a 	add	r2,r2,r12
   2f0a8:	4c40022e 	bgeu	r9,r17,2f0b4 <__muldf3+0x374>
   2f0ac:	01000074 	movhi	r4,1
   2f0b0:	691b883a 	add	r13,r13,r4
   2f0b4:	4808943a 	slli	r4,r9,16
   2f0b8:	917fffcc 	andi	r5,r18,65535
   2f0bc:	1b87883a 	add	r3,r3,r14
   2f0c0:	2149883a 	add	r4,r4,r5
   2f0c4:	19cf803a 	cmpltu	r7,r3,r7
   2f0c8:	22c9883a 	add	r4,r4,r11
   2f0cc:	1887883a 	add	r3,r3,r2
   2f0d0:	21dd883a 	add	r14,r4,r7
   2f0d4:	1885803a 	cmpltu	r2,r3,r2
   2f0d8:	73cb883a 	add	r5,r14,r15
   2f0dc:	4812d43a 	srli	r9,r9,16
   2f0e0:	2899883a 	add	r12,r5,r2
   2f0e4:	22c9803a 	cmpltu	r4,r4,r11
   2f0e8:	71e1803a 	cmpltu	r16,r14,r7
   2f0ec:	2bcb803a 	cmpltu	r5,r5,r15
   2f0f0:	2420b03a 	or	r16,r4,r16
   2f0f4:	6085803a 	cmpltu	r2,r12,r2
   2f0f8:	2884b03a 	or	r2,r5,r2
   2f0fc:	8261883a 	add	r16,r16,r9
   2f100:	1824927a 	slli	r18,r3,9
   2f104:	80a1883a 	add	r16,r16,r2
   2f108:	8361883a 	add	r16,r16,r13
   2f10c:	8020927a 	slli	r16,r16,9
   2f110:	1806d5fa 	srli	r3,r3,23
   2f114:	600ad5fa 	srli	r5,r12,23
   2f118:	6004927a 	slli	r2,r12,9
   2f11c:	92a4b03a 	or	r18,r18,r10
   2f120:	9024c03a 	cmpne	r18,r18,zero
   2f124:	90e4b03a 	or	r18,r18,r3
   2f128:	80c0402c 	andhi	r3,r16,256
   2f12c:	90a4b03a 	or	r18,r18,r2
   2f130:	8160b03a 	or	r16,r16,r5
   2f134:	18007e26 	beq	r3,zero,2f330 <__muldf3+0x5f0>
   2f138:	9006d07a 	srli	r3,r18,1
   2f13c:	800497fa 	slli	r2,r16,31
   2f140:	9480004c 	andi	r18,r18,1
   2f144:	8020d07a 	srli	r16,r16,1
   2f148:	1c86b03a 	or	r3,r3,r18
   2f14c:	18a4b03a 	or	r18,r3,r2
   2f150:	4100ffc4 	addi	r4,r8,1023
   2f154:	0100320e 	bge	zero,r4,2f220 <__muldf3+0x4e0>
   2f158:	908001cc 	andi	r2,r18,7
   2f15c:	10000726 	beq	r2,zero,2f17c <__muldf3+0x43c>
   2f160:	908003cc 	andi	r2,r18,15
   2f164:	10800120 	cmpeqi	r2,r2,4
   2f168:	1000041e 	bne	r2,zero,2f17c <__muldf3+0x43c>
   2f16c:	90800104 	addi	r2,r18,4
   2f170:	14a5803a 	cmpltu	r18,r2,r18
   2f174:	84a1883a 	add	r16,r16,r18
   2f178:	1025883a 	mov	r18,r2
   2f17c:	8080402c 	andhi	r2,r16,256
   2f180:	10000426 	beq	r2,zero,2f194 <__muldf3+0x454>
   2f184:	00bfc034 	movhi	r2,65280
   2f188:	10bfffc4 	addi	r2,r2,-1
   2f18c:	80a0703a 	and	r16,r16,r2
   2f190:	41010004 	addi	r4,r8,1024
   2f194:	2081ffc8 	cmpgei	r2,r4,2047
   2f198:	103f831e 	bne	r2,zero,2efa8 <__muldf3+0x268>
   2f19c:	8004977a 	slli	r2,r16,29
   2f1a0:	9024d0fa 	srli	r18,r18,3
   2f1a4:	8020927a 	slli	r16,r16,9
   2f1a8:	20c1ffcc 	andi	r3,r4,2047
   2f1ac:	14a4b03a 	or	r18,r2,r18
   2f1b0:	8020d33a 	srli	r16,r16,12
   2f1b4:	003f3e06 	br	2eeb0 <__muldf3+0x170>
   2f1b8:	a00d883a 	mov	r6,r20
   2f1bc:	003f3306 	br	2ee8c <__muldf3+0x14c>
   2f1c0:	ad4000d4 	ori	r21,r21,3
   2f1c4:	e00b883a 	mov	r5,fp
   2f1c8:	00c000c4 	movi	r3,3
   2f1cc:	003f0b06 	br	2edfc <__muldf3+0xbc>
   2f1d0:	ad400054 	ori	r21,r21,1
   2f1d4:	0023883a 	mov	r17,zero
   2f1d8:	00c00044 	movi	r3,1
   2f1dc:	003f0706 	br	2edfc <__muldf3+0xbc>
   2f1e0:	2025883a 	mov	r18,r4
   2f1e4:	05400304 	movi	r21,12
   2f1e8:	04c1ffc4 	movi	r19,2047
   2f1ec:	058000c4 	movi	r22,3
   2f1f0:	003ef106 	br	2edb8 <__muldf3+0x78>
   2f1f4:	0021883a 	mov	r16,zero
   2f1f8:	05400104 	movi	r21,4
   2f1fc:	0027883a 	mov	r19,zero
   2f200:	05800044 	movi	r22,1
   2f204:	003eec06 	br	2edb8 <__muldf3+0x78>
   2f208:	04000434 	movhi	r16,16
   2f20c:	000d883a 	mov	r6,zero
   2f210:	843fffc4 	addi	r16,r16,-1
   2f214:	04bfffc4 	movi	r18,-1
   2f218:	00c1ffc4 	movi	r3,2047
   2f21c:	003f2406 	br	2eeb0 <__muldf3+0x170>
   2f220:	00800044 	movi	r2,1
   2f224:	1105c83a 	sub	r2,r2,r4
   2f228:	10c00e48 	cmpgei	r3,r2,57
   2f22c:	183f1d1e 	bne	r3,zero,2eea4 <__muldf3+0x164>
   2f230:	10c00808 	cmpgei	r3,r2,32
   2f234:	1800401e 	bne	r3,zero,2f338 <__muldf3+0x5f8>
   2f238:	42010784 	addi	r8,r8,1054
   2f23c:	8206983a 	sll	r3,r16,r8
   2f240:	9088d83a 	srl	r4,r18,r2
   2f244:	9210983a 	sll	r8,r18,r8
   2f248:	80a0d83a 	srl	r16,r16,r2
   2f24c:	1904b03a 	or	r2,r3,r4
   2f250:	4024c03a 	cmpne	r18,r8,zero
   2f254:	1484b03a 	or	r2,r2,r18
   2f258:	10c001cc 	andi	r3,r2,7
   2f25c:	18000726 	beq	r3,zero,2f27c <__muldf3+0x53c>
   2f260:	10c003cc 	andi	r3,r2,15
   2f264:	18c00120 	cmpeqi	r3,r3,4
   2f268:	1800041e 	bne	r3,zero,2f27c <__muldf3+0x53c>
   2f26c:	10c00104 	addi	r3,r2,4
   2f270:	1885803a 	cmpltu	r2,r3,r2
   2f274:	80a1883a 	add	r16,r16,r2
   2f278:	1805883a 	mov	r2,r3
   2f27c:	80c0202c 	andhi	r3,r16,128
   2f280:	18004226 	beq	r3,zero,2f38c <__muldf3+0x64c>
   2f284:	00c00044 	movi	r3,1
   2f288:	0021883a 	mov	r16,zero
   2f28c:	0025883a 	mov	r18,zero
   2f290:	003f0706 	br	2eeb0 <__muldf3+0x170>
   2f294:	8080022c 	andhi	r2,r16,8
   2f298:	10000926 	beq	r2,zero,2f2c0 <__muldf3+0x580>
   2f29c:	8880022c 	andhi	r2,r17,8
   2f2a0:	1000071e 	bne	r2,zero,2f2c0 <__muldf3+0x580>
   2f2a4:	00800434 	movhi	r2,16
   2f2a8:	8c000234 	orhi	r16,r17,8
   2f2ac:	10bfffc4 	addi	r2,r2,-1
   2f2b0:	80a0703a 	and	r16,r16,r2
   2f2b4:	b80d883a 	mov	r6,r23
   2f2b8:	2825883a 	mov	r18,r5
   2f2bc:	003fd606 	br	2f218 <__muldf3+0x4d8>
   2f2c0:	00800434 	movhi	r2,16
   2f2c4:	84000234 	orhi	r16,r16,8
   2f2c8:	10bfffc4 	addi	r2,r2,-1
   2f2cc:	80a0703a 	and	r16,r16,r2
   2f2d0:	a00d883a 	mov	r6,r20
   2f2d4:	003fd006 	br	2f218 <__muldf3+0x4d8>
   2f2d8:	e009883a 	mov	r4,fp
   2f2dc:	002ff040 	call	2ff04 <__clzsi2>
   2f2e0:	11800544 	addi	r6,r2,21
   2f2e4:	31000748 	cmpgei	r4,r6,29
   2f2e8:	1007883a 	mov	r3,r2
   2f2ec:	10800804 	addi	r2,r2,32
   2f2f0:	203f2226 	beq	r4,zero,2ef7c <__muldf3+0x23c>
   2f2f4:	1c7ffe04 	addi	r17,r3,-8
   2f2f8:	e462983a 	sll	r17,fp,r17
   2f2fc:	000b883a 	mov	r5,zero
   2f300:	003f2506 	br	2ef98 <__muldf3+0x258>
   2f304:	002ff040 	call	2ff04 <__clzsi2>
   2f308:	11000544 	addi	r4,r2,21
   2f30c:	21400748 	cmpgei	r5,r4,29
   2f310:	1007883a 	mov	r3,r2
   2f314:	d9c00017 	ldw	r7,0(sp)
   2f318:	10800804 	addi	r2,r2,32
   2f31c:	283efe26 	beq	r5,zero,2ef18 <__muldf3+0x1d8>
   2f320:	1c3ffe04 	addi	r16,r3,-8
   2f324:	9c20983a 	sll	r16,r19,r16
   2f328:	0025883a 	mov	r18,zero
   2f32c:	003f0106 	br	2ef34 <__muldf3+0x1f4>
   2f330:	9811883a 	mov	r8,r19
   2f334:	003f8606 	br	2f150 <__muldf3+0x410>
   2f338:	00fff844 	movi	r3,-31
   2f33c:	1907c83a 	sub	r3,r3,r4
   2f340:	10800820 	cmpeqi	r2,r2,32
   2f344:	80c6d83a 	srl	r3,r16,r3
   2f348:	1000031e 	bne	r2,zero,2f358 <__muldf3+0x618>
   2f34c:	42010f84 	addi	r8,r8,1086
   2f350:	8220983a 	sll	r16,r16,r8
   2f354:	9424b03a 	or	r18,r18,r16
   2f358:	9024c03a 	cmpne	r18,r18,zero
   2f35c:	90c4b03a 	or	r2,r18,r3
   2f360:	148001cc 	andi	r18,r2,7
   2f364:	9000051e 	bne	r18,zero,2f37c <__muldf3+0x63c>
   2f368:	0021883a 	mov	r16,zero
   2f36c:	1004d0fa 	srli	r2,r2,3
   2f370:	0007883a 	mov	r3,zero
   2f374:	14a4b03a 	or	r18,r2,r18
   2f378:	003ecd06 	br	2eeb0 <__muldf3+0x170>
   2f37c:	10c003cc 	andi	r3,r2,15
   2f380:	18c00118 	cmpnei	r3,r3,4
   2f384:	0021883a 	mov	r16,zero
   2f388:	183fb81e 	bne	r3,zero,2f26c <__muldf3+0x52c>
   2f38c:	8006927a 	slli	r3,r16,9
   2f390:	8024977a 	slli	r18,r16,29
   2f394:	1820d33a 	srli	r16,r3,12
   2f398:	003ff406 	br	2f36c <__muldf3+0x62c>
   2f39c:	00800434 	movhi	r2,16
   2f3a0:	84000234 	orhi	r16,r16,8
   2f3a4:	10bfffc4 	addi	r2,r2,-1
   2f3a8:	80a0703a 	and	r16,r16,r2
   2f3ac:	003f9a06 	br	2f218 <__muldf3+0x4d8>

0002f3b0 <__subdf3>:
   2f3b0:	00c00434 	movhi	r3,16
   2f3b4:	3812d53a 	srli	r9,r7,20
   2f3b8:	18ffffc4 	addi	r3,r3,-1
   2f3bc:	defffb04 	addi	sp,sp,-20
   2f3c0:	28d0703a 	and	r8,r5,r3
   2f3c4:	38c6703a 	and	r3,r7,r3
   2f3c8:	2804d7fa 	srli	r2,r5,31
   2f3cc:	401090fa 	slli	r8,r8,3
   2f3d0:	280ad53a 	srli	r5,r5,20
   2f3d4:	180690fa 	slli	r3,r3,3
   2f3d8:	dcc00315 	stw	r19,12(sp)
   2f3dc:	dc400115 	stw	r17,4(sp)
   2f3e0:	2026d77a 	srli	r19,r4,29
   2f3e4:	3022d77a 	srli	r17,r6,29
   2f3e8:	4b41ffcc 	andi	r13,r9,2047
   2f3ec:	dc800215 	stw	r18,8(sp)
   2f3f0:	dc000015 	stw	r16,0(sp)
   2f3f4:	dfc00415 	stw	ra,16(sp)
   2f3f8:	6a41ffe0 	cmpeqi	r9,r13,2047
   2f3fc:	1025883a 	mov	r18,r2
   2f400:	201690fa 	slli	r11,r4,3
   2f404:	380ed7fa 	srli	r7,r7,31
   2f408:	301490fa 	slli	r10,r6,3
   2f40c:	2c01ffcc 	andi	r16,r5,2047
   2f410:	10803fcc 	andi	r2,r2,255
   2f414:	9a10b03a 	or	r8,r19,r8
   2f418:	88c6b03a 	or	r3,r17,r3
   2f41c:	48006e1e 	bne	r9,zero,2f5d8 <__subdf3+0x228>
   2f420:	3a40005c 	xori	r9,r7,1
   2f424:	834bc83a 	sub	r5,r16,r13
   2f428:	12405726 	beq	r2,r9,2f588 <__subdf3+0x1d8>
   2f42c:	01406f0e 	bge	zero,r5,2f5ec <__subdf3+0x23c>
   2f430:	68007a26 	beq	r13,zero,2f61c <__subdf3+0x26c>
   2f434:	8081ffd8 	cmpnei	r2,r16,2047
   2f438:	10019f26 	beq	r2,zero,2fab8 <__subdf3+0x708>
   2f43c:	18c02034 	orhi	r3,r3,128
   2f440:	28800e48 	cmpgei	r2,r5,57
   2f444:	1000f91e 	bne	r2,zero,2f82c <__subdf3+0x47c>
   2f448:	28800808 	cmpgei	r2,r5,32
   2f44c:	1001451e 	bne	r2,zero,2f964 <__subdf3+0x5b4>
   2f450:	00800804 	movi	r2,32
   2f454:	1145c83a 	sub	r2,r2,r5
   2f458:	18a2983a 	sll	r17,r3,r2
   2f45c:	5148d83a 	srl	r4,r10,r5
   2f460:	5084983a 	sll	r2,r10,r2
   2f464:	1946d83a 	srl	r3,r3,r5
   2f468:	8922b03a 	or	r17,r17,r4
   2f46c:	1004c03a 	cmpne	r2,r2,zero
   2f470:	88a2b03a 	or	r17,r17,r2
   2f474:	40d1c83a 	sub	r8,r8,r3
   2f478:	5c63c83a 	sub	r17,r11,r17
   2f47c:	5c49803a 	cmpltu	r4,r11,r17
   2f480:	4109c83a 	sub	r4,r8,r4
   2f484:	2080202c 	andhi	r2,r4,128
   2f488:	1000a526 	beq	r2,zero,2f720 <__subdf3+0x370>
   2f48c:	04c02034 	movhi	r19,128
   2f490:	9cffffc4 	addi	r19,r19,-1
   2f494:	24e6703a 	and	r19,r4,r19
   2f498:	9800db26 	beq	r19,zero,2f808 <__subdf3+0x458>
   2f49c:	9809883a 	mov	r4,r19
   2f4a0:	002ff040 	call	2ff04 <__clzsi2>
   2f4a4:	117ffe04 	addi	r5,r2,-8
   2f4a8:	01000804 	movi	r4,32
   2f4ac:	2149c83a 	sub	r4,r4,r5
   2f4b0:	8906d83a 	srl	r3,r17,r4
   2f4b4:	9948983a 	sll	r4,r19,r5
   2f4b8:	8962983a 	sll	r17,r17,r5
   2f4bc:	1908b03a 	or	r4,r3,r4
   2f4c0:	2c00cc16 	blt	r5,r16,2f7f4 <__subdf3+0x444>
   2f4c4:	2c0bc83a 	sub	r5,r5,r16
   2f4c8:	28c00044 	addi	r3,r5,1
   2f4cc:	18800808 	cmpgei	r2,r3,32
   2f4d0:	1001171e 	bne	r2,zero,2f930 <__subdf3+0x580>
   2f4d4:	00800804 	movi	r2,32
   2f4d8:	10c5c83a 	sub	r2,r2,r3
   2f4dc:	88cad83a 	srl	r5,r17,r3
   2f4e0:	88a2983a 	sll	r17,r17,r2
   2f4e4:	2084983a 	sll	r2,r4,r2
   2f4e8:	20c8d83a 	srl	r4,r4,r3
   2f4ec:	8822c03a 	cmpne	r17,r17,zero
   2f4f0:	1144b03a 	or	r2,r2,r5
   2f4f4:	1462b03a 	or	r17,r2,r17
   2f4f8:	0021883a 	mov	r16,zero
   2f4fc:	888001cc 	andi	r2,r17,7
   2f500:	10000726 	beq	r2,zero,2f520 <__subdf3+0x170>
   2f504:	888003cc 	andi	r2,r17,15
   2f508:	10800120 	cmpeqi	r2,r2,4
   2f50c:	1000041e 	bne	r2,zero,2f520 <__subdf3+0x170>
   2f510:	88c00104 	addi	r3,r17,4
   2f514:	1c63803a 	cmpltu	r17,r3,r17
   2f518:	2449883a 	add	r4,r4,r17
   2f51c:	1823883a 	mov	r17,r3
   2f520:	2080202c 	andhi	r2,r4,128
   2f524:	10008026 	beq	r2,zero,2f728 <__subdf3+0x378>
   2f528:	81400044 	addi	r5,r16,1
   2f52c:	2881ffe0 	cmpeqi	r2,r5,2047
   2f530:	2941ffcc 	andi	r5,r5,2047
   2f534:	1000921e 	bne	r2,zero,2f780 <__subdf3+0x3d0>
   2f538:	00bfe034 	movhi	r2,65408
   2f53c:	10bfffc4 	addi	r2,r2,-1
   2f540:	2088703a 	and	r4,r4,r2
   2f544:	2006927a 	slli	r3,r4,9
   2f548:	8822d0fa 	srli	r17,r17,3
   2f54c:	2004977a 	slli	r2,r4,29
   2f550:	1806d33a 	srli	r3,r3,12
   2f554:	1444b03a 	or	r2,r2,r17
   2f558:	280a953a 	slli	r5,r5,20
   2f55c:	94803fcc 	andi	r18,r18,255
   2f560:	902497fa 	slli	r18,r18,31
   2f564:	28c6b03a 	or	r3,r5,r3
   2f568:	1c86b03a 	or	r3,r3,r18
   2f56c:	dfc00417 	ldw	ra,16(sp)
   2f570:	dcc00317 	ldw	r19,12(sp)
   2f574:	dc800217 	ldw	r18,8(sp)
   2f578:	dc400117 	ldw	r17,4(sp)
   2f57c:	dc000017 	ldw	r16,0(sp)
   2f580:	dec00504 	addi	sp,sp,20
   2f584:	f800283a 	ret
   2f588:	01402e0e 	bge	zero,r5,2f644 <__subdf3+0x294>
   2f58c:	68005526 	beq	r13,zero,2f6e4 <__subdf3+0x334>
   2f590:	8081ffd8 	cmpnei	r2,r16,2047
   2f594:	10013b26 	beq	r2,zero,2fa84 <__subdf3+0x6d4>
   2f598:	18c02034 	orhi	r3,r3,128
   2f59c:	28800e48 	cmpgei	r2,r5,57
   2f5a0:	10006d1e 	bne	r2,zero,2f758 <__subdf3+0x3a8>
   2f5a4:	28800808 	cmpgei	r2,r5,32
   2f5a8:	10010826 	beq	r2,zero,2f9cc <__subdf3+0x61c>
   2f5ac:	2c7ff804 	addi	r17,r5,-32
   2f5b0:	29000820 	cmpeqi	r4,r5,32
   2f5b4:	1c44d83a 	srl	r2,r3,r17
   2f5b8:	2000041e 	bne	r4,zero,2f5cc <__subdf3+0x21c>
   2f5bc:	01001004 	movi	r4,64
   2f5c0:	214bc83a 	sub	r5,r4,r5
   2f5c4:	1946983a 	sll	r3,r3,r5
   2f5c8:	50d4b03a 	or	r10,r10,r3
   2f5cc:	5022c03a 	cmpne	r17,r10,zero
   2f5d0:	88a2b03a 	or	r17,r17,r2
   2f5d4:	00006206 	br	2f760 <__subdf3+0x3b0>
   2f5d8:	1a98b03a 	or	r12,r3,r10
   2f5dc:	817e0044 	addi	r5,r16,-2047
   2f5e0:	6000161e 	bne	r12,zero,2f63c <__subdf3+0x28c>
   2f5e4:	3a40005c 	xori	r9,r7,1
   2f5e8:	12401626 	beq	r2,r9,2f644 <__subdf3+0x294>
   2f5ec:	28002e26 	beq	r5,zero,2f6a8 <__subdf3+0x2f8>
   2f5f0:	6c0bc83a 	sub	r5,r13,r16
   2f5f4:	4825883a 	mov	r18,r9
   2f5f8:	80009e1e 	bne	r16,zero,2f874 <__subdf3+0x4c4>
   2f5fc:	42c4b03a 	or	r2,r8,r11
   2f600:	10010926 	beq	r2,zero,2fa28 <__subdf3+0x678>
   2f604:	28bfffc4 	addi	r2,r5,-1
   2f608:	10016826 	beq	r2,zero,2fbac <__subdf3+0x7fc>
   2f60c:	2941ffd8 	cmpnei	r5,r5,2047
   2f610:	28015f26 	beq	r5,zero,2fb90 <__subdf3+0x7e0>
   2f614:	100b883a 	mov	r5,r2
   2f618:	00009906 	br	2f880 <__subdf3+0x4d0>
   2f61c:	1a84b03a 	or	r2,r3,r10
   2f620:	1000b126 	beq	r2,zero,2f8e8 <__subdf3+0x538>
   2f624:	28bfffc4 	addi	r2,r5,-1
   2f628:	10011d26 	beq	r2,zero,2faa0 <__subdf3+0x6f0>
   2f62c:	2941ffd8 	cmpnei	r5,r5,2047
   2f630:	28011426 	beq	r5,zero,2fa84 <__subdf3+0x6d4>
   2f634:	100b883a 	mov	r5,r2
   2f638:	003f8106 	br	2f440 <__subdf3+0x90>
   2f63c:	3a403fcc 	andi	r9,r7,255
   2f640:	11ffea1e 	bne	r2,r7,2f5ec <__subdf3+0x23c>
   2f644:	28007c26 	beq	r5,zero,2f838 <__subdf3+0x488>
   2f648:	6c0bc83a 	sub	r5,r13,r16
   2f64c:	8000d726 	beq	r16,zero,2f9ac <__subdf3+0x5fc>
   2f650:	6881ffd8 	cmpnei	r2,r13,2047
   2f654:	10012626 	beq	r2,zero,2faf0 <__subdf3+0x740>
   2f658:	42002034 	orhi	r8,r8,128
   2f65c:	28800e48 	cmpgei	r2,r5,57
   2f660:	10012a1e 	bne	r2,zero,2fb0c <__subdf3+0x75c>
   2f664:	28800808 	cmpgei	r2,r5,32
   2f668:	1001821e 	bne	r2,zero,2fc74 <__subdf3+0x8c4>
   2f66c:	00800804 	movi	r2,32
   2f670:	1145c83a 	sub	r2,r2,r5
   2f674:	40a2983a 	sll	r17,r8,r2
   2f678:	5948d83a 	srl	r4,r11,r5
   2f67c:	5884983a 	sll	r2,r11,r2
   2f680:	4150d83a 	srl	r8,r8,r5
   2f684:	8922b03a 	or	r17,r17,r4
   2f688:	1004c03a 	cmpne	r2,r2,zero
   2f68c:	88a2b03a 	or	r17,r17,r2
   2f690:	1a07883a 	add	r3,r3,r8
   2f694:	8aa3883a 	add	r17,r17,r10
   2f698:	8a89803a 	cmpltu	r4,r17,r10
   2f69c:	20c9883a 	add	r4,r4,r3
   2f6a0:	6821883a 	mov	r16,r13
   2f6a4:	00003106 	br	2f76c <__subdf3+0x3bc>
   2f6a8:	80800044 	addi	r2,r16,1
   2f6ac:	1081ff8c 	andi	r2,r2,2046
   2f6b0:	1000821e 	bne	r2,zero,2f8bc <__subdf3+0x50c>
   2f6b4:	42ceb03a 	or	r7,r8,r11
   2f6b8:	1a84b03a 	or	r2,r3,r10
   2f6bc:	8000e11e 	bne	r16,zero,2fa44 <__subdf3+0x694>
   2f6c0:	38012a26 	beq	r7,zero,2fb6c <__subdf3+0x7bc>
   2f6c4:	1001461e 	bne	r2,zero,2fbe0 <__subdf3+0x830>
   2f6c8:	4004977a 	slli	r2,r8,29
   2f6cc:	00c80034 	movhi	r3,8192
   2f6d0:	18ffffc4 	addi	r3,r3,-1
   2f6d4:	20c8703a 	and	r4,r4,r3
   2f6d8:	4010d0fa 	srli	r8,r8,3
   2f6dc:	1104b03a 	or	r2,r2,r4
   2f6e0:	00001806 	br	2f744 <__subdf3+0x394>
   2f6e4:	1a84b03a 	or	r2,r3,r10
   2f6e8:	1000fa26 	beq	r2,zero,2fad4 <__subdf3+0x724>
   2f6ec:	28bfffc4 	addi	r2,r5,-1
   2f6f0:	10000426 	beq	r2,zero,2f704 <__subdf3+0x354>
   2f6f4:	2941ffd8 	cmpnei	r5,r5,2047
   2f6f8:	28013226 	beq	r5,zero,2fbc4 <__subdf3+0x814>
   2f6fc:	100b883a 	mov	r5,r2
   2f700:	003fa606 	br	2f59c <__subdf3+0x1ec>
   2f704:	5aa3883a 	add	r17,r11,r10
   2f708:	40c9883a 	add	r4,r8,r3
   2f70c:	8ad7803a 	cmpltu	r11,r17,r11
   2f710:	22c9883a 	add	r4,r4,r11
   2f714:	2080202c 	andhi	r2,r4,128
   2f718:	10007a1e 	bne	r2,zero,2f904 <__subdf3+0x554>
   2f71c:	04000044 	movi	r16,1
   2f720:	888001cc 	andi	r2,r17,7
   2f724:	103f771e 	bne	r2,zero,2f504 <__subdf3+0x154>
   2f728:	8822d0fa 	srli	r17,r17,3
   2f72c:	2004977a 	slli	r2,r4,29
   2f730:	2010d0fa 	srli	r8,r4,3
   2f734:	800b883a 	mov	r5,r16
   2f738:	8884b03a 	or	r2,r17,r2
   2f73c:	28c1ffe0 	cmpeqi	r3,r5,2047
   2f740:	1800241e 	bne	r3,zero,2f7d4 <__subdf3+0x424>
   2f744:	00c00434 	movhi	r3,16
   2f748:	18ffffc4 	addi	r3,r3,-1
   2f74c:	40c6703a 	and	r3,r8,r3
   2f750:	2941ffcc 	andi	r5,r5,2047
   2f754:	003f8006 	br	2f558 <__subdf3+0x1a8>
   2f758:	1aa2b03a 	or	r17,r3,r10
   2f75c:	8822c03a 	cmpne	r17,r17,zero
   2f760:	8ae3883a 	add	r17,r17,r11
   2f764:	8ac9803a 	cmpltu	r4,r17,r11
   2f768:	2209883a 	add	r4,r4,r8
   2f76c:	2080202c 	andhi	r2,r4,128
   2f770:	103feb26 	beq	r2,zero,2f720 <__subdf3+0x370>
   2f774:	84000044 	addi	r16,r16,1
   2f778:	8081ffe0 	cmpeqi	r2,r16,2047
   2f77c:	10006226 	beq	r2,zero,2f908 <__subdf3+0x558>
   2f780:	0141ffc4 	movi	r5,2047
   2f784:	0007883a 	mov	r3,zero
   2f788:	0005883a 	mov	r2,zero
   2f78c:	003f7206 	br	2f558 <__subdf3+0x1a8>
   2f790:	400e977a 	slli	r7,r8,29
   2f794:	4010d0fa 	srli	r8,r8,3
   2f798:	1000ef26 	beq	r2,zero,2fb58 <__subdf3+0x7a8>
   2f79c:	01480034 	movhi	r5,8192
   2f7a0:	297fffc4 	addi	r5,r5,-1
   2f7a4:	2144703a 	and	r2,r4,r5
   2f7a8:	4100022c 	andhi	r4,r8,8
   2f7ac:	11c4b03a 	or	r2,r2,r7
   2f7b0:	20000826 	beq	r4,zero,2f7d4 <__subdf3+0x424>
   2f7b4:	1808d0fa 	srli	r4,r3,3
   2f7b8:	21c0022c 	andhi	r7,r4,8
   2f7bc:	3800051e 	bne	r7,zero,2f7d4 <__subdf3+0x424>
   2f7c0:	1804977a 	slli	r2,r3,29
   2f7c4:	314c703a 	and	r6,r6,r5
   2f7c8:	4825883a 	mov	r18,r9
   2f7cc:	3084b03a 	or	r2,r6,r2
   2f7d0:	2011883a 	mov	r8,r4
   2f7d4:	1206b03a 	or	r3,r2,r8
   2f7d8:	18013e26 	beq	r3,zero,2fcd4 <__subdf3+0x924>
   2f7dc:	01000434 	movhi	r4,16
   2f7e0:	40c00234 	orhi	r3,r8,8
   2f7e4:	213fffc4 	addi	r4,r4,-1
   2f7e8:	1906703a 	and	r3,r3,r4
   2f7ec:	0141ffc4 	movi	r5,2047
   2f7f0:	003f5906 	br	2f558 <__subdf3+0x1a8>
   2f7f4:	00ffe034 	movhi	r3,65408
   2f7f8:	18ffffc4 	addi	r3,r3,-1
   2f7fc:	8161c83a 	sub	r16,r16,r5
   2f800:	20c8703a 	and	r4,r4,r3
   2f804:	003f3d06 	br	2f4fc <__subdf3+0x14c>
   2f808:	8809883a 	mov	r4,r17
   2f80c:	002ff040 	call	2ff04 <__clzsi2>
   2f810:	11400604 	addi	r5,r2,24
   2f814:	28c00808 	cmpgei	r3,r5,32
   2f818:	183f2326 	beq	r3,zero,2f4a8 <__subdf3+0xf8>
   2f81c:	113ffe04 	addi	r4,r2,-8
   2f820:	8908983a 	sll	r4,r17,r4
   2f824:	0023883a 	mov	r17,zero
   2f828:	003f2506 	br	2f4c0 <__subdf3+0x110>
   2f82c:	1aa2b03a 	or	r17,r3,r10
   2f830:	8822c03a 	cmpne	r17,r17,zero
   2f834:	003f1006 	br	2f478 <__subdf3+0xc8>
   2f838:	80800044 	addi	r2,r16,1
   2f83c:	11c1ff8c 	andi	r7,r2,2046
   2f840:	38006d1e 	bne	r7,zero,2f9f8 <__subdf3+0x648>
   2f844:	42c4b03a 	or	r2,r8,r11
   2f848:	8000be1e 	bne	r16,zero,2fb44 <__subdf3+0x794>
   2f84c:	1000f726 	beq	r2,zero,2fc2c <__subdf3+0x87c>
   2f850:	1a84b03a 	or	r2,r3,r10
   2f854:	1000fc1e 	bne	r2,zero,2fc48 <__subdf3+0x898>
   2f858:	4006977a 	slli	r3,r8,29
   2f85c:	00880034 	movhi	r2,8192
   2f860:	10bfffc4 	addi	r2,r2,-1
   2f864:	2084703a 	and	r2,r4,r2
   2f868:	4010d0fa 	srli	r8,r8,3
   2f86c:	10c4b03a 	or	r2,r2,r3
   2f870:	003fb406 	br	2f744 <__subdf3+0x394>
   2f874:	6881ffd8 	cmpnei	r2,r13,2047
   2f878:	10009d26 	beq	r2,zero,2faf0 <__subdf3+0x740>
   2f87c:	42002034 	orhi	r8,r8,128
   2f880:	28800e48 	cmpgei	r2,r5,57
   2f884:	1000421e 	bne	r2,zero,2f990 <__subdf3+0x5e0>
   2f888:	28800808 	cmpgei	r2,r5,32
   2f88c:	1000a21e 	bne	r2,zero,2fb18 <__subdf3+0x768>
   2f890:	00800804 	movi	r2,32
   2f894:	1145c83a 	sub	r2,r2,r5
   2f898:	40a2983a 	sll	r17,r8,r2
   2f89c:	5948d83a 	srl	r4,r11,r5
   2f8a0:	5896983a 	sll	r11,r11,r2
   2f8a4:	4150d83a 	srl	r8,r8,r5
   2f8a8:	8922b03a 	or	r17,r17,r4
   2f8ac:	5816c03a 	cmpne	r11,r11,zero
   2f8b0:	8ae2b03a 	or	r17,r17,r11
   2f8b4:	1a07c83a 	sub	r3,r3,r8
   2f8b8:	00003706 	br	2f998 <__subdf3+0x5e8>
   2f8bc:	5aa3c83a 	sub	r17,r11,r10
   2f8c0:	40e7c83a 	sub	r19,r8,r3
   2f8c4:	5c49803a 	cmpltu	r4,r11,r17
   2f8c8:	9927c83a 	sub	r19,r19,r4
   2f8cc:	9880202c 	andhi	r2,r19,128
   2f8d0:	1000661e 	bne	r2,zero,2fa6c <__subdf3+0x6bc>
   2f8d4:	8cc4b03a 	or	r2,r17,r19
   2f8d8:	103eef1e 	bne	r2,zero,2f498 <__subdf3+0xe8>
   2f8dc:	0011883a 	mov	r8,zero
   2f8e0:	0025883a 	mov	r18,zero
   2f8e4:	003f9706 	br	2f744 <__subdf3+0x394>
   2f8e8:	4022977a 	slli	r17,r8,29
   2f8ec:	00880034 	movhi	r2,8192
   2f8f0:	10bfffc4 	addi	r2,r2,-1
   2f8f4:	2088703a 	and	r4,r4,r2
   2f8f8:	4010d0fa 	srli	r8,r8,3
   2f8fc:	2444b03a 	or	r2,r4,r17
   2f900:	003f8e06 	br	2f73c <__subdf3+0x38c>
   2f904:	04000084 	movi	r16,2
   2f908:	00bfe034 	movhi	r2,65408
   2f90c:	10bfffc4 	addi	r2,r2,-1
   2f910:	8806d07a 	srli	r3,r17,1
   2f914:	2088703a 	and	r4,r4,r2
   2f918:	200497fa 	slli	r2,r4,31
   2f91c:	8c40004c 	andi	r17,r17,1
   2f920:	1c62b03a 	or	r17,r3,r17
   2f924:	2008d07a 	srli	r4,r4,1
   2f928:	1462b03a 	or	r17,r2,r17
   2f92c:	003ef306 	br	2f4fc <__subdf3+0x14c>
   2f930:	297ff844 	addi	r5,r5,-31
   2f934:	18800820 	cmpeqi	r2,r3,32
   2f938:	214ad83a 	srl	r5,r4,r5
   2f93c:	1000041e 	bne	r2,zero,2f950 <__subdf3+0x5a0>
   2f940:	00801004 	movi	r2,64
   2f944:	10c7c83a 	sub	r3,r2,r3
   2f948:	20c8983a 	sll	r4,r4,r3
   2f94c:	8922b03a 	or	r17,r17,r4
   2f950:	8822c03a 	cmpne	r17,r17,zero
   2f954:	8962b03a 	or	r17,r17,r5
   2f958:	0009883a 	mov	r4,zero
   2f95c:	0021883a 	mov	r16,zero
   2f960:	003f6f06 	br	2f720 <__subdf3+0x370>
   2f964:	2c7ff804 	addi	r17,r5,-32
   2f968:	29000820 	cmpeqi	r4,r5,32
   2f96c:	1c44d83a 	srl	r2,r3,r17
   2f970:	2000041e 	bne	r4,zero,2f984 <__subdf3+0x5d4>
   2f974:	01001004 	movi	r4,64
   2f978:	214bc83a 	sub	r5,r4,r5
   2f97c:	1946983a 	sll	r3,r3,r5
   2f980:	50d4b03a 	or	r10,r10,r3
   2f984:	5022c03a 	cmpne	r17,r10,zero
   2f988:	88a2b03a 	or	r17,r17,r2
   2f98c:	003eba06 	br	2f478 <__subdf3+0xc8>
   2f990:	42d0b03a 	or	r8,r8,r11
   2f994:	4022c03a 	cmpne	r17,r8,zero
   2f998:	5463c83a 	sub	r17,r10,r17
   2f99c:	5449803a 	cmpltu	r4,r10,r17
   2f9a0:	1909c83a 	sub	r4,r3,r4
   2f9a4:	6821883a 	mov	r16,r13
   2f9a8:	003eb606 	br	2f484 <__subdf3+0xd4>
   2f9ac:	42c4b03a 	or	r2,r8,r11
   2f9b0:	10009726 	beq	r2,zero,2fc10 <__subdf3+0x860>
   2f9b4:	28bfffc4 	addi	r2,r5,-1
   2f9b8:	1000b926 	beq	r2,zero,2fca0 <__subdf3+0x8f0>
   2f9bc:	2941ffd8 	cmpnei	r5,r5,2047
   2f9c0:	28007326 	beq	r5,zero,2fb90 <__subdf3+0x7e0>
   2f9c4:	100b883a 	mov	r5,r2
   2f9c8:	003f2406 	br	2f65c <__subdf3+0x2ac>
   2f9cc:	00800804 	movi	r2,32
   2f9d0:	1145c83a 	sub	r2,r2,r5
   2f9d4:	18a2983a 	sll	r17,r3,r2
   2f9d8:	5148d83a 	srl	r4,r10,r5
   2f9dc:	5084983a 	sll	r2,r10,r2
   2f9e0:	1946d83a 	srl	r3,r3,r5
   2f9e4:	8922b03a 	or	r17,r17,r4
   2f9e8:	1004c03a 	cmpne	r2,r2,zero
   2f9ec:	88a2b03a 	or	r17,r17,r2
   2f9f0:	40d1883a 	add	r8,r8,r3
   2f9f4:	003f5a06 	br	2f760 <__subdf3+0x3b0>
   2f9f8:	1101ffe0 	cmpeqi	r4,r2,2047
   2f9fc:	203f601e 	bne	r4,zero,2f780 <__subdf3+0x3d0>
   2fa00:	5a95883a 	add	r10,r11,r10
   2fa04:	52d7803a 	cmpltu	r11,r10,r11
   2fa08:	40c9883a 	add	r4,r8,r3
   2fa0c:	22c9883a 	add	r4,r4,r11
   2fa10:	202297fa 	slli	r17,r4,31
   2fa14:	5014d07a 	srli	r10,r10,1
   2fa18:	2008d07a 	srli	r4,r4,1
   2fa1c:	1021883a 	mov	r16,r2
   2fa20:	8aa2b03a 	or	r17,r17,r10
   2fa24:	003f3e06 	br	2f720 <__subdf3+0x370>
   2fa28:	1808977a 	slli	r4,r3,29
   2fa2c:	00880034 	movhi	r2,8192
   2fa30:	10bfffc4 	addi	r2,r2,-1
   2fa34:	308c703a 	and	r6,r6,r2
   2fa38:	1810d0fa 	srli	r8,r3,3
   2fa3c:	3104b03a 	or	r2,r6,r4
   2fa40:	003f3e06 	br	2f73c <__subdf3+0x38c>
   2fa44:	383f521e 	bne	r7,zero,2f790 <__subdf3+0x3e0>
   2fa48:	10009d26 	beq	r2,zero,2fcc0 <__subdf3+0x910>
   2fa4c:	1808977a 	slli	r4,r3,29
   2fa50:	00880034 	movhi	r2,8192
   2fa54:	10bfffc4 	addi	r2,r2,-1
   2fa58:	3084703a 	and	r2,r6,r2
   2fa5c:	1810d0fa 	srli	r8,r3,3
   2fa60:	1104b03a 	or	r2,r2,r4
   2fa64:	4825883a 	mov	r18,r9
   2fa68:	003f5a06 	br	2f7d4 <__subdf3+0x424>
   2fa6c:	52e3c83a 	sub	r17,r10,r11
   2fa70:	1a09c83a 	sub	r4,r3,r8
   2fa74:	5467803a 	cmpltu	r19,r10,r17
   2fa78:	24e7c83a 	sub	r19,r4,r19
   2fa7c:	4825883a 	mov	r18,r9
   2fa80:	003e8506 	br	2f498 <__subdf3+0xe8>
   2fa84:	4022977a 	slli	r17,r8,29
   2fa88:	00880034 	movhi	r2,8192
   2fa8c:	10bfffc4 	addi	r2,r2,-1
   2fa90:	2088703a 	and	r4,r4,r2
   2fa94:	4010d0fa 	srli	r8,r8,3
   2fa98:	2444b03a 	or	r2,r4,r17
   2fa9c:	003f4d06 	br	2f7d4 <__subdf3+0x424>
   2faa0:	5aa3c83a 	sub	r17,r11,r10
   2faa4:	40c9c83a 	sub	r4,r8,r3
   2faa8:	5c57803a 	cmpltu	r11,r11,r17
   2faac:	22c9c83a 	sub	r4,r4,r11
   2fab0:	04000044 	movi	r16,1
   2fab4:	003e7306 	br	2f484 <__subdf3+0xd4>
   2fab8:	4004977a 	slli	r2,r8,29
   2fabc:	00c80034 	movhi	r3,8192
   2fac0:	18ffffc4 	addi	r3,r3,-1
   2fac4:	20c8703a 	and	r4,r4,r3
   2fac8:	4010d0fa 	srli	r8,r8,3
   2facc:	1104b03a 	or	r2,r2,r4
   2fad0:	003f4006 	br	2f7d4 <__subdf3+0x424>
   2fad4:	4004977a 	slli	r2,r8,29
   2fad8:	00c80034 	movhi	r3,8192
   2fadc:	18ffffc4 	addi	r3,r3,-1
   2fae0:	20c8703a 	and	r4,r4,r3
   2fae4:	4010d0fa 	srli	r8,r8,3
   2fae8:	1104b03a 	or	r2,r2,r4
   2faec:	003f1306 	br	2f73c <__subdf3+0x38c>
   2faf0:	1804977a 	slli	r2,r3,29
   2faf4:	01080034 	movhi	r4,8192
   2faf8:	213fffc4 	addi	r4,r4,-1
   2fafc:	310c703a 	and	r6,r6,r4
   2fb00:	1810d0fa 	srli	r8,r3,3
   2fb04:	1184b03a 	or	r2,r2,r6
   2fb08:	003f3206 	br	2f7d4 <__subdf3+0x424>
   2fb0c:	42d0b03a 	or	r8,r8,r11
   2fb10:	4022c03a 	cmpne	r17,r8,zero
   2fb14:	003edf06 	br	2f694 <__subdf3+0x2e4>
   2fb18:	2c7ff804 	addi	r17,r5,-32
   2fb1c:	29000820 	cmpeqi	r4,r5,32
   2fb20:	4444d83a 	srl	r2,r8,r17
   2fb24:	2000041e 	bne	r4,zero,2fb38 <__subdf3+0x788>
   2fb28:	01001004 	movi	r4,64
   2fb2c:	214bc83a 	sub	r5,r4,r5
   2fb30:	4150983a 	sll	r8,r8,r5
   2fb34:	5a16b03a 	or	r11,r11,r8
   2fb38:	5822c03a 	cmpne	r17,r11,zero
   2fb3c:	88a2b03a 	or	r17,r17,r2
   2fb40:	003f9506 	br	2f998 <__subdf3+0x5e8>
   2fb44:	103fea26 	beq	r2,zero,2faf0 <__subdf3+0x740>
   2fb48:	1a94b03a 	or	r10,r3,r10
   2fb4c:	400e977a 	slli	r7,r8,29
   2fb50:	4010d0fa 	srli	r8,r8,3
   2fb54:	503f111e 	bne	r10,zero,2f79c <__subdf3+0x3ec>
   2fb58:	00880034 	movhi	r2,8192
   2fb5c:	10bfffc4 	addi	r2,r2,-1
   2fb60:	2084703a 	and	r2,r4,r2
   2fb64:	11c4b03a 	or	r2,r2,r7
   2fb68:	003f1a06 	br	2f7d4 <__subdf3+0x424>
   2fb6c:	103f5b26 	beq	r2,zero,2f8dc <__subdf3+0x52c>
   2fb70:	1804977a 	slli	r2,r3,29
   2fb74:	01080034 	movhi	r4,8192
   2fb78:	213fffc4 	addi	r4,r4,-1
   2fb7c:	310c703a 	and	r6,r6,r4
   2fb80:	1810d0fa 	srli	r8,r3,3
   2fb84:	1184b03a 	or	r2,r2,r6
   2fb88:	4825883a 	mov	r18,r9
   2fb8c:	003eed06 	br	2f744 <__subdf3+0x394>
   2fb90:	1808977a 	slli	r4,r3,29
   2fb94:	00880034 	movhi	r2,8192
   2fb98:	10bfffc4 	addi	r2,r2,-1
   2fb9c:	3084703a 	and	r2,r6,r2
   2fba0:	1810d0fa 	srli	r8,r3,3
   2fba4:	1104b03a 	or	r2,r2,r4
   2fba8:	003f0a06 	br	2f7d4 <__subdf3+0x424>
   2fbac:	52e3c83a 	sub	r17,r10,r11
   2fbb0:	1a09c83a 	sub	r4,r3,r8
   2fbb4:	5455803a 	cmpltu	r10,r10,r17
   2fbb8:	2289c83a 	sub	r4,r4,r10
   2fbbc:	04000044 	movi	r16,1
   2fbc0:	003e3006 	br	2f484 <__subdf3+0xd4>
   2fbc4:	4006977a 	slli	r3,r8,29
   2fbc8:	00880034 	movhi	r2,8192
   2fbcc:	10bfffc4 	addi	r2,r2,-1
   2fbd0:	2084703a 	and	r2,r4,r2
   2fbd4:	4010d0fa 	srli	r8,r8,3
   2fbd8:	10c4b03a 	or	r2,r2,r3
   2fbdc:	003efd06 	br	2f7d4 <__subdf3+0x424>
   2fbe0:	5aa3c83a 	sub	r17,r11,r10
   2fbe4:	5c45803a 	cmpltu	r2,r11,r17
   2fbe8:	40c9c83a 	sub	r4,r8,r3
   2fbec:	2089c83a 	sub	r4,r4,r2
   2fbf0:	2080202c 	andhi	r2,r4,128
   2fbf4:	10002f26 	beq	r2,zero,2fcb4 <__subdf3+0x904>
   2fbf8:	52e3c83a 	sub	r17,r10,r11
   2fbfc:	1a09c83a 	sub	r4,r3,r8
   2fc00:	5455803a 	cmpltu	r10,r10,r17
   2fc04:	2289c83a 	sub	r4,r4,r10
   2fc08:	4825883a 	mov	r18,r9
   2fc0c:	003e3b06 	br	2f4fc <__subdf3+0x14c>
   2fc10:	1808977a 	slli	r4,r3,29
   2fc14:	00880034 	movhi	r2,8192
   2fc18:	10bfffc4 	addi	r2,r2,-1
   2fc1c:	3084703a 	and	r2,r6,r2
   2fc20:	1810d0fa 	srli	r8,r3,3
   2fc24:	1104b03a 	or	r2,r2,r4
   2fc28:	003ec406 	br	2f73c <__subdf3+0x38c>
   2fc2c:	1808977a 	slli	r4,r3,29
   2fc30:	00880034 	movhi	r2,8192
   2fc34:	10bfffc4 	addi	r2,r2,-1
   2fc38:	3084703a 	and	r2,r6,r2
   2fc3c:	1810d0fa 	srli	r8,r3,3
   2fc40:	1104b03a 	or	r2,r2,r4
   2fc44:	003ebf06 	br	2f744 <__subdf3+0x394>
   2fc48:	5aa3883a 	add	r17,r11,r10
   2fc4c:	40c9883a 	add	r4,r8,r3
   2fc50:	8ad7803a 	cmpltu	r11,r17,r11
   2fc54:	22c9883a 	add	r4,r4,r11
   2fc58:	2080202c 	andhi	r2,r4,128
   2fc5c:	103eb026 	beq	r2,zero,2f720 <__subdf3+0x370>
   2fc60:	00bfe034 	movhi	r2,65408
   2fc64:	10bfffc4 	addi	r2,r2,-1
   2fc68:	2088703a 	and	r4,r4,r2
   2fc6c:	04000044 	movi	r16,1
   2fc70:	003eab06 	br	2f720 <__subdf3+0x370>
   2fc74:	28bff804 	addi	r2,r5,-32
   2fc78:	29000820 	cmpeqi	r4,r5,32
   2fc7c:	4084d83a 	srl	r2,r8,r2
   2fc80:	2000041e 	bne	r4,zero,2fc94 <__subdf3+0x8e4>
   2fc84:	01001004 	movi	r4,64
   2fc88:	214bc83a 	sub	r5,r4,r5
   2fc8c:	4150983a 	sll	r8,r8,r5
   2fc90:	5a16b03a 	or	r11,r11,r8
   2fc94:	5822c03a 	cmpne	r17,r11,zero
   2fc98:	88a2b03a 	or	r17,r17,r2
   2fc9c:	003e7d06 	br	2f694 <__subdf3+0x2e4>
   2fca0:	5aa3883a 	add	r17,r11,r10
   2fca4:	40c9883a 	add	r4,r8,r3
   2fca8:	8a95803a 	cmpltu	r10,r17,r10
   2fcac:	2289883a 	add	r4,r4,r10
   2fcb0:	003e9806 	br	2f714 <__subdf3+0x364>
   2fcb4:	8904b03a 	or	r2,r17,r4
   2fcb8:	103f0826 	beq	r2,zero,2f8dc <__subdf3+0x52c>
   2fcbc:	003e9806 	br	2f720 <__subdf3+0x370>
   2fcc0:	02000434 	movhi	r8,16
   2fcc4:	423fffc4 	addi	r8,r8,-1
   2fcc8:	0025883a 	mov	r18,zero
   2fccc:	00bfffc4 	movi	r2,-1
   2fcd0:	003ec206 	br	2f7dc <__subdf3+0x42c>
   2fcd4:	0005883a 	mov	r2,zero
   2fcd8:	0141ffc4 	movi	r5,2047
   2fcdc:	0007883a 	mov	r3,zero
   2fce0:	003e1d06 	br	2f558 <__subdf3+0x1a8>

0002fce4 <__unorddf2>:
   2fce4:	2806d53a 	srli	r3,r5,20
   2fce8:	3810d53a 	srli	r8,r7,20
   2fcec:	02400434 	movhi	r9,16
   2fcf0:	18c1ffcc 	andi	r3,r3,2047
   2fcf4:	4a7fffc4 	addi	r9,r9,-1
   2fcf8:	18c1ffd8 	cmpnei	r3,r3,2047
   2fcfc:	2a4a703a 	and	r5,r5,r9
   2fd00:	3a4e703a 	and	r7,r7,r9
   2fd04:	4201ffcc 	andi	r8,r8,2047
   2fd08:	18000426 	beq	r3,zero,2fd1c <__unorddf2+0x38>
   2fd0c:	4201ffd8 	cmpnei	r8,r8,2047
   2fd10:	40000626 	beq	r8,zero,2fd2c <__unorddf2+0x48>
   2fd14:	0005883a 	mov	r2,zero
   2fd18:	f800283a 	ret
   2fd1c:	214ab03a 	or	r5,r4,r5
   2fd20:	283ffa26 	beq	r5,zero,2fd0c <__unorddf2+0x28>
   2fd24:	00800044 	movi	r2,1
   2fd28:	f800283a 	ret
   2fd2c:	398eb03a 	or	r7,r7,r6
   2fd30:	3804c03a 	cmpne	r2,r7,zero
   2fd34:	f800283a 	ret

0002fd38 <__fixdfsi>:
   2fd38:	2806d53a 	srli	r3,r5,20
   2fd3c:	01800434 	movhi	r6,16
   2fd40:	31bfffc4 	addi	r6,r6,-1
   2fd44:	18c1ffcc 	andi	r3,r3,2047
   2fd48:	19c0ffd0 	cmplti	r7,r3,1023
   2fd4c:	2810d7fa 	srli	r8,r5,31
   2fd50:	298a703a 	and	r5,r5,r6
   2fd54:	3800061e 	bne	r7,zero,2fd70 <__fixdfsi+0x38>
   2fd58:	18810790 	cmplti	r2,r3,1054
   2fd5c:	1000061e 	bne	r2,zero,2fd78 <__fixdfsi+0x40>
   2fd60:	00a00034 	movhi	r2,32768
   2fd64:	10bfffc4 	addi	r2,r2,-1
   2fd68:	4085883a 	add	r2,r8,r2
   2fd6c:	f800283a 	ret
   2fd70:	0005883a 	mov	r2,zero
   2fd74:	f800283a 	ret
   2fd78:	01810cc4 	movi	r6,1075
   2fd7c:	30cdc83a 	sub	r6,r6,r3
   2fd80:	30800808 	cmpgei	r2,r6,32
   2fd84:	29400434 	orhi	r5,r5,16
   2fd88:	1000071e 	bne	r2,zero,2fda8 <__fixdfsi+0x70>
   2fd8c:	18befb44 	addi	r2,r3,-1043
   2fd90:	2884983a 	sll	r2,r5,r2
   2fd94:	2188d83a 	srl	r4,r4,r6
   2fd98:	1104b03a 	or	r2,r2,r4
   2fd9c:	403ff526 	beq	r8,zero,2fd74 <__fixdfsi+0x3c>
   2fda0:	0085c83a 	sub	r2,zero,r2
   2fda4:	f800283a 	ret
   2fda8:	008104c4 	movi	r2,1043
   2fdac:	10c5c83a 	sub	r2,r2,r3
   2fdb0:	2884d83a 	srl	r2,r5,r2
   2fdb4:	003ff906 	br	2fd9c <__fixdfsi+0x64>

0002fdb8 <__floatsidf>:
   2fdb8:	defffd04 	addi	sp,sp,-12
   2fdbc:	dfc00215 	stw	ra,8(sp)
   2fdc0:	dc400115 	stw	r17,4(sp)
   2fdc4:	dc000015 	stw	r16,0(sp)
   2fdc8:	20001326 	beq	r4,zero,2fe18 <__floatsidf+0x60>
   2fdcc:	2022d7fa 	srli	r17,r4,31
   2fdd0:	2021883a 	mov	r16,r4
   2fdd4:	20002516 	blt	r4,zero,2fe6c <__floatsidf+0xb4>
   2fdd8:	8009883a 	mov	r4,r16
   2fddc:	002ff040 	call	2ff04 <__clzsi2>
   2fde0:	01410784 	movi	r5,1054
   2fde4:	288bc83a 	sub	r5,r5,r2
   2fde8:	10c002c8 	cmpgei	r3,r2,11
   2fdec:	2941ffcc 	andi	r5,r5,2047
   2fdf0:	1800171e 	bne	r3,zero,2fe50 <__floatsidf+0x98>
   2fdf4:	00c002c4 	movi	r3,11
   2fdf8:	1887c83a 	sub	r3,r3,r2
   2fdfc:	80c6d83a 	srl	r3,r16,r3
   2fe00:	01000434 	movhi	r4,16
   2fe04:	10800544 	addi	r2,r2,21
   2fe08:	213fffc4 	addi	r4,r4,-1
   2fe0c:	8084983a 	sll	r2,r16,r2
   2fe10:	1906703a 	and	r3,r3,r4
   2fe14:	00000406 	br	2fe28 <__floatsidf+0x70>
   2fe18:	0023883a 	mov	r17,zero
   2fe1c:	000b883a 	mov	r5,zero
   2fe20:	0007883a 	mov	r3,zero
   2fe24:	0005883a 	mov	r2,zero
   2fe28:	280a953a 	slli	r5,r5,20
   2fe2c:	8c403fcc 	andi	r17,r17,255
   2fe30:	882297fa 	slli	r17,r17,31
   2fe34:	28c6b03a 	or	r3,r5,r3
   2fe38:	1c46b03a 	or	r3,r3,r17
   2fe3c:	dfc00217 	ldw	ra,8(sp)
   2fe40:	dc400117 	ldw	r17,4(sp)
   2fe44:	dc000017 	ldw	r16,0(sp)
   2fe48:	dec00304 	addi	sp,sp,12
   2fe4c:	f800283a 	ret
   2fe50:	10bffd44 	addi	r2,r2,-11
   2fe54:	8086983a 	sll	r3,r16,r2
   2fe58:	00800434 	movhi	r2,16
   2fe5c:	10bfffc4 	addi	r2,r2,-1
   2fe60:	1886703a 	and	r3,r3,r2
   2fe64:	0005883a 	mov	r2,zero
   2fe68:	003fef06 	br	2fe28 <__floatsidf+0x70>
   2fe6c:	0121c83a 	sub	r16,zero,r4
   2fe70:	003fd906 	br	2fdd8 <__floatsidf+0x20>

0002fe74 <__floatunsidf>:
   2fe74:	defffe04 	addi	sp,sp,-8
   2fe78:	dc000015 	stw	r16,0(sp)
   2fe7c:	dfc00115 	stw	ra,4(sp)
   2fe80:	2021883a 	mov	r16,r4
   2fe84:	20000f26 	beq	r4,zero,2fec4 <__floatunsidf+0x50>
   2fe88:	002ff040 	call	2ff04 <__clzsi2>
   2fe8c:	00c10784 	movi	r3,1054
   2fe90:	1887c83a 	sub	r3,r3,r2
   2fe94:	110002c8 	cmpgei	r4,r2,11
   2fe98:	18c1ffcc 	andi	r3,r3,2047
   2fe9c:	2000121e 	bne	r4,zero,2fee8 <__floatunsidf+0x74>
   2fea0:	014002c4 	movi	r5,11
   2fea4:	288bc83a 	sub	r5,r5,r2
   2fea8:	814ad83a 	srl	r5,r16,r5
   2feac:	01000434 	movhi	r4,16
   2feb0:	10800544 	addi	r2,r2,21
   2feb4:	213fffc4 	addi	r4,r4,-1
   2feb8:	80a0983a 	sll	r16,r16,r2
   2febc:	290a703a 	and	r5,r5,r4
   2fec0:	00000206 	br	2fecc <__floatunsidf+0x58>
   2fec4:	0007883a 	mov	r3,zero
   2fec8:	000b883a 	mov	r5,zero
   2fecc:	1806953a 	slli	r3,r3,20
   2fed0:	8005883a 	mov	r2,r16
   2fed4:	1946b03a 	or	r3,r3,r5
   2fed8:	dfc00117 	ldw	ra,4(sp)
   2fedc:	dc000017 	ldw	r16,0(sp)
   2fee0:	dec00204 	addi	sp,sp,8
   2fee4:	f800283a 	ret
   2fee8:	10bffd44 	addi	r2,r2,-11
   2feec:	808a983a 	sll	r5,r16,r2
   2fef0:	00800434 	movhi	r2,16
   2fef4:	10bfffc4 	addi	r2,r2,-1
   2fef8:	288a703a 	and	r5,r5,r2
   2fefc:	0021883a 	mov	r16,zero
   2ff00:	003ff206 	br	2fecc <__floatunsidf+0x58>

0002ff04 <__clzsi2>:
   2ff04:	00bfffd4 	movui	r2,65535
   2ff08:	11000436 	bltu	r2,r4,2ff1c <__clzsi2+0x18>
   2ff0c:	20804030 	cmpltui	r2,r4,256
   2ff10:	10000e26 	beq	r2,zero,2ff4c <__clzsi2+0x48>
   2ff14:	01400804 	movi	r5,32
   2ff18:	00000406 	br	2ff2c <__clzsi2+0x28>
   2ff1c:	00804034 	movhi	r2,256
   2ff20:	20800736 	bltu	r4,r2,2ff40 <__clzsi2+0x3c>
   2ff24:	2008d63a 	srli	r4,r4,24
   2ff28:	01400204 	movi	r5,8
   2ff2c:	00c000f4 	movhi	r3,3
   2ff30:	20c7883a 	add	r3,r4,r3
   2ff34:	188fb703 	ldbu	r2,16092(r3)
   2ff38:	2885c83a 	sub	r2,r5,r2
   2ff3c:	f800283a 	ret
   2ff40:	2008d43a 	srli	r4,r4,16
   2ff44:	01400404 	movi	r5,16
   2ff48:	003ff806 	br	2ff2c <__clzsi2+0x28>
   2ff4c:	2008d23a 	srli	r4,r4,8
   2ff50:	01400604 	movi	r5,24
   2ff54:	003ff506 	br	2ff2c <__clzsi2+0x28>

0002ff58 <alt_get_errno>:
#undef errno

extern int errno;

static ALT_INLINE int* alt_get_errno(void)
{
   2ff58:	defffe04 	addi	sp,sp,-8
   2ff5c:	dfc00115 	stw	ra,4(sp)
   2ff60:	df000015 	stw	fp,0(sp)
   2ff64:	d839883a 	mov	fp,sp
  return ((alt_errno) ? alt_errno() : &errno);
   2ff68:	d0a00c17 	ldw	r2,-32720(gp)
   2ff6c:	10000326 	beq	r2,zero,2ff7c <alt_get_errno+0x24>
   2ff70:	d0a00c17 	ldw	r2,-32720(gp)
   2ff74:	103ee83a 	callr	r2
   2ff78:	00000106 	br	2ff80 <alt_get_errno+0x28>
   2ff7c:	d0a92504 	addi	r2,gp,-23404
}
   2ff80:	e037883a 	mov	sp,fp
   2ff84:	dfc00117 	ldw	ra,4(sp)
   2ff88:	df000017 	ldw	fp,0(sp)
   2ff8c:	dec00204 	addi	sp,sp,8
   2ff90:	f800283a 	ret

0002ff94 <close>:
 *
 * ALT_CLOSE is mapped onto the close() system call in alt_syscall.h
 */
 
int ALT_CLOSE (int fildes)
{
   2ff94:	defffb04 	addi	sp,sp,-20
   2ff98:	dfc00415 	stw	ra,16(sp)
   2ff9c:	df000315 	stw	fp,12(sp)
   2ffa0:	df000304 	addi	fp,sp,12
   2ffa4:	e13ffd15 	stw	r4,-12(fp)
   * A common error case is that when the file descriptor was created, the call
   * to open() failed resulting in a negative file descriptor. This is trapped
   * below so that we don't try and process an invalid file descriptor.
   */

  fd = (fildes < 0) ? NULL : &alt_fd_list[fildes];
   2ffa8:	e0bffd17 	ldw	r2,-12(fp)
   2ffac:	10000616 	blt	r2,zero,2ffc8 <close+0x34>
   2ffb0:	e0bffd17 	ldw	r2,-12(fp)
   2ffb4:	10c00324 	muli	r3,r2,12
   2ffb8:	008000f4 	movhi	r2,3
   2ffbc:	10945f04 	addi	r2,r2,20860
   2ffc0:	1885883a 	add	r2,r3,r2
   2ffc4:	00000106 	br	2ffcc <close+0x38>
   2ffc8:	0005883a 	mov	r2,zero
   2ffcc:	e0bfff15 	stw	r2,-4(fp)

  if (fd)
   2ffd0:	e0bfff17 	ldw	r2,-4(fp)
   2ffd4:	10001926 	beq	r2,zero,3003c <close+0xa8>
    /*
     * If the associated file system/device has a close function, call it so 
     * that any necessary cleanup code can run.
     */

    rval = (fd->dev->close) ? fd->dev->close(fd) : 0;
   2ffd8:	e0bfff17 	ldw	r2,-4(fp)
   2ffdc:	10800017 	ldw	r2,0(r2)
   2ffe0:	10800417 	ldw	r2,16(r2)
   2ffe4:	10000626 	beq	r2,zero,30000 <close+0x6c>
   2ffe8:	e0bfff17 	ldw	r2,-4(fp)
   2ffec:	10800017 	ldw	r2,0(r2)
   2fff0:	10800417 	ldw	r2,16(r2)
   2fff4:	e13fff17 	ldw	r4,-4(fp)
   2fff8:	103ee83a 	callr	r2
   2fffc:	00000106 	br	30004 <close+0x70>
   30000:	0005883a 	mov	r2,zero
   30004:	e0bffe15 	stw	r2,-8(fp)

    /* Free the file descriptor structure and return. */

    alt_release_fd (fildes);
   30008:	e13ffd17 	ldw	r4,-12(fp)
   3000c:	0030bbc0 	call	30bbc <alt_release_fd>
    if (rval < 0)
   30010:	e0bffe17 	ldw	r2,-8(fp)
   30014:	1000070e 	bge	r2,zero,30034 <close+0xa0>
    {
      ALT_ERRNO = -rval;
   30018:	002ff580 	call	2ff58 <alt_get_errno>
   3001c:	1007883a 	mov	r3,r2
   30020:	e0bffe17 	ldw	r2,-8(fp)
   30024:	0085c83a 	sub	r2,zero,r2
   30028:	18800015 	stw	r2,0(r3)
      return -1;
   3002c:	00bfffc4 	movi	r2,-1
   30030:	00000706 	br	30050 <close+0xbc>
    }
    return 0;
   30034:	0005883a 	mov	r2,zero
   30038:	00000506 	br	30050 <close+0xbc>
  }
  else
  {
    ALT_ERRNO = EBADFD;
   3003c:	002ff580 	call	2ff58 <alt_get_errno>
   30040:	1007883a 	mov	r3,r2
   30044:	00801444 	movi	r2,81
   30048:	18800015 	stw	r2,0(r3)
    return -1;
   3004c:	00bfffc4 	movi	r2,-1
  }
}
   30050:	e037883a 	mov	sp,fp
   30054:	dfc00117 	ldw	ra,4(sp)
   30058:	df000017 	ldw	fp,0(sp)
   3005c:	dec00204 	addi	sp,sp,8
   30060:	f800283a 	ret

00030064 <alt_dev_null_write>:
 * by the alt_dev_null device. It simple discards all data passed to it, and
 * indicates that the data has been successfully transmitted.
 */

static int alt_dev_null_write (alt_fd* fd, const char* ptr, int len)
{
   30064:	defffc04 	addi	sp,sp,-16
   30068:	df000315 	stw	fp,12(sp)
   3006c:	df000304 	addi	fp,sp,12
   30070:	e13fff15 	stw	r4,-4(fp)
   30074:	e17ffe15 	stw	r5,-8(fp)
   30078:	e1bffd15 	stw	r6,-12(fp)
  return len;
   3007c:	e0bffd17 	ldw	r2,-12(fp)
}
   30080:	e037883a 	mov	sp,fp
   30084:	df000017 	ldw	fp,0(sp)
   30088:	dec00104 	addi	sp,sp,4
   3008c:	f800283a 	ret

00030090 <_exit>:
 *
 * ALT_EXIT is mapped onto the _exit() system call in alt_syscall.h
 */

void ALT_EXIT (int exit_code)
{
   30090:	defffd04 	addi	sp,sp,-12
   30094:	df000215 	stw	fp,8(sp)
   30098:	df000204 	addi	fp,sp,8
   3009c:	e13ffe15 	stw	r4,-8(fp)
  ALT_LOG_PRINT_BOOT("[alt_exit.c] Entering _exit() function.\r\n");
  ALT_LOG_PRINT_BOOT("[alt_exit.c] Exit code from main was %d.\r\n",exit_code);
  /* Stop all other threads */

  ALT_LOG_PRINT_BOOT("[alt_exit.c] Calling ALT_OS_STOP().\r\n");
  ALT_OS_STOP();
   300a0:	0001883a 	nop
   300a4:	e0bffe17 	ldw	r2,-8(fp)
   300a8:	e0bfff15 	stw	r2,-4(fp)
/*
 * Routine called on exit.
 */
static ALT_INLINE ALT_ALWAYS_INLINE void alt_sim_halt(int exit_code)
{
  register int r2 asm ("r2") = exit_code;
   300ac:	e0bfff17 	ldw	r2,-4(fp)
  __asm__ volatile ("\n0:\n\taddi %0,%0, -1\n\tbgt %0,zero,0b" : : "r" (ALT_CPU_FREQ/100) ); /* Delay for >30ms */

  __asm__ volatile ("break 2" : : "r"(r2), "r"(r3) ALT_GMON_DATA );

#else /* !DEBUG_STUB */
  if (r2) {
   300b0:	10000226 	beq	r2,zero,300bc <_exit+0x2c>
    ALT_SIM_FAIL();
   300b4:	002af070 	cmpltui	zero,zero,43969
  } else {
    ALT_SIM_PASS();
  }
#endif /* DEBUG_STUB */
}
   300b8:	00000106 	br	300c0 <_exit+0x30>
    ALT_SIM_PASS();
   300bc:	002af0b0 	cmpltui	zero,zero,43970
}
   300c0:	0001883a 	nop
  ALT_SIM_HALT(exit_code);

  /* spin forever, since there's no where to go back to */

  ALT_LOG_PRINT_BOOT("[alt_exit.c] Spinning forever.\r\n");
  while (1);
   300c4:	003fff06 	br	300c4 <_exit+0x34>

000300c8 <alt_get_errno>:
{
   300c8:	defffe04 	addi	sp,sp,-8
   300cc:	dfc00115 	stw	ra,4(sp)
   300d0:	df000015 	stw	fp,0(sp)
   300d4:	d839883a 	mov	fp,sp
  return ((alt_errno) ? alt_errno() : &errno);
   300d8:	d0a00c17 	ldw	r2,-32720(gp)
   300dc:	10000326 	beq	r2,zero,300ec <alt_get_errno+0x24>
   300e0:	d0a00c17 	ldw	r2,-32720(gp)
   300e4:	103ee83a 	callr	r2
   300e8:	00000106 	br	300f0 <alt_get_errno+0x28>
   300ec:	d0a92504 	addi	r2,gp,-23404
}
   300f0:	e037883a 	mov	sp,fp
   300f4:	dfc00117 	ldw	ra,4(sp)
   300f8:	df000017 	ldw	fp,0(sp)
   300fc:	dec00204 	addi	sp,sp,8
   30100:	f800283a 	ret

00030104 <fcntl>:
 *
 * ALT_FCNTL is mapped onto the fcntl() system call in alt_syscall.h
 */
 
int ALT_FCNTL (int file, int cmd, ...)
{ 
   30104:	defff704 	addi	sp,sp,-36
   30108:	dfc00615 	stw	ra,24(sp)
   3010c:	df000515 	stw	fp,20(sp)
   30110:	df000504 	addi	fp,sp,20
   30114:	e13ffc15 	stw	r4,-16(fp)
   30118:	e17ffb15 	stw	r5,-20(fp)
   3011c:	e1800215 	stw	r6,8(fp)
   30120:	e1c00315 	stw	r7,12(fp)
   * A common error case is that when the file descriptor was created, the call
   * to open() failed resulting in a negative file descriptor. This is trapped
   * below so that we don't try and process an invalid file descriptor.
   */

  fd = (file < 0) ? NULL : &alt_fd_list[file];
   30124:	e0bffc17 	ldw	r2,-16(fp)
   30128:	10000616 	blt	r2,zero,30144 <fcntl+0x40>
   3012c:	e0bffc17 	ldw	r2,-16(fp)
   30130:	10c00324 	muli	r3,r2,12
   30134:	008000f4 	movhi	r2,3
   30138:	10945f04 	addi	r2,r2,20860
   3013c:	1885883a 	add	r2,r3,r2
   30140:	00000106 	br	30148 <fcntl+0x44>
   30144:	0005883a 	mov	r2,zero
   30148:	e0bfff15 	stw	r2,-4(fp)
  
  if (fd)
   3014c:	e0bfff17 	ldw	r2,-4(fp)
   30150:	10002b26 	beq	r2,zero,30200 <fcntl+0xfc>
  {
    switch (cmd)
   30154:	e0bffb17 	ldw	r2,-20(fp)
   30158:	108000e0 	cmpeqi	r2,r2,3
   3015c:	1000041e 	bne	r2,zero,30170 <fcntl+0x6c>
   30160:	e0bffb17 	ldw	r2,-20(fp)
   30164:	10800120 	cmpeqi	r2,r2,4
   30168:	1000071e 	bne	r2,zero,30188 <fcntl+0x84>
   3016c:	00001e06 	br	301e8 <fcntl+0xe4>
    {
    case F_GETFL:
      return fd->fd_flags & ~((alt_u32) ALT_FD_FLAGS_MASK);
   30170:	e0bfff17 	ldw	r2,-4(fp)
   30174:	10c00217 	ldw	r3,8(r2)
   30178:	00900034 	movhi	r2,16384
   3017c:	10bfffc4 	addi	r2,r2,-1
   30180:	1884703a 	and	r2,r3,r2
   30184:	00002306 	br	30214 <fcntl+0x110>
    case F_SETFL:
      va_start(argp, cmd);
   30188:	e0800204 	addi	r2,fp,8
   3018c:	e0bffd15 	stw	r2,-12(fp)
      flags = va_arg(argp, long);
   30190:	e0bffd17 	ldw	r2,-12(fp)
   30194:	10c00104 	addi	r3,r2,4
   30198:	e0fffd15 	stw	r3,-12(fp)
   3019c:	10800017 	ldw	r2,0(r2)
   301a0:	e0bffe15 	stw	r2,-8(fp)
      fd->fd_flags &= ~ALT_FCNTL_FLAGS_MASK;
   301a4:	e0bfff17 	ldw	r2,-4(fp)
   301a8:	10c00217 	ldw	r3,8(r2)
   301ac:	00affdc4 	movi	r2,-16393
   301b0:	1886703a 	and	r3,r3,r2
   301b4:	e0bfff17 	ldw	r2,-4(fp)
   301b8:	10c00215 	stw	r3,8(r2)
      fd->fd_flags |= (flags & ALT_FCNTL_FLAGS_MASK);
   301bc:	e0bfff17 	ldw	r2,-4(fp)
   301c0:	10800217 	ldw	r2,8(r2)
   301c4:	1007883a 	mov	r3,r2
   301c8:	e0bffe17 	ldw	r2,-8(fp)
   301cc:	1090020c 	andi	r2,r2,16392
   301d0:	1884b03a 	or	r2,r3,r2
   301d4:	1007883a 	mov	r3,r2
   301d8:	e0bfff17 	ldw	r2,-4(fp)
   301dc:	10c00215 	stw	r3,8(r2)
      va_end(argp);
      return 0;
   301e0:	0005883a 	mov	r2,zero
   301e4:	00000b06 	br	30214 <fcntl+0x110>
    default:
      ALT_ERRNO = EINVAL;
   301e8:	00300c80 	call	300c8 <alt_get_errno>
   301ec:	1007883a 	mov	r3,r2
   301f0:	00800584 	movi	r2,22
   301f4:	18800015 	stw	r2,0(r3)
      return -1;
   301f8:	00bfffc4 	movi	r2,-1
   301fc:	00000506 	br	30214 <fcntl+0x110>
    }
  }

  ALT_ERRNO = EBADFD;
   30200:	00300c80 	call	300c8 <alt_get_errno>
   30204:	1007883a 	mov	r3,r2
   30208:	00801444 	movi	r2,81
   3020c:	18800015 	stw	r2,0(r3)
  return -1;
   30210:	00bfffc4 	movi	r2,-1
}
   30214:	e037883a 	mov	sp,fp
   30218:	dfc00117 	ldw	ra,4(sp)
   3021c:	df000017 	ldw	fp,0(sp)
   30220:	dec00404 	addi	sp,sp,16
   30224:	f800283a 	ret

00030228 <alt_get_errno>:
{
   30228:	defffe04 	addi	sp,sp,-8
   3022c:	dfc00115 	stw	ra,4(sp)
   30230:	df000015 	stw	fp,0(sp)
   30234:	d839883a 	mov	fp,sp
  return ((alt_errno) ? alt_errno() : &errno);
   30238:	d0a00c17 	ldw	r2,-32720(gp)
   3023c:	10000326 	beq	r2,zero,3024c <alt_get_errno+0x24>
   30240:	d0a00c17 	ldw	r2,-32720(gp)
   30244:	103ee83a 	callr	r2
   30248:	00000106 	br	30250 <alt_get_errno+0x28>
   3024c:	d0a92504 	addi	r2,gp,-23404
}
   30250:	e037883a 	mov	sp,fp
   30254:	dfc00117 	ldw	ra,4(sp)
   30258:	df000017 	ldw	fp,0(sp)
   3025c:	dec00204 	addi	sp,sp,8
   30260:	f800283a 	ret

00030264 <fstat>:
}

#else /* !ALT_USE_DIRECT_DRIVERS */

int ALT_FSTAT (int file, struct stat *st)
{
   30264:	defffb04 	addi	sp,sp,-20
   30268:	dfc00415 	stw	ra,16(sp)
   3026c:	df000315 	stw	fp,12(sp)
   30270:	df000304 	addi	fp,sp,12
   30274:	e13ffe15 	stw	r4,-8(fp)
   30278:	e17ffd15 	stw	r5,-12(fp)
   * A common error case is that when the file descriptor was created, the call
   * to open() failed resulting in a negative file descriptor. This is trapped
   * below so that we don't try and process an invalid file descriptor.
   */

  fd = (file < 0) ? NULL : &alt_fd_list[file];
   3027c:	e0bffe17 	ldw	r2,-8(fp)
   30280:	10000616 	blt	r2,zero,3029c <fstat+0x38>
   30284:	e0bffe17 	ldw	r2,-8(fp)
   30288:	10c00324 	muli	r3,r2,12
   3028c:	008000f4 	movhi	r2,3
   30290:	10945f04 	addi	r2,r2,20860
   30294:	1885883a 	add	r2,r3,r2
   30298:	00000106 	br	302a0 <fstat+0x3c>
   3029c:	0005883a 	mov	r2,zero
   302a0:	e0bfff15 	stw	r2,-4(fp)
  
  if (fd)
   302a4:	e0bfff17 	ldw	r2,-4(fp)
   302a8:	10001026 	beq	r2,zero,302ec <fstat+0x88>
  {
    /* Call the drivers fstat() function to fill out the "st" structure. */

    if (fd->dev->fstat)
   302ac:	e0bfff17 	ldw	r2,-4(fp)
   302b0:	10800017 	ldw	r2,0(r2)
   302b4:	10800817 	ldw	r2,32(r2)
   302b8:	10000726 	beq	r2,zero,302d8 <fstat+0x74>
    {
      return fd->dev->fstat(fd, st);
   302bc:	e0bfff17 	ldw	r2,-4(fp)
   302c0:	10800017 	ldw	r2,0(r2)
   302c4:	10800817 	ldw	r2,32(r2)
   302c8:	e17ffd17 	ldw	r5,-12(fp)
   302cc:	e13fff17 	ldw	r4,-4(fp)
   302d0:	103ee83a 	callr	r2
   302d4:	00000a06 	br	30300 <fstat+0x9c>
     * device.
     */
 
    else
    {
      st->st_mode = _IFCHR;
   302d8:	e0bffd17 	ldw	r2,-12(fp)
   302dc:	00c80004 	movi	r3,8192
   302e0:	10c00115 	stw	r3,4(r2)
      return 0;
   302e4:	0005883a 	mov	r2,zero
   302e8:	00000506 	br	30300 <fstat+0x9c>
    }
  }
  else
  {
    ALT_ERRNO = EBADFD;
   302ec:	00302280 	call	30228 <alt_get_errno>
   302f0:	1007883a 	mov	r3,r2
   302f4:	00801444 	movi	r2,81
   302f8:	18800015 	stw	r2,0(r3)
    return -1;
   302fc:	00bfffc4 	movi	r2,-1
  }
}
   30300:	e037883a 	mov	sp,fp
   30304:	dfc00117 	ldw	ra,4(sp)
   30308:	df000017 	ldw	fp,0(sp)
   3030c:	dec00204 	addi	sp,sp,8
   30310:	f800283a 	ret

00030314 <getpid>:
 *
 * ALT_GETPID is mapped onto the getpid() system call in alt_syscall.h
 */
 
int ALT_GETPID (void)
{
   30314:	deffff04 	addi	sp,sp,-4
   30318:	df000015 	stw	fp,0(sp)
   3031c:	d839883a 	mov	fp,sp
  return 0;
   30320:	0005883a 	mov	r2,zero
}
   30324:	e037883a 	mov	sp,fp
   30328:	df000017 	ldw	fp,0(sp)
   3032c:	dec00104 	addi	sp,sp,4
   30330:	f800283a 	ret

00030334 <alt_get_errno>:
{
   30334:	defffe04 	addi	sp,sp,-8
   30338:	dfc00115 	stw	ra,4(sp)
   3033c:	df000015 	stw	fp,0(sp)
   30340:	d839883a 	mov	fp,sp
  return ((alt_errno) ? alt_errno() : &errno);
   30344:	d0a00c17 	ldw	r2,-32720(gp)
   30348:	10000326 	beq	r2,zero,30358 <alt_get_errno+0x24>
   3034c:	d0a00c17 	ldw	r2,-32720(gp)
   30350:	103ee83a 	callr	r2
   30354:	00000106 	br	3035c <alt_get_errno+0x28>
   30358:	d0a92504 	addi	r2,gp,-23404
}
   3035c:	e037883a 	mov	sp,fp
   30360:	dfc00117 	ldw	ra,4(sp)
   30364:	df000017 	ldw	fp,0(sp)
   30368:	dec00204 	addi	sp,sp,8
   3036c:	f800283a 	ret

00030370 <isatty>:
 *
 * ALT_ISATTY is mapped onto the isatty() system call in alt_syscall.h
 */
 
int ALT_ISATTY (int file)
{
   30370:	deffea04 	addi	sp,sp,-88
   30374:	dfc01515 	stw	ra,84(sp)
   30378:	df001415 	stw	fp,80(sp)
   3037c:	df001404 	addi	fp,sp,80
   30380:	e13fec15 	stw	r4,-80(fp)
   * A common error case is that when the file descriptor was created, the call
   * to open() failed resulting in a negative file descriptor. This is trapped
   * below so that we don't try and process an invalid file descriptor.
   */

  fd = (file < 0) ? NULL : &alt_fd_list[file];
   30384:	e0bfec17 	ldw	r2,-80(fp)
   30388:	10000616 	blt	r2,zero,303a4 <isatty+0x34>
   3038c:	e0bfec17 	ldw	r2,-80(fp)
   30390:	10c00324 	muli	r3,r2,12
   30394:	008000f4 	movhi	r2,3
   30398:	10945f04 	addi	r2,r2,20860
   3039c:	1885883a 	add	r2,r3,r2
   303a0:	00000106 	br	303a8 <isatty+0x38>
   303a4:	0005883a 	mov	r2,zero
   303a8:	e0bfff15 	stw	r2,-4(fp)
  
  if (fd)
   303ac:	e0bfff17 	ldw	r2,-4(fp)
   303b0:	10000e26 	beq	r2,zero,303ec <isatty+0x7c>
    /*
     * If a device driver does not provide an fstat() function, then it is 
     * treated as a terminal device by default.
     */

    if (!fd->dev->fstat)
   303b4:	e0bfff17 	ldw	r2,-4(fp)
   303b8:	10800017 	ldw	r2,0(r2)
   303bc:	10800817 	ldw	r2,32(r2)
   303c0:	1000021e 	bne	r2,zero,303cc <isatty+0x5c>
    {
      return 1;
   303c4:	00800044 	movi	r2,1
   303c8:	00000d06 	br	30400 <isatty+0x90>
     * this is called so that the device can identify itself.
     */ 

    else
    {
      fstat (file, &stat);
   303cc:	e0bfed04 	addi	r2,fp,-76
   303d0:	100b883a 	mov	r5,r2
   303d4:	e13fec17 	ldw	r4,-80(fp)
   303d8:	00302640 	call	30264 <fstat>
      return (stat.st_mode == _IFCHR) ? 1 : 0;
   303dc:	e0bfee17 	ldw	r2,-72(fp)
   303e0:	10880020 	cmpeqi	r2,r2,8192
   303e4:	10803fcc 	andi	r2,r2,255
   303e8:	00000506 	br	30400 <isatty+0x90>
    }
  }
  else
  {
    ALT_ERRNO = EBADFD;
   303ec:	00303340 	call	30334 <alt_get_errno>
   303f0:	1007883a 	mov	r3,r2
   303f4:	00801444 	movi	r2,81
   303f8:	18800015 	stw	r2,0(r3)
    return 0;
   303fc:	0005883a 	mov	r2,zero
  }
}
   30400:	e037883a 	mov	sp,fp
   30404:	dfc00117 	ldw	ra,4(sp)
   30408:	df000017 	ldw	fp,0(sp)
   3040c:	dec00204 	addi	sp,sp,8
   30410:	f800283a 	ret

00030414 <alt_get_errno>:
{
   30414:	defffe04 	addi	sp,sp,-8
   30418:	dfc00115 	stw	ra,4(sp)
   3041c:	df000015 	stw	fp,0(sp)
   30420:	d839883a 	mov	fp,sp
  return ((alt_errno) ? alt_errno() : &errno);
   30424:	d0a00c17 	ldw	r2,-32720(gp)
   30428:	10000326 	beq	r2,zero,30438 <alt_get_errno+0x24>
   3042c:	d0a00c17 	ldw	r2,-32720(gp)
   30430:	103ee83a 	callr	r2
   30434:	00000106 	br	3043c <alt_get_errno+0x28>
   30438:	d0a92504 	addi	r2,gp,-23404
}
   3043c:	e037883a 	mov	sp,fp
   30440:	dfc00117 	ldw	ra,4(sp)
   30444:	df000017 	ldw	fp,0(sp)
   30448:	dec00204 	addi	sp,sp,8
   3044c:	f800283a 	ret

00030450 <kill>:
 *
 * ALT_KILL is mapped onto the kill() system call in alt_syscall.h
 */

int ALT_KILL (int pid, int sig)
{
   30450:	defffb04 	addi	sp,sp,-20
   30454:	dfc00415 	stw	ra,16(sp)
   30458:	df000315 	stw	fp,12(sp)
   3045c:	df000304 	addi	fp,sp,12
   30460:	e13ffe15 	stw	r4,-8(fp)
   30464:	e17ffd15 	stw	r5,-12(fp)
  int status = 0;
   30468:	e03fff15 	stw	zero,-4(fp)

  if (pid <= 0)
   3046c:	e0bffe17 	ldw	r2,-8(fp)
   30470:	00802e16 	blt	zero,r2,3052c <kill+0xdc>
   30474:	e0bffd17 	ldw	r2,-12(fp)
   30478:	10800828 	cmpgeui	r2,r2,32
   3047c:	1000281e 	bne	r2,zero,30520 <kill+0xd0>
   30480:	e0bffd17 	ldw	r2,-12(fp)
   30484:	100690ba 	slli	r3,r2,2
   30488:	008000f4 	movhi	r2,3
   3048c:	1885883a 	add	r2,r3,r2
   30490:	10812617 	ldw	r2,1176(r2)
   30494:	1000683a 	jmp	r2
   30498:	00030540 	call	3054 <__alt_mem_onchip_memory2_0-0x1cfac>
   3049c:	00030520 	cmpeqi	zero,zero,3092
   304a0:	00030520 	cmpeqi	zero,zero,3092
   304a4:	00030518 	cmpnei	zero,zero,3092
   304a8:	00030518 	cmpnei	zero,zero,3092
   304ac:	00030518 	cmpnei	zero,zero,3092
   304b0:	00030518 	cmpnei	zero,zero,3092
   304b4:	00030520 	cmpeqi	zero,zero,3092
   304b8:	00030518 	cmpnei	zero,zero,3092
   304bc:	00030518 	cmpnei	zero,zero,3092
   304c0:	00030518 	cmpnei	zero,zero,3092
   304c4:	00030518 	cmpnei	zero,zero,3092
   304c8:	00030518 	cmpnei	zero,zero,3092
   304cc:	00030518 	cmpnei	zero,zero,3092
   304d0:	00030518 	cmpnei	zero,zero,3092
   304d4:	00030518 	cmpnei	zero,zero,3092
   304d8:	00030540 	call	3054 <__alt_mem_onchip_memory2_0-0x1cfac>
   304dc:	00030520 	cmpeqi	zero,zero,3092
   304e0:	00030520 	cmpeqi	zero,zero,3092
   304e4:	00030520 	cmpeqi	zero,zero,3092
   304e8:	00030540 	call	3054 <__alt_mem_onchip_memory2_0-0x1cfac>
   304ec:	00030520 	cmpeqi	zero,zero,3092
   304f0:	00030520 	cmpeqi	zero,zero,3092
   304f4:	00030518 	cmpnei	zero,zero,3092
   304f8:	00030518 	cmpnei	zero,zero,3092
   304fc:	00030518 	cmpnei	zero,zero,3092
   30500:	00030518 	cmpnei	zero,zero,3092
   30504:	00030518 	cmpnei	zero,zero,3092
   30508:	00030520 	cmpeqi	zero,zero,3092
   3050c:	00030520 	cmpeqi	zero,zero,3092
   30510:	00030518 	cmpnei	zero,zero,3092
   30514:	00030518 	cmpnei	zero,zero,3092
       * The Posix standard defines the default behaviour for all these signals 
       * as being eqivalent to a call to _exit(). No mechanism is provided to 
       * change this behaviour.
       */

      _exit(0);
   30518:	0009883a 	mov	r4,zero
   3051c:	00300900 	call	30090 <_exit>
      break;
    default:

      /* Tried to send an unsupported signal */

      status = EINVAL;
   30520:	00800584 	movi	r2,22
   30524:	e0bfff15 	stw	r2,-4(fp)
   30528:	00000606 	br	30544 <kill+0xf4>
    }
  }

  else if (pid > 0)
   3052c:	e0bffe17 	ldw	r2,-8(fp)
   30530:	0080040e 	bge	zero,r2,30544 <kill+0xf4>
  {
    /* Attempted to signal a non-existant process */

    status = ESRCH;
   30534:	008000c4 	movi	r2,3
   30538:	e0bfff15 	stw	r2,-4(fp)
   3053c:	00000106 	br	30544 <kill+0xf4>
      break;
   30540:	0001883a 	nop
  }

  if (status)
   30544:	e0bfff17 	ldw	r2,-4(fp)
   30548:	10000626 	beq	r2,zero,30564 <kill+0x114>
  {
    ALT_ERRNO = status;
   3054c:	00304140 	call	30414 <alt_get_errno>
   30550:	1007883a 	mov	r3,r2
   30554:	e0bfff17 	ldw	r2,-4(fp)
   30558:	18800015 	stw	r2,0(r3)
    return -1;
   3055c:	00bfffc4 	movi	r2,-1
   30560:	00000106 	br	30568 <kill+0x118>
  }

  return 0;
   30564:	0005883a 	mov	r2,zero
}
   30568:	e037883a 	mov	sp,fp
   3056c:	dfc00117 	ldw	ra,4(sp)
   30570:	df000017 	ldw	fp,0(sp)
   30574:	dec00204 	addi	sp,sp,8
   30578:	f800283a 	ret

0003057c <alt_load_section>:
 */

static void ALT_INLINE alt_load_section (alt_u32* from, 
                                         alt_u32* to, 
                                         alt_u32* end)
{
   3057c:	defffc04 	addi	sp,sp,-16
   30580:	df000315 	stw	fp,12(sp)
   30584:	df000304 	addi	fp,sp,12
   30588:	e13fff15 	stw	r4,-4(fp)
   3058c:	e17ffe15 	stw	r5,-8(fp)
   30590:	e1bffd15 	stw	r6,-12(fp)
  if (to != from)
   30594:	e0fffe17 	ldw	r3,-8(fp)
   30598:	e0bfff17 	ldw	r2,-4(fp)
   3059c:	18800c26 	beq	r3,r2,305d0 <alt_load_section+0x54>
  {
    while( to != end )
   305a0:	00000806 	br	305c4 <alt_load_section+0x48>
    {
      *to++ = *from++;
   305a4:	e0ffff17 	ldw	r3,-4(fp)
   305a8:	18800104 	addi	r2,r3,4
   305ac:	e0bfff15 	stw	r2,-4(fp)
   305b0:	e0bffe17 	ldw	r2,-8(fp)
   305b4:	11000104 	addi	r4,r2,4
   305b8:	e13ffe15 	stw	r4,-8(fp)
   305bc:	18c00017 	ldw	r3,0(r3)
   305c0:	10c00015 	stw	r3,0(r2)
    while( to != end )
   305c4:	e0fffe17 	ldw	r3,-8(fp)
   305c8:	e0bffd17 	ldw	r2,-12(fp)
   305cc:	18bff51e 	bne	r3,r2,305a4 <alt_load_section+0x28>
    }
  }
}
   305d0:	0001883a 	nop
   305d4:	e037883a 	mov	sp,fp
   305d8:	df000017 	ldw	fp,0(sp)
   305dc:	dec00104 	addi	sp,sp,4
   305e0:	f800283a 	ret

000305e4 <alt_load>:
 * there is no bootloader, so this application is responsible for loading to
 * RAM any sections that are required.
 */  

void alt_load (void)
{
   305e4:	defffe04 	addi	sp,sp,-8
   305e8:	dfc00115 	stw	ra,4(sp)
   305ec:	df000015 	stw	fp,0(sp)
   305f0:	d839883a 	mov	fp,sp
  /* 
   * Copy the .rwdata section. 
   */

  alt_load_section (&__flash_rwdata_start, 
   305f4:	018000f4 	movhi	r6,3
   305f8:	31991904 	addi	r6,r6,25700
   305fc:	014000f4 	movhi	r5,3
   30600:	29500504 	addi	r5,r5,16404
   30604:	010000f4 	movhi	r4,3
   30608:	21191904 	addi	r4,r4,25700
   3060c:	003057c0 	call	3057c <alt_load_section>

  /*
   * Copy the exception handler.
   */

  alt_load_section (&__flash_exceptions_start, 
   30610:	018000b4 	movhi	r6,2
   30614:	31808e04 	addi	r6,r6,568
   30618:	014000b4 	movhi	r5,2
   3061c:	29400804 	addi	r5,r5,32
   30620:	010000b4 	movhi	r4,2
   30624:	21000804 	addi	r4,r4,32
   30628:	003057c0 	call	3057c <alt_load_section>

  /*
   * Copy the .rodata section.
   */

  alt_load_section (&__flash_rodata_start, 
   3062c:	018000f4 	movhi	r6,3
   30630:	31900504 	addi	r6,r6,16404
   30634:	014000f4 	movhi	r5,3
   30638:	294ce604 	addi	r5,r5,13208
   3063c:	010000f4 	movhi	r4,3
   30640:	210ce604 	addi	r4,r4,13208
   30644:	003057c0 	call	3057c <alt_load_section>
  
  /*
   * Now ensure that the caches are in synch.
   */
  
  alt_dcache_flush_all();
   30648:	00327b40 	call	327b4 <alt_dcache_flush_all>
  alt_icache_flush_all();
   3064c:	0032be40 	call	32be4 <alt_icache_flush_all>
}
   30650:	0001883a 	nop
   30654:	e037883a 	mov	sp,fp
   30658:	dfc00117 	ldw	ra,4(sp)
   3065c:	df000017 	ldw	fp,0(sp)
   30660:	dec00204 	addi	sp,sp,8
   30664:	f800283a 	ret

00030668 <alt_get_errno>:
{
   30668:	defffe04 	addi	sp,sp,-8
   3066c:	dfc00115 	stw	ra,4(sp)
   30670:	df000015 	stw	fp,0(sp)
   30674:	d839883a 	mov	fp,sp
  return ((alt_errno) ? alt_errno() : &errno);
   30678:	d0a00c17 	ldw	r2,-32720(gp)
   3067c:	10000326 	beq	r2,zero,3068c <alt_get_errno+0x24>
   30680:	d0a00c17 	ldw	r2,-32720(gp)
   30684:	103ee83a 	callr	r2
   30688:	00000106 	br	30690 <alt_get_errno+0x28>
   3068c:	d0a92504 	addi	r2,gp,-23404
}
   30690:	e037883a 	mov	sp,fp
   30694:	dfc00117 	ldw	ra,4(sp)
   30698:	df000017 	ldw	fp,0(sp)
   3069c:	dec00204 	addi	sp,sp,8
   306a0:	f800283a 	ret

000306a4 <lseek>:
 * ALT_LSEEK is mapped onto the lseek() system call in alt_syscall.h
 *
 */

off_t ALT_LSEEK (int file, off_t ptr, int dir)
{
   306a4:	defff904 	addi	sp,sp,-28
   306a8:	dfc00615 	stw	ra,24(sp)
   306ac:	df000515 	stw	fp,20(sp)
   306b0:	df000504 	addi	fp,sp,20
   306b4:	e13ffd15 	stw	r4,-12(fp)
   306b8:	e17ffc15 	stw	r5,-16(fp)
   306bc:	e1bffb15 	stw	r6,-20(fp)
  alt_fd* fd;
  off_t   rc = 0; 
   306c0:	e03fff15 	stw	zero,-4(fp)
   * A common error case is that when the file descriptor was created, the call
   * to open() failed resulting in a negative file descriptor. This is trapped
   * below so that we don't try and process an invalid file descriptor.
   */

  fd = (file < 0) ? NULL : &alt_fd_list[file];
   306c4:	e0bffd17 	ldw	r2,-12(fp)
   306c8:	10000616 	blt	r2,zero,306e4 <lseek+0x40>
   306cc:	e0bffd17 	ldw	r2,-12(fp)
   306d0:	10c00324 	muli	r3,r2,12
   306d4:	008000f4 	movhi	r2,3
   306d8:	10945f04 	addi	r2,r2,20860
   306dc:	1885883a 	add	r2,r3,r2
   306e0:	00000106 	br	306e8 <lseek+0x44>
   306e4:	0005883a 	mov	r2,zero
   306e8:	e0bffe15 	stw	r2,-8(fp)
  
  if (fd) 
   306ec:	e0bffe17 	ldw	r2,-8(fp)
   306f0:	10001026 	beq	r2,zero,30734 <lseek+0x90>
    /*
     * If the device driver provides an implementation of the lseek() function,
     * then call that to process the request.
     */
 
    if (fd->dev->lseek)
   306f4:	e0bffe17 	ldw	r2,-8(fp)
   306f8:	10800017 	ldw	r2,0(r2)
   306fc:	10800717 	ldw	r2,28(r2)
   30700:	10000926 	beq	r2,zero,30728 <lseek+0x84>
    {
      rc = fd->dev->lseek(fd, ptr, dir);
   30704:	e0bffe17 	ldw	r2,-8(fp)
   30708:	10800017 	ldw	r2,0(r2)
   3070c:	10800717 	ldw	r2,28(r2)
   30710:	e1bffb17 	ldw	r6,-20(fp)
   30714:	e17ffc17 	ldw	r5,-16(fp)
   30718:	e13ffe17 	ldw	r4,-8(fp)
   3071c:	103ee83a 	callr	r2
   30720:	e0bfff15 	stw	r2,-4(fp)
   30724:	00000506 	br	3073c <lseek+0x98>
     * Otherwise return an error.
     */

    else
    {
      rc = -ENOTSUP;
   30728:	00bfde84 	movi	r2,-134
   3072c:	e0bfff15 	stw	r2,-4(fp)
   30730:	00000206 	br	3073c <lseek+0x98>
    }
  }
  else  
  {
    rc = -EBADFD;
   30734:	00bfebc4 	movi	r2,-81
   30738:	e0bfff15 	stw	r2,-4(fp)
  }

  if (rc < 0)
   3073c:	e0bfff17 	ldw	r2,-4(fp)
   30740:	1000070e 	bge	r2,zero,30760 <lseek+0xbc>
  {
    ALT_ERRNO = -rc;
   30744:	00306680 	call	30668 <alt_get_errno>
   30748:	1007883a 	mov	r3,r2
   3074c:	e0bfff17 	ldw	r2,-4(fp)
   30750:	0085c83a 	sub	r2,zero,r2
   30754:	18800015 	stw	r2,0(r3)
    rc = -1;
   30758:	00bfffc4 	movi	r2,-1
   3075c:	e0bfff15 	stw	r2,-4(fp)
  }

  return rc;
   30760:	e0bfff17 	ldw	r2,-4(fp)
}
   30764:	e037883a 	mov	sp,fp
   30768:	dfc00117 	ldw	ra,4(sp)
   3076c:	df000017 	ldw	fp,0(sp)
   30770:	dec00204 	addi	sp,sp,8
   30774:	f800283a 	ret

00030778 <alt_main>:
 * devices/filesystems/components in the system; and call the entry point for
 * the users application, i.e. main().
 */

void alt_main (void)
{
   30778:	defffd04 	addi	sp,sp,-12
   3077c:	dfc00215 	stw	ra,8(sp)
   30780:	df000115 	stw	fp,4(sp)
   30784:	df000104 	addi	fp,sp,4
#endif

  /* ALT LOG - please see HAL/sys/alt_log_printf.h for details */
  ALT_LOG_PRINT_BOOT("[alt_main.c] Entering alt_main, calling alt_irq_init.\r\n");
  /* Initialize the interrupt controller. */
  alt_irq_init (NULL);
   30788:	0009883a 	mov	r4,zero
   3078c:	00310100 	call	31010 <alt_irq_init>

  /* Initialize the operating system */
  ALT_LOG_PRINT_BOOT("[alt_main.c] Done alt_irq_init, calling alt_os_init.\r\n");
  ALT_OS_INIT();
   30790:	0001883a 	nop
  ALT_LOG_PRINT_BOOT("[alt_main.c] Done OS Init, calling alt_sem_create.\r\n");
  ALT_SEM_CREATE (&alt_fd_list_lock, 1);

  /* Initialize the device drivers/software components. */
  ALT_LOG_PRINT_BOOT("[alt_main.c] Calling alt_sys_init.\r\n");
  alt_sys_init();
   30794:	003104c0 	call	3104c <alt_sys_init>
   * devices be present (not equal to /dev/null) and if direct drivers
   * aren't being used.
   */

    ALT_LOG_PRINT_BOOT("[alt_main.c] Redirecting IO.\r\n");
    alt_io_redirect(ALT_STDOUT, ALT_STDIN, ALT_STDERR);
   30798:	018000f4 	movhi	r6,3
   3079c:	318ffa04 	addi	r6,r6,16360
   307a0:	014000f4 	movhi	r5,3
   307a4:	294ffa04 	addi	r5,r5,16360
   307a8:	010000f4 	movhi	r4,3
   307ac:	210ffa04 	addi	r4,r4,16360
   307b0:	0032f600 	call	32f60 <alt_io_redirect>
  /* 
   * Call the C++ constructors 
   */

  ALT_LOG_PRINT_BOOT("[alt_main.c] Calling C++ constructors.\r\n");
  _do_ctors ();
   307b4:	00328e40 	call	328e4 <_do_ctors>
   * redefined as _exit()). This is in the interest of reducing code footprint,
   * in that the atexit() overhead is removed when it's not needed.
   */

  ALT_LOG_PRINT_BOOT("[alt_main.c] Calling atexit.\r\n");
  atexit (_do_dtors);
   307b8:	010000f4 	movhi	r4,3
   307bc:	210a5204 	addi	r4,r4,10568
   307c0:	00331280 	call	33128 <atexit>
  ALT_LOG_PRINT_BOOT("[alt_main.c] Calling main.\r\n");

#ifdef ALT_NO_EXIT
  main (alt_argc, alt_argv, alt_envp);
#else
  result = main (alt_argc, alt_argv, alt_envp);
   307c4:	d0a92a17 	ldw	r2,-23384(gp)
   307c8:	d0e92b17 	ldw	r3,-23380(gp)
   307cc:	d1292c17 	ldw	r4,-23376(gp)
   307d0:	200d883a 	mov	r6,r4
   307d4:	180b883a 	mov	r5,r3
   307d8:	1009883a 	mov	r4,r2
   307dc:	00216e00 	call	216e0 <main>
   307e0:	e0bfff15 	stw	r2,-4(fp)
  close(STDOUT_FILENO);
   307e4:	01000044 	movi	r4,1
   307e8:	002ff940 	call	2ff94 <close>
  exit (result);
   307ec:	e13fff17 	ldw	r4,-4(fp)
   307f0:	003313c0 	call	3313c <exit>

000307f4 <__malloc_lock>:
 * configuration is single threaded, so there is nothing to do here. Note that 
 * this requires that malloc is never called by an interrupt service routine.
 */

void __malloc_lock ( struct _reent *_r )
{
   307f4:	defffe04 	addi	sp,sp,-8
   307f8:	df000115 	stw	fp,4(sp)
   307fc:	df000104 	addi	fp,sp,4
   30800:	e13fff15 	stw	r4,-4(fp)
}
   30804:	0001883a 	nop
   30808:	e037883a 	mov	sp,fp
   3080c:	df000017 	ldw	fp,0(sp)
   30810:	dec00104 	addi	sp,sp,4
   30814:	f800283a 	ret

00030818 <__malloc_unlock>:
/*
 *
 */

void __malloc_unlock ( struct _reent *_r )
{
   30818:	defffe04 	addi	sp,sp,-8
   3081c:	df000115 	stw	fp,4(sp)
   30820:	df000104 	addi	fp,sp,4
   30824:	e13fff15 	stw	r4,-4(fp)
}
   30828:	0001883a 	nop
   3082c:	e037883a 	mov	sp,fp
   30830:	df000017 	ldw	fp,0(sp)
   30834:	dec00104 	addi	sp,sp,4
   30838:	f800283a 	ret

0003083c <alt_get_errno>:
{
   3083c:	defffe04 	addi	sp,sp,-8
   30840:	dfc00115 	stw	ra,4(sp)
   30844:	df000015 	stw	fp,0(sp)
   30848:	d839883a 	mov	fp,sp
  return ((alt_errno) ? alt_errno() : &errno);
   3084c:	d0a00c17 	ldw	r2,-32720(gp)
   30850:	10000326 	beq	r2,zero,30860 <alt_get_errno+0x24>
   30854:	d0a00c17 	ldw	r2,-32720(gp)
   30858:	103ee83a 	callr	r2
   3085c:	00000106 	br	30864 <alt_get_errno+0x28>
   30860:	d0a92504 	addi	r2,gp,-23404
}
   30864:	e037883a 	mov	sp,fp
   30868:	dfc00117 	ldw	ra,4(sp)
   3086c:	df000017 	ldw	fp,0(sp)
   30870:	dec00204 	addi	sp,sp,8
   30874:	f800283a 	ret

00030878 <alt_file_locked>:
 * performed for devices. Filesystems are required to handle the ioctl() call
 * themselves, and report the error from the filesystems open() function. 
 */ 

static int alt_file_locked (alt_fd* fd)
{
   30878:	defffd04 	addi	sp,sp,-12
   3087c:	df000215 	stw	fp,8(sp)
   30880:	df000204 	addi	fp,sp,8
   30884:	e13ffe15 	stw	r4,-8(fp)

  /*
   * Mark the file descriptor as belonging to a device.
   */

  fd->fd_flags |= ALT_FD_DEV;
   30888:	e0bffe17 	ldw	r2,-8(fp)
   3088c:	10800217 	ldw	r2,8(r2)
   30890:	10d00034 	orhi	r3,r2,16384
   30894:	e0bffe17 	ldw	r2,-8(fp)
   30898:	10c00215 	stw	r3,8(r2)
  /*
   * Loop through all current file descriptors searching for one that's locked
   * for exclusive access. If a match is found, generate an error.
   */

  for (i = 0; i <= alt_max_fd; i++)
   3089c:	e03fff15 	stw	zero,-4(fp)
   308a0:	00001a06 	br	3090c <alt_file_locked+0x94>
  {
    if ((alt_fd_list[i].dev == fd->dev) &&
   308a4:	e0bfff17 	ldw	r2,-4(fp)
   308a8:	10c00324 	muli	r3,r2,12
   308ac:	008000f4 	movhi	r2,3
   308b0:	1885883a 	add	r2,r3,r2
   308b4:	10d45f17 	ldw	r3,20860(r2)
   308b8:	e0bffe17 	ldw	r2,-8(fp)
   308bc:	10800017 	ldw	r2,0(r2)
   308c0:	18800f1e 	bne	r3,r2,30900 <alt_file_locked+0x88>
        (alt_fd_list[i].fd_flags & ALT_FD_EXCL) &&
   308c4:	e0bfff17 	ldw	r2,-4(fp)
   308c8:	10c00324 	muli	r3,r2,12
   308cc:	008000f4 	movhi	r2,3
   308d0:	1885883a 	add	r2,r3,r2
   308d4:	10946117 	ldw	r2,20868(r2)
    if ((alt_fd_list[i].dev == fd->dev) &&
   308d8:	1000090e 	bge	r2,zero,30900 <alt_file_locked+0x88>
        (&alt_fd_list[i] != fd))
   308dc:	e0bfff17 	ldw	r2,-4(fp)
   308e0:	10c00324 	muli	r3,r2,12
   308e4:	008000f4 	movhi	r2,3
   308e8:	10945f04 	addi	r2,r2,20860
   308ec:	1885883a 	add	r2,r3,r2
        (alt_fd_list[i].fd_flags & ALT_FD_EXCL) &&
   308f0:	e0fffe17 	ldw	r3,-8(fp)
   308f4:	18800226 	beq	r3,r2,30900 <alt_file_locked+0x88>
    {
      return -EACCES;
   308f8:	00bffcc4 	movi	r2,-13
   308fc:	00000806 	br	30920 <alt_file_locked+0xa8>
  for (i = 0; i <= alt_max_fd; i++)
   30900:	e0bfff17 	ldw	r2,-4(fp)
   30904:	10800044 	addi	r2,r2,1
   30908:	e0bfff15 	stw	r2,-4(fp)
   3090c:	d0a00b17 	ldw	r2,-32724(gp)
   30910:	1007883a 	mov	r3,r2
   30914:	e0bfff17 	ldw	r2,-4(fp)
   30918:	18bfe22e 	bgeu	r3,r2,308a4 <alt_file_locked+0x2c>
    }
  }
  
  /* The device is not locked */
 
  return 0;
   3091c:	0005883a 	mov	r2,zero
}
   30920:	e037883a 	mov	sp,fp
   30924:	df000017 	ldw	fp,0(sp)
   30928:	dec00104 	addi	sp,sp,4
   3092c:	f800283a 	ret

00030930 <open>:
 *
 * ALT_OPEN is mapped onto the open() system call in alt_syscall.h
 */
 
int ALT_OPEN (const char* file, int flags, int mode)
{ 
   30930:	defff604 	addi	sp,sp,-40
   30934:	dfc00915 	stw	ra,36(sp)
   30938:	df000815 	stw	fp,32(sp)
   3093c:	df000804 	addi	fp,sp,32
   30940:	e13ffa15 	stw	r4,-24(fp)
   30944:	e17ff915 	stw	r5,-28(fp)
   30948:	e1bff815 	stw	r6,-32(fp)
  alt_dev* dev;
  alt_fd*  fd;
  int index  = -1;
   3094c:	00bfffc4 	movi	r2,-1
   30950:	e0bffe15 	stw	r2,-8(fp)
  int status = -ENODEV;
   30954:	00bffb44 	movi	r2,-19
   30958:	e0bffd15 	stw	r2,-12(fp)
  int isafs = 0;
   3095c:	e03ffc15 	stw	zero,-16(fp)
  /* 
   * Check the device list, to see if a device with a matching name is 
   * registered.
   */
  
  if (!(dev = alt_find_dev (file, &alt_dev_list)))
   30960:	d1600904 	addi	r5,gp,-32732
   30964:	e13ffa17 	ldw	r4,-24(fp)
   30968:	00329ac0 	call	329ac <alt_find_dev>
   3096c:	e0bfff15 	stw	r2,-4(fp)
   30970:	e0bfff17 	ldw	r2,-4(fp)
   30974:	1000051e 	bne	r2,zero,3098c <open+0x5c>
  {
    /* No matching device, so try the filesystem list */

    dev   = alt_find_file (file);
   30978:	e13ffa17 	ldw	r4,-24(fp)
   3097c:	0032a3c0 	call	32a3c <alt_find_file>
   30980:	e0bfff15 	stw	r2,-4(fp)
    isafs = 1;
   30984:	00800044 	movi	r2,1
   30988:	e0bffc15 	stw	r2,-16(fp)

  /* 
   * If a matching device or filesystem is found, allocate a file descriptor. 
   */

  if (dev)
   3098c:	e0bfff17 	ldw	r2,-4(fp)
   30990:	10002926 	beq	r2,zero,30a38 <open+0x108>
  {
    if ((index = alt_get_fd (dev)) < 0)
   30994:	e13fff17 	ldw	r4,-4(fp)
   30998:	0032b440 	call	32b44 <alt_get_fd>
   3099c:	e0bffe15 	stw	r2,-8(fp)
   309a0:	e0bffe17 	ldw	r2,-8(fp)
   309a4:	1000030e 	bge	r2,zero,309b4 <open+0x84>
    {
      status = index;
   309a8:	e0bffe17 	ldw	r2,-8(fp)
   309ac:	e0bffd15 	stw	r2,-12(fp)
   309b0:	00002306 	br	30a40 <open+0x110>
    }
    else
    {
      fd = &alt_fd_list[index];
   309b4:	e0bffe17 	ldw	r2,-8(fp)
   309b8:	10c00324 	muli	r3,r2,12
   309bc:	008000f4 	movhi	r2,3
   309c0:	10945f04 	addi	r2,r2,20860
   309c4:	1885883a 	add	r2,r3,r2
   309c8:	e0bffb15 	stw	r2,-20(fp)
      fd->fd_flags = (flags & ~ALT_FD_FLAGS_MASK);
   309cc:	e0fff917 	ldw	r3,-28(fp)
   309d0:	00900034 	movhi	r2,16384
   309d4:	10bfffc4 	addi	r2,r2,-1
   309d8:	1886703a 	and	r3,r3,r2
   309dc:	e0bffb17 	ldw	r2,-20(fp)
   309e0:	10c00215 	stw	r3,8(r2)
      
      /* If this is a device, ensure it isn't already locked */

      if (isafs || ((status = alt_file_locked (fd)) >= 0))
   309e4:	e0bffc17 	ldw	r2,-16(fp)
   309e8:	1000051e 	bne	r2,zero,30a00 <open+0xd0>
   309ec:	e13ffb17 	ldw	r4,-20(fp)
   309f0:	00308780 	call	30878 <alt_file_locked>
   309f4:	e0bffd15 	stw	r2,-12(fp)
   309f8:	e0bffd17 	ldw	r2,-12(fp)
   309fc:	10001016 	blt	r2,zero,30a40 <open+0x110>
        /* 
         * If the device or filesystem provides an open() callback function,
         * call it now to perform any device/filesystem specific operations.
         */
    
        status = (dev->open) ? dev->open(fd, file, flags, mode): 0;
   30a00:	e0bfff17 	ldw	r2,-4(fp)
   30a04:	10800317 	ldw	r2,12(r2)
   30a08:	10000826 	beq	r2,zero,30a2c <open+0xfc>
   30a0c:	e0bfff17 	ldw	r2,-4(fp)
   30a10:	10800317 	ldw	r2,12(r2)
   30a14:	e1fff817 	ldw	r7,-32(fp)
   30a18:	e1bff917 	ldw	r6,-28(fp)
   30a1c:	e17ffa17 	ldw	r5,-24(fp)
   30a20:	e13ffb17 	ldw	r4,-20(fp)
   30a24:	103ee83a 	callr	r2
   30a28:	00000106 	br	30a30 <open+0x100>
   30a2c:	0005883a 	mov	r2,zero
   30a30:	e0bffd15 	stw	r2,-12(fp)
   30a34:	00000206 	br	30a40 <open+0x110>
      }
    }
  }
  else
  {
    status = -ENODEV;
   30a38:	00bffb44 	movi	r2,-19
   30a3c:	e0bffd15 	stw	r2,-12(fp)
  }

  /* Allocation failed, so clean up and return an error */ 

  if (status < 0)
   30a40:	e0bffd17 	ldw	r2,-12(fp)
   30a44:	1000090e 	bge	r2,zero,30a6c <open+0x13c>
  {
    alt_release_fd (index);  
   30a48:	e13ffe17 	ldw	r4,-8(fp)
   30a4c:	0030bbc0 	call	30bbc <alt_release_fd>
    ALT_ERRNO = -status;
   30a50:	003083c0 	call	3083c <alt_get_errno>
   30a54:	1007883a 	mov	r3,r2
   30a58:	e0bffd17 	ldw	r2,-12(fp)
   30a5c:	0085c83a 	sub	r2,zero,r2
   30a60:	18800015 	stw	r2,0(r3)
    return -1;
   30a64:	00bfffc4 	movi	r2,-1
   30a68:	00000106 	br	30a70 <open+0x140>
  }
  
  /* return the reference upon success */

  return index;
   30a6c:	e0bffe17 	ldw	r2,-8(fp)
}
   30a70:	e037883a 	mov	sp,fp
   30a74:	dfc00117 	ldw	ra,4(sp)
   30a78:	df000017 	ldw	fp,0(sp)
   30a7c:	dec00204 	addi	sp,sp,8
   30a80:	f800283a 	ret

00030a84 <alt_get_errno>:
{
   30a84:	defffe04 	addi	sp,sp,-8
   30a88:	dfc00115 	stw	ra,4(sp)
   30a8c:	df000015 	stw	fp,0(sp)
   30a90:	d839883a 	mov	fp,sp
  return ((alt_errno) ? alt_errno() : &errno);
   30a94:	d0a00c17 	ldw	r2,-32720(gp)
   30a98:	10000326 	beq	r2,zero,30aa8 <alt_get_errno+0x24>
   30a9c:	d0a00c17 	ldw	r2,-32720(gp)
   30aa0:	103ee83a 	callr	r2
   30aa4:	00000106 	br	30aac <alt_get_errno+0x28>
   30aa8:	d0a92504 	addi	r2,gp,-23404
}
   30aac:	e037883a 	mov	sp,fp
   30ab0:	dfc00117 	ldw	ra,4(sp)
   30ab4:	df000017 	ldw	fp,0(sp)
   30ab8:	dec00204 	addi	sp,sp,8
   30abc:	f800283a 	ret

00030ac0 <read>:
}

#else /* !ALT_USE_DIRECT_DRIVERS */

int ALT_READ (int file, void *ptr, size_t len)
{
   30ac0:	defff904 	addi	sp,sp,-28
   30ac4:	dfc00615 	stw	ra,24(sp)
   30ac8:	df000515 	stw	fp,20(sp)
   30acc:	df000504 	addi	fp,sp,20
   30ad0:	e13ffd15 	stw	r4,-12(fp)
   30ad4:	e17ffc15 	stw	r5,-16(fp)
   30ad8:	e1bffb15 	stw	r6,-20(fp)
   * A common error case is that when the file descriptor was created, the call
   * to open() failed resulting in a negative file descriptor. This is trapped
   * below so that we don't try and process an invalid file descriptor.
   */

  fd = (file < 0) ? NULL : &alt_fd_list[file];
   30adc:	e0bffd17 	ldw	r2,-12(fp)
   30ae0:	10000616 	blt	r2,zero,30afc <read+0x3c>
   30ae4:	e0bffd17 	ldw	r2,-12(fp)
   30ae8:	10c00324 	muli	r3,r2,12
   30aec:	008000f4 	movhi	r2,3
   30af0:	10945f04 	addi	r2,r2,20860
   30af4:	1885883a 	add	r2,r3,r2
   30af8:	00000106 	br	30b00 <read+0x40>
   30afc:	0005883a 	mov	r2,zero
   30b00:	e0bfff15 	stw	r2,-4(fp)
  
  if (fd)
   30b04:	e0bfff17 	ldw	r2,-4(fp)
   30b08:	10002226 	beq	r2,zero,30b94 <read+0xd4>
     * If the file has not been opened with read access, or if the driver does
     * not provide an implementation of read(), generate an error. Otherwise
     * call the drivers read() function to process the request.
     */

    if (((fd->fd_flags & O_ACCMODE) != O_WRONLY) && 
   30b0c:	e0bfff17 	ldw	r2,-4(fp)
   30b10:	10800217 	ldw	r2,8(r2)
   30b14:	108000cc 	andi	r2,r2,3
   30b18:	10800060 	cmpeqi	r2,r2,1
   30b1c:	1000181e 	bne	r2,zero,30b80 <read+0xc0>
        (fd->dev->read))
   30b20:	e0bfff17 	ldw	r2,-4(fp)
   30b24:	10800017 	ldw	r2,0(r2)
   30b28:	10800517 	ldw	r2,20(r2)
    if (((fd->fd_flags & O_ACCMODE) != O_WRONLY) && 
   30b2c:	10001426 	beq	r2,zero,30b80 <read+0xc0>
      {
        if ((rval = fd->dev->read(fd, ptr, len)) < 0)
   30b30:	e0bfff17 	ldw	r2,-4(fp)
   30b34:	10800017 	ldw	r2,0(r2)
   30b38:	10800517 	ldw	r2,20(r2)
   30b3c:	e0fffb17 	ldw	r3,-20(fp)
   30b40:	180d883a 	mov	r6,r3
   30b44:	e17ffc17 	ldw	r5,-16(fp)
   30b48:	e13fff17 	ldw	r4,-4(fp)
   30b4c:	103ee83a 	callr	r2
   30b50:	e0bffe15 	stw	r2,-8(fp)
   30b54:	e0bffe17 	ldw	r2,-8(fp)
   30b58:	1000070e 	bge	r2,zero,30b78 <read+0xb8>
        {
          ALT_ERRNO = -rval;
   30b5c:	0030a840 	call	30a84 <alt_get_errno>
   30b60:	1007883a 	mov	r3,r2
   30b64:	e0bffe17 	ldw	r2,-8(fp)
   30b68:	0085c83a 	sub	r2,zero,r2
   30b6c:	18800015 	stw	r2,0(r3)
          return -1;
   30b70:	00bfffc4 	movi	r2,-1
   30b74:	00000c06 	br	30ba8 <read+0xe8>
        }
        return rval;
   30b78:	e0bffe17 	ldw	r2,-8(fp)
   30b7c:	00000a06 	br	30ba8 <read+0xe8>
      }
      else
      {
        ALT_ERRNO = EACCES;
   30b80:	0030a840 	call	30a84 <alt_get_errno>
   30b84:	1007883a 	mov	r3,r2
   30b88:	00800344 	movi	r2,13
   30b8c:	18800015 	stw	r2,0(r3)
   30b90:	00000406 	br	30ba4 <read+0xe4>
      }
    }
  else
  {
    ALT_ERRNO = EBADFD;
   30b94:	0030a840 	call	30a84 <alt_get_errno>
   30b98:	1007883a 	mov	r3,r2
   30b9c:	00801444 	movi	r2,81
   30ba0:	18800015 	stw	r2,0(r3)
  }
  return -1;
   30ba4:	00bfffc4 	movi	r2,-1
}
   30ba8:	e037883a 	mov	sp,fp
   30bac:	dfc00117 	ldw	ra,4(sp)
   30bb0:	df000017 	ldw	fp,0(sp)
   30bb4:	dec00204 	addi	sp,sp,8
   30bb8:	f800283a 	ret

00030bbc <alt_release_fd>:
 * File descriptors correcponding to standard in, standard out and standard 
 * error cannont be released backed to the pool. They are always reserved.
 */

void alt_release_fd (int fd)
{
   30bbc:	defffe04 	addi	sp,sp,-8
   30bc0:	df000115 	stw	fp,4(sp)
   30bc4:	df000104 	addi	fp,sp,4
   30bc8:	e13fff15 	stw	r4,-4(fp)
  if (fd > 2)
   30bcc:	e0bfff17 	ldw	r2,-4(fp)
   30bd0:	108000d0 	cmplti	r2,r2,3
   30bd4:	10000a1e 	bne	r2,zero,30c00 <alt_release_fd+0x44>
  {
    alt_fd_list[fd].fd_flags = 0;
   30bd8:	e0bfff17 	ldw	r2,-4(fp)
   30bdc:	10c00324 	muli	r3,r2,12
   30be0:	008000f4 	movhi	r2,3
   30be4:	1885883a 	add	r2,r3,r2
   30be8:	10146115 	stw	zero,20868(r2)
    alt_fd_list[fd].dev      = 0;
   30bec:	e0bfff17 	ldw	r2,-4(fp)
   30bf0:	10c00324 	muli	r3,r2,12
   30bf4:	008000f4 	movhi	r2,3
   30bf8:	1885883a 	add	r2,r3,r2
   30bfc:	10145f15 	stw	zero,20860(r2)
  }
}
   30c00:	0001883a 	nop
   30c04:	e037883a 	mov	sp,fp
   30c08:	df000017 	ldw	fp,0(sp)
   30c0c:	dec00104 	addi	sp,sp,4
   30c10:	f800283a 	ret

00030c14 <sbrk>:
#endif
 
caddr_t ALT_SBRK (int incr) __attribute__ ((no_instrument_function ));

caddr_t ALT_SBRK (int incr)
{ 
   30c14:	defff904 	addi	sp,sp,-28
   30c18:	df000615 	stw	fp,24(sp)
   30c1c:	df000604 	addi	fp,sp,24
   30c20:	e13ffa15 	stw	r4,-24(fp)
  NIOS2_READ_STATUS (context);
   30c24:	0005303a 	rdctl	r2,status
   30c28:	e0bffd15 	stw	r2,-12(fp)
  NIOS2_WRITE_STATUS (context & ~NIOS2_STATUS_PIE_MSK);
   30c2c:	e0fffd17 	ldw	r3,-12(fp)
   30c30:	00bfff84 	movi	r2,-2
   30c34:	1884703a 	and	r2,r3,r2
   30c38:	1001703a 	wrctl	status,r2
  return context;
   30c3c:	e0bffd17 	ldw	r2,-12(fp)
  alt_irq_context context;
  char *prev_heap_end; 

  context = alt_irq_disable_all();
   30c40:	e0bfff15 	stw	r2,-4(fp)

  /* Always return data aligned on a word boundary */
  heap_end = (char *)(((unsigned int)heap_end + 3) & ~3);
   30c44:	d0a00d17 	ldw	r2,-32716(gp)
   30c48:	10c000c4 	addi	r3,r2,3
   30c4c:	00bfff04 	movi	r2,-4
   30c50:	1884703a 	and	r2,r3,r2
   30c54:	d0a00d15 	stw	r2,-32716(gp)
  if (((heap_end + incr) - __alt_heap_start) > ALT_MAX_HEAP_BYTES) {
    alt_irq_enable_all(context);
    return (caddr_t)-1;
  }
#else
  if ((heap_end + incr) > __alt_heap_limit) {
   30c58:	d0e00d17 	ldw	r3,-32716(gp)
   30c5c:	e0bffa17 	ldw	r2,-24(fp)
   30c60:	1887883a 	add	r3,r3,r2
   30c64:	00800134 	movhi	r2,4
   30c68:	10800004 	addi	r2,r2,0
   30c6c:	10c0072e 	bgeu	r2,r3,30c8c <sbrk+0x78>
   30c70:	e0bfff17 	ldw	r2,-4(fp)
   30c74:	e0bffc15 	stw	r2,-16(fp)
  NIOS2_WRITE_STATUS (context);
   30c78:	e0bffc17 	ldw	r2,-16(fp)
   30c7c:	1001703a 	wrctl	status,r2
}
   30c80:	0001883a 	nop
    alt_irq_enable_all(context);
    return (caddr_t)-1;
   30c84:	00bfffc4 	movi	r2,-1
   30c88:	00000c06 	br	30cbc <sbrk+0xa8>
  }
#endif

  prev_heap_end = heap_end; 
   30c8c:	d0a00d17 	ldw	r2,-32716(gp)
   30c90:	e0bffe15 	stw	r2,-8(fp)
  heap_end += incr; 
   30c94:	d0e00d17 	ldw	r3,-32716(gp)
   30c98:	e0bffa17 	ldw	r2,-24(fp)
   30c9c:	1885883a 	add	r2,r3,r2
   30ca0:	d0a00d15 	stw	r2,-32716(gp)
   30ca4:	e0bfff17 	ldw	r2,-4(fp)
   30ca8:	e0bffb15 	stw	r2,-20(fp)
  NIOS2_WRITE_STATUS (context);
   30cac:	e0bffb17 	ldw	r2,-20(fp)
   30cb0:	1001703a 	wrctl	status,r2
}
   30cb4:	0001883a 	nop

#endif

  alt_irq_enable_all(context);

  return (caddr_t) prev_heap_end; 
   30cb8:	e0bffe17 	ldw	r2,-8(fp)
} 
   30cbc:	e037883a 	mov	sp,fp
   30cc0:	df000017 	ldw	fp,0(sp)
   30cc4:	dec00104 	addi	sp,sp,4
   30cc8:	f800283a 	ret

00030ccc <alt_alarm_stop>:
 * alarms. Alternatively an alarm can unregister itself by returning zero when 
 * the alarm executes.
 */

void alt_alarm_stop (alt_alarm* alarm)
{
   30ccc:	defffa04 	addi	sp,sp,-24
   30cd0:	df000515 	stw	fp,20(sp)
   30cd4:	df000504 	addi	fp,sp,20
   30cd8:	e13ffb15 	stw	r4,-20(fp)
  NIOS2_READ_STATUS (context);
   30cdc:	0005303a 	rdctl	r2,status
   30ce0:	e0bffc15 	stw	r2,-16(fp)
  NIOS2_WRITE_STATUS (context & ~NIOS2_STATUS_PIE_MSK);
   30ce4:	e0fffc17 	ldw	r3,-16(fp)
   30ce8:	00bfff84 	movi	r2,-2
   30cec:	1884703a 	and	r2,r3,r2
   30cf0:	1001703a 	wrctl	status,r2
  return context;
   30cf4:	e0bffc17 	ldw	r2,-16(fp)
  alt_irq_context irq_context;

  irq_context = alt_irq_disable_all();
   30cf8:	e0bfff15 	stw	r2,-4(fp)
  alt_llist_remove (&alarm->llist);
   30cfc:	e0bffb17 	ldw	r2,-20(fp)
   30d00:	e0bffd15 	stw	r2,-12(fp)
 * input argument is the element to remove.
 */
     
static ALT_INLINE void ALT_ALWAYS_INLINE alt_llist_remove(alt_llist* entry)
{
  entry->next->previous = entry->previous;
   30d04:	e0bffd17 	ldw	r2,-12(fp)
   30d08:	10800017 	ldw	r2,0(r2)
   30d0c:	e0fffd17 	ldw	r3,-12(fp)
   30d10:	18c00117 	ldw	r3,4(r3)
   30d14:	10c00115 	stw	r3,4(r2)
  entry->previous->next = entry->next;
   30d18:	e0bffd17 	ldw	r2,-12(fp)
   30d1c:	10800117 	ldw	r2,4(r2)
   30d20:	e0fffd17 	ldw	r3,-12(fp)
   30d24:	18c00017 	ldw	r3,0(r3)
   30d28:	10c00015 	stw	r3,0(r2)
  /* 
   * Set the entry to point to itself, so that any further calls to
   * alt_llist_remove() are harmless.
   */

  entry->previous = entry;
   30d2c:	e0bffd17 	ldw	r2,-12(fp)
   30d30:	e0fffd17 	ldw	r3,-12(fp)
   30d34:	10c00115 	stw	r3,4(r2)
  entry->next     = entry;
   30d38:	e0bffd17 	ldw	r2,-12(fp)
   30d3c:	e0fffd17 	ldw	r3,-12(fp)
   30d40:	10c00015 	stw	r3,0(r2)
} 
   30d44:	0001883a 	nop
   30d48:	e0bfff17 	ldw	r2,-4(fp)
   30d4c:	e0bffe15 	stw	r2,-8(fp)
  NIOS2_WRITE_STATUS (context);
   30d50:	e0bffe17 	ldw	r2,-8(fp)
   30d54:	1001703a 	wrctl	status,r2
}
   30d58:	0001883a 	nop
  alt_irq_enable_all (irq_context);
}
   30d5c:	0001883a 	nop
   30d60:	e037883a 	mov	sp,fp
   30d64:	df000017 	ldw	fp,0(sp)
   30d68:	dec00104 	addi	sp,sp,4
   30d6c:	f800283a 	ret

00030d70 <alt_tick>:
 * 
 * alt_tick() is expected to run at interrupt level.
 */

void alt_tick (void)
{
   30d70:	defffb04 	addi	sp,sp,-20
   30d74:	dfc00415 	stw	ra,16(sp)
   30d78:	df000315 	stw	fp,12(sp)
   30d7c:	df000304 	addi	fp,sp,12
  alt_alarm* next;
  alt_alarm* alarm = (alt_alarm*) alt_alarm_list.next;
   30d80:	d0a00e17 	ldw	r2,-32712(gp)
   30d84:	e0bfff15 	stw	r2,-4(fp)

  alt_u32    next_callback;

  /* update the tick counter */

  _alt_nticks++;
   30d88:	d0a92e17 	ldw	r2,-23368(gp)
   30d8c:	10800044 	addi	r2,r2,1
   30d90:	d0a92e15 	stw	r2,-23368(gp)

  /* process the registered callbacks */

  while (alarm != (alt_alarm*) &alt_alarm_list)
   30d94:	00002e06 	br	30e50 <alt_tick+0xe0>
  {
    next = (alt_alarm*) alarm->llist.next;
   30d98:	e0bfff17 	ldw	r2,-4(fp)
   30d9c:	10800017 	ldw	r2,0(r2)
   30da0:	e0bffe15 	stw	r2,-8(fp)
    /* 
     * Upon the tick-counter rolling over it is safe to clear the 
     * roll-over flag; once the flag is cleared this (or subsequnt)
     * tick events are enabled to generate an alarm event. 
     */
    if ((alarm->rollover) && (_alt_nticks == 0))
   30da4:	e0bfff17 	ldw	r2,-4(fp)
   30da8:	10800403 	ldbu	r2,16(r2)
   30dac:	10803fcc 	andi	r2,r2,255
   30db0:	10000426 	beq	r2,zero,30dc4 <alt_tick+0x54>
   30db4:	d0a92e17 	ldw	r2,-23368(gp)
   30db8:	1000021e 	bne	r2,zero,30dc4 <alt_tick+0x54>
    {
      alarm->rollover = 0;
   30dbc:	e0bfff17 	ldw	r2,-4(fp)
   30dc0:	10000405 	stb	zero,16(r2)
    }
    
    /* if the alarm period has expired, make the callback */    
    if ((alarm->time <= _alt_nticks) && (alarm->rollover == 0))
   30dc4:	e0bfff17 	ldw	r2,-4(fp)
   30dc8:	10800217 	ldw	r2,8(r2)
   30dcc:	d0e92e17 	ldw	r3,-23368(gp)
   30dd0:	18801d36 	bltu	r3,r2,30e48 <alt_tick+0xd8>
   30dd4:	e0bfff17 	ldw	r2,-4(fp)
   30dd8:	10800403 	ldbu	r2,16(r2)
   30ddc:	10803fcc 	andi	r2,r2,255
   30de0:	1000191e 	bne	r2,zero,30e48 <alt_tick+0xd8>
    {
      next_callback = alarm->callback (alarm->context);
   30de4:	e0bfff17 	ldw	r2,-4(fp)
   30de8:	10800317 	ldw	r2,12(r2)
   30dec:	e0ffff17 	ldw	r3,-4(fp)
   30df0:	18c00517 	ldw	r3,20(r3)
   30df4:	1809883a 	mov	r4,r3
   30df8:	103ee83a 	callr	r2
   30dfc:	e0bffd15 	stw	r2,-12(fp)

      /* deactivate the alarm if the return value is zero */

      if (next_callback == 0)
   30e00:	e0bffd17 	ldw	r2,-12(fp)
   30e04:	1000031e 	bne	r2,zero,30e14 <alt_tick+0xa4>
      {
        alt_alarm_stop (alarm);
   30e08:	e13fff17 	ldw	r4,-4(fp)
   30e0c:	0030ccc0 	call	30ccc <alt_alarm_stop>
   30e10:	00000d06 	br	30e48 <alt_tick+0xd8>
      }
      else
      {
        alarm->time += next_callback;
   30e14:	e0bfff17 	ldw	r2,-4(fp)
   30e18:	10c00217 	ldw	r3,8(r2)
   30e1c:	e0bffd17 	ldw	r2,-12(fp)
   30e20:	1887883a 	add	r3,r3,r2
   30e24:	e0bfff17 	ldw	r2,-4(fp)
   30e28:	10c00215 	stw	r3,8(r2)
        /* 
         * If the desired alarm time causes a roll-over, set the rollover
         * flag. This will prevent the subsequent tick event from causing
         * an alarm too early.
         */
        if(alarm->time < _alt_nticks)
   30e2c:	e0bfff17 	ldw	r2,-4(fp)
   30e30:	10c00217 	ldw	r3,8(r2)
   30e34:	d0a92e17 	ldw	r2,-23368(gp)
   30e38:	1880032e 	bgeu	r3,r2,30e48 <alt_tick+0xd8>
        {
          alarm->rollover = 1;
   30e3c:	e0bfff17 	ldw	r2,-4(fp)
   30e40:	00c00044 	movi	r3,1
   30e44:	10c00405 	stb	r3,16(r2)
        }
      }
    }
    alarm = next;
   30e48:	e0bffe17 	ldw	r2,-8(fp)
   30e4c:	e0bfff15 	stw	r2,-4(fp)
  while (alarm != (alt_alarm*) &alt_alarm_list)
   30e50:	e0ffff17 	ldw	r3,-4(fp)
   30e54:	d0a00e04 	addi	r2,gp,-32712
   30e58:	18bfcf1e 	bne	r3,r2,30d98 <alt_tick+0x28>

  /* 
   * Update the operating system specific timer facilities.
   */

  ALT_OS_TIME_TICK();
   30e5c:	0001883a 	nop
}
   30e60:	0001883a 	nop
   30e64:	e037883a 	mov	sp,fp
   30e68:	dfc00117 	ldw	ra,4(sp)
   30e6c:	df000017 	ldw	fp,0(sp)
   30e70:	dec00204 	addi	sp,sp,8
   30e74:	f800283a 	ret

00030e78 <usleep>:
#if defined (__GNUC__) && __GNUC__ >= 4
int ALT_USLEEP (useconds_t us)
#else
unsigned int ALT_USLEEP (unsigned int us)
#endif
{
   30e78:	defffd04 	addi	sp,sp,-12
   30e7c:	dfc00215 	stw	ra,8(sp)
   30e80:	df000115 	stw	fp,4(sp)
   30e84:	df000104 	addi	fp,sp,4
   30e88:	e13fff15 	stw	r4,-4(fp)
  return alt_busy_sleep(us);
   30e8c:	e13fff17 	ldw	r4,-4(fp)
   30e90:	003265c0 	call	3265c <alt_busy_sleep>
}
   30e94:	e037883a 	mov	sp,fp
   30e98:	dfc00117 	ldw	ra,4(sp)
   30e9c:	df000017 	ldw	fp,0(sp)
   30ea0:	dec00204 	addi	sp,sp,8
   30ea4:	f800283a 	ret

00030ea8 <alt_get_errno>:
{
   30ea8:	defffe04 	addi	sp,sp,-8
   30eac:	dfc00115 	stw	ra,4(sp)
   30eb0:	df000015 	stw	fp,0(sp)
   30eb4:	d839883a 	mov	fp,sp
  return ((alt_errno) ? alt_errno() : &errno);
   30eb8:	d0a00c17 	ldw	r2,-32720(gp)
   30ebc:	10000326 	beq	r2,zero,30ecc <alt_get_errno+0x24>
   30ec0:	d0a00c17 	ldw	r2,-32720(gp)
   30ec4:	103ee83a 	callr	r2
   30ec8:	00000106 	br	30ed0 <alt_get_errno+0x28>
   30ecc:	d0a92504 	addi	r2,gp,-23404
}
   30ed0:	e037883a 	mov	sp,fp
   30ed4:	dfc00117 	ldw	ra,4(sp)
   30ed8:	df000017 	ldw	fp,0(sp)
   30edc:	dec00204 	addi	sp,sp,8
   30ee0:	f800283a 	ret

00030ee4 <write>:
}

#else /* !ALT_USE_DIRECT_DRIVERS */

int ALT_WRITE (int file, const void *ptr, size_t len)
{
   30ee4:	defff904 	addi	sp,sp,-28
   30ee8:	dfc00615 	stw	ra,24(sp)
   30eec:	df000515 	stw	fp,20(sp)
   30ef0:	df000504 	addi	fp,sp,20
   30ef4:	e13ffd15 	stw	r4,-12(fp)
   30ef8:	e17ffc15 	stw	r5,-16(fp)
   30efc:	e1bffb15 	stw	r6,-20(fp)
   * A common error case is that when the file descriptor was created, the call
   * to open() failed resulting in a negative file descriptor. This is trapped
   * below so that we don't try and process an invalid file descriptor.
   */

  fd = (file < 0) ? NULL : &alt_fd_list[file];
   30f00:	e0bffd17 	ldw	r2,-12(fp)
   30f04:	10000616 	blt	r2,zero,30f20 <write+0x3c>
   30f08:	e0bffd17 	ldw	r2,-12(fp)
   30f0c:	10c00324 	muli	r3,r2,12
   30f10:	008000f4 	movhi	r2,3
   30f14:	10945f04 	addi	r2,r2,20860
   30f18:	1885883a 	add	r2,r3,r2
   30f1c:	00000106 	br	30f24 <write+0x40>
   30f20:	0005883a 	mov	r2,zero
   30f24:	e0bfff15 	stw	r2,-4(fp)
  
  if (fd)
   30f28:	e0bfff17 	ldw	r2,-4(fp)
   30f2c:	10002126 	beq	r2,zero,30fb4 <write+0xd0>
     * If the file has not been opened with write access, or if the driver does
     * not provide an implementation of write(), generate an error. Otherwise
     * call the drivers write() function to process the request.
     */

    if (((fd->fd_flags & O_ACCMODE) != O_RDONLY) && fd->dev->write)
   30f30:	e0bfff17 	ldw	r2,-4(fp)
   30f34:	10800217 	ldw	r2,8(r2)
   30f38:	108000cc 	andi	r2,r2,3
   30f3c:	10001826 	beq	r2,zero,30fa0 <write+0xbc>
   30f40:	e0bfff17 	ldw	r2,-4(fp)
   30f44:	10800017 	ldw	r2,0(r2)
   30f48:	10800617 	ldw	r2,24(r2)
   30f4c:	10001426 	beq	r2,zero,30fa0 <write+0xbc>
    {
      
      /* ALT_LOG - see altera_hal/HAL/inc/sys/alt_log_printf.h */
      ALT_LOG_WRITE_FUNCTION(ptr,len);

      if ((rval = fd->dev->write(fd, ptr, len)) < 0)
   30f50:	e0bfff17 	ldw	r2,-4(fp)
   30f54:	10800017 	ldw	r2,0(r2)
   30f58:	10800617 	ldw	r2,24(r2)
   30f5c:	e0fffb17 	ldw	r3,-20(fp)
   30f60:	180d883a 	mov	r6,r3
   30f64:	e17ffc17 	ldw	r5,-16(fp)
   30f68:	e13fff17 	ldw	r4,-4(fp)
   30f6c:	103ee83a 	callr	r2
   30f70:	e0bffe15 	stw	r2,-8(fp)
   30f74:	e0bffe17 	ldw	r2,-8(fp)
   30f78:	1000070e 	bge	r2,zero,30f98 <write+0xb4>
      {
        ALT_ERRNO = -rval;
   30f7c:	0030ea80 	call	30ea8 <alt_get_errno>
   30f80:	1007883a 	mov	r3,r2
   30f84:	e0bffe17 	ldw	r2,-8(fp)
   30f88:	0085c83a 	sub	r2,zero,r2
   30f8c:	18800015 	stw	r2,0(r3)
        return -1;
   30f90:	00bfffc4 	movi	r2,-1
   30f94:	00000c06 	br	30fc8 <write+0xe4>
      }
      return rval;
   30f98:	e0bffe17 	ldw	r2,-8(fp)
   30f9c:	00000a06 	br	30fc8 <write+0xe4>
    }
    else
    {
      ALT_ERRNO = EACCES;
   30fa0:	0030ea80 	call	30ea8 <alt_get_errno>
   30fa4:	1007883a 	mov	r3,r2
   30fa8:	00800344 	movi	r2,13
   30fac:	18800015 	stw	r2,0(r3)
   30fb0:	00000406 	br	30fc4 <write+0xe0>
    }
  }
  else  
  {
    ALT_ERRNO = EBADFD;
   30fb4:	0030ea80 	call	30ea8 <alt_get_errno>
   30fb8:	1007883a 	mov	r3,r2
   30fbc:	00801444 	movi	r2,81
   30fc0:	18800015 	stw	r2,0(r3)
  }
  return -1;
   30fc4:	00bfffc4 	movi	r2,-1
}
   30fc8:	e037883a 	mov	sp,fp
   30fcc:	dfc00117 	ldw	ra,4(sp)
   30fd0:	df000017 	ldw	fp,0(sp)
   30fd4:	dec00204 	addi	sp,sp,8
   30fd8:	f800283a 	ret

00030fdc <alt_dev_reg>:
 */

extern int alt_fs_reg  (alt_dev* dev); 

static ALT_INLINE int alt_dev_reg (alt_dev* dev)
{
   30fdc:	defffd04 	addi	sp,sp,-12
   30fe0:	dfc00215 	stw	ra,8(sp)
   30fe4:	df000115 	stw	fp,4(sp)
   30fe8:	df000104 	addi	fp,sp,4
   30fec:	e13fff15 	stw	r4,-4(fp)
  extern alt_llist alt_dev_list;

  return alt_dev_llist_insert ((alt_dev_llist*) dev, &alt_dev_list);
   30ff0:	d1600904 	addi	r5,gp,-32732
   30ff4:	e13fff17 	ldw	r4,-4(fp)
   30ff8:	003283c0 	call	3283c <alt_dev_llist_insert>
}
   30ffc:	e037883a 	mov	sp,fp
   31000:	dfc00117 	ldw	ra,4(sp)
   31004:	df000017 	ldw	fp,0(sp)
   31008:	dec00204 	addi	sp,sp,8
   3100c:	f800283a 	ret

00031010 <alt_irq_init>:
 * The "base" parameter is ignored and only
 * present for backwards-compatibility.
 */

void alt_irq_init ( const void* base )
{
   31010:	defffd04 	addi	sp,sp,-12
   31014:	dfc00215 	stw	ra,8(sp)
   31018:	df000115 	stw	fp,4(sp)
   3101c:	df000104 	addi	fp,sp,4
   31020:	e13fff15 	stw	r4,-4(fp)
    ALTERA_NIOS2_GEN2_IRQ_INIT ( NIOS2_GEN2, nios2_gen2);
   31024:	0032fdc0 	call	32fdc <altera_nios2_gen2_irq_init>
    NIOS2_WRITE_STATUS(NIOS2_STATUS_PIE_MSK
   31028:	00800044 	movi	r2,1
   3102c:	1001703a 	wrctl	status,r2
}
   31030:	0001883a 	nop
    alt_irq_cpu_enable_interrupts();
}
   31034:	0001883a 	nop
   31038:	e037883a 	mov	sp,fp
   3103c:	dfc00117 	ldw	ra,4(sp)
   31040:	df000017 	ldw	fp,0(sp)
   31044:	dec00204 	addi	sp,sp,8
   31048:	f800283a 	ret

0003104c <alt_sys_init>:
 * Initialize the non-interrupt controller devices.
 * Called after alt_irq_init().
 */

void alt_sys_init( void )
{
   3104c:	defffe04 	addi	sp,sp,-8
   31050:	dfc00115 	stw	ra,4(sp)
   31054:	df000015 	stw	fp,0(sp)
   31058:	d839883a 	mov	fp,sp
    ALTERA_AVALON_TIMER_INIT ( TIMER, timer);
   3105c:	01c0fa04 	movi	r7,1000
   31060:	018000c4 	movi	r6,3
   31064:	000b883a 	mov	r5,zero
   31068:	01000134 	movhi	r4,4
   3106c:	21040004 	addi	r4,r4,4096
   31070:	0031bc00 	call	31bc0 <alt_avalon_timer_sc_init>
    ALTERA_AVALON_JTAG_UART_INIT ( JTAG_UART, jtag_uart);
   31074:	01800084 	movi	r6,2
   31078:	000b883a 	mov	r5,zero
   3107c:	010000f4 	movhi	r4,3
   31080:	2114c904 	addi	r4,r4,21284
   31084:	00312340 	call	31234 <altera_avalon_jtag_uart_init>
   31088:	010000f4 	movhi	r4,3
   3108c:	2114bf04 	addi	r4,r4,21244
   31090:	0030fdc0 	call	30fdc <alt_dev_reg>
    ALTERA_AVALON_SYSID_QSYS_INIT ( SYSID_QSYS, sysid_qsys);
   31094:	0001883a 	nop
    ALTERA_AVALON_UART_INIT ( UART_0, uart_0);
   31098:	01800104 	movi	r6,4
   3109c:	000b883a 	mov	r5,zero
   310a0:	010000f4 	movhi	r4,3
   310a4:	2118e104 	addi	r4,r4,25476
   310a8:	0031d540 	call	31d54 <altera_avalon_uart_init>
   310ac:	010000f4 	movhi	r4,3
   310b0:	2118d704 	addi	r4,r4,25436
   310b4:	0030fdc0 	call	30fdc <alt_dev_reg>
}
   310b8:	0001883a 	nop
   310bc:	e037883a 	mov	sp,fp
   310c0:	dfc00117 	ldw	ra,4(sp)
   310c4:	df000017 	ldw	fp,0(sp)
   310c8:	dec00204 	addi	sp,sp,8
   310cc:	f800283a 	ret

000310d0 <altera_avalon_jtag_uart_read_fd>:
 *
 */

int 
altera_avalon_jtag_uart_read_fd(alt_fd* fd, char* buffer, int space)
{
   310d0:	defffa04 	addi	sp,sp,-24
   310d4:	dfc00515 	stw	ra,20(sp)
   310d8:	df000415 	stw	fp,16(sp)
   310dc:	df000404 	addi	fp,sp,16
   310e0:	e13ffe15 	stw	r4,-8(fp)
   310e4:	e17ffd15 	stw	r5,-12(fp)
   310e8:	e1bffc15 	stw	r6,-16(fp)
    altera_avalon_jtag_uart_dev* dev = (altera_avalon_jtag_uart_dev*) fd->dev; 
   310ec:	e0bffe17 	ldw	r2,-8(fp)
   310f0:	10800017 	ldw	r2,0(r2)
   310f4:	e0bfff15 	stw	r2,-4(fp)

    return altera_avalon_jtag_uart_read(&dev->state, buffer, space,
   310f8:	e0bfff17 	ldw	r2,-4(fp)
   310fc:	10c00a04 	addi	r3,r2,40
   31100:	e0bffe17 	ldw	r2,-8(fp)
   31104:	10800217 	ldw	r2,8(r2)
   31108:	100f883a 	mov	r7,r2
   3110c:	e1bffc17 	ldw	r6,-16(fp)
   31110:	e17ffd17 	ldw	r5,-12(fp)
   31114:	1809883a 	mov	r4,r3
   31118:	00316fc0 	call	316fc <altera_avalon_jtag_uart_read>
      fd->fd_flags);
}
   3111c:	e037883a 	mov	sp,fp
   31120:	dfc00117 	ldw	ra,4(sp)
   31124:	df000017 	ldw	fp,0(sp)
   31128:	dec00204 	addi	sp,sp,8
   3112c:	f800283a 	ret

00031130 <altera_avalon_jtag_uart_write_fd>:

int 
altera_avalon_jtag_uart_write_fd(alt_fd* fd, const char* buffer, int space)
{
   31130:	defffa04 	addi	sp,sp,-24
   31134:	dfc00515 	stw	ra,20(sp)
   31138:	df000415 	stw	fp,16(sp)
   3113c:	df000404 	addi	fp,sp,16
   31140:	e13ffe15 	stw	r4,-8(fp)
   31144:	e17ffd15 	stw	r5,-12(fp)
   31148:	e1bffc15 	stw	r6,-16(fp)
    altera_avalon_jtag_uart_dev* dev = (altera_avalon_jtag_uart_dev*) fd->dev; 
   3114c:	e0bffe17 	ldw	r2,-8(fp)
   31150:	10800017 	ldw	r2,0(r2)
   31154:	e0bfff15 	stw	r2,-4(fp)

    return altera_avalon_jtag_uart_write(&dev->state, buffer, space,
   31158:	e0bfff17 	ldw	r2,-4(fp)
   3115c:	10c00a04 	addi	r3,r2,40
   31160:	e0bffe17 	ldw	r2,-8(fp)
   31164:	10800217 	ldw	r2,8(r2)
   31168:	100f883a 	mov	r7,r2
   3116c:	e1bffc17 	ldw	r6,-16(fp)
   31170:	e17ffd17 	ldw	r5,-12(fp)
   31174:	1809883a 	mov	r4,r3
   31178:	003191c0 	call	3191c <altera_avalon_jtag_uart_write>
      fd->fd_flags);
}
   3117c:	e037883a 	mov	sp,fp
   31180:	dfc00117 	ldw	ra,4(sp)
   31184:	df000017 	ldw	fp,0(sp)
   31188:	dec00204 	addi	sp,sp,8
   3118c:	f800283a 	ret

00031190 <altera_avalon_jtag_uart_close_fd>:

#ifndef ALTERA_AVALON_JTAG_UART_SMALL

int 
altera_avalon_jtag_uart_close_fd(alt_fd* fd)
{
   31190:	defffc04 	addi	sp,sp,-16
   31194:	dfc00315 	stw	ra,12(sp)
   31198:	df000215 	stw	fp,8(sp)
   3119c:	df000204 	addi	fp,sp,8
   311a0:	e13ffe15 	stw	r4,-8(fp)
    altera_avalon_jtag_uart_dev* dev = (altera_avalon_jtag_uart_dev*) fd->dev; 
   311a4:	e0bffe17 	ldw	r2,-8(fp)
   311a8:	10800017 	ldw	r2,0(r2)
   311ac:	e0bfff15 	stw	r2,-4(fp)

    return altera_avalon_jtag_uart_close(&dev->state, fd->fd_flags);
   311b0:	e0bfff17 	ldw	r2,-4(fp)
   311b4:	10c00a04 	addi	r3,r2,40
   311b8:	e0bffe17 	ldw	r2,-8(fp)
   311bc:	10800217 	ldw	r2,8(r2)
   311c0:	100b883a 	mov	r5,r2
   311c4:	1809883a 	mov	r4,r3
   311c8:	00315a00 	call	315a0 <altera_avalon_jtag_uart_close>
}
   311cc:	e037883a 	mov	sp,fp
   311d0:	dfc00117 	ldw	ra,4(sp)
   311d4:	df000017 	ldw	fp,0(sp)
   311d8:	dec00204 	addi	sp,sp,8
   311dc:	f800283a 	ret

000311e0 <altera_avalon_jtag_uart_ioctl_fd>:

int 
altera_avalon_jtag_uart_ioctl_fd(alt_fd* fd, int req, void* arg)
{
   311e0:	defffa04 	addi	sp,sp,-24
   311e4:	dfc00515 	stw	ra,20(sp)
   311e8:	df000415 	stw	fp,16(sp)
   311ec:	df000404 	addi	fp,sp,16
   311f0:	e13ffe15 	stw	r4,-8(fp)
   311f4:	e17ffd15 	stw	r5,-12(fp)
   311f8:	e1bffc15 	stw	r6,-16(fp)
    altera_avalon_jtag_uart_dev* dev = (altera_avalon_jtag_uart_dev*) fd->dev;
   311fc:	e0bffe17 	ldw	r2,-8(fp)
   31200:	10800017 	ldw	r2,0(r2)
   31204:	e0bfff15 	stw	r2,-4(fp)

    return altera_avalon_jtag_uart_ioctl(&dev->state, req, arg);
   31208:	e0bfff17 	ldw	r2,-4(fp)
   3120c:	10800a04 	addi	r2,r2,40
   31210:	e1bffc17 	ldw	r6,-16(fp)
   31214:	e17ffd17 	ldw	r5,-12(fp)
   31218:	1009883a 	mov	r4,r2
   3121c:	00316080 	call	31608 <altera_avalon_jtag_uart_ioctl>
}
   31220:	e037883a 	mov	sp,fp
   31224:	dfc00117 	ldw	ra,4(sp)
   31228:	df000017 	ldw	fp,0(sp)
   3122c:	dec00204 	addi	sp,sp,8
   31230:	f800283a 	ret

00031234 <altera_avalon_jtag_uart_init>:
 * Return 1 on sucessful IRQ register and 0 on failure.
 */

void altera_avalon_jtag_uart_init(altera_avalon_jtag_uart_state* sp, 
                                  int irq_controller_id, int irq)
{
   31234:	defffa04 	addi	sp,sp,-24
   31238:	dfc00515 	stw	ra,20(sp)
   3123c:	df000415 	stw	fp,16(sp)
   31240:	df000404 	addi	fp,sp,16
   31244:	e13fff15 	stw	r4,-4(fp)
   31248:	e17ffe15 	stw	r5,-8(fp)
   3124c:	e1bffd15 	stw	r6,-12(fp)
  ALT_FLAG_CREATE(&sp->events, 0);
  ALT_SEM_CREATE(&sp->read_lock, 1);
  ALT_SEM_CREATE(&sp->write_lock, 1);

  /* enable read interrupts at the device */
  sp->irq_enable = ALTERA_AVALON_JTAG_UART_CONTROL_RE_MSK;
   31250:	e0bfff17 	ldw	r2,-4(fp)
   31254:	00c00044 	movi	r3,1
   31258:	10c00815 	stw	r3,32(r2)

  IOWR_ALTERA_AVALON_JTAG_UART_CONTROL(sp->base, sp->irq_enable); 
   3125c:	e0bfff17 	ldw	r2,-4(fp)
   31260:	10800017 	ldw	r2,0(r2)
   31264:	10800104 	addi	r2,r2,4
   31268:	1007883a 	mov	r3,r2
   3126c:	e0bfff17 	ldw	r2,-4(fp)
   31270:	10800817 	ldw	r2,32(r2)
   31274:	18800035 	stwio	r2,0(r3)
  
  /* register the interrupt handler */
#ifdef ALT_ENHANCED_INTERRUPT_API_PRESENT
  alt_ic_isr_register(irq_controller_id, irq, altera_avalon_jtag_uart_irq, 
   31278:	e0bffe17 	ldw	r2,-8(fp)
   3127c:	e0fffd17 	ldw	r3,-12(fp)
   31280:	d8000015 	stw	zero,0(sp)
   31284:	e1ffff17 	ldw	r7,-4(fp)
   31288:	018000f4 	movhi	r6,3
   3128c:	3184bd04 	addi	r6,r6,4852
   31290:	180b883a 	mov	r5,r3
   31294:	1009883a 	mov	r4,r2
   31298:	0032c180 	call	32c18 <alt_ic_isr_register>
#else
  alt_irq_register(irq, sp, altera_avalon_jtag_uart_irq);
#endif  

  /* Register an alarm to go off every second to check for presence of host */
  sp->host_inactive = 0;
   3129c:	e0bfff17 	ldw	r2,-4(fp)
   312a0:	10000915 	stw	zero,36(r2)

  if (alt_alarm_start(&sp->alarm, alt_ticks_per_second(), 
   312a4:	e0bfff17 	ldw	r2,-4(fp)
   312a8:	10800204 	addi	r2,r2,8
 * Obtain the system clock rate in ticks/s. 
 */

static ALT_INLINE alt_u32 ALT_ALWAYS_INLINE alt_ticks_per_second (void)
{
  return _alt_tick_rate;
   312ac:	d0e92d17 	ldw	r3,-23372(gp)
   312b0:	e1ffff17 	ldw	r7,-4(fp)
   312b4:	018000f4 	movhi	r6,3
   312b8:	31854004 	addi	r6,r6,5376
   312bc:	180b883a 	mov	r5,r3
   312c0:	1009883a 	mov	r4,r2
   312c4:	00325280 	call	32528 <alt_alarm_start>
   312c8:	1000040e 	bge	r2,zero,312dc <altera_avalon_jtag_uart_init+0xa8>
    &altera_avalon_jtag_uart_timeout, sp) < 0)
  {
    /* If we can't set the alarm then record "don't know if host present" 
     * and behave as though the host is present.
     */
    sp->timeout = INT_MAX;
   312cc:	e0ffff17 	ldw	r3,-4(fp)
   312d0:	00a00034 	movhi	r2,32768
   312d4:	10bfffc4 	addi	r2,r2,-1
   312d8:	18800115 	stw	r2,4(r3)
  }

  /* ALT_LOG - see altera_hal/HAL/inc/sys/alt_log_printf.h */ 
  ALT_LOG_JTAG_UART_ALARM_REGISTER(sp, sp->base);
}
   312dc:	0001883a 	nop
   312e0:	e037883a 	mov	sp,fp
   312e4:	dfc00117 	ldw	ra,4(sp)
   312e8:	df000017 	ldw	fp,0(sp)
   312ec:	dec00204 	addi	sp,sp,8
   312f0:	f800283a 	ret

000312f4 <altera_avalon_jtag_uart_irq>:
#ifdef ALT_ENHANCED_INTERRUPT_API_PRESENT
static void altera_avalon_jtag_uart_irq(void* context)
#else
static void altera_avalon_jtag_uart_irq(void* context, alt_u32 id)
#endif
{
   312f4:	defff804 	addi	sp,sp,-32
   312f8:	df000715 	stw	fp,28(sp)
   312fc:	df000704 	addi	fp,sp,28
   31300:	e13ff915 	stw	r4,-28(fp)
  altera_avalon_jtag_uart_state* sp = (altera_avalon_jtag_uart_state*) context;
   31304:	e0bff917 	ldw	r2,-28(fp)
   31308:	e0bffd15 	stw	r2,-12(fp)
  unsigned int base = sp->base;
   3130c:	e0bffd17 	ldw	r2,-12(fp)
   31310:	10800017 	ldw	r2,0(r2)
   31314:	e0bffc15 	stw	r2,-16(fp)
  /* ALT_LOG - see altera_hal/HAL/inc/sys/alt_log_printf.h */ 
  ALT_LOG_JTAG_UART_ISR_FUNCTION(base, sp);

  for ( ; ; )
  {
    unsigned int control = IORD_ALTERA_AVALON_JTAG_UART_CONTROL(base);
   31318:	e0bffc17 	ldw	r2,-16(fp)
   3131c:	10800104 	addi	r2,r2,4
   31320:	10800037 	ldwio	r2,0(r2)
   31324:	e0bffb15 	stw	r2,-20(fp)

    /* Return once nothing more to do */
    if ((control & (ALTERA_AVALON_JTAG_UART_CONTROL_RI_MSK | ALTERA_AVALON_JTAG_UART_CONTROL_WI_MSK)) == 0)
   31328:	e0bffb17 	ldw	r2,-20(fp)
   3132c:	1080c00c 	andi	r2,r2,768
   31330:	10006d26 	beq	r2,zero,314e8 <altera_avalon_jtag_uart_irq+0x1f4>
      break;

    if (control & ALTERA_AVALON_JTAG_UART_CONTROL_RI_MSK)
   31334:	e0bffb17 	ldw	r2,-20(fp)
   31338:	1080400c 	andi	r2,r2,256
   3133c:	10003526 	beq	r2,zero,31414 <altera_avalon_jtag_uart_irq+0x120>
    {
      /* process a read irq.  Start by assuming that there is data in the
       * receive FIFO (otherwise why would we have been interrupted?)
       */
      unsigned int data = 1 << ALTERA_AVALON_JTAG_UART_DATA_RAVAIL_OFST;
   31340:	00800074 	movhi	r2,1
   31344:	e0bfff15 	stw	r2,-4(fp)
      for ( ; ; )
      {
        /* Check whether there is space in the buffer.  If not then we must not
         * read any characters from the buffer as they will be lost.
         */
        unsigned int next = (sp->rx_in + 1) % ALTERA_AVALON_JTAG_UART_BUF_LEN;
   31348:	e0bffd17 	ldw	r2,-12(fp)
   3134c:	10800a17 	ldw	r2,40(r2)
   31350:	10800044 	addi	r2,r2,1
   31354:	1081ffcc 	andi	r2,r2,2047
   31358:	e0bffa15 	stw	r2,-24(fp)
        if (next == sp->rx_out)
   3135c:	e0bffd17 	ldw	r2,-12(fp)
   31360:	10800b17 	ldw	r2,44(r2)
   31364:	e0fffa17 	ldw	r3,-24(fp)
   31368:	18801526 	beq	r3,r2,313c0 <altera_avalon_jtag_uart_irq+0xcc>
          break;

        /* Try to remove a character from the FIFO and find out whether there
         * are any more characters remaining.
         */
        data = IORD_ALTERA_AVALON_JTAG_UART_DATA(base);
   3136c:	e0bffc17 	ldw	r2,-16(fp)
   31370:	10800037 	ldwio	r2,0(r2)
   31374:	e0bfff15 	stw	r2,-4(fp)
        
        if ((data & ALTERA_AVALON_JTAG_UART_DATA_RVALID_MSK) == 0)
   31378:	e0bfff17 	ldw	r2,-4(fp)
   3137c:	10a0000c 	andi	r2,r2,32768
   31380:	10001126 	beq	r2,zero,313c8 <altera_avalon_jtag_uart_irq+0xd4>
          break;

        sp->rx_buf[sp->rx_in] = (data & ALTERA_AVALON_JTAG_UART_DATA_DATA_MSK) >> ALTERA_AVALON_JTAG_UART_DATA_DATA_OFST;
   31384:	e0bffd17 	ldw	r2,-12(fp)
   31388:	10800a17 	ldw	r2,40(r2)
   3138c:	e0ffff17 	ldw	r3,-4(fp)
   31390:	1809883a 	mov	r4,r3
   31394:	e0fffd17 	ldw	r3,-12(fp)
   31398:	1885883a 	add	r2,r3,r2
   3139c:	11000e05 	stb	r4,56(r2)
        sp->rx_in = (sp->rx_in + 1) % ALTERA_AVALON_JTAG_UART_BUF_LEN;
   313a0:	e0bffd17 	ldw	r2,-12(fp)
   313a4:	10800a17 	ldw	r2,40(r2)
   313a8:	10800044 	addi	r2,r2,1
   313ac:	10c1ffcc 	andi	r3,r2,2047
   313b0:	e0bffd17 	ldw	r2,-12(fp)
   313b4:	10c00a15 	stw	r3,40(r2)
 * HAL.
 */

static ALT_INLINE int ALT_ALWAYS_INLINE alt_no_error (void)
{
  return 0;
   313b8:	0001883a 	nop
      {
   313bc:	003fe206 	br	31348 <altera_avalon_jtag_uart_irq+0x54>
          break;
   313c0:	0001883a 	nop
   313c4:	00000106 	br	313cc <altera_avalon_jtag_uart_irq+0xd8>
          break;
   313c8:	0001883a 	nop

        /* Post an event to notify jtag_uart_read that a character has been read */
        ALT_FLAG_POST (sp->events, ALT_JTAG_UART_READ_RDY, OS_FLAG_SET);
      }

      if (data & ALTERA_AVALON_JTAG_UART_DATA_RAVAIL_MSK)
   313cc:	e0bfff17 	ldw	r2,-4(fp)
   313d0:	10bfffec 	andhi	r2,r2,65535
   313d4:	10000f26 	beq	r2,zero,31414 <altera_avalon_jtag_uart_irq+0x120>
      {
        /* If there is still data available here then the buffer is full 
         * so turn off receive interrupts until some space becomes available.
         */
        sp->irq_enable &= ~ALTERA_AVALON_JTAG_UART_CONTROL_RE_MSK;
   313d8:	e0bffd17 	ldw	r2,-12(fp)
   313dc:	10c00817 	ldw	r3,32(r2)
   313e0:	00bfff84 	movi	r2,-2
   313e4:	1886703a 	and	r3,r3,r2
   313e8:	e0bffd17 	ldw	r2,-12(fp)
   313ec:	10c00815 	stw	r3,32(r2)
        IOWR_ALTERA_AVALON_JTAG_UART_CONTROL(base, sp->irq_enable);
   313f0:	e0bffc17 	ldw	r2,-16(fp)
   313f4:	10800104 	addi	r2,r2,4
   313f8:	1007883a 	mov	r3,r2
   313fc:	e0bffd17 	ldw	r2,-12(fp)
   31400:	10800817 	ldw	r2,32(r2)
   31404:	18800035 	stwio	r2,0(r3)
        
        /* Dummy read to ensure IRQ is cleared prior to ISR completion */
        IORD_ALTERA_AVALON_JTAG_UART_CONTROL(base);
   31408:	e0bffc17 	ldw	r2,-16(fp)
   3140c:	10800104 	addi	r2,r2,4
   31410:	10800037 	ldwio	r2,0(r2)
      }
    }

    if (control & ALTERA_AVALON_JTAG_UART_CONTROL_WI_MSK)
   31414:	e0bffb17 	ldw	r2,-20(fp)
   31418:	1080800c 	andi	r2,r2,512
   3141c:	103fbe26 	beq	r2,zero,31318 <altera_avalon_jtag_uart_irq+0x24>
    {
      /* process a write irq */
      unsigned int space = (control & ALTERA_AVALON_JTAG_UART_CONTROL_WSPACE_MSK) >> ALTERA_AVALON_JTAG_UART_CONTROL_WSPACE_OFST;
   31420:	e0bffb17 	ldw	r2,-20(fp)
   31424:	1004d43a 	srli	r2,r2,16
   31428:	e0bffe15 	stw	r2,-8(fp)

      while (space > 0 && sp->tx_out != sp->tx_in)
   3142c:	00001406 	br	31480 <altera_avalon_jtag_uart_irq+0x18c>
      {
        IOWR_ALTERA_AVALON_JTAG_UART_DATA(base, sp->tx_buf[sp->tx_out]);
   31430:	e0bffc17 	ldw	r2,-16(fp)
   31434:	e0fffd17 	ldw	r3,-12(fp)
   31438:	18c00d17 	ldw	r3,52(r3)
   3143c:	e13ffd17 	ldw	r4,-12(fp)
   31440:	20c7883a 	add	r3,r4,r3
   31444:	18c20e03 	ldbu	r3,2104(r3)
   31448:	18c03fcc 	andi	r3,r3,255
   3144c:	18c0201c 	xori	r3,r3,128
   31450:	18ffe004 	addi	r3,r3,-128
   31454:	10c00035 	stwio	r3,0(r2)

        sp->tx_out = (sp->tx_out + 1) % ALTERA_AVALON_JTAG_UART_BUF_LEN;
   31458:	e0bffd17 	ldw	r2,-12(fp)
   3145c:	10800d17 	ldw	r2,52(r2)
   31460:	10800044 	addi	r2,r2,1
   31464:	10c1ffcc 	andi	r3,r2,2047
   31468:	e0bffd17 	ldw	r2,-12(fp)
   3146c:	10c00d15 	stw	r3,52(r2)
   31470:	0001883a 	nop

        /* Post an event to notify jtag_uart_write that a character has been written */
        ALT_FLAG_POST (sp->events, ALT_JTAG_UART_WRITE_RDY, OS_FLAG_SET);

        space--;
   31474:	e0bffe17 	ldw	r2,-8(fp)
   31478:	10bfffc4 	addi	r2,r2,-1
   3147c:	e0bffe15 	stw	r2,-8(fp)
      while (space > 0 && sp->tx_out != sp->tx_in)
   31480:	e0bffe17 	ldw	r2,-8(fp)
   31484:	10000526 	beq	r2,zero,3149c <altera_avalon_jtag_uart_irq+0x1a8>
   31488:	e0bffd17 	ldw	r2,-12(fp)
   3148c:	10c00d17 	ldw	r3,52(r2)
   31490:	e0bffd17 	ldw	r2,-12(fp)
   31494:	10800c17 	ldw	r2,48(r2)
   31498:	18bfe51e 	bne	r3,r2,31430 <altera_avalon_jtag_uart_irq+0x13c>
      }

      if (space > 0)
   3149c:	e0bffe17 	ldw	r2,-8(fp)
   314a0:	103f9d26 	beq	r2,zero,31318 <altera_avalon_jtag_uart_irq+0x24>
      {
        /* If we don't have any more data available then turn off the TX interrupt */
        sp->irq_enable &= ~ALTERA_AVALON_JTAG_UART_CONTROL_WE_MSK;
   314a4:	e0bffd17 	ldw	r2,-12(fp)
   314a8:	10c00817 	ldw	r3,32(r2)
   314ac:	00bfff44 	movi	r2,-3
   314b0:	1886703a 	and	r3,r3,r2
   314b4:	e0bffd17 	ldw	r2,-12(fp)
   314b8:	10c00815 	stw	r3,32(r2)
        IOWR_ALTERA_AVALON_JTAG_UART_CONTROL(sp->base, sp->irq_enable);
   314bc:	e0bffd17 	ldw	r2,-12(fp)
   314c0:	10800017 	ldw	r2,0(r2)
   314c4:	10800104 	addi	r2,r2,4
   314c8:	1007883a 	mov	r3,r2
   314cc:	e0bffd17 	ldw	r2,-12(fp)
   314d0:	10800817 	ldw	r2,32(r2)
   314d4:	18800035 	stwio	r2,0(r3)
        
        /* Dummy read to ensure IRQ is cleared prior to ISR completion */
        IORD_ALTERA_AVALON_JTAG_UART_CONTROL(base);
   314d8:	e0bffc17 	ldw	r2,-16(fp)
   314dc:	10800104 	addi	r2,r2,4
   314e0:	10800037 	ldwio	r2,0(r2)
  {
   314e4:	003f8c06 	br	31318 <altera_avalon_jtag_uart_irq+0x24>
      break;
   314e8:	0001883a 	nop
      }
    }
  }
}
   314ec:	0001883a 	nop
   314f0:	e037883a 	mov	sp,fp
   314f4:	df000017 	ldw	fp,0(sp)
   314f8:	dec00104 	addi	sp,sp,4
   314fc:	f800283a 	ret

00031500 <altera_avalon_jtag_uart_timeout>:
 * Timeout routine is called every second
 */

static alt_u32 
altera_avalon_jtag_uart_timeout(void* context) 
{
   31500:	defffc04 	addi	sp,sp,-16
   31504:	df000315 	stw	fp,12(sp)
   31508:	df000304 	addi	fp,sp,12
   3150c:	e13ffd15 	stw	r4,-12(fp)
  altera_avalon_jtag_uart_state* sp = (altera_avalon_jtag_uart_state *) context;
   31510:	e0bffd17 	ldw	r2,-12(fp)
   31514:	e0bfff15 	stw	r2,-4(fp)

  unsigned int control = IORD_ALTERA_AVALON_JTAG_UART_CONTROL(sp->base);
   31518:	e0bfff17 	ldw	r2,-4(fp)
   3151c:	10800017 	ldw	r2,0(r2)
   31520:	10800104 	addi	r2,r2,4
   31524:	10800037 	ldwio	r2,0(r2)
   31528:	e0bffe15 	stw	r2,-8(fp)

  if (control & ALTERA_AVALON_JTAG_UART_CONTROL_AC_MSK)
   3152c:	e0bffe17 	ldw	r2,-8(fp)
   31530:	1081000c 	andi	r2,r2,1024
   31534:	10000b26 	beq	r2,zero,31564 <altera_avalon_jtag_uart_timeout+0x64>
  {
    IOWR_ALTERA_AVALON_JTAG_UART_CONTROL(sp->base, sp->irq_enable | ALTERA_AVALON_JTAG_UART_CONTROL_AC_MSK);
   31538:	e0bfff17 	ldw	r2,-4(fp)
   3153c:	10800017 	ldw	r2,0(r2)
   31540:	10800104 	addi	r2,r2,4
   31544:	1007883a 	mov	r3,r2
   31548:	e0bfff17 	ldw	r2,-4(fp)
   3154c:	10800817 	ldw	r2,32(r2)
   31550:	10810014 	ori	r2,r2,1024
   31554:	18800035 	stwio	r2,0(r3)
    sp->host_inactive = 0;
   31558:	e0bfff17 	ldw	r2,-4(fp)
   3155c:	10000915 	stw	zero,36(r2)
   31560:	00000a06 	br	3158c <altera_avalon_jtag_uart_timeout+0x8c>
  }
  else if (sp->host_inactive < INT_MAX - 2) {
   31564:	e0bfff17 	ldw	r2,-4(fp)
   31568:	10c00917 	ldw	r3,36(r2)
   3156c:	00a00034 	movhi	r2,32768
   31570:	10bfff04 	addi	r2,r2,-4
   31574:	10c00536 	bltu	r2,r3,3158c <altera_avalon_jtag_uart_timeout+0x8c>
    sp->host_inactive++;
   31578:	e0bfff17 	ldw	r2,-4(fp)
   3157c:	10800917 	ldw	r2,36(r2)
   31580:	10c00044 	addi	r3,r2,1
   31584:	e0bfff17 	ldw	r2,-4(fp)
   31588:	10c00915 	stw	r3,36(r2)
   3158c:	d0a92d17 	ldw	r2,-23372(gp)
      ALT_FLAG_POST (sp->events, ALT_JTAG_UART_TIMEOUT, OS_FLAG_SET);
    }
  }

  return alt_ticks_per_second();
}
   31590:	e037883a 	mov	sp,fp
   31594:	df000017 	ldw	fp,0(sp)
   31598:	dec00104 	addi	sp,sp,4
   3159c:	f800283a 	ret

000315a0 <altera_avalon_jtag_uart_close>:
 * The close routine is not implemented for the small driver; instead it will
 * map to null. This is because the small driver simply waits while characters
 * are transmitted; there is no interrupt-serviced buffer to empty 
 */
int altera_avalon_jtag_uart_close(altera_avalon_jtag_uart_state* sp, int flags)
{
   315a0:	defffd04 	addi	sp,sp,-12
   315a4:	df000215 	stw	fp,8(sp)
   315a8:	df000204 	addi	fp,sp,8
   315ac:	e13fff15 	stw	r4,-4(fp)
   315b0:	e17ffe15 	stw	r5,-8(fp)
  /* 
   * Wait for all transmit data to be emptied by the JTAG UART ISR, or
   * for a host-inactivity timeout, in which case transmit data will be lost
   */
  while ( (sp->tx_out != sp->tx_in) && (sp->host_inactive < sp->timeout) ) {
   315b4:	00000506 	br	315cc <altera_avalon_jtag_uart_close+0x2c>
    if (flags & O_NONBLOCK) {
   315b8:	e0bffe17 	ldw	r2,-8(fp)
   315bc:	1090000c 	andi	r2,r2,16384
   315c0:	10000226 	beq	r2,zero,315cc <altera_avalon_jtag_uart_close+0x2c>
      return -EWOULDBLOCK; 
   315c4:	00bffd44 	movi	r2,-11
   315c8:	00000b06 	br	315f8 <altera_avalon_jtag_uart_close+0x58>
  while ( (sp->tx_out != sp->tx_in) && (sp->host_inactive < sp->timeout) ) {
   315cc:	e0bfff17 	ldw	r2,-4(fp)
   315d0:	10c00d17 	ldw	r3,52(r2)
   315d4:	e0bfff17 	ldw	r2,-4(fp)
   315d8:	10800c17 	ldw	r2,48(r2)
   315dc:	18800526 	beq	r3,r2,315f4 <altera_avalon_jtag_uart_close+0x54>
   315e0:	e0bfff17 	ldw	r2,-4(fp)
   315e4:	10c00917 	ldw	r3,36(r2)
   315e8:	e0bfff17 	ldw	r2,-4(fp)
   315ec:	10800117 	ldw	r2,4(r2)
   315f0:	18bff136 	bltu	r3,r2,315b8 <altera_avalon_jtag_uart_close+0x18>
    }
  }

  return 0;
   315f4:	0005883a 	mov	r2,zero
}
   315f8:	e037883a 	mov	sp,fp
   315fc:	df000017 	ldw	fp,0(sp)
   31600:	dec00104 	addi	sp,sp,4
   31604:	f800283a 	ret

00031608 <altera_avalon_jtag_uart_ioctl>:
/* ----------------------------------------------------------- */

int 
altera_avalon_jtag_uart_ioctl(altera_avalon_jtag_uart_state* sp, int req,
  void* arg)
{
   31608:	defffa04 	addi	sp,sp,-24
   3160c:	df000515 	stw	fp,20(sp)
   31610:	df000504 	addi	fp,sp,20
   31614:	e13ffd15 	stw	r4,-12(fp)
   31618:	e17ffc15 	stw	r5,-16(fp)
   3161c:	e1bffb15 	stw	r6,-20(fp)
  int rc = -ENOTTY;
   31620:	00bff9c4 	movi	r2,-25
   31624:	e0bfff15 	stw	r2,-4(fp)

  switch (req)
   31628:	e0bffc17 	ldw	r2,-16(fp)
   3162c:	109a8060 	cmpeqi	r2,r2,27137
   31630:	1000041e 	bne	r2,zero,31644 <altera_avalon_jtag_uart_ioctl+0x3c>
   31634:	e0bffc17 	ldw	r2,-16(fp)
   31638:	109a80a0 	cmpeqi	r2,r2,27138
   3163c:	1000181e 	bne	r2,zero,316a0 <altera_avalon_jtag_uart_ioctl+0x98>
      rc = 0;
    }
    break;

  default:
    break;
   31640:	00002906 	br	316e8 <altera_avalon_jtag_uart_ioctl+0xe0>
    if (sp->timeout != INT_MAX)
   31644:	e0bffd17 	ldw	r2,-12(fp)
   31648:	10c00117 	ldw	r3,4(r2)
   3164c:	00a00034 	movhi	r2,32768
   31650:	10bfffc4 	addi	r2,r2,-1
   31654:	18802126 	beq	r3,r2,316dc <altera_avalon_jtag_uart_ioctl+0xd4>
      int timeout = *((int *)arg);
   31658:	e0bffb17 	ldw	r2,-20(fp)
   3165c:	10800017 	ldw	r2,0(r2)
   31660:	e0bffe15 	stw	r2,-8(fp)
      sp->timeout = (timeout >= 2 && timeout < INT_MAX) ? timeout : INT_MAX - 1;
   31664:	e0bffe17 	ldw	r2,-8(fp)
   31668:	10800090 	cmplti	r2,r2,2
   3166c:	1000061e 	bne	r2,zero,31688 <altera_avalon_jtag_uart_ioctl+0x80>
   31670:	e0fffe17 	ldw	r3,-8(fp)
   31674:	00a00034 	movhi	r2,32768
   31678:	10bfffc4 	addi	r2,r2,-1
   3167c:	18800226 	beq	r3,r2,31688 <altera_avalon_jtag_uart_ioctl+0x80>
   31680:	e0bffe17 	ldw	r2,-8(fp)
   31684:	00000206 	br	31690 <altera_avalon_jtag_uart_ioctl+0x88>
   31688:	00a00034 	movhi	r2,32768
   3168c:	10bfff84 	addi	r2,r2,-2
   31690:	e0fffd17 	ldw	r3,-12(fp)
   31694:	18800115 	stw	r2,4(r3)
      rc = 0;
   31698:	e03fff15 	stw	zero,-4(fp)
    break;
   3169c:	00000f06 	br	316dc <altera_avalon_jtag_uart_ioctl+0xd4>
    if (sp->timeout != INT_MAX)
   316a0:	e0bffd17 	ldw	r2,-12(fp)
   316a4:	10c00117 	ldw	r3,4(r2)
   316a8:	00a00034 	movhi	r2,32768
   316ac:	10bfffc4 	addi	r2,r2,-1
   316b0:	18800c26 	beq	r3,r2,316e4 <altera_avalon_jtag_uart_ioctl+0xdc>
      *((int *)arg) = (sp->host_inactive < sp->timeout) ? 1 : 0;
   316b4:	e0bffd17 	ldw	r2,-12(fp)
   316b8:	10c00917 	ldw	r3,36(r2)
   316bc:	e0bffd17 	ldw	r2,-12(fp)
   316c0:	10800117 	ldw	r2,4(r2)
   316c4:	1885803a 	cmpltu	r2,r3,r2
   316c8:	10c03fcc 	andi	r3,r2,255
   316cc:	e0bffb17 	ldw	r2,-20(fp)
   316d0:	10c00015 	stw	r3,0(r2)
      rc = 0;
   316d4:	e03fff15 	stw	zero,-4(fp)
    break;
   316d8:	00000206 	br	316e4 <altera_avalon_jtag_uart_ioctl+0xdc>
    break;
   316dc:	0001883a 	nop
   316e0:	00000106 	br	316e8 <altera_avalon_jtag_uart_ioctl+0xe0>
    break;
   316e4:	0001883a 	nop
  }

  return rc;
   316e8:	e0bfff17 	ldw	r2,-4(fp)
}
   316ec:	e037883a 	mov	sp,fp
   316f0:	df000017 	ldw	fp,0(sp)
   316f4:	dec00104 	addi	sp,sp,4
   316f8:	f800283a 	ret

000316fc <altera_avalon_jtag_uart_read>:
/* ----------------------------------------------------------- */

int 
altera_avalon_jtag_uart_read(altera_avalon_jtag_uart_state* sp, 
  char * buffer, int space, int flags)
{
   316fc:	defff304 	addi	sp,sp,-52
   31700:	dfc00c15 	stw	ra,48(sp)
   31704:	df000b15 	stw	fp,44(sp)
   31708:	df000b04 	addi	fp,sp,44
   3170c:	e13ff815 	stw	r4,-32(fp)
   31710:	e17ff715 	stw	r5,-36(fp)
   31714:	e1bff615 	stw	r6,-40(fp)
   31718:	e1fff515 	stw	r7,-44(fp)
  char * ptr = buffer;
   3171c:	e0bff717 	ldw	r2,-36(fp)
   31720:	e0bfff15 	stw	r2,-4(fp)
   * When running in a multi threaded environment, obtain the "read_lock"
   * semaphore. This ensures that reading from the device is thread-safe.
   */
  ALT_SEM_PEND (sp->read_lock, 0);

  while (space > 0)
   31724:	00004706 	br	31844 <altera_avalon_jtag_uart_read+0x148>
    unsigned int in, out;

    /* Read as much data as possible */
    do
    {
      in  = sp->rx_in;
   31728:	e0bff817 	ldw	r2,-32(fp)
   3172c:	10800a17 	ldw	r2,40(r2)
   31730:	e0bffd15 	stw	r2,-12(fp)
      out = sp->rx_out;
   31734:	e0bff817 	ldw	r2,-32(fp)
   31738:	10800b17 	ldw	r2,44(r2)
   3173c:	e0bffc15 	stw	r2,-16(fp)

      if (in >= out)
   31740:	e0fffd17 	ldw	r3,-12(fp)
   31744:	e0bffc17 	ldw	r2,-16(fp)
   31748:	18800536 	bltu	r3,r2,31760 <altera_avalon_jtag_uart_read+0x64>
        n = in - out;
   3174c:	e0fffd17 	ldw	r3,-12(fp)
   31750:	e0bffc17 	ldw	r2,-16(fp)
   31754:	1885c83a 	sub	r2,r3,r2
   31758:	e0bffe15 	stw	r2,-8(fp)
   3175c:	00000406 	br	31770 <altera_avalon_jtag_uart_read+0x74>
      else
        n = ALTERA_AVALON_JTAG_UART_BUF_LEN - out;
   31760:	00c20004 	movi	r3,2048
   31764:	e0bffc17 	ldw	r2,-16(fp)
   31768:	1885c83a 	sub	r2,r3,r2
   3176c:	e0bffe15 	stw	r2,-8(fp)

      if (n == 0)
   31770:	e0bffe17 	ldw	r2,-8(fp)
   31774:	10001e26 	beq	r2,zero,317f0 <altera_avalon_jtag_uart_read+0xf4>
        break; /* No more data available */

      if (n > space)
   31778:	e0fff617 	ldw	r3,-40(fp)
   3177c:	e0bffe17 	ldw	r2,-8(fp)
   31780:	1880022e 	bgeu	r3,r2,3178c <altera_avalon_jtag_uart_read+0x90>
        n = space;
   31784:	e0bff617 	ldw	r2,-40(fp)
   31788:	e0bffe15 	stw	r2,-8(fp)

      memcpy(ptr, sp->rx_buf + out, n);
   3178c:	e0bff817 	ldw	r2,-32(fp)
   31790:	10c00e04 	addi	r3,r2,56
   31794:	e0bffc17 	ldw	r2,-16(fp)
   31798:	1885883a 	add	r2,r3,r2
   3179c:	e1bffe17 	ldw	r6,-8(fp)
   317a0:	100b883a 	mov	r5,r2
   317a4:	e13fff17 	ldw	r4,-4(fp)
   317a8:	00292a80 	call	292a8 <memcpy>
      ptr   += n;
   317ac:	e0ffff17 	ldw	r3,-4(fp)
   317b0:	e0bffe17 	ldw	r2,-8(fp)
   317b4:	1885883a 	add	r2,r3,r2
   317b8:	e0bfff15 	stw	r2,-4(fp)
      space -= n;
   317bc:	e0fff617 	ldw	r3,-40(fp)
   317c0:	e0bffe17 	ldw	r2,-8(fp)
   317c4:	1885c83a 	sub	r2,r3,r2
   317c8:	e0bff615 	stw	r2,-40(fp)

      sp->rx_out = (out + n) % ALTERA_AVALON_JTAG_UART_BUF_LEN;
   317cc:	e0fffc17 	ldw	r3,-16(fp)
   317d0:	e0bffe17 	ldw	r2,-8(fp)
   317d4:	1885883a 	add	r2,r3,r2
   317d8:	10c1ffcc 	andi	r3,r2,2047
   317dc:	e0bff817 	ldw	r2,-32(fp)
   317e0:	10c00b15 	stw	r3,44(r2)
    }
    while (space > 0);
   317e4:	e0bff617 	ldw	r2,-40(fp)
   317e8:	00bfcf16 	blt	zero,r2,31728 <altera_avalon_jtag_uart_read+0x2c>
   317ec:	00000106 	br	317f4 <altera_avalon_jtag_uart_read+0xf8>
        break; /* No more data available */
   317f0:	0001883a 	nop

    /* If we read any data then return it */
    if (ptr != buffer)
   317f4:	e0ffff17 	ldw	r3,-4(fp)
   317f8:	e0bff717 	ldw	r2,-36(fp)
   317fc:	1880141e 	bne	r3,r2,31850 <altera_avalon_jtag_uart_read+0x154>
      break;

    /* If in non-blocking mode then return error */
    if (flags & O_NONBLOCK)
   31800:	e0bff517 	ldw	r2,-44(fp)
   31804:	1090000c 	andi	r2,r2,16384
   31808:	1000131e 	bne	r2,zero,31858 <altera_avalon_jtag_uart_read+0x15c>
      while (in == sp->rx_in && sp->host_inactive < sp->timeout)
        ;
    }
#else
    /* No OS: Always spin */
    while (in == sp->rx_in && sp->host_inactive < sp->timeout)
   3180c:	0001883a 	nop
   31810:	e0bff817 	ldw	r2,-32(fp)
   31814:	10800a17 	ldw	r2,40(r2)
   31818:	e0fffd17 	ldw	r3,-12(fp)
   3181c:	1880051e 	bne	r3,r2,31834 <altera_avalon_jtag_uart_read+0x138>
   31820:	e0bff817 	ldw	r2,-32(fp)
   31824:	10c00917 	ldw	r3,36(r2)
   31828:	e0bff817 	ldw	r2,-32(fp)
   3182c:	10800117 	ldw	r2,4(r2)
   31830:	18bff736 	bltu	r3,r2,31810 <altera_avalon_jtag_uart_read+0x114>
      ;
#endif /* __ucosii__ */

    if (in == sp->rx_in)
   31834:	e0bff817 	ldw	r2,-32(fp)
   31838:	10800a17 	ldw	r2,40(r2)
   3183c:	e0fffd17 	ldw	r3,-12(fp)
   31840:	18800726 	beq	r3,r2,31860 <altera_avalon_jtag_uart_read+0x164>
  while (space > 0)
   31844:	e0bff617 	ldw	r2,-40(fp)
   31848:	00bfb716 	blt	zero,r2,31728 <altera_avalon_jtag_uart_read+0x2c>
   3184c:	00000506 	br	31864 <altera_avalon_jtag_uart_read+0x168>
      break;
   31850:	0001883a 	nop
   31854:	00000306 	br	31864 <altera_avalon_jtag_uart_read+0x168>
      break;
   31858:	0001883a 	nop
   3185c:	00000106 	br	31864 <altera_avalon_jtag_uart_read+0x168>
      break;
   31860:	0001883a 	nop
   * semaphore so that other threads can access the buffer.
   */

  ALT_SEM_POST (sp->read_lock);

  if (ptr != buffer)
   31864:	e0ffff17 	ldw	r3,-4(fp)
   31868:	e0bff717 	ldw	r2,-36(fp)
   3186c:	18801926 	beq	r3,r2,318d4 <altera_avalon_jtag_uart_read+0x1d8>
  NIOS2_READ_STATUS (context);
   31870:	0005303a 	rdctl	r2,status
   31874:	e0bff915 	stw	r2,-28(fp)
  NIOS2_WRITE_STATUS (context & ~NIOS2_STATUS_PIE_MSK);
   31878:	e0fff917 	ldw	r3,-28(fp)
   3187c:	00bfff84 	movi	r2,-2
   31880:	1884703a 	and	r2,r3,r2
   31884:	1001703a 	wrctl	status,r2
  return context;
   31888:	e0bff917 	ldw	r2,-28(fp)
  {
    /* If we read any data then there is space in the buffer so enable interrupts */
    context = alt_irq_disable_all();
   3188c:	e0bffb15 	stw	r2,-20(fp)
    sp->irq_enable |= ALTERA_AVALON_JTAG_UART_CONTROL_RE_MSK;
   31890:	e0bff817 	ldw	r2,-32(fp)
   31894:	10800817 	ldw	r2,32(r2)
   31898:	10c00054 	ori	r3,r2,1
   3189c:	e0bff817 	ldw	r2,-32(fp)
   318a0:	10c00815 	stw	r3,32(r2)
    IOWR_ALTERA_AVALON_JTAG_UART_CONTROL(sp->base, sp->irq_enable);
   318a4:	e0bff817 	ldw	r2,-32(fp)
   318a8:	10800017 	ldw	r2,0(r2)
   318ac:	10800104 	addi	r2,r2,4
   318b0:	1007883a 	mov	r3,r2
   318b4:	e0bff817 	ldw	r2,-32(fp)
   318b8:	10800817 	ldw	r2,32(r2)
   318bc:	18800035 	stwio	r2,0(r3)
   318c0:	e0bffb17 	ldw	r2,-20(fp)
   318c4:	e0bffa15 	stw	r2,-24(fp)
  NIOS2_WRITE_STATUS (context);
   318c8:	e0bffa17 	ldw	r2,-24(fp)
   318cc:	1001703a 	wrctl	status,r2
}
   318d0:	0001883a 	nop
    alt_irq_enable_all(context);
  }

  if (ptr != buffer)
   318d4:	e0ffff17 	ldw	r3,-4(fp)
   318d8:	e0bff717 	ldw	r2,-36(fp)
   318dc:	18800426 	beq	r3,r2,318f0 <altera_avalon_jtag_uart_read+0x1f4>
    return ptr - buffer;
   318e0:	e0ffff17 	ldw	r3,-4(fp)
   318e4:	e0bff717 	ldw	r2,-36(fp)
   318e8:	1885c83a 	sub	r2,r3,r2
   318ec:	00000606 	br	31908 <altera_avalon_jtag_uart_read+0x20c>
  else if (flags & O_NONBLOCK)
   318f0:	e0bff517 	ldw	r2,-44(fp)
   318f4:	1090000c 	andi	r2,r2,16384
   318f8:	10000226 	beq	r2,zero,31904 <altera_avalon_jtag_uart_read+0x208>
    return -EWOULDBLOCK;
   318fc:	00bffd44 	movi	r2,-11
   31900:	00000106 	br	31908 <altera_avalon_jtag_uart_read+0x20c>
  else
    return -EIO;
   31904:	00bffec4 	movi	r2,-5
}
   31908:	e037883a 	mov	sp,fp
   3190c:	dfc00117 	ldw	ra,4(sp)
   31910:	df000017 	ldw	fp,0(sp)
   31914:	dec00204 	addi	sp,sp,8
   31918:	f800283a 	ret

0003191c <altera_avalon_jtag_uart_write>:
/* ----------------------------------------------------------- */

int 
altera_avalon_jtag_uart_write(altera_avalon_jtag_uart_state* sp, 
  const char * ptr, int count, int flags)
{
   3191c:	defff304 	addi	sp,sp,-52
   31920:	dfc00c15 	stw	ra,48(sp)
   31924:	df000b15 	stw	fp,44(sp)
   31928:	df000b04 	addi	fp,sp,44
   3192c:	e13ff815 	stw	r4,-32(fp)
   31930:	e17ff715 	stw	r5,-36(fp)
   31934:	e1bff615 	stw	r6,-40(fp)
   31938:	e1fff515 	stw	r7,-44(fp)
  /* Remove warning at optimisation level 03 by seting out to 0 */
  unsigned int in, out=0;
   3193c:	e03fff15 	stw	zero,-4(fp)
  unsigned int n;
  alt_irq_context context;

  const char * start = ptr;
   31940:	e0bff717 	ldw	r2,-36(fp)
   31944:	e0bffd15 	stw	r2,-12(fp)
  ALT_SEM_PEND (sp->write_lock, 0);

  do
  {
    /* Copy as much as we can into the transmit buffer */
    while (count > 0)
   31948:	00003706 	br	31a28 <altera_avalon_jtag_uart_write+0x10c>
    {
      /* We need a stable value of the out pointer to calculate the space available */
      in  = sp->tx_in;
   3194c:	e0bff817 	ldw	r2,-32(fp)
   31950:	10800c17 	ldw	r2,48(r2)
   31954:	e0bffc15 	stw	r2,-16(fp)
      out = sp->tx_out;
   31958:	e0bff817 	ldw	r2,-32(fp)
   3195c:	10800d17 	ldw	r2,52(r2)
   31960:	e0bfff15 	stw	r2,-4(fp)

      if (in < out)
   31964:	e0fffc17 	ldw	r3,-16(fp)
   31968:	e0bfff17 	ldw	r2,-4(fp)
   3196c:	1880062e 	bgeu	r3,r2,31988 <altera_avalon_jtag_uart_write+0x6c>
        n = out - 1 - in;
   31970:	e0ffff17 	ldw	r3,-4(fp)
   31974:	e0bffc17 	ldw	r2,-16(fp)
   31978:	1885c83a 	sub	r2,r3,r2
   3197c:	10bfffc4 	addi	r2,r2,-1
   31980:	e0bffe15 	stw	r2,-8(fp)
   31984:	00000b06 	br	319b4 <altera_avalon_jtag_uart_write+0x98>
      else if (out > 0)
   31988:	e0bfff17 	ldw	r2,-4(fp)
   3198c:	10000526 	beq	r2,zero,319a4 <altera_avalon_jtag_uart_write+0x88>
        n = ALTERA_AVALON_JTAG_UART_BUF_LEN - in;
   31990:	00c20004 	movi	r3,2048
   31994:	e0bffc17 	ldw	r2,-16(fp)
   31998:	1885c83a 	sub	r2,r3,r2
   3199c:	e0bffe15 	stw	r2,-8(fp)
   319a0:	00000406 	br	319b4 <altera_avalon_jtag_uart_write+0x98>
      else
        n = ALTERA_AVALON_JTAG_UART_BUF_LEN - 1 - in;
   319a4:	00c1ffc4 	movi	r3,2047
   319a8:	e0bffc17 	ldw	r2,-16(fp)
   319ac:	1885c83a 	sub	r2,r3,r2
   319b0:	e0bffe15 	stw	r2,-8(fp)

      if (n == 0)
   319b4:	e0bffe17 	ldw	r2,-8(fp)
   319b8:	10001e26 	beq	r2,zero,31a34 <altera_avalon_jtag_uart_write+0x118>
        break;

      if (n > count)
   319bc:	e0fff617 	ldw	r3,-40(fp)
   319c0:	e0bffe17 	ldw	r2,-8(fp)
   319c4:	1880022e 	bgeu	r3,r2,319d0 <altera_avalon_jtag_uart_write+0xb4>
        n = count;
   319c8:	e0bff617 	ldw	r2,-40(fp)
   319cc:	e0bffe15 	stw	r2,-8(fp)

      memcpy(sp->tx_buf + in, ptr, n);
   319d0:	e0bff817 	ldw	r2,-32(fp)
   319d4:	10c20e04 	addi	r3,r2,2104
   319d8:	e0bffc17 	ldw	r2,-16(fp)
   319dc:	1885883a 	add	r2,r3,r2
   319e0:	e1bffe17 	ldw	r6,-8(fp)
   319e4:	e17ff717 	ldw	r5,-36(fp)
   319e8:	1009883a 	mov	r4,r2
   319ec:	00292a80 	call	292a8 <memcpy>
      ptr   += n;
   319f0:	e0fff717 	ldw	r3,-36(fp)
   319f4:	e0bffe17 	ldw	r2,-8(fp)
   319f8:	1885883a 	add	r2,r3,r2
   319fc:	e0bff715 	stw	r2,-36(fp)
      count -= n;
   31a00:	e0fff617 	ldw	r3,-40(fp)
   31a04:	e0bffe17 	ldw	r2,-8(fp)
   31a08:	1885c83a 	sub	r2,r3,r2
   31a0c:	e0bff615 	stw	r2,-40(fp)

      sp->tx_in = (in + n) % ALTERA_AVALON_JTAG_UART_BUF_LEN;
   31a10:	e0fffc17 	ldw	r3,-16(fp)
   31a14:	e0bffe17 	ldw	r2,-8(fp)
   31a18:	1885883a 	add	r2,r3,r2
   31a1c:	10c1ffcc 	andi	r3,r2,2047
   31a20:	e0bff817 	ldw	r2,-32(fp)
   31a24:	10c00c15 	stw	r3,48(r2)
    while (count > 0)
   31a28:	e0bff617 	ldw	r2,-40(fp)
   31a2c:	00bfc716 	blt	zero,r2,3194c <altera_avalon_jtag_uart_write+0x30>
   31a30:	00000106 	br	31a38 <altera_avalon_jtag_uart_write+0x11c>
        break;
   31a34:	0001883a 	nop
  NIOS2_READ_STATUS (context);
   31a38:	0005303a 	rdctl	r2,status
   31a3c:	e0bff915 	stw	r2,-28(fp)
  NIOS2_WRITE_STATUS (context & ~NIOS2_STATUS_PIE_MSK);
   31a40:	e0fff917 	ldw	r3,-28(fp)
   31a44:	00bfff84 	movi	r2,-2
   31a48:	1884703a 	and	r2,r3,r2
   31a4c:	1001703a 	wrctl	status,r2
  return context;
   31a50:	e0bff917 	ldw	r2,-28(fp)
     * to enable interrupts if there is no space left in the FIFO
     *
     * For now kick the interrupt routine every time to make it transmit 
     * the data 
     */
    context = alt_irq_disable_all();
   31a54:	e0bffb15 	stw	r2,-20(fp)
    sp->irq_enable |= ALTERA_AVALON_JTAG_UART_CONTROL_WE_MSK;
   31a58:	e0bff817 	ldw	r2,-32(fp)
   31a5c:	10800817 	ldw	r2,32(r2)
   31a60:	10c00094 	ori	r3,r2,2
   31a64:	e0bff817 	ldw	r2,-32(fp)
   31a68:	10c00815 	stw	r3,32(r2)
    IOWR_ALTERA_AVALON_JTAG_UART_CONTROL(sp->base, sp->irq_enable);
   31a6c:	e0bff817 	ldw	r2,-32(fp)
   31a70:	10800017 	ldw	r2,0(r2)
   31a74:	10800104 	addi	r2,r2,4
   31a78:	1007883a 	mov	r3,r2
   31a7c:	e0bff817 	ldw	r2,-32(fp)
   31a80:	10800817 	ldw	r2,32(r2)
   31a84:	18800035 	stwio	r2,0(r3)
   31a88:	e0bffb17 	ldw	r2,-20(fp)
   31a8c:	e0bffa15 	stw	r2,-24(fp)
  NIOS2_WRITE_STATUS (context);
   31a90:	e0bffa17 	ldw	r2,-24(fp)
   31a94:	1001703a 	wrctl	status,r2
}
   31a98:	0001883a 	nop
    /* 
     * If there is any data left then either return now or block until 
     * some has been sent 
     */
    /* consider: test whether there is anything there while doing this and delay for at most 2s. */
    if (count > 0)
   31a9c:	e0bff617 	ldw	r2,-40(fp)
   31aa0:	0080100e 	bge	zero,r2,31ae4 <altera_avalon_jtag_uart_write+0x1c8>
    {
      if (flags & O_NONBLOCK)
   31aa4:	e0bff517 	ldw	r2,-44(fp)
   31aa8:	1090000c 	andi	r2,r2,16384
   31aac:	1000101e 	bne	r2,zero,31af0 <altera_avalon_jtag_uart_write+0x1d4>
      /*
       * No OS present: Always wait for data to be removed from buffer.  Once
       * the interrupt routine has removed some data then we will be able to
       * insert some more.
       */
      while (out == sp->tx_out && sp->host_inactive < sp->timeout)
   31ab0:	0001883a 	nop
   31ab4:	e0bff817 	ldw	r2,-32(fp)
   31ab8:	10800d17 	ldw	r2,52(r2)
   31abc:	e0ffff17 	ldw	r3,-4(fp)
   31ac0:	1880051e 	bne	r3,r2,31ad8 <altera_avalon_jtag_uart_write+0x1bc>
   31ac4:	e0bff817 	ldw	r2,-32(fp)
   31ac8:	10c00917 	ldw	r3,36(r2)
   31acc:	e0bff817 	ldw	r2,-32(fp)
   31ad0:	10800117 	ldw	r2,4(r2)
   31ad4:	18bff736 	bltu	r3,r2,31ab4 <altera_avalon_jtag_uart_write+0x198>
        ;
#endif /* __ucosii__ */

      if  (sp->host_inactive)
   31ad8:	e0bff817 	ldw	r2,-32(fp)
   31adc:	10800917 	ldw	r2,36(r2)
   31ae0:	1000051e 	bne	r2,zero,31af8 <altera_avalon_jtag_uart_write+0x1dc>
         break;
    }
  }
  while (count > 0);
   31ae4:	e0bff617 	ldw	r2,-40(fp)
   31ae8:	00bfcf16 	blt	zero,r2,31a28 <altera_avalon_jtag_uart_write+0x10c>
   31aec:	00000306 	br	31afc <altera_avalon_jtag_uart_write+0x1e0>
        break;
   31af0:	0001883a 	nop
   31af4:	00000106 	br	31afc <altera_avalon_jtag_uart_write+0x1e0>
         break;
   31af8:	0001883a 	nop
   * Now that access to the circular buffer is complete, release the write
   * semaphore so that other threads can access the buffer.
   */
  ALT_SEM_POST (sp->write_lock);

  if (ptr != start)
   31afc:	e0fff717 	ldw	r3,-36(fp)
   31b00:	e0bffd17 	ldw	r2,-12(fp)
   31b04:	18800426 	beq	r3,r2,31b18 <altera_avalon_jtag_uart_write+0x1fc>
    return ptr - start;
   31b08:	e0fff717 	ldw	r3,-36(fp)
   31b0c:	e0bffd17 	ldw	r2,-12(fp)
   31b10:	1885c83a 	sub	r2,r3,r2
   31b14:	00000606 	br	31b30 <altera_avalon_jtag_uart_write+0x214>
  else if (flags & O_NONBLOCK)
   31b18:	e0bff517 	ldw	r2,-44(fp)
   31b1c:	1090000c 	andi	r2,r2,16384
   31b20:	10000226 	beq	r2,zero,31b2c <altera_avalon_jtag_uart_write+0x210>
    return -EWOULDBLOCK;
   31b24:	00bffd44 	movi	r2,-11
   31b28:	00000106 	br	31b30 <altera_avalon_jtag_uart_write+0x214>
    sp->tx_out = sp->tx_in = 0;
    return ptr - start + count;
  }
#endif
  else
    return -EIO; /* Host not connected */
   31b2c:	00bffec4 	movi	r2,-5
}
   31b30:	e037883a 	mov	sp,fp
   31b34:	dfc00117 	ldw	ra,4(sp)
   31b38:	df000017 	ldw	fp,0(sp)
   31b3c:	dec00204 	addi	sp,sp,8
   31b40:	f800283a 	ret

00031b44 <alt_avalon_timer_sc_irq>:
#ifdef ALT_ENHANCED_INTERRUPT_API_PRESENT
static void alt_avalon_timer_sc_irq (void* base)
#else
static void alt_avalon_timer_sc_irq (void* base, alt_u32 id)
#endif
{
   31b44:	defffa04 	addi	sp,sp,-24
   31b48:	dfc00515 	stw	ra,20(sp)
   31b4c:	df000415 	stw	fp,16(sp)
   31b50:	df000404 	addi	fp,sp,16
   31b54:	e13ffc15 	stw	r4,-16(fp)
  alt_irq_context cpu_sr;
  
  /* clear the interrupt */
  IOWR_ALTERA_AVALON_TIMER_STATUS (base, 0);
   31b58:	0007883a 	mov	r3,zero
   31b5c:	e0bffc17 	ldw	r2,-16(fp)
   31b60:	10c00035 	stwio	r3,0(r2)
  /* 
   * Dummy read to ensure IRQ is negated before the ISR returns.
   * The control register is read because reading the status
   * register has side-effects per the register map documentation.
   */
  IORD_ALTERA_AVALON_TIMER_CONTROL (base);
   31b64:	e0bffc17 	ldw	r2,-16(fp)
   31b68:	10800104 	addi	r2,r2,4
   31b6c:	10800037 	ldwio	r2,0(r2)
  NIOS2_READ_STATUS (context);
   31b70:	0005303a 	rdctl	r2,status
   31b74:	e0bffd15 	stw	r2,-12(fp)
  NIOS2_WRITE_STATUS (context & ~NIOS2_STATUS_PIE_MSK);
   31b78:	e0fffd17 	ldw	r3,-12(fp)
   31b7c:	00bfff84 	movi	r2,-2
   31b80:	1884703a 	and	r2,r3,r2
   31b84:	1001703a 	wrctl	status,r2
  return context;
   31b88:	e0bffd17 	ldw	r2,-12(fp)

  /* 
   * Notify the system of a clock tick. disable interrupts 
   * during this time to safely support ISR preemption
   */
  cpu_sr = alt_irq_disable_all();
   31b8c:	e0bfff15 	stw	r2,-4(fp)
  alt_tick ();
   31b90:	0030d700 	call	30d70 <alt_tick>
   31b94:	e0bfff17 	ldw	r2,-4(fp)
   31b98:	e0bffe15 	stw	r2,-8(fp)
  NIOS2_WRITE_STATUS (context);
   31b9c:	e0bffe17 	ldw	r2,-8(fp)
   31ba0:	1001703a 	wrctl	status,r2
}
   31ba4:	0001883a 	nop
  alt_irq_enable_all(cpu_sr);
}
   31ba8:	0001883a 	nop
   31bac:	e037883a 	mov	sp,fp
   31bb0:	dfc00117 	ldw	ra,4(sp)
   31bb4:	df000017 	ldw	fp,0(sp)
   31bb8:	dec00204 	addi	sp,sp,8
   31bbc:	f800283a 	ret

00031bc0 <alt_avalon_timer_sc_init>:
 * auto-generated alt_sys_init() function.
 */

void alt_avalon_timer_sc_init (void* base, alt_u32 irq_controller_id, 
                                alt_u32 irq, alt_u32 freq)
{
   31bc0:	defff804 	addi	sp,sp,-32
   31bc4:	dfc00715 	stw	ra,28(sp)
   31bc8:	df000615 	stw	fp,24(sp)
   31bcc:	df000604 	addi	fp,sp,24
   31bd0:	e13ffe15 	stw	r4,-8(fp)
   31bd4:	e17ffd15 	stw	r5,-12(fp)
   31bd8:	e1bffc15 	stw	r6,-16(fp)
   31bdc:	e1fffb15 	stw	r7,-20(fp)
   31be0:	e0bffb17 	ldw	r2,-20(fp)
   31be4:	e0bfff15 	stw	r2,-4(fp)
 * in order to initialise the value of the clock frequency.
 */

static ALT_INLINE int ALT_ALWAYS_INLINE alt_sysclk_init (alt_u32 nticks)
{
  if (! _alt_tick_rate)
   31be8:	d0a92d17 	ldw	r2,-23372(gp)
   31bec:	1000031e 	bne	r2,zero,31bfc <alt_avalon_timer_sc_init+0x3c>
  {
    _alt_tick_rate = nticks;
   31bf0:	e0bfff17 	ldw	r2,-4(fp)
   31bf4:	d0a92d15 	stw	r2,-23372(gp)
    return 0;
   31bf8:	00000106 	br	31c00 <alt_avalon_timer_sc_init+0x40>
  }
  else
  {
    return -1;
   31bfc:	0001883a 	nop
  
  alt_sysclk_init (freq);
  
  /* set to free running mode */
  
  IOWR_ALTERA_AVALON_TIMER_CONTROL (base, 
   31c00:	e0bffe17 	ldw	r2,-8(fp)
   31c04:	10800104 	addi	r2,r2,4
   31c08:	00c001c4 	movi	r3,7
   31c0c:	10c00035 	stwio	r3,0(r2)
            ALTERA_AVALON_TIMER_CONTROL_CONT_MSK |
            ALTERA_AVALON_TIMER_CONTROL_START_MSK);

  /* register the interrupt handler, and enable the interrupt */
#ifdef ALT_ENHANCED_INTERRUPT_API_PRESENT
  alt_ic_isr_register(irq_controller_id, irq, alt_avalon_timer_sc_irq, 
   31c10:	d8000015 	stw	zero,0(sp)
   31c14:	e1fffe17 	ldw	r7,-8(fp)
   31c18:	018000f4 	movhi	r6,3
   31c1c:	3186d104 	addi	r6,r6,6980
   31c20:	e17ffc17 	ldw	r5,-16(fp)
   31c24:	e13ffd17 	ldw	r4,-12(fp)
   31c28:	0032c180 	call	32c18 <alt_ic_isr_register>
                      base, NULL);
#else
  alt_irq_register (irq, base, alt_avalon_timer_sc_irq);
#endif  
}
   31c2c:	0001883a 	nop
   31c30:	e037883a 	mov	sp,fp
   31c34:	dfc00117 	ldw	ra,4(sp)
   31c38:	df000017 	ldw	fp,0(sp)
   31c3c:	dec00204 	addi	sp,sp,8
   31c40:	f800283a 	ret

00031c44 <altera_avalon_uart_read_fd>:
 *
 */

int 
altera_avalon_uart_read_fd(alt_fd* fd, char* buffer, int space)
{
   31c44:	defffa04 	addi	sp,sp,-24
   31c48:	dfc00515 	stw	ra,20(sp)
   31c4c:	df000415 	stw	fp,16(sp)
   31c50:	df000404 	addi	fp,sp,16
   31c54:	e13ffe15 	stw	r4,-8(fp)
   31c58:	e17ffd15 	stw	r5,-12(fp)
   31c5c:	e1bffc15 	stw	r6,-16(fp)
    altera_avalon_uart_dev* dev = (altera_avalon_uart_dev*) fd->dev; 
   31c60:	e0bffe17 	ldw	r2,-8(fp)
   31c64:	10800017 	ldw	r2,0(r2)
   31c68:	e0bfff15 	stw	r2,-4(fp)

    return altera_avalon_uart_read(&dev->state, buffer, space,
   31c6c:	e0bfff17 	ldw	r2,-4(fp)
   31c70:	10c00a04 	addi	r3,r2,40
   31c74:	e0bffe17 	ldw	r2,-8(fp)
   31c78:	10800217 	ldw	r2,8(r2)
   31c7c:	100f883a 	mov	r7,r2
   31c80:	e1bffc17 	ldw	r6,-16(fp)
   31c84:	e17ffd17 	ldw	r5,-12(fp)
   31c88:	1809883a 	mov	r4,r3
   31c8c:	00321500 	call	32150 <altera_avalon_uart_read>
      fd->fd_flags);
}
   31c90:	e037883a 	mov	sp,fp
   31c94:	dfc00117 	ldw	ra,4(sp)
   31c98:	df000017 	ldw	fp,0(sp)
   31c9c:	dec00204 	addi	sp,sp,8
   31ca0:	f800283a 	ret

00031ca4 <altera_avalon_uart_write_fd>:

int 
altera_avalon_uart_write_fd(alt_fd* fd, const char* buffer, int space)
{
   31ca4:	defffa04 	addi	sp,sp,-24
   31ca8:	dfc00515 	stw	ra,20(sp)
   31cac:	df000415 	stw	fp,16(sp)
   31cb0:	df000404 	addi	fp,sp,16
   31cb4:	e13ffe15 	stw	r4,-8(fp)
   31cb8:	e17ffd15 	stw	r5,-12(fp)
   31cbc:	e1bffc15 	stw	r6,-16(fp)
    altera_avalon_uart_dev* dev = (altera_avalon_uart_dev*) fd->dev; 
   31cc0:	e0bffe17 	ldw	r2,-8(fp)
   31cc4:	10800017 	ldw	r2,0(r2)
   31cc8:	e0bfff15 	stw	r2,-4(fp)

    return altera_avalon_uart_write(&dev->state, buffer, space,
   31ccc:	e0bfff17 	ldw	r2,-4(fp)
   31cd0:	10c00a04 	addi	r3,r2,40
   31cd4:	e0bffe17 	ldw	r2,-8(fp)
   31cd8:	10800217 	ldw	r2,8(r2)
   31cdc:	100f883a 	mov	r7,r2
   31ce0:	e1bffc17 	ldw	r6,-16(fp)
   31ce4:	e17ffd17 	ldw	r5,-12(fp)
   31ce8:	1809883a 	mov	r4,r3
   31cec:	00323740 	call	32374 <altera_avalon_uart_write>
      fd->fd_flags);
}
   31cf0:	e037883a 	mov	sp,fp
   31cf4:	dfc00117 	ldw	ra,4(sp)
   31cf8:	df000017 	ldw	fp,0(sp)
   31cfc:	dec00204 	addi	sp,sp,8
   31d00:	f800283a 	ret

00031d04 <altera_avalon_uart_close_fd>:

#endif /* ALTERA_AVALON_UART_USE_IOCTL */

int 
altera_avalon_uart_close_fd(alt_fd* fd)
{
   31d04:	defffc04 	addi	sp,sp,-16
   31d08:	dfc00315 	stw	ra,12(sp)
   31d0c:	df000215 	stw	fp,8(sp)
   31d10:	df000204 	addi	fp,sp,8
   31d14:	e13ffe15 	stw	r4,-8(fp)
    altera_avalon_uart_dev* dev = (altera_avalon_uart_dev*) fd->dev; 
   31d18:	e0bffe17 	ldw	r2,-8(fp)
   31d1c:	10800017 	ldw	r2,0(r2)
   31d20:	e0bfff15 	stw	r2,-4(fp)

    return altera_avalon_uart_close(&dev->state, fd->fd_flags);
   31d24:	e0bfff17 	ldw	r2,-4(fp)
   31d28:	10c00a04 	addi	r3,r2,40
   31d2c:	e0bffe17 	ldw	r2,-8(fp)
   31d30:	10800217 	ldw	r2,8(r2)
   31d34:	100b883a 	mov	r5,r2
   31d38:	1809883a 	mov	r4,r3
   31d3c:	00320c00 	call	320c0 <altera_avalon_uart_close>
}
   31d40:	e037883a 	mov	sp,fp
   31d44:	dfc00117 	ldw	ra,4(sp)
   31d48:	df000017 	ldw	fp,0(sp)
   31d4c:	dec00204 	addi	sp,sp,8
   31d50:	f800283a 	ret

00031d54 <altera_avalon_uart_init>:
  alt_u32 status);

void 
altera_avalon_uart_init(altera_avalon_uart_state* sp, 
  alt_u32 irq_controller_id,  alt_u32 irq)
{
   31d54:	defff804 	addi	sp,sp,-32
   31d58:	dfc00715 	stw	ra,28(sp)
   31d5c:	df000615 	stw	fp,24(sp)
   31d60:	df000604 	addi	fp,sp,24
   31d64:	e13ffd15 	stw	r4,-12(fp)
   31d68:	e17ffc15 	stw	r5,-16(fp)
   31d6c:	e1bffb15 	stw	r6,-20(fp)
  void* base = sp->base;
   31d70:	e0bffd17 	ldw	r2,-12(fp)
   31d74:	10800017 	ldw	r2,0(r2)
   31d78:	e0bfff15 	stw	r2,-4(fp)
   31d7c:	0005883a 	mov	r2,zero
   * Initialise the read and write flags and the semaphores used to 
   * protect access to the circular buffers when running in a multi-threaded
   * environment.
   */
  error = ALT_FLAG_CREATE (&sp->events, 0)    || 
          ALT_SEM_CREATE (&sp->read_lock, 1)  ||
   31d80:	1000041e 	bne	r2,zero,31d94 <altera_avalon_uart_init+0x40>
   31d84:	0005883a 	mov	r2,zero
  error = ALT_FLAG_CREATE (&sp->events, 0)    || 
   31d88:	1000021e 	bne	r2,zero,31d94 <altera_avalon_uart_init+0x40>
   31d8c:	0005883a 	mov	r2,zero
          ALT_SEM_CREATE (&sp->read_lock, 1)  ||
   31d90:	10000226 	beq	r2,zero,31d9c <altera_avalon_uart_init+0x48>
   31d94:	00800044 	movi	r2,1
   31d98:	00000106 	br	31da0 <altera_avalon_uart_init+0x4c>
   31d9c:	0005883a 	mov	r2,zero
  error = ALT_FLAG_CREATE (&sp->events, 0)    || 
   31da0:	e0bffe15 	stw	r2,-8(fp)
          ALT_SEM_CREATE (&sp->write_lock, 1);

  if (!error)
   31da4:	e0bffe17 	ldw	r2,-8(fp)
   31da8:	10000f1e 	bne	r2,zero,31de8 <altera_avalon_uart_init+0x94>
  {
    /* enable interrupts at the device */
    sp->ctrl = ALTERA_AVALON_UART_CONTROL_RTS_MSK  |
   31dac:	e0bffd17 	ldw	r2,-12(fp)
   31db0:	00c32004 	movi	r3,3200
   31db4:	10c00115 	stw	r3,4(r2)
                ALTERA_AVALON_UART_CONTROL_RRDY_MSK |
                ALTERA_AVALON_UART_CONTROL_DCTS_MSK;

    IOWR_ALTERA_AVALON_UART_CONTROL(base, sp->ctrl); 
   31db8:	e0bfff17 	ldw	r2,-4(fp)
   31dbc:	10800304 	addi	r2,r2,12
   31dc0:	e0fffd17 	ldw	r3,-12(fp)
   31dc4:	18c00117 	ldw	r3,4(r3)
   31dc8:	10c00035 	stwio	r3,0(r2)
  
    /* register the interrupt handler */
#ifdef ALT_ENHANCED_INTERRUPT_API_PRESENT
    alt_ic_isr_register(irq_controller_id, irq, altera_avalon_uart_irq, sp, 
   31dcc:	d8000015 	stw	zero,0(sp)
   31dd0:	e1fffd17 	ldw	r7,-12(fp)
   31dd4:	018000f4 	movhi	r6,3
   31dd8:	31878004 	addi	r6,r6,7680
   31ddc:	e17ffb17 	ldw	r5,-20(fp)
   31de0:	e13ffc17 	ldw	r4,-16(fp)
   31de4:	0032c180 	call	32c18 <alt_ic_isr_register>
      0x0);
#else
    alt_irq_register (irq, sp, altera_avalon_uart_irq);
#endif  
  }
}
   31de8:	0001883a 	nop
   31dec:	e037883a 	mov	sp,fp
   31df0:	dfc00117 	ldw	ra,4(sp)
   31df4:	df000017 	ldw	fp,0(sp)
   31df8:	dec00204 	addi	sp,sp,8
   31dfc:	f800283a 	ret

00031e00 <altera_avalon_uart_irq>:
#ifdef ALT_ENHANCED_INTERRUPT_API_PRESENT
static void altera_avalon_uart_irq(void* context)
#else
static void altera_avalon_uart_irq(void* context, alt_u32 id)
#endif
{
   31e00:	defffa04 	addi	sp,sp,-24
   31e04:	dfc00515 	stw	ra,20(sp)
   31e08:	df000415 	stw	fp,16(sp)
   31e0c:	df000404 	addi	fp,sp,16
   31e10:	e13ffc15 	stw	r4,-16(fp)
  alt_u32 status;

  altera_avalon_uart_state* sp = (altera_avalon_uart_state*) context;
   31e14:	e0bffc17 	ldw	r2,-16(fp)
   31e18:	e0bfff15 	stw	r2,-4(fp)
  void* base               = sp->base;
   31e1c:	e0bfff17 	ldw	r2,-4(fp)
   31e20:	10800017 	ldw	r2,0(r2)
   31e24:	e0bffe15 	stw	r2,-8(fp)
  /*
   * Read the status register in order to determine the cause of the
   * interrupt.
   */

  status = IORD_ALTERA_AVALON_UART_STATUS(base);
   31e28:	e0bffe17 	ldw	r2,-8(fp)
   31e2c:	10800204 	addi	r2,r2,8
   31e30:	10800037 	ldwio	r2,0(r2)
   31e34:	e0bffd15 	stw	r2,-12(fp)

  /* Clear any error flags set at the device */
  IOWR_ALTERA_AVALON_UART_STATUS(base, 0);
   31e38:	e0bffe17 	ldw	r2,-8(fp)
   31e3c:	10800204 	addi	r2,r2,8
   31e40:	0007883a 	mov	r3,zero
   31e44:	10c00035 	stwio	r3,0(r2)

  /* Dummy read to ensure IRQ is negated before ISR returns */
  IORD_ALTERA_AVALON_UART_STATUS(base);
   31e48:	e0bffe17 	ldw	r2,-8(fp)
   31e4c:	10800204 	addi	r2,r2,8
   31e50:	10800037 	ldwio	r2,0(r2)
  
  /* process a read irq */
  if (status & ALTERA_AVALON_UART_STATUS_RRDY_MSK)
   31e54:	e0bffd17 	ldw	r2,-12(fp)
   31e58:	1080200c 	andi	r2,r2,128
   31e5c:	10000326 	beq	r2,zero,31e6c <altera_avalon_uart_irq+0x6c>
  {
    altera_avalon_uart_rxirq(sp, status);
   31e60:	e17ffd17 	ldw	r5,-12(fp)
   31e64:	e13fff17 	ldw	r4,-4(fp)
   31e68:	0031e9c0 	call	31e9c <altera_avalon_uart_rxirq>
  }

  /* process a write irq */
  if (status & (ALTERA_AVALON_UART_STATUS_TRDY_MSK | 
   31e6c:	e0bffd17 	ldw	r2,-12(fp)
   31e70:	1081100c 	andi	r2,r2,1088
   31e74:	10000326 	beq	r2,zero,31e84 <altera_avalon_uart_irq+0x84>
                  ALTERA_AVALON_UART_STATUS_DCTS_MSK))
  {
    altera_avalon_uart_txirq(sp, status);
   31e78:	e17ffd17 	ldw	r5,-12(fp)
   31e7c:	e13fff17 	ldw	r4,-4(fp)
   31e80:	0031f7c0 	call	31f7c <altera_avalon_uart_txirq>
  }
  

}
   31e84:	0001883a 	nop
   31e88:	e037883a 	mov	sp,fp
   31e8c:	dfc00117 	ldw	ra,4(sp)
   31e90:	df000017 	ldw	fp,0(sp)
   31e94:	dec00204 	addi	sp,sp,8
   31e98:	f800283a 	ret

00031e9c <altera_avalon_uart_rxirq>:
 * the receive circular buffer, and sets the apropriate flags to indicate 
 * that there is data ready to be processed.
 */
static void 
altera_avalon_uart_rxirq(altera_avalon_uart_state* sp, alt_u32 status)
{
   31e9c:	defffc04 	addi	sp,sp,-16
   31ea0:	df000315 	stw	fp,12(sp)
   31ea4:	df000304 	addi	fp,sp,12
   31ea8:	e13ffe15 	stw	r4,-8(fp)
   31eac:	e17ffd15 	stw	r5,-12(fp)
  alt_u32 next;
  
  /* If there was an error, discard the data */

  if (status & (ALTERA_AVALON_UART_STATUS_PE_MSK | 
   31eb0:	e0bffd17 	ldw	r2,-12(fp)
   31eb4:	108000cc 	andi	r2,r2,3
   31eb8:	10002b1e 	bne	r2,zero,31f68 <altera_avalon_uart_rxirq+0xcc>
   * In a multi-threaded environment, set the read event flag to indicate
   * that there is data ready. This is only done if the circular buffer was
   * previously empty.
   */

  if (sp->rx_end == sp->rx_start)
   31ebc:	e0bffe17 	ldw	r2,-8(fp)
   31ec0:	10800317 	ldw	r2,12(r2)
   31ec4:	e0bffe17 	ldw	r2,-8(fp)
   31ec8:	10800217 	ldw	r2,8(r2)
    ALT_FLAG_POST (sp->events, ALT_UART_READ_RDY, OS_FLAG_SET);
  }

  /* Determine which slot to use next in the circular buffer */

  next = (sp->rx_end + 1) & ALT_AVALON_UART_BUF_MSK;
   31ecc:	e0bffe17 	ldw	r2,-8(fp)
   31ed0:	10800317 	ldw	r2,12(r2)
   31ed4:	10800044 	addi	r2,r2,1
   31ed8:	10800fcc 	andi	r2,r2,63
   31edc:	e0bfff15 	stw	r2,-4(fp)

  /* Transfer data from the device to the circular buffer */

  sp->rx_buf[sp->rx_end] = IORD_ALTERA_AVALON_UART_RXDATA(sp->base);
   31ee0:	e0bffe17 	ldw	r2,-8(fp)
   31ee4:	10800017 	ldw	r2,0(r2)
   31ee8:	10c00037 	ldwio	r3,0(r2)
   31eec:	e0bffe17 	ldw	r2,-8(fp)
   31ef0:	10800317 	ldw	r2,12(r2)
   31ef4:	1809883a 	mov	r4,r3
   31ef8:	e0fffe17 	ldw	r3,-8(fp)
   31efc:	1885883a 	add	r2,r3,r2
   31f00:	11000705 	stb	r4,28(r2)

  sp->rx_end = next;
   31f04:	e0bffe17 	ldw	r2,-8(fp)
   31f08:	e0ffff17 	ldw	r3,-4(fp)
   31f0c:	10c00315 	stw	r3,12(r2)

  next = (sp->rx_end + 1) & ALT_AVALON_UART_BUF_MSK;
   31f10:	e0bffe17 	ldw	r2,-8(fp)
   31f14:	10800317 	ldw	r2,12(r2)
   31f18:	10800044 	addi	r2,r2,1
   31f1c:	10800fcc 	andi	r2,r2,63
   31f20:	e0bfff15 	stw	r2,-4(fp)
  /*
   * If the cicular buffer was full, disable interrupts. Interrupts will be
   * re-enabled when data is removed from the buffer.
   */

  if (next == sp->rx_start)
   31f24:	e0bffe17 	ldw	r2,-8(fp)
   31f28:	10800217 	ldw	r2,8(r2)
   31f2c:	e0ffff17 	ldw	r3,-4(fp)
   31f30:	18800e1e 	bne	r3,r2,31f6c <altera_avalon_uart_rxirq+0xd0>
  {
    sp->ctrl &= ~ALTERA_AVALON_UART_CONTROL_RRDY_MSK;
   31f34:	e0bffe17 	ldw	r2,-8(fp)
   31f38:	10c00117 	ldw	r3,4(r2)
   31f3c:	00bfdfc4 	movi	r2,-129
   31f40:	1886703a 	and	r3,r3,r2
   31f44:	e0bffe17 	ldw	r2,-8(fp)
   31f48:	10c00115 	stw	r3,4(r2)
    IOWR_ALTERA_AVALON_UART_CONTROL(sp->base, sp->ctrl); 
   31f4c:	e0bffe17 	ldw	r2,-8(fp)
   31f50:	10800017 	ldw	r2,0(r2)
   31f54:	10800304 	addi	r2,r2,12
   31f58:	e0fffe17 	ldw	r3,-8(fp)
   31f5c:	18c00117 	ldw	r3,4(r3)
   31f60:	10c00035 	stwio	r3,0(r2)
   31f64:	00000106 	br	31f6c <altera_avalon_uart_rxirq+0xd0>
    return;
   31f68:	0001883a 	nop
  }   
}
   31f6c:	e037883a 	mov	sp,fp
   31f70:	df000017 	ldw	fp,0(sp)
   31f74:	dec00104 	addi	sp,sp,4
   31f78:	f800283a 	ret

00031f7c <altera_avalon_uart_txirq>:
 * buffer to the device, and sets the apropriate flags to indicate that 
 * there is data ready to be processed.
 */
static void 
altera_avalon_uart_txirq(altera_avalon_uart_state* sp, alt_u32 status)
{
   31f7c:	defffd04 	addi	sp,sp,-12
   31f80:	df000215 	stw	fp,8(sp)
   31f84:	df000204 	addi	fp,sp,8
   31f88:	e13fff15 	stw	r4,-4(fp)
   31f8c:	e17ffe15 	stw	r5,-8(fp)
  /* Transfer data if there is some ready to be transfered */

  if (sp->tx_start != sp->tx_end)
   31f90:	e0bfff17 	ldw	r2,-4(fp)
   31f94:	10c00417 	ldw	r3,16(r2)
   31f98:	e0bfff17 	ldw	r2,-4(fp)
   31f9c:	10800517 	ldw	r2,20(r2)
   31fa0:	18803126 	beq	r3,r2,32068 <altera_avalon_uart_txirq+0xec>
    /* 
     * If the device is using flow control (i.e. RTS/CTS), then the
     * transmitter is required to throttle if CTS is high.
     */

    if (!(sp->flags & ALT_AVALON_UART_FC) ||
   31fa4:	e0bfff17 	ldw	r2,-4(fp)
   31fa8:	10800617 	ldw	r2,24(r2)
   31fac:	1080008c 	andi	r2,r2,2
   31fb0:	10000326 	beq	r2,zero,31fc0 <altera_avalon_uart_txirq+0x44>
      (status & ALTERA_AVALON_UART_STATUS_CTS_MSK))
   31fb4:	e0bffe17 	ldw	r2,-8(fp)
   31fb8:	1082000c 	andi	r2,r2,2048
    if (!(sp->flags & ALT_AVALON_UART_FC) ||
   31fbc:	10001c26 	beq	r2,zero,32030 <altera_avalon_uart_txirq+0xb4>
       * In a multi-threaded environment, set the write event flag to indicate
       * that there is space in the circular buffer. This is only done if the
       * buffer was previously empty.
       */

      if (sp->tx_start == ((sp->tx_end + 1) & ALT_AVALON_UART_BUF_MSK))
   31fc0:	e0bfff17 	ldw	r2,-4(fp)
   31fc4:	10800417 	ldw	r2,16(r2)
   31fc8:	e0bfff17 	ldw	r2,-4(fp)
   31fcc:	10800517 	ldw	r2,20(r2)
                       OS_FLAG_SET);
      }

      /* Write the data to the device */

      IOWR_ALTERA_AVALON_UART_TXDATA(sp->base, sp->tx_buf[sp->tx_start]);
   31fd0:	e0bfff17 	ldw	r2,-4(fp)
   31fd4:	10800017 	ldw	r2,0(r2)
   31fd8:	10800104 	addi	r2,r2,4
   31fdc:	e0ffff17 	ldw	r3,-4(fp)
   31fe0:	18c00417 	ldw	r3,16(r3)
   31fe4:	e13fff17 	ldw	r4,-4(fp)
   31fe8:	20c7883a 	add	r3,r4,r3
   31fec:	18c01703 	ldbu	r3,92(r3)
   31ff0:	18c03fcc 	andi	r3,r3,255
   31ff4:	10c00035 	stwio	r3,0(r2)

      sp->tx_start = (++sp->tx_start) & ALT_AVALON_UART_BUF_MSK;
   31ff8:	e0bfff17 	ldw	r2,-4(fp)
   31ffc:	10800417 	ldw	r2,16(r2)
   32000:	10800044 	addi	r2,r2,1
   32004:	e0ffff17 	ldw	r3,-4(fp)
   32008:	18800415 	stw	r2,16(r3)
   3200c:	10c00fcc 	andi	r3,r2,63
   32010:	e0bfff17 	ldw	r2,-4(fp)
   32014:	10c00415 	stw	r3,16(r2)
      /*
       * In case the tranmit interrupt had previously been disabled by 
       * detecting a low value on CTS, it is reenabled here.
       */ 

      sp->ctrl |= ALTERA_AVALON_UART_CONTROL_TRDY_MSK;
   32018:	e0bfff17 	ldw	r2,-4(fp)
   3201c:	10800117 	ldw	r2,4(r2)
   32020:	10c01014 	ori	r3,r2,64
   32024:	e0bfff17 	ldw	r2,-4(fp)
   32028:	10c00115 	stw	r3,4(r2)
   3202c:	00000e06 	br	32068 <altera_avalon_uart_txirq+0xec>
       * the last write to the status register. To avoid this resulting in
       * deadlock, it's necessary to re-check the status register here
       * before throttling.
       */
 
      status = IORD_ALTERA_AVALON_UART_STATUS(sp->base); 
   32030:	e0bfff17 	ldw	r2,-4(fp)
   32034:	10800017 	ldw	r2,0(r2)
   32038:	10800204 	addi	r2,r2,8
   3203c:	10800037 	ldwio	r2,0(r2)
   32040:	e0bffe15 	stw	r2,-8(fp)

      if (!(status & ALTERA_AVALON_UART_STATUS_CTS_MSK))
   32044:	e0bffe17 	ldw	r2,-8(fp)
   32048:	1082000c 	andi	r2,r2,2048
   3204c:	1000061e 	bne	r2,zero,32068 <altera_avalon_uart_txirq+0xec>
      {
        sp->ctrl &= ~ALTERA_AVALON_UART_CONTROL_TRDY_MSK;
   32050:	e0bfff17 	ldw	r2,-4(fp)
   32054:	10c00117 	ldw	r3,4(r2)
   32058:	00bfefc4 	movi	r2,-65
   3205c:	1886703a 	and	r3,r3,r2
   32060:	e0bfff17 	ldw	r2,-4(fp)
   32064:	10c00115 	stw	r3,4(r2)
  /*
   * If the circular buffer is empty, disable the interrupt. This will be
   * re-enabled when new data is placed in the buffer.
   */

  if (sp->tx_start == sp->tx_end)
   32068:	e0bfff17 	ldw	r2,-4(fp)
   3206c:	10c00417 	ldw	r3,16(r2)
   32070:	e0bfff17 	ldw	r2,-4(fp)
   32074:	10800517 	ldw	r2,20(r2)
   32078:	1880061e 	bne	r3,r2,32094 <altera_avalon_uart_txirq+0x118>
  {
    sp->ctrl &= ~(ALTERA_AVALON_UART_CONTROL_TRDY_MSK |
   3207c:	e0bfff17 	ldw	r2,-4(fp)
   32080:	10c00117 	ldw	r3,4(r2)
   32084:	00beefc4 	movi	r2,-1089
   32088:	1886703a 	and	r3,r3,r2
   3208c:	e0bfff17 	ldw	r2,-4(fp)
   32090:	10c00115 	stw	r3,4(r2)
                    ALTERA_AVALON_UART_CONTROL_DCTS_MSK);
  }

  IOWR_ALTERA_AVALON_UART_CONTROL(sp->base, sp->ctrl);
   32094:	e0bfff17 	ldw	r2,-4(fp)
   32098:	10800017 	ldw	r2,0(r2)
   3209c:	10800304 	addi	r2,r2,12
   320a0:	e0ffff17 	ldw	r3,-4(fp)
   320a4:	18c00117 	ldw	r3,4(r3)
   320a8:	10c00035 	stwio	r3,0(r2)
}
   320ac:	0001883a 	nop
   320b0:	e037883a 	mov	sp,fp
   320b4:	df000017 	ldw	fp,0(sp)
   320b8:	dec00104 	addi	sp,sp,4
   320bc:	f800283a 	ret

000320c0 <altera_avalon_uart_close>:
 * The close routine is not implemented for the small driver; instead it will
 * map to null. This is because the small driver simply waits while characters
 * are transmitted; there is no interrupt-serviced buffer to empty 
 */
int altera_avalon_uart_close(altera_avalon_uart_state* sp, int flags)
{
   320c0:	defffd04 	addi	sp,sp,-12
   320c4:	df000215 	stw	fp,8(sp)
   320c8:	df000204 	addi	fp,sp,8
   320cc:	e13fff15 	stw	r4,-4(fp)
   320d0:	e17ffe15 	stw	r5,-8(fp)
  /* 
   * Wait for all transmit data to be emptied by the UART ISR.
   */
  while (sp->tx_start != sp->tx_end) {
   320d4:	00000506 	br	320ec <altera_avalon_uart_close+0x2c>
    if (flags & O_NONBLOCK) {
   320d8:	e0bffe17 	ldw	r2,-8(fp)
   320dc:	1090000c 	andi	r2,r2,16384
   320e0:	10000226 	beq	r2,zero,320ec <altera_avalon_uart_close+0x2c>
      return -EWOULDBLOCK; 
   320e4:	00bffd44 	movi	r2,-11
   320e8:	00000606 	br	32104 <altera_avalon_uart_close+0x44>
  while (sp->tx_start != sp->tx_end) {
   320ec:	e0bfff17 	ldw	r2,-4(fp)
   320f0:	10c00417 	ldw	r3,16(r2)
   320f4:	e0bfff17 	ldw	r2,-4(fp)
   320f8:	10800517 	ldw	r2,20(r2)
   320fc:	18bff61e 	bne	r3,r2,320d8 <altera_avalon_uart_close+0x18>
    }
  }

  return 0;
   32100:	0005883a 	mov	r2,zero
}
   32104:	e037883a 	mov	sp,fp
   32108:	df000017 	ldw	fp,0(sp)
   3210c:	dec00104 	addi	sp,sp,4
   32110:	f800283a 	ret

00032114 <alt_get_errno>:
{
   32114:	defffe04 	addi	sp,sp,-8
   32118:	dfc00115 	stw	ra,4(sp)
   3211c:	df000015 	stw	fp,0(sp)
   32120:	d839883a 	mov	fp,sp
  return ((alt_errno) ? alt_errno() : &errno);
   32124:	d0a00c17 	ldw	r2,-32720(gp)
   32128:	10000326 	beq	r2,zero,32138 <alt_get_errno+0x24>
   3212c:	d0a00c17 	ldw	r2,-32720(gp)
   32130:	103ee83a 	callr	r2
   32134:	00000106 	br	3213c <alt_get_errno+0x28>
   32138:	d0a92504 	addi	r2,gp,-23404
}
   3213c:	e037883a 	mov	sp,fp
   32140:	dfc00117 	ldw	ra,4(sp)
   32144:	df000017 	ldw	fp,0(sp)
   32148:	dec00204 	addi	sp,sp,8
   3214c:	f800283a 	ret

00032150 <altera_avalon_uart_read>:
 */

int 
altera_avalon_uart_read(altera_avalon_uart_state* sp, char* ptr, int len,
  int flags)
{
   32150:	defff204 	addi	sp,sp,-56
   32154:	dfc00d15 	stw	ra,52(sp)
   32158:	df000c15 	stw	fp,48(sp)
   3215c:	df000c04 	addi	fp,sp,48
   32160:	e13ff715 	stw	r4,-36(fp)
   32164:	e17ff615 	stw	r5,-40(fp)
   32168:	e1bff515 	stw	r6,-44(fp)
   3216c:	e1fff415 	stw	r7,-48(fp)
  alt_irq_context context;
  int             block;
  alt_u8          read_would_block = 0;
   32170:	e03fffc5 	stb	zero,-1(fp)
  int             count = 0;
   32174:	e03ffe15 	stw	zero,-8(fp)
  /* 
   * Construct a flag to indicate whether the device is being accessed in
   * blocking or non-blocking mode.
   */

  block = !(flags & O_NONBLOCK);
   32178:	e0bff417 	ldw	r2,-48(fp)
   3217c:	1090000c 	andi	r2,r2,16384
   32180:	1005003a 	cmpeq	r2,r2,zero
   32184:	10803fcc 	andi	r2,r2,255
   32188:	e0bffd15 	stw	r2,-12(fp)
    /*
     * Read the required amount of data, until the circular buffer runs
     * empty
     */

    while ((count < len) && (sp->rx_start != sp->rx_end))
   3218c:	00001306 	br	321dc <altera_avalon_uart_read+0x8c>
    {
      count++;
   32190:	e0bffe17 	ldw	r2,-8(fp)
   32194:	10800044 	addi	r2,r2,1
   32198:	e0bffe15 	stw	r2,-8(fp)
      *ptr++ = sp->rx_buf[sp->rx_start];
   3219c:	e0bff717 	ldw	r2,-36(fp)
   321a0:	10800217 	ldw	r2,8(r2)
   321a4:	e0fff717 	ldw	r3,-36(fp)
   321a8:	1885883a 	add	r2,r3,r2
   321ac:	11000703 	ldbu	r4,28(r2)
   321b0:	e0bff617 	ldw	r2,-40(fp)
   321b4:	10c00044 	addi	r3,r2,1
   321b8:	e0fff615 	stw	r3,-40(fp)
   321bc:	2007883a 	mov	r3,r4
   321c0:	10c00005 	stb	r3,0(r2)
      
      sp->rx_start = (sp->rx_start+1) & ALT_AVALON_UART_BUF_MSK;
   321c4:	e0bff717 	ldw	r2,-36(fp)
   321c8:	10800217 	ldw	r2,8(r2)
   321cc:	10800044 	addi	r2,r2,1
   321d0:	10c00fcc 	andi	r3,r2,63
   321d4:	e0bff717 	ldw	r2,-36(fp)
   321d8:	10c00215 	stw	r3,8(r2)
    while ((count < len) && (sp->rx_start != sp->rx_end))
   321dc:	e0fffe17 	ldw	r3,-8(fp)
   321e0:	e0bff517 	ldw	r2,-44(fp)
   321e4:	1880050e 	bge	r3,r2,321fc <altera_avalon_uart_read+0xac>
   321e8:	e0bff717 	ldw	r2,-36(fp)
   321ec:	10c00217 	ldw	r3,8(r2)
   321f0:	e0bff717 	ldw	r2,-36(fp)
   321f4:	10800317 	ldw	r2,12(r2)
   321f8:	18bfe51e 	bne	r3,r2,32190 <altera_avalon_uart_read+0x40>
    /*
     * If no data has been transferred, the circular buffer is empty, and
     * this is not a non-blocking access, block waiting for data to arrive.
     */

    if (!count && (sp->rx_start == sp->rx_end))
   321fc:	e0bffe17 	ldw	r2,-8(fp)
   32200:	1000271e 	bne	r2,zero,322a0 <altera_avalon_uart_read+0x150>
   32204:	e0bff717 	ldw	r2,-36(fp)
   32208:	10c00217 	ldw	r3,8(r2)
   3220c:	e0bff717 	ldw	r2,-36(fp)
   32210:	10800317 	ldw	r2,12(r2)
   32214:	1880221e 	bne	r3,r2,322a0 <altera_avalon_uart_read+0x150>
    {
      if (!block)
   32218:	e0bffd17 	ldw	r2,-12(fp)
   3221c:	1000071e 	bne	r2,zero,3223c <altera_avalon_uart_read+0xec>
      {
        /* Set errno to indicate the reason we're not returning any data */

        ALT_ERRNO = EWOULDBLOCK;
   32220:	00321140 	call	32114 <alt_get_errno>
   32224:	1007883a 	mov	r3,r2
   32228:	008002c4 	movi	r2,11
   3222c:	18800015 	stw	r2,0(r3)
        read_would_block = 1;
   32230:	00800044 	movi	r2,1
   32234:	e0bfffc5 	stb	r2,-1(fp)
        break;
   32238:	00001d06 	br	322b0 <altera_avalon_uart_read+0x160>
  NIOS2_READ_STATUS (context);
   3223c:	0005303a 	rdctl	r2,status
   32240:	e0bffa15 	stw	r2,-24(fp)
  NIOS2_WRITE_STATUS (context & ~NIOS2_STATUS_PIE_MSK);
   32244:	e0fffa17 	ldw	r3,-24(fp)
   32248:	00bfff84 	movi	r2,-2
   3224c:	1884703a 	and	r2,r3,r2
   32250:	1001703a 	wrctl	status,r2
  return context;
   32254:	e0bffa17 	ldw	r2,-24(fp)
      {
       /* Block waiting for some data to arrive */

       /* First, ensure read interrupts are enabled to avoid deadlock */

       context = alt_irq_disable_all ();
   32258:	e0bffc15 	stw	r2,-16(fp)
       sp->ctrl |= ALTERA_AVALON_UART_CONTROL_RRDY_MSK;
   3225c:	e0bff717 	ldw	r2,-36(fp)
   32260:	10800117 	ldw	r2,4(r2)
   32264:	10c02014 	ori	r3,r2,128
   32268:	e0bff717 	ldw	r2,-36(fp)
   3226c:	10c00115 	stw	r3,4(r2)
       IOWR_ALTERA_AVALON_UART_CONTROL(sp->base, sp->ctrl);
   32270:	e0bff717 	ldw	r2,-36(fp)
   32274:	10800017 	ldw	r2,0(r2)
   32278:	10800304 	addi	r2,r2,12
   3227c:	e0fff717 	ldw	r3,-36(fp)
   32280:	18c00117 	ldw	r3,4(r3)
   32284:	10c00035 	stwio	r3,0(r2)
   32288:	e0bffc17 	ldw	r2,-16(fp)
   3228c:	e0bffb15 	stw	r2,-20(fp)
  NIOS2_WRITE_STATUS (context);
   32290:	e0bffb17 	ldw	r2,-20(fp)
   32294:	1001703a 	wrctl	status,r2
}
   32298:	0001883a 	nop
   3229c:	0001883a 	nop
                      OS_FLAG_WAIT_SET_ANY + OS_FLAG_CONSUME,
                      0);
      }
    }
  }
  while (!count && len);
   322a0:	e0bffe17 	ldw	r2,-8(fp)
   322a4:	1000021e 	bne	r2,zero,322b0 <altera_avalon_uart_read+0x160>
   322a8:	e0bff517 	ldw	r2,-44(fp)
   322ac:	103fcb1e 	bne	r2,zero,321dc <altera_avalon_uart_read+0x8c>
  NIOS2_READ_STATUS (context);
   322b0:	0005303a 	rdctl	r2,status
   322b4:	e0bff815 	stw	r2,-32(fp)
  NIOS2_WRITE_STATUS (context & ~NIOS2_STATUS_PIE_MSK);
   322b8:	e0fff817 	ldw	r3,-32(fp)
   322bc:	00bfff84 	movi	r2,-2
   322c0:	1884703a 	and	r2,r3,r2
   322c4:	1001703a 	wrctl	status,r2
  return context;
   322c8:	e0bff817 	ldw	r2,-32(fp)
  /*
   * Ensure that interrupts are enabled, so that the circular buffer can
   * re-fill.
   */

  context = alt_irq_disable_all ();
   322cc:	e0bffc15 	stw	r2,-16(fp)
  sp->ctrl |= ALTERA_AVALON_UART_CONTROL_RRDY_MSK;
   322d0:	e0bff717 	ldw	r2,-36(fp)
   322d4:	10800117 	ldw	r2,4(r2)
   322d8:	10c02014 	ori	r3,r2,128
   322dc:	e0bff717 	ldw	r2,-36(fp)
   322e0:	10c00115 	stw	r3,4(r2)
  IOWR_ALTERA_AVALON_UART_CONTROL(sp->base, sp->ctrl);
   322e4:	e0bff717 	ldw	r2,-36(fp)
   322e8:	10800017 	ldw	r2,0(r2)
   322ec:	10800304 	addi	r2,r2,12
   322f0:	e0fff717 	ldw	r3,-36(fp)
   322f4:	18c00117 	ldw	r3,4(r3)
   322f8:	10c00035 	stwio	r3,0(r2)
   322fc:	e0bffc17 	ldw	r2,-16(fp)
   32300:	e0bff915 	stw	r2,-28(fp)
  NIOS2_WRITE_STATUS (context);
   32304:	e0bff917 	ldw	r2,-28(fp)
   32308:	1001703a 	wrctl	status,r2
}
   3230c:	0001883a 	nop
  alt_irq_enable_all (context);

  /* Return the number of bytes read */
  if(read_would_block) {
   32310:	e0bfffc3 	ldbu	r2,-1(fp)
   32314:	10000226 	beq	r2,zero,32320 <altera_avalon_uart_read+0x1d0>
    return -EWOULDBLOCK;
   32318:	00bffd44 	movi	r2,-11
   3231c:	00000106 	br	32324 <altera_avalon_uart_read+0x1d4>
  }
  else {
    return count;
   32320:	e0bffe17 	ldw	r2,-8(fp)
  }
}
   32324:	e037883a 	mov	sp,fp
   32328:	dfc00117 	ldw	ra,4(sp)
   3232c:	df000017 	ldw	fp,0(sp)
   32330:	dec00204 	addi	sp,sp,8
   32334:	f800283a 	ret

00032338 <alt_get_errno>:
{
   32338:	defffe04 	addi	sp,sp,-8
   3233c:	dfc00115 	stw	ra,4(sp)
   32340:	df000015 	stw	fp,0(sp)
   32344:	d839883a 	mov	fp,sp
  return ((alt_errno) ? alt_errno() : &errno);
   32348:	d0a00c17 	ldw	r2,-32720(gp)
   3234c:	10000326 	beq	r2,zero,3235c <alt_get_errno+0x24>
   32350:	d0a00c17 	ldw	r2,-32720(gp)
   32354:	103ee83a 	callr	r2
   32358:	00000106 	br	32360 <alt_get_errno+0x28>
   3235c:	d0a92504 	addi	r2,gp,-23404
}
   32360:	e037883a 	mov	sp,fp
   32364:	dfc00117 	ldw	ra,4(sp)
   32368:	df000017 	ldw	fp,0(sp)
   3236c:	dec00204 	addi	sp,sp,8
   32370:	f800283a 	ret

00032374 <altera_avalon_uart_write>:
 */

int
altera_avalon_uart_write(altera_avalon_uart_state* sp, const char* ptr, int len,
  int flags)
{
   32374:	defff204 	addi	sp,sp,-56
   32378:	dfc00d15 	stw	ra,52(sp)
   3237c:	df000c15 	stw	fp,48(sp)
   32380:	df000c04 	addi	fp,sp,48
   32384:	e13ff715 	stw	r4,-36(fp)
   32388:	e17ff615 	stw	r5,-40(fp)
   3238c:	e1bff515 	stw	r6,-44(fp)
   32390:	e1fff415 	stw	r7,-48(fp)
  alt_irq_context context;
  int             no_block;
  alt_u32         next;
  int             count = len;
   32394:	e0bff517 	ldw	r2,-44(fp)
   32398:	e0bfff15 	stw	r2,-4(fp)
  /* 
   * Construct a flag to indicate whether the device is being accessed in
   * blocking or non-blocking mode.
   */

  no_block = (flags & O_NONBLOCK);
   3239c:	e0bff417 	ldw	r2,-48(fp)
   323a0:	1090000c 	andi	r2,r2,16384
   323a4:	e0bffe15 	stw	r2,-8(fp)
   * Loop transferring data from the input buffer to the transmit circular
   * buffer. The loop is terminated once all the data has been transferred,
   * or, (if in non-blocking mode) the buffer becomes full.
   */

  while (count)
   323a8:	00003d06 	br	324a0 <altera_avalon_uart_write+0x12c>
  {
    /* Determine the next slot in the buffer to access */

    next = (sp->tx_end + 1) & ALT_AVALON_UART_BUF_MSK;
   323ac:	e0bff717 	ldw	r2,-36(fp)
   323b0:	10800517 	ldw	r2,20(r2)
   323b4:	10800044 	addi	r2,r2,1
   323b8:	10800fcc 	andi	r2,r2,63
   323bc:	e0bffd15 	stw	r2,-12(fp)

    /* block waiting for space if necessary */

    if (next == sp->tx_start)
   323c0:	e0bff717 	ldw	r2,-36(fp)
   323c4:	10800417 	ldw	r2,16(r2)
   323c8:	e0fffd17 	ldw	r3,-12(fp)
   323cc:	1880241e 	bne	r3,r2,32460 <altera_avalon_uart_write+0xec>
    {
      if (no_block)
   323d0:	e0bffe17 	ldw	r2,-8(fp)
   323d4:	10000526 	beq	r2,zero,323ec <altera_avalon_uart_write+0x78>
      {
        /* Set errno to indicate why this function returned early */
 
        ALT_ERRNO = EWOULDBLOCK;
   323d8:	00323380 	call	32338 <alt_get_errno>
   323dc:	1007883a 	mov	r3,r2
   323e0:	008002c4 	movi	r2,11
   323e4:	18800015 	stw	r2,0(r3)
        break;
   323e8:	00002f06 	br	324a8 <altera_avalon_uart_write+0x134>
  NIOS2_READ_STATUS (context);
   323ec:	0005303a 	rdctl	r2,status
   323f0:	e0bffa15 	stw	r2,-24(fp)
  NIOS2_WRITE_STATUS (context & ~NIOS2_STATUS_PIE_MSK);
   323f4:	e0fffa17 	ldw	r3,-24(fp)
   323f8:	00bfff84 	movi	r2,-2
   323fc:	1884703a 	and	r2,r3,r2
   32400:	1001703a 	wrctl	status,r2
  return context;
   32404:	e0bffa17 	ldw	r2,-24(fp)
      {
        /* Block waiting for space in the circular buffer */

        /* First, ensure transmit interrupts are enabled to avoid deadlock */

        context = alt_irq_disable_all ();
   32408:	e0bffc15 	stw	r2,-16(fp)
        sp->ctrl |= (ALTERA_AVALON_UART_CONTROL_TRDY_MSK |
   3240c:	e0bff717 	ldw	r2,-36(fp)
   32410:	10800117 	ldw	r2,4(r2)
   32414:	10c11014 	ori	r3,r2,1088
   32418:	e0bff717 	ldw	r2,-36(fp)
   3241c:	10c00115 	stw	r3,4(r2)
                        ALTERA_AVALON_UART_CONTROL_DCTS_MSK);
        IOWR_ALTERA_AVALON_UART_CONTROL(sp->base, sp->ctrl);
   32420:	e0bff717 	ldw	r2,-36(fp)
   32424:	10800017 	ldw	r2,0(r2)
   32428:	10800304 	addi	r2,r2,12
   3242c:	e0fff717 	ldw	r3,-36(fp)
   32430:	18c00117 	ldw	r3,4(r3)
   32434:	10c00035 	stwio	r3,0(r2)
   32438:	e0bffc17 	ldw	r2,-16(fp)
   3243c:	e0bffb15 	stw	r2,-20(fp)
  NIOS2_WRITE_STATUS (context);
   32440:	e0bffb17 	ldw	r2,-20(fp)
   32444:	1001703a 	wrctl	status,r2
}
   32448:	0001883a 	nop
   3244c:	0001883a 	nop
          ALT_FLAG_PEND (sp->events, 
                         ALT_UART_WRITE_RDY,
                         OS_FLAG_WAIT_SET_ANY + OS_FLAG_CONSUME,
                         0);
        }
        while ((next == sp->tx_start));
   32450:	e0bff717 	ldw	r2,-36(fp)
   32454:	10800417 	ldw	r2,16(r2)
   32458:	e0fffd17 	ldw	r3,-12(fp)
   3245c:	18bffb26 	beq	r3,r2,3244c <altera_avalon_uart_write+0xd8>
      }
    }

    count--;
   32460:	e0bfff17 	ldw	r2,-4(fp)
   32464:	10bfffc4 	addi	r2,r2,-1
   32468:	e0bfff15 	stw	r2,-4(fp)

    /* Add the next character to the transmit buffer */

    sp->tx_buf[sp->tx_end] = *ptr++;
   3246c:	e0bff617 	ldw	r2,-40(fp)
   32470:	10c00044 	addi	r3,r2,1
   32474:	e0fff615 	stw	r3,-40(fp)
   32478:	10c00003 	ldbu	r3,0(r2)
   3247c:	e0bff717 	ldw	r2,-36(fp)
   32480:	10800517 	ldw	r2,20(r2)
   32484:	1809883a 	mov	r4,r3
   32488:	e0fff717 	ldw	r3,-36(fp)
   3248c:	1885883a 	add	r2,r3,r2
   32490:	11001705 	stb	r4,92(r2)
    sp->tx_end = next;
   32494:	e0bff717 	ldw	r2,-36(fp)
   32498:	e0fffd17 	ldw	r3,-12(fp)
   3249c:	10c00515 	stw	r3,20(r2)
  while (count)
   324a0:	e0bfff17 	ldw	r2,-4(fp)
   324a4:	103fc11e 	bne	r2,zero,323ac <altera_avalon_uart_write+0x38>
  NIOS2_READ_STATUS (context);
   324a8:	0005303a 	rdctl	r2,status
   324ac:	e0bff815 	stw	r2,-32(fp)
  NIOS2_WRITE_STATUS (context & ~NIOS2_STATUS_PIE_MSK);
   324b0:	e0fff817 	ldw	r3,-32(fp)
   324b4:	00bfff84 	movi	r2,-2
   324b8:	1884703a 	and	r2,r3,r2
   324bc:	1001703a 	wrctl	status,r2
  return context;
   324c0:	e0bff817 	ldw	r2,-32(fp)
  /* 
   * Ensure that interrupts are enabled, so that the circular buffer can 
   * drain.
   */

  context = alt_irq_disable_all ();
   324c4:	e0bffc15 	stw	r2,-16(fp)
  sp->ctrl |= ALTERA_AVALON_UART_CONTROL_TRDY_MSK |
   324c8:	e0bff717 	ldw	r2,-36(fp)
   324cc:	10800117 	ldw	r2,4(r2)
   324d0:	10c11014 	ori	r3,r2,1088
   324d4:	e0bff717 	ldw	r2,-36(fp)
   324d8:	10c00115 	stw	r3,4(r2)
                 ALTERA_AVALON_UART_CONTROL_DCTS_MSK;
  IOWR_ALTERA_AVALON_UART_CONTROL(sp->base, sp->ctrl);
   324dc:	e0bff717 	ldw	r2,-36(fp)
   324e0:	10800017 	ldw	r2,0(r2)
   324e4:	10800304 	addi	r2,r2,12
   324e8:	e0fff717 	ldw	r3,-36(fp)
   324ec:	18c00117 	ldw	r3,4(r3)
   324f0:	10c00035 	stwio	r3,0(r2)
   324f4:	e0bffc17 	ldw	r2,-16(fp)
   324f8:	e0bff915 	stw	r2,-28(fp)
  NIOS2_WRITE_STATUS (context);
   324fc:	e0bff917 	ldw	r2,-28(fp)
   32500:	1001703a 	wrctl	status,r2
}
   32504:	0001883a 	nop
  alt_irq_enable_all (context);

  /* return the number of bytes written */

  return (len - count);
   32508:	e0fff517 	ldw	r3,-44(fp)
   3250c:	e0bfff17 	ldw	r2,-4(fp)
   32510:	1885c83a 	sub	r2,r3,r2
}
   32514:	e037883a 	mov	sp,fp
   32518:	dfc00117 	ldw	ra,4(sp)
   3251c:	df000017 	ldw	fp,0(sp)
   32520:	dec00204 	addi	sp,sp,8
   32524:	f800283a 	ret

00032528 <alt_alarm_start>:
 */ 

int alt_alarm_start (alt_alarm* alarm, alt_u32 nticks,
                     alt_u32 (*callback) (void* context),
                     void* context)
{
   32528:	defff504 	addi	sp,sp,-44
   3252c:	df000a15 	stw	fp,40(sp)
   32530:	df000a04 	addi	fp,sp,40
   32534:	e13ff915 	stw	r4,-28(fp)
   32538:	e17ff815 	stw	r5,-32(fp)
   3253c:	e1bff715 	stw	r6,-36(fp)
   32540:	e1fff615 	stw	r7,-40(fp)
  alt_irq_context irq_context;
  alt_u32 current_nticks = 0;
   32544:	e03fff15 	stw	zero,-4(fp)
  return _alt_tick_rate;
   32548:	d0a92d17 	ldw	r2,-23372(gp)
  
  if (alt_ticks_per_second ())
   3254c:	10003e26 	beq	r2,zero,32648 <alt_alarm_start+0x120>
  {
    if (alarm)
   32550:	e0bff917 	ldw	r2,-28(fp)
   32554:	10003a26 	beq	r2,zero,32640 <alt_alarm_start+0x118>
    {
      alarm->callback = callback;
   32558:	e0bff917 	ldw	r2,-28(fp)
   3255c:	e0fff717 	ldw	r3,-36(fp)
   32560:	10c00315 	stw	r3,12(r2)
      alarm->context  = context;
   32564:	e0bff917 	ldw	r2,-28(fp)
   32568:	e0fff617 	ldw	r3,-40(fp)
   3256c:	10c00515 	stw	r3,20(r2)
  NIOS2_READ_STATUS (context);
   32570:	0005303a 	rdctl	r2,status
   32574:	e0bffd15 	stw	r2,-12(fp)
  NIOS2_WRITE_STATUS (context & ~NIOS2_STATUS_PIE_MSK);
   32578:	e0fffd17 	ldw	r3,-12(fp)
   3257c:	00bfff84 	movi	r2,-2
   32580:	1884703a 	and	r2,r3,r2
   32584:	1001703a 	wrctl	status,r2
  return context;
   32588:	e0bffd17 	ldw	r2,-12(fp)
 
      irq_context = alt_irq_disable_all ();
   3258c:	e0bffe15 	stw	r2,-8(fp)
 * alt_nticks() returns the elapsed number of system clock ticks since reset.
 */

static ALT_INLINE alt_u32 ALT_ALWAYS_INLINE alt_nticks (void)
{
  return _alt_nticks;
   32590:	d0a92e17 	ldw	r2,-23368(gp)
      
      current_nticks = alt_nticks();
   32594:	e0bfff15 	stw	r2,-4(fp)
      
      alarm->time = nticks + current_nticks + 1; 
   32598:	e0fff817 	ldw	r3,-32(fp)
   3259c:	e0bfff17 	ldw	r2,-4(fp)
   325a0:	1885883a 	add	r2,r3,r2
   325a4:	10c00044 	addi	r3,r2,1
   325a8:	e0bff917 	ldw	r2,-28(fp)
   325ac:	10c00215 	stw	r3,8(r2)
      /* 
       * If the desired alarm time causes a roll-over, set the rollover
       * flag. This will prevent the subsequent tick event from causing
       * an alarm too early.
       */
      if(alarm->time < current_nticks)
   325b0:	e0bff917 	ldw	r2,-28(fp)
   325b4:	10c00217 	ldw	r3,8(r2)
   325b8:	e0bfff17 	ldw	r2,-4(fp)
   325bc:	1880042e 	bgeu	r3,r2,325d0 <alt_alarm_start+0xa8>
      {
        alarm->rollover = 1;
   325c0:	e0bff917 	ldw	r2,-28(fp)
   325c4:	00c00044 	movi	r3,1
   325c8:	10c00405 	stb	r3,16(r2)
   325cc:	00000206 	br	325d8 <alt_alarm_start+0xb0>
      }
      else
      {
        alarm->rollover = 0;
   325d0:	e0bff917 	ldw	r2,-28(fp)
   325d4:	10000405 	stb	zero,16(r2)
      }
    
      alt_llist_insert (&alt_alarm_list, &alarm->llist);
   325d8:	e0bff917 	ldw	r2,-28(fp)
   325dc:	d0e00e04 	addi	r3,gp,-32712
   325e0:	e0fffb15 	stw	r3,-20(fp)
   325e4:	e0bffa15 	stw	r2,-24(fp)
  entry->previous = list;
   325e8:	e0bffa17 	ldw	r2,-24(fp)
   325ec:	e0fffb17 	ldw	r3,-20(fp)
   325f0:	10c00115 	stw	r3,4(r2)
  entry->next     = list->next;
   325f4:	e0bffb17 	ldw	r2,-20(fp)
   325f8:	10c00017 	ldw	r3,0(r2)
   325fc:	e0bffa17 	ldw	r2,-24(fp)
   32600:	10c00015 	stw	r3,0(r2)
  list->next->previous = entry;
   32604:	e0bffb17 	ldw	r2,-20(fp)
   32608:	10800017 	ldw	r2,0(r2)
   3260c:	e0fffa17 	ldw	r3,-24(fp)
   32610:	10c00115 	stw	r3,4(r2)
  list->next           = entry;
   32614:	e0bffb17 	ldw	r2,-20(fp)
   32618:	e0fffa17 	ldw	r3,-24(fp)
   3261c:	10c00015 	stw	r3,0(r2)
}
   32620:	0001883a 	nop
   32624:	e0bffe17 	ldw	r2,-8(fp)
   32628:	e0bffc15 	stw	r2,-16(fp)
  NIOS2_WRITE_STATUS (context);
   3262c:	e0bffc17 	ldw	r2,-16(fp)
   32630:	1001703a 	wrctl	status,r2
}
   32634:	0001883a 	nop
      alt_irq_enable_all (irq_context);

      return 0;
   32638:	0005883a 	mov	r2,zero
   3263c:	00000306 	br	3264c <alt_alarm_start+0x124>
    }
    else
    {
      return -EINVAL;
   32640:	00bffa84 	movi	r2,-22
   32644:	00000106 	br	3264c <alt_alarm_start+0x124>
    }
  }
  else
  {
    return -ENOTSUP;
   32648:	00bfde84 	movi	r2,-134
  }
}
   3264c:	e037883a 	mov	sp,fp
   32650:	df000017 	ldw	fp,0(sp)
   32654:	dec00104 	addi	sp,sp,4
   32658:	f800283a 	ret

0003265c <alt_busy_sleep>:
#include "alt_types.h"

#include "priv/alt_busy_sleep.h"

unsigned int alt_busy_sleep (unsigned int us)
{
   3265c:	defffa04 	addi	sp,sp,-24
   32660:	dfc00515 	stw	ra,20(sp)
   32664:	df000415 	stw	fp,16(sp)
   32668:	df000404 	addi	fp,sp,16
   3266c:	e13ffc15 	stw	r4,-16(fp)
  {
    cycles_per_loop = 9;
  }
  else  
  {
    cycles_per_loop = 3;
   32670:	008000c4 	movi	r2,3
   32674:	e0bffe15 	stw	r2,-8(fp)
  }
  

  big_loops = us / (INT_MAX/
  (ALT_CPU_FREQ/(cycles_per_loop * 1000000)));
   32678:	e0fffe17 	ldw	r3,-8(fp)
   3267c:	008003f4 	movhi	r2,15
   32680:	10909004 	addi	r2,r2,16960
   32684:	1885383a 	mul	r2,r3,r2
   32688:	100b883a 	mov	r5,r2
   3268c:	0100bef4 	movhi	r4,763
   32690:	213c2004 	addi	r4,r4,-3968
   32694:	00229a00 	call	229a0 <__udivsi3>
  big_loops = us / (INT_MAX/
   32698:	100b883a 	mov	r5,r2
   3269c:	01200034 	movhi	r4,32768
   326a0:	213fffc4 	addi	r4,r4,-1
   326a4:	00229a00 	call	229a0 <__udivsi3>
   326a8:	100b883a 	mov	r5,r2
   326ac:	e13ffc17 	ldw	r4,-16(fp)
   326b0:	00229a00 	call	229a0 <__udivsi3>
   326b4:	e0bffd15 	stw	r2,-12(fp)

  if (big_loops)
   326b8:	e0bffd17 	ldw	r2,-12(fp)
   326bc:	10002a26 	beq	r2,zero,32768 <alt_busy_sleep+0x10c>
  {
    for(i=0;i<big_loops;i++)
   326c0:	e03fff15 	stw	zero,-4(fp)
   326c4:	00001706 	br	32724 <alt_busy_sleep+0xc8>
      /*
      * Do NOT Try to single step the asm statement below 
      * (single step will never return)
      * Step out of this function or set a breakpoint after the asm statements
      */
      __asm__ volatile (
   326c8:	00a00034 	movhi	r2,32768
   326cc:	10bfffc4 	addi	r2,r2,-1
   326d0:	10bfffc4 	addi	r2,r2,-1
   326d4:	103ffe1e 	bne	r2,zero,326d0 <alt_busy_sleep+0x74>
        "\n\t.pushsection .debug_alt_sim_info"
        "\n\t.int 4, 0, 0b, 1b"
        "\n\t.popsection"
        :: "r" (INT_MAX));
      us -= (INT_MAX/(ALT_CPU_FREQ/
      (cycles_per_loop * 1000000)));
   326d8:	e0fffe17 	ldw	r3,-8(fp)
   326dc:	008003f4 	movhi	r2,15
   326e0:	10909004 	addi	r2,r2,16960
   326e4:	1885383a 	mul	r2,r3,r2
      us -= (INT_MAX/(ALT_CPU_FREQ/
   326e8:	100b883a 	mov	r5,r2
   326ec:	0100bef4 	movhi	r4,763
   326f0:	213c2004 	addi	r4,r4,-3968
   326f4:	00229a00 	call	229a0 <__udivsi3>
   326f8:	100b883a 	mov	r5,r2
   326fc:	01200034 	movhi	r4,32768
   32700:	213fffc4 	addi	r4,r4,-1
   32704:	00229a00 	call	229a0 <__udivsi3>
   32708:	1007883a 	mov	r3,r2
   3270c:	e0bffc17 	ldw	r2,-16(fp)
   32710:	10c5c83a 	sub	r2,r2,r3
   32714:	e0bffc15 	stw	r2,-16(fp)
    for(i=0;i<big_loops;i++)
   32718:	e0bfff17 	ldw	r2,-4(fp)
   3271c:	10800044 	addi	r2,r2,1
   32720:	e0bfff15 	stw	r2,-4(fp)
   32724:	e0ffff17 	ldw	r3,-4(fp)
   32728:	e0bffd17 	ldw	r2,-12(fp)
   3272c:	18bfe616 	blt	r3,r2,326c8 <alt_busy_sleep+0x6c>
      "\n\tbne %0,zero,0b"
      "\n1:"
      "\n\t.pushsection .debug_alt_sim_info"
      "\n\t.int 4, 0, 0b, 1b"
      "\n\t.popsection"
      :: "r" (us*(ALT_CPU_FREQ/(cycles_per_loop * 1000000))));
   32730:	e0fffe17 	ldw	r3,-8(fp)
   32734:	008003f4 	movhi	r2,15
   32738:	10909004 	addi	r2,r2,16960
   3273c:	1885383a 	mul	r2,r3,r2
   32740:	100b883a 	mov	r5,r2
   32744:	0100bef4 	movhi	r4,763
   32748:	213c2004 	addi	r4,r4,-3968
   3274c:	00229a00 	call	229a0 <__udivsi3>
   32750:	1007883a 	mov	r3,r2
   32754:	e0bffc17 	ldw	r2,-16(fp)
   32758:	1885383a 	mul	r2,r3,r2
    __asm__ volatile (
   3275c:	10bfffc4 	addi	r2,r2,-1
   32760:	103ffe1e 	bne	r2,zero,3275c <alt_busy_sleep+0x100>
   32764:	00000d06 	br	3279c <alt_busy_sleep+0x140>
      "\n\tbgt %0,zero,0b"
      "\n1:"
      "\n\t.pushsection .debug_alt_sim_info"
      "\n\t.int 4, 0, 0b, 1b"
      "\n\t.popsection"
      :: "r" (us*(ALT_CPU_FREQ/(cycles_per_loop * 1000000))));
   32768:	e0fffe17 	ldw	r3,-8(fp)
   3276c:	008003f4 	movhi	r2,15
   32770:	10909004 	addi	r2,r2,16960
   32774:	1885383a 	mul	r2,r3,r2
   32778:	100b883a 	mov	r5,r2
   3277c:	0100bef4 	movhi	r4,763
   32780:	213c2004 	addi	r4,r4,-3968
   32784:	00229a00 	call	229a0 <__udivsi3>
   32788:	1007883a 	mov	r3,r2
   3278c:	e0bffc17 	ldw	r2,-16(fp)
   32790:	1885383a 	mul	r2,r3,r2
    __asm__ volatile (
   32794:	10bfffc4 	addi	r2,r2,-1
   32798:	00bffe16 	blt	zero,r2,32794 <alt_busy_sleep+0x138>
  }
#endif /* #ifndef ALT_SIM_OPTIMIZE */
  return 0;
   3279c:	0005883a 	mov	r2,zero
}
   327a0:	e037883a 	mov	sp,fp
   327a4:	dfc00117 	ldw	ra,4(sp)
   327a8:	df000017 	ldw	fp,0(sp)
   327ac:	dec00204 	addi	sp,sp,8
   327b0:	f800283a 	ret

000327b4 <alt_dcache_flush_all>:
/*
 * alt_dcache_flush_all() is called to flush the entire data cache.
 */

void alt_dcache_flush_all (void)
{
   327b4:	defffe04 	addi	sp,sp,-8
   327b8:	df000115 	stw	fp,4(sp)
   327bc:	df000104 	addi	fp,sp,4
#if NIOS2_DCACHE_SIZE > 0
  char* i;
  
  for (i = (char*) 0; i < (char*) NIOS2_DCACHE_SIZE; i+= NIOS2_DCACHE_LINE_SIZE)
   327c0:	e03fff15 	stw	zero,-4(fp)
   327c4:	00000506 	br	327dc <alt_dcache_flush_all+0x28>
  { 
    __asm__ volatile ("flushd (%0)" :: "r" (i));
   327c8:	e0bfff17 	ldw	r2,-4(fp)
   327cc:	1000003b 	flushd	0(r2)
  for (i = (char*) 0; i < (char*) NIOS2_DCACHE_SIZE; i+= NIOS2_DCACHE_LINE_SIZE)
   327d0:	e0bfff17 	ldw	r2,-4(fp)
   327d4:	10800804 	addi	r2,r2,32
   327d8:	e0bfff15 	stw	r2,-4(fp)
   327dc:	e0bfff17 	ldw	r2,-4(fp)
   327e0:	10820030 	cmpltui	r2,r2,2048
   327e4:	103ff81e 	bne	r2,zero,327c8 <alt_dcache_flush_all+0x14>
  }
#endif /* NIOS2_DCACHE_SIZE > 0 */
}
   327e8:	0001883a 	nop
   327ec:	0001883a 	nop
   327f0:	e037883a 	mov	sp,fp
   327f4:	df000017 	ldw	fp,0(sp)
   327f8:	dec00104 	addi	sp,sp,4
   327fc:	f800283a 	ret

00032800 <alt_get_errno>:
{
   32800:	defffe04 	addi	sp,sp,-8
   32804:	dfc00115 	stw	ra,4(sp)
   32808:	df000015 	stw	fp,0(sp)
   3280c:	d839883a 	mov	fp,sp
  return ((alt_errno) ? alt_errno() : &errno);
   32810:	d0a00c17 	ldw	r2,-32720(gp)
   32814:	10000326 	beq	r2,zero,32824 <alt_get_errno+0x24>
   32818:	d0a00c17 	ldw	r2,-32720(gp)
   3281c:	103ee83a 	callr	r2
   32820:	00000106 	br	32828 <alt_get_errno+0x28>
   32824:	d0a92504 	addi	r2,gp,-23404
}
   32828:	e037883a 	mov	sp,fp
   3282c:	dfc00117 	ldw	ra,4(sp)
   32830:	df000017 	ldw	fp,0(sp)
   32834:	dec00204 	addi	sp,sp,8
   32838:	f800283a 	ret

0003283c <alt_dev_llist_insert>:
/*
 *
 */

int alt_dev_llist_insert (alt_dev_llist* dev, alt_llist* list)
{
   3283c:	defffa04 	addi	sp,sp,-24
   32840:	dfc00515 	stw	ra,20(sp)
   32844:	df000415 	stw	fp,16(sp)
   32848:	df000404 	addi	fp,sp,16
   3284c:	e13ffd15 	stw	r4,-12(fp)
   32850:	e17ffc15 	stw	r5,-16(fp)
  /*
   * check that the device exists, and that it has a valid name.
   */

  if (!dev || !dev->name)
   32854:	e0bffd17 	ldw	r2,-12(fp)
   32858:	10000326 	beq	r2,zero,32868 <alt_dev_llist_insert+0x2c>
   3285c:	e0bffd17 	ldw	r2,-12(fp)
   32860:	10800217 	ldw	r2,8(r2)
   32864:	1000061e 	bne	r2,zero,32880 <alt_dev_llist_insert+0x44>
  {
    ALT_ERRNO = EINVAL;
   32868:	00328000 	call	32800 <alt_get_errno>
   3286c:	1007883a 	mov	r3,r2
   32870:	00800584 	movi	r2,22
   32874:	18800015 	stw	r2,0(r3)
    return -EINVAL;
   32878:	00bffa84 	movi	r2,-22
   3287c:	00001406 	br	328d0 <alt_dev_llist_insert+0x94>
  
  /*
   * register the device.
   */
  
  alt_llist_insert(list, &dev->llist);
   32880:	e0bffd17 	ldw	r2,-12(fp)
   32884:	e0fffc17 	ldw	r3,-16(fp)
   32888:	e0ffff15 	stw	r3,-4(fp)
   3288c:	e0bffe15 	stw	r2,-8(fp)
  entry->previous = list;
   32890:	e0bffe17 	ldw	r2,-8(fp)
   32894:	e0ffff17 	ldw	r3,-4(fp)
   32898:	10c00115 	stw	r3,4(r2)
  entry->next     = list->next;
   3289c:	e0bfff17 	ldw	r2,-4(fp)
   328a0:	10c00017 	ldw	r3,0(r2)
   328a4:	e0bffe17 	ldw	r2,-8(fp)
   328a8:	10c00015 	stw	r3,0(r2)
  list->next->previous = entry;
   328ac:	e0bfff17 	ldw	r2,-4(fp)
   328b0:	10800017 	ldw	r2,0(r2)
   328b4:	e0fffe17 	ldw	r3,-8(fp)
   328b8:	10c00115 	stw	r3,4(r2)
  list->next           = entry;
   328bc:	e0bfff17 	ldw	r2,-4(fp)
   328c0:	e0fffe17 	ldw	r3,-8(fp)
   328c4:	10c00015 	stw	r3,0(r2)
}
   328c8:	0001883a 	nop

  return 0;  
   328cc:	0005883a 	mov	r2,zero
}
   328d0:	e037883a 	mov	sp,fp
   328d4:	dfc00117 	ldw	ra,4(sp)
   328d8:	df000017 	ldw	fp,0(sp)
   328dc:	dec00204 	addi	sp,sp,8
   328e0:	f800283a 	ret

000328e4 <_do_ctors>:
/*
 * Run the C++ static constructors.
 */

void _do_ctors(void)
{
   328e4:	defffd04 	addi	sp,sp,-12
   328e8:	dfc00215 	stw	ra,8(sp)
   328ec:	df000115 	stw	fp,4(sp)
   328f0:	df000104 	addi	fp,sp,4
  constructor* ctor;

  for (ctor = &__CTOR_END__[-1]; ctor >= __CTOR_LIST__; ctor--)
   328f4:	008000f4 	movhi	r2,3
   328f8:	108ce504 	addi	r2,r2,13204
   328fc:	e0bfff15 	stw	r2,-4(fp)
   32900:	00000606 	br	3291c <_do_ctors+0x38>
        (*ctor) (); 
   32904:	e0bfff17 	ldw	r2,-4(fp)
   32908:	10800017 	ldw	r2,0(r2)
   3290c:	103ee83a 	callr	r2
  for (ctor = &__CTOR_END__[-1]; ctor >= __CTOR_LIST__; ctor--)
   32910:	e0bfff17 	ldw	r2,-4(fp)
   32914:	10bfff04 	addi	r2,r2,-4
   32918:	e0bfff15 	stw	r2,-4(fp)
   3291c:	e0ffff17 	ldw	r3,-4(fp)
   32920:	008000f4 	movhi	r2,3
   32924:	108ce604 	addi	r2,r2,13208
   32928:	18bff62e 	bgeu	r3,r2,32904 <_do_ctors+0x20>
}
   3292c:	0001883a 	nop
   32930:	0001883a 	nop
   32934:	e037883a 	mov	sp,fp
   32938:	dfc00117 	ldw	ra,4(sp)
   3293c:	df000017 	ldw	fp,0(sp)
   32940:	dec00204 	addi	sp,sp,8
   32944:	f800283a 	ret

00032948 <_do_dtors>:
/*
 * Run the C++ static destructors.
 */

void _do_dtors(void)
{
   32948:	defffd04 	addi	sp,sp,-12
   3294c:	dfc00215 	stw	ra,8(sp)
   32950:	df000115 	stw	fp,4(sp)
   32954:	df000104 	addi	fp,sp,4
  destructor* dtor;

  for (dtor = &__DTOR_END__[-1]; dtor >= __DTOR_LIST__; dtor--)
   32958:	008000f4 	movhi	r2,3
   3295c:	108ce504 	addi	r2,r2,13204
   32960:	e0bfff15 	stw	r2,-4(fp)
   32964:	00000606 	br	32980 <_do_dtors+0x38>
        (*dtor) (); 
   32968:	e0bfff17 	ldw	r2,-4(fp)
   3296c:	10800017 	ldw	r2,0(r2)
   32970:	103ee83a 	callr	r2
  for (dtor = &__DTOR_END__[-1]; dtor >= __DTOR_LIST__; dtor--)
   32974:	e0bfff17 	ldw	r2,-4(fp)
   32978:	10bfff04 	addi	r2,r2,-4
   3297c:	e0bfff15 	stw	r2,-4(fp)
   32980:	e0ffff17 	ldw	r3,-4(fp)
   32984:	008000f4 	movhi	r2,3
   32988:	108ce604 	addi	r2,r2,13208
   3298c:	18bff62e 	bgeu	r3,r2,32968 <_do_dtors+0x20>
}
   32990:	0001883a 	nop
   32994:	0001883a 	nop
   32998:	e037883a 	mov	sp,fp
   3299c:	dfc00117 	ldw	ra,4(sp)
   329a0:	df000017 	ldw	fp,0(sp)
   329a4:	dec00204 	addi	sp,sp,8
   329a8:	f800283a 	ret

000329ac <alt_find_dev>:
 * "name" must be an exact match for the devices registered name for a match to
 * be found.
 */
 
alt_dev* alt_find_dev(const char* name, alt_llist* llist)
{
   329ac:	defffa04 	addi	sp,sp,-24
   329b0:	dfc00515 	stw	ra,20(sp)
   329b4:	df000415 	stw	fp,16(sp)
   329b8:	df000404 	addi	fp,sp,16
   329bc:	e13ffd15 	stw	r4,-12(fp)
   329c0:	e17ffc15 	stw	r5,-16(fp)
  alt_dev* next = (alt_dev*) llist->next;
   329c4:	e0bffc17 	ldw	r2,-16(fp)
   329c8:	10800017 	ldw	r2,0(r2)
   329cc:	e0bfff15 	stw	r2,-4(fp)
  alt_32 len;

  len  = strlen(name) + 1;
   329d0:	e13ffd17 	ldw	r4,-12(fp)
   329d4:	00241780 	call	24178 <strlen>
   329d8:	10800044 	addi	r2,r2,1
   329dc:	e0bffe15 	stw	r2,-8(fp)
  /*
   * Check each list entry in turn, until a match is found, or we reach the
   * end of the list (i.e. next winds up pointing back to the list head).
   */ 

  while (next != (alt_dev*) llist)
   329e0:	00000d06 	br	32a18 <alt_find_dev+0x6c>
    /* 
     * memcmp() is used here rather than strcmp() in order to reduce the size
     * of the executable.
     */

    if (!memcmp (next->name, name, len))
   329e4:	e0bfff17 	ldw	r2,-4(fp)
   329e8:	10800217 	ldw	r2,8(r2)
   329ec:	e0fffe17 	ldw	r3,-8(fp)
   329f0:	180d883a 	mov	r6,r3
   329f4:	e17ffd17 	ldw	r5,-12(fp)
   329f8:	1009883a 	mov	r4,r2
   329fc:	00331700 	call	33170 <memcmp>
   32a00:	1000021e 	bne	r2,zero,32a0c <alt_find_dev+0x60>
    {
      /* match found */

      return next;
   32a04:	e0bfff17 	ldw	r2,-4(fp)
   32a08:	00000706 	br	32a28 <alt_find_dev+0x7c>
    }
    next = (alt_dev*) next->llist.next;
   32a0c:	e0bfff17 	ldw	r2,-4(fp)
   32a10:	10800017 	ldw	r2,0(r2)
   32a14:	e0bfff15 	stw	r2,-4(fp)
  while (next != (alt_dev*) llist)
   32a18:	e0ffff17 	ldw	r3,-4(fp)
   32a1c:	e0bffc17 	ldw	r2,-16(fp)
   32a20:	18bff01e 	bne	r3,r2,329e4 <alt_find_dev+0x38>
  }
  
  /* No match found */
  
  return NULL;
   32a24:	0005883a 	mov	r2,zero
}
   32a28:	e037883a 	mov	sp,fp
   32a2c:	dfc00117 	ldw	ra,4(sp)
   32a30:	df000017 	ldw	fp,0(sp)
   32a34:	dec00204 	addi	sp,sp,8
   32a38:	f800283a 	ret

00032a3c <alt_find_file>:
 * either '/' or '\0' is the prefix of the filename. For example the filename:
 * "/myfilesystem/junk.txt" would match: "/myfilesystem", but not: "/myfile". 
 */
 
alt_dev* alt_find_file (const char* name)
{
   32a3c:	defffb04 	addi	sp,sp,-20
   32a40:	dfc00415 	stw	ra,16(sp)
   32a44:	df000315 	stw	fp,12(sp)
   32a48:	df000304 	addi	fp,sp,12
   32a4c:	e13ffd15 	stw	r4,-12(fp)
  alt_dev* next = (alt_dev*) alt_fs_list.next;   
   32a50:	d0a00717 	ldw	r2,-32740(gp)
   32a54:	e0bfff15 	stw	r2,-4(fp)
  /*
   * Check each list entry in turn, until a match is found, or we reach the
   * end of the list (i.e. next winds up pointing back to the list head).
   */ 
 
  while (next != (alt_dev*) &alt_fs_list)
   32a58:	00003106 	br	32b20 <alt_find_file+0xe4>
  {
    len = strlen(next->name);
   32a5c:	e0bfff17 	ldw	r2,-4(fp)
   32a60:	10800217 	ldw	r2,8(r2)
   32a64:	1009883a 	mov	r4,r2
   32a68:	00241780 	call	24178 <strlen>
   32a6c:	e0bffe15 	stw	r2,-8(fp)
    
    if (next->name[len-1] == '/')
   32a70:	e0bfff17 	ldw	r2,-4(fp)
   32a74:	10c00217 	ldw	r3,8(r2)
   32a78:	e0bffe17 	ldw	r2,-8(fp)
   32a7c:	10bfffc4 	addi	r2,r2,-1
   32a80:	1885883a 	add	r2,r3,r2
   32a84:	10800003 	ldbu	r2,0(r2)
   32a88:	10803fcc 	andi	r2,r2,255
   32a8c:	1080201c 	xori	r2,r2,128
   32a90:	10bfe004 	addi	r2,r2,-128
   32a94:	10800bd8 	cmpnei	r2,r2,47
   32a98:	1000031e 	bne	r2,zero,32aa8 <alt_find_file+0x6c>
    {
      len -= 1;
   32a9c:	e0bffe17 	ldw	r2,-8(fp)
   32aa0:	10bfffc4 	addi	r2,r2,-1
   32aa4:	e0bffe15 	stw	r2,-8(fp)
    }

    if (((name[len] == '/') || (name[len] == '\0')) && 
   32aa8:	e0bffe17 	ldw	r2,-8(fp)
   32aac:	e0fffd17 	ldw	r3,-12(fp)
   32ab0:	1885883a 	add	r2,r3,r2
   32ab4:	10800003 	ldbu	r2,0(r2)
   32ab8:	10803fcc 	andi	r2,r2,255
   32abc:	1080201c 	xori	r2,r2,128
   32ac0:	10bfe004 	addi	r2,r2,-128
   32ac4:	10800be0 	cmpeqi	r2,r2,47
   32ac8:	1000081e 	bne	r2,zero,32aec <alt_find_file+0xb0>
   32acc:	e0bffe17 	ldw	r2,-8(fp)
   32ad0:	e0fffd17 	ldw	r3,-12(fp)
   32ad4:	1885883a 	add	r2,r3,r2
   32ad8:	10800003 	ldbu	r2,0(r2)
   32adc:	10803fcc 	andi	r2,r2,255
   32ae0:	1080201c 	xori	r2,r2,128
   32ae4:	10bfe004 	addi	r2,r2,-128
   32ae8:	10000a1e 	bne	r2,zero,32b14 <alt_find_file+0xd8>
        !memcmp (next->name, name, len))
   32aec:	e0bfff17 	ldw	r2,-4(fp)
   32af0:	10800217 	ldw	r2,8(r2)
   32af4:	e0fffe17 	ldw	r3,-8(fp)
   32af8:	180d883a 	mov	r6,r3
   32afc:	e17ffd17 	ldw	r5,-12(fp)
   32b00:	1009883a 	mov	r4,r2
   32b04:	00331700 	call	33170 <memcmp>
    if (((name[len] == '/') || (name[len] == '\0')) && 
   32b08:	1000021e 	bne	r2,zero,32b14 <alt_find_file+0xd8>
    {
      /* match found */

      return next;
   32b0c:	e0bfff17 	ldw	r2,-4(fp)
   32b10:	00000706 	br	32b30 <alt_find_file+0xf4>
    }
    next = (alt_dev*) next->llist.next;
   32b14:	e0bfff17 	ldw	r2,-4(fp)
   32b18:	10800017 	ldw	r2,0(r2)
   32b1c:	e0bfff15 	stw	r2,-4(fp)
  while (next != (alt_dev*) &alt_fs_list)
   32b20:	e0ffff17 	ldw	r3,-4(fp)
   32b24:	d0a00704 	addi	r2,gp,-32740
   32b28:	18bfcc1e 	bne	r3,r2,32a5c <alt_find_file+0x20>
  }
  
  /* No match found */
  
  return NULL;     
   32b2c:	0005883a 	mov	r2,zero
}
   32b30:	e037883a 	mov	sp,fp
   32b34:	dfc00117 	ldw	ra,4(sp)
   32b38:	df000017 	ldw	fp,0(sp)
   32b3c:	dec00204 	addi	sp,sp,8
   32b40:	f800283a 	ret

00032b44 <alt_get_fd>:
 * the offset of the file descriptor within the file descriptor array). A
 * negative value indicates failure.
 */

int alt_get_fd (alt_dev* dev)
{
   32b44:	defffc04 	addi	sp,sp,-16
   32b48:	df000315 	stw	fp,12(sp)
   32b4c:	df000304 	addi	fp,sp,12
   32b50:	e13ffd15 	stw	r4,-12(fp)
  alt_32 i;
  int rc = -EMFILE;
   32b54:	00bffa04 	movi	r2,-24
   32b58:	e0bffe15 	stw	r2,-8(fp)
   * indicates the highest file descriptor ever allocated. This is used to
   * improve efficency when searching the file descriptor list, and 
   * therefore reduce contention on the alt_fd_list_lock semaphore. 
   */

  for (i = 0; i < ALT_MAX_FD; i++)
   32b5c:	e03fff15 	stw	zero,-4(fp)
   32b60:	00001706 	br	32bc0 <alt_get_fd+0x7c>
  {
    if (!alt_fd_list[i].dev)
   32b64:	e0bfff17 	ldw	r2,-4(fp)
   32b68:	10c00324 	muli	r3,r2,12
   32b6c:	008000f4 	movhi	r2,3
   32b70:	1885883a 	add	r2,r3,r2
   32b74:	10945f17 	ldw	r2,20860(r2)
   32b78:	10000e1e 	bne	r2,zero,32bb4 <alt_get_fd+0x70>
    {
      alt_fd_list[i].dev = dev;
   32b7c:	e0bfff17 	ldw	r2,-4(fp)
   32b80:	11000324 	muli	r4,r2,12
   32b84:	e0fffd17 	ldw	r3,-12(fp)
   32b88:	008000f4 	movhi	r2,3
   32b8c:	2085883a 	add	r2,r4,r2
   32b90:	10d45f15 	stw	r3,20860(r2)
      if (i > alt_max_fd)
   32b94:	d0e00b17 	ldw	r3,-32724(gp)
   32b98:	e0bfff17 	ldw	r2,-4(fp)
   32b9c:	1880020e 	bge	r3,r2,32ba8 <alt_get_fd+0x64>
      {
        alt_max_fd = i;
   32ba0:	e0bfff17 	ldw	r2,-4(fp)
   32ba4:	d0a00b15 	stw	r2,-32724(gp)
      }
      rc = i;
   32ba8:	e0bfff17 	ldw	r2,-4(fp)
   32bac:	e0bffe15 	stw	r2,-8(fp)
      goto alt_get_fd_exit;
   32bb0:	00000706 	br	32bd0 <alt_get_fd+0x8c>
  for (i = 0; i < ALT_MAX_FD; i++)
   32bb4:	e0bfff17 	ldw	r2,-4(fp)
   32bb8:	10800044 	addi	r2,r2,1
   32bbc:	e0bfff15 	stw	r2,-4(fp)
   32bc0:	e0bfff17 	ldw	r2,-4(fp)
   32bc4:	10800810 	cmplti	r2,r2,32
   32bc8:	103fe61e 	bne	r2,zero,32b64 <alt_get_fd+0x20>
    }
  }

 alt_get_fd_exit:
   32bcc:	0001883a 	nop
   * file descriptor pool.
   */

  ALT_SEM_POST(alt_fd_list_lock);

  return rc;
   32bd0:	e0bffe17 	ldw	r2,-8(fp)
}
   32bd4:	e037883a 	mov	sp,fp
   32bd8:	df000017 	ldw	fp,0(sp)
   32bdc:	dec00104 	addi	sp,sp,4
   32be0:	f800283a 	ret

00032be4 <alt_icache_flush_all>:
/*
 * alt_icache_flush_all() is called to flush the entire instruction cache.
 */

void alt_icache_flush_all (void)
{
   32be4:	defffe04 	addi	sp,sp,-8
   32be8:	dfc00115 	stw	ra,4(sp)
   32bec:	df000015 	stw	fp,0(sp)
   32bf0:	d839883a 	mov	fp,sp
#if NIOS2_ICACHE_SIZE > 0
  alt_icache_flush (0, NIOS2_ICACHE_SIZE);
   32bf4:	01440004 	movi	r5,4096
   32bf8:	0009883a 	mov	r4,zero
   32bfc:	00330000 	call	33000 <alt_icache_flush>
#endif
}
   32c00:	0001883a 	nop
   32c04:	e037883a 	mov	sp,fp
   32c08:	dfc00117 	ldw	ra,4(sp)
   32c0c:	df000017 	ldw	fp,0(sp)
   32c10:	dec00204 	addi	sp,sp,8
   32c14:	f800283a 	ret

00032c18 <alt_ic_isr_register>:
  * @param irq              IRQ number
  * @return                 0 if successful, else error (-1)
  */
int alt_ic_isr_register(alt_u32 ic_id, alt_u32 irq, alt_isr_func isr, 
  void *isr_context, void *flags)
{
   32c18:	defff904 	addi	sp,sp,-28
   32c1c:	dfc00615 	stw	ra,24(sp)
   32c20:	df000515 	stw	fp,20(sp)
   32c24:	df000504 	addi	fp,sp,20
   32c28:	e13fff15 	stw	r4,-4(fp)
   32c2c:	e17ffe15 	stw	r5,-8(fp)
   32c30:	e1bffd15 	stw	r6,-12(fp)
   32c34:	e1fffc15 	stw	r7,-16(fp)
    return alt_iic_isr_register(ic_id, irq, isr, isr_context, flags);
   32c38:	e0800217 	ldw	r2,8(fp)
   32c3c:	d8800015 	stw	r2,0(sp)
   32c40:	e1fffc17 	ldw	r7,-16(fp)
   32c44:	e1bffd17 	ldw	r6,-12(fp)
   32c48:	e17ffe17 	ldw	r5,-8(fp)
   32c4c:	e13fff17 	ldw	r4,-4(fp)
   32c50:	0032dc80 	call	32dc8 <alt_iic_isr_register>
}  
   32c54:	e037883a 	mov	sp,fp
   32c58:	dfc00117 	ldw	ra,4(sp)
   32c5c:	df000017 	ldw	fp,0(sp)
   32c60:	dec00204 	addi	sp,sp,8
   32c64:	f800283a 	ret

00032c68 <alt_ic_irq_enable>:
  * @param ic_id            Ignored.
  * @param irq              IRQ number
  * @return                 0 if successful, else error (-1)
  */
int alt_ic_irq_enable (alt_u32 ic_id, alt_u32 irq)
{
   32c68:	defff904 	addi	sp,sp,-28
   32c6c:	df000615 	stw	fp,24(sp)
   32c70:	df000604 	addi	fp,sp,24
   32c74:	e13ffb15 	stw	r4,-20(fp)
   32c78:	e17ffa15 	stw	r5,-24(fp)
   32c7c:	e0bffa17 	ldw	r2,-24(fp)
   32c80:	e0bfff15 	stw	r2,-4(fp)
  NIOS2_READ_STATUS (context);
   32c84:	0005303a 	rdctl	r2,status
   32c88:	e0bffe15 	stw	r2,-8(fp)
  NIOS2_WRITE_STATUS (context & ~NIOS2_STATUS_PIE_MSK);
   32c8c:	e0fffe17 	ldw	r3,-8(fp)
   32c90:	00bfff84 	movi	r2,-2
   32c94:	1884703a 	and	r2,r3,r2
   32c98:	1001703a 	wrctl	status,r2
  return context;
   32c9c:	e0bffe17 	ldw	r2,-8(fp)
static ALT_INLINE int ALT_ALWAYS_INLINE alt_irq_enable (alt_u32 id)
{
  alt_irq_context  status;
  extern volatile alt_u32 alt_irq_active;

  status = alt_irq_disable_all ();
   32ca0:	e0bffd15 	stw	r2,-12(fp)

  alt_irq_active |= (1 << id);
   32ca4:	00c00044 	movi	r3,1
   32ca8:	e0bfff17 	ldw	r2,-4(fp)
   32cac:	1884983a 	sll	r2,r3,r2
   32cb0:	1007883a 	mov	r3,r2
   32cb4:	d0a92f17 	ldw	r2,-23364(gp)
   32cb8:	1884b03a 	or	r2,r3,r2
   32cbc:	d0a92f15 	stw	r2,-23364(gp)
  NIOS2_WRITE_IENABLE (alt_irq_active);
   32cc0:	d0a92f17 	ldw	r2,-23364(gp)
   32cc4:	100170fa 	wrctl	ienable,r2
   32cc8:	e0bffd17 	ldw	r2,-12(fp)
   32ccc:	e0bffc15 	stw	r2,-16(fp)
  NIOS2_WRITE_STATUS (context);
   32cd0:	e0bffc17 	ldw	r2,-16(fp)
   32cd4:	1001703a 	wrctl	status,r2
}
   32cd8:	0001883a 	nop

  alt_irq_enable_all(status);

  return 0;
   32cdc:	0005883a 	mov	r2,zero
    return alt_irq_enable(irq);
}
   32ce0:	e037883a 	mov	sp,fp
   32ce4:	df000017 	ldw	fp,0(sp)
   32ce8:	dec00104 	addi	sp,sp,4
   32cec:	f800283a 	ret

00032cf0 <alt_ic_irq_disable>:
  * @param ic_id            Ignored.
  * @param irq              IRQ number
  * @return                 0 if successful, else error (-1)
  */
int alt_ic_irq_disable(alt_u32 ic_id, alt_u32 irq)
{
   32cf0:	defff904 	addi	sp,sp,-28
   32cf4:	df000615 	stw	fp,24(sp)
   32cf8:	df000604 	addi	fp,sp,24
   32cfc:	e13ffb15 	stw	r4,-20(fp)
   32d00:	e17ffa15 	stw	r5,-24(fp)
   32d04:	e0bffa17 	ldw	r2,-24(fp)
   32d08:	e0bfff15 	stw	r2,-4(fp)
  NIOS2_READ_STATUS (context);
   32d0c:	0005303a 	rdctl	r2,status
   32d10:	e0bffe15 	stw	r2,-8(fp)
  NIOS2_WRITE_STATUS (context & ~NIOS2_STATUS_PIE_MSK);
   32d14:	e0fffe17 	ldw	r3,-8(fp)
   32d18:	00bfff84 	movi	r2,-2
   32d1c:	1884703a 	and	r2,r3,r2
   32d20:	1001703a 	wrctl	status,r2
  return context;
   32d24:	e0bffe17 	ldw	r2,-8(fp)
  status = alt_irq_disable_all ();
   32d28:	e0bffd15 	stw	r2,-12(fp)
  alt_irq_active &= ~(1 << id);
   32d2c:	00c00044 	movi	r3,1
   32d30:	e0bfff17 	ldw	r2,-4(fp)
   32d34:	1884983a 	sll	r2,r3,r2
   32d38:	0084303a 	nor	r2,zero,r2
   32d3c:	1007883a 	mov	r3,r2
   32d40:	d0a92f17 	ldw	r2,-23364(gp)
   32d44:	1884703a 	and	r2,r3,r2
   32d48:	d0a92f15 	stw	r2,-23364(gp)
  NIOS2_WRITE_IENABLE (alt_irq_active);
   32d4c:	d0a92f17 	ldw	r2,-23364(gp)
   32d50:	100170fa 	wrctl	ienable,r2
   32d54:	e0bffd17 	ldw	r2,-12(fp)
   32d58:	e0bffc15 	stw	r2,-16(fp)
  NIOS2_WRITE_STATUS (context);
   32d5c:	e0bffc17 	ldw	r2,-16(fp)
   32d60:	1001703a 	wrctl	status,r2
}
   32d64:	0001883a 	nop
  return 0;
   32d68:	0005883a 	mov	r2,zero
    return alt_irq_disable(irq);
}
   32d6c:	e037883a 	mov	sp,fp
   32d70:	df000017 	ldw	fp,0(sp)
   32d74:	dec00104 	addi	sp,sp,4
   32d78:	f800283a 	ret

00032d7c <alt_ic_irq_enabled>:
  * @param irq              IRQ number
  * @return                 Zero if corresponding interrupt is disabled and
  *                         non-zero otherwise.
  */
alt_u32 alt_ic_irq_enabled(alt_u32 ic_id, alt_u32 irq)
{
   32d7c:	defffc04 	addi	sp,sp,-16
   32d80:	df000315 	stw	fp,12(sp)
   32d84:	df000304 	addi	fp,sp,12
   32d88:	e13ffe15 	stw	r4,-8(fp)
   32d8c:	e17ffd15 	stw	r5,-12(fp)
    alt_u32 irq_enabled;

    NIOS2_READ_IENABLE(irq_enabled);
   32d90:	000530fa 	rdctl	r2,ienable
   32d94:	e0bfff15 	stw	r2,-4(fp)

    return (irq_enabled & (1 << irq)) ? 1: 0;
   32d98:	00c00044 	movi	r3,1
   32d9c:	e0bffd17 	ldw	r2,-12(fp)
   32da0:	1884983a 	sll	r2,r3,r2
   32da4:	1007883a 	mov	r3,r2
   32da8:	e0bfff17 	ldw	r2,-4(fp)
   32dac:	1884703a 	and	r2,r3,r2
   32db0:	1004c03a 	cmpne	r2,r2,zero
   32db4:	10803fcc 	andi	r2,r2,255
}
   32db8:	e037883a 	mov	sp,fp
   32dbc:	df000017 	ldw	fp,0(sp)
   32dc0:	dec00104 	addi	sp,sp,4
   32dc4:	f800283a 	ret

00032dc8 <alt_iic_isr_register>:
  * @param flags            
  * @return                 0 if successful, else error (-1)
  */
int alt_iic_isr_register(alt_u32 ic_id, alt_u32 irq, alt_isr_func isr, 
  void *isr_context, void *flags)
{
   32dc8:	defff504 	addi	sp,sp,-44
   32dcc:	dfc00a15 	stw	ra,40(sp)
   32dd0:	df000915 	stw	fp,36(sp)
   32dd4:	df000904 	addi	fp,sp,36
   32dd8:	e13ffa15 	stw	r4,-24(fp)
   32ddc:	e17ff915 	stw	r5,-28(fp)
   32de0:	e1bff815 	stw	r6,-32(fp)
   32de4:	e1fff715 	stw	r7,-36(fp)
  int rc = -EINVAL;  
   32de8:	00bffa84 	movi	r2,-22
   32dec:	e0bfff15 	stw	r2,-4(fp)
  int id = irq;             /* IRQ interpreted as the interrupt ID. */
   32df0:	e0bff917 	ldw	r2,-28(fp)
   32df4:	e0bffe15 	stw	r2,-8(fp)
  alt_irq_context status;

  if (id < ALT_NIRQ)
   32df8:	e0bffe17 	ldw	r2,-8(fp)
   32dfc:	10800808 	cmpgei	r2,r2,32
   32e00:	1000251e 	bne	r2,zero,32e98 <alt_iic_isr_register+0xd0>
  NIOS2_READ_STATUS (context);
   32e04:	0005303a 	rdctl	r2,status
   32e08:	e0bffc15 	stw	r2,-16(fp)
  NIOS2_WRITE_STATUS (context & ~NIOS2_STATUS_PIE_MSK);
   32e0c:	e0fffc17 	ldw	r3,-16(fp)
   32e10:	00bfff84 	movi	r2,-2
   32e14:	1884703a 	and	r2,r3,r2
   32e18:	1001703a 	wrctl	status,r2
  return context;
   32e1c:	e0bffc17 	ldw	r2,-16(fp)
     * interrupts are disabled while the handler tables are updated to ensure
     * that an interrupt doesn't occur while the tables are in an inconsistant
     * state.
     */

    status = alt_irq_disable_all();
   32e20:	e0bffd15 	stw	r2,-12(fp)

    alt_irq[id].handler = isr;
   32e24:	e0bffe17 	ldw	r2,-8(fp)
   32e28:	100890fa 	slli	r4,r2,3
   32e2c:	e0fff817 	ldw	r3,-32(fp)
   32e30:	00800134 	movhi	r2,4
   32e34:	2085883a 	add	r2,r4,r2
   32e38:	10e24315 	stw	r3,-30452(r2)
    alt_irq[id].context = isr_context;
   32e3c:	e0bffe17 	ldw	r2,-8(fp)
   32e40:	100890fa 	slli	r4,r2,3
   32e44:	e0fff717 	ldw	r3,-36(fp)
   32e48:	00800134 	movhi	r2,4
   32e4c:	2085883a 	add	r2,r4,r2
   32e50:	10e24415 	stw	r3,-30448(r2)

    rc = (isr) ? alt_ic_irq_enable(ic_id, id) : alt_ic_irq_disable(ic_id, id);
   32e54:	e0bff817 	ldw	r2,-32(fp)
   32e58:	10000526 	beq	r2,zero,32e70 <alt_iic_isr_register+0xa8>
   32e5c:	e0bffe17 	ldw	r2,-8(fp)
   32e60:	100b883a 	mov	r5,r2
   32e64:	e13ffa17 	ldw	r4,-24(fp)
   32e68:	0032c680 	call	32c68 <alt_ic_irq_enable>
   32e6c:	00000406 	br	32e80 <alt_iic_isr_register+0xb8>
   32e70:	e0bffe17 	ldw	r2,-8(fp)
   32e74:	100b883a 	mov	r5,r2
   32e78:	e13ffa17 	ldw	r4,-24(fp)
   32e7c:	0032cf00 	call	32cf0 <alt_ic_irq_disable>
   32e80:	e0bfff15 	stw	r2,-4(fp)
   32e84:	e0bffd17 	ldw	r2,-12(fp)
   32e88:	e0bffb15 	stw	r2,-20(fp)
  NIOS2_WRITE_STATUS (context);
   32e8c:	e0bffb17 	ldw	r2,-20(fp)
   32e90:	1001703a 	wrctl	status,r2
}
   32e94:	0001883a 	nop

    alt_irq_enable_all(status);
  }

  return rc; 
   32e98:	e0bfff17 	ldw	r2,-4(fp)
}
   32e9c:	e037883a 	mov	sp,fp
   32ea0:	dfc00117 	ldw	ra,4(sp)
   32ea4:	df000017 	ldw	fp,0(sp)
   32ea8:	dec00204 	addi	sp,sp,8
   32eac:	f800283a 	ret

00032eb0 <alt_open_fd>:
 * If the device can not be succesfully opened, then the input file descriptor
 * remains unchanged.
 */

static void alt_open_fd(alt_fd* fd, const char* name, int flags, int mode)
{
   32eb0:	defff904 	addi	sp,sp,-28
   32eb4:	dfc00615 	stw	ra,24(sp)
   32eb8:	df000515 	stw	fp,20(sp)
   32ebc:	df000504 	addi	fp,sp,20
   32ec0:	e13ffe15 	stw	r4,-8(fp)
   32ec4:	e17ffd15 	stw	r5,-12(fp)
   32ec8:	e1bffc15 	stw	r6,-16(fp)
   32ecc:	e1fffb15 	stw	r7,-20(fp)
  int old;

  old = open (name, flags, mode);
   32ed0:	e1bffb17 	ldw	r6,-20(fp)
   32ed4:	e17ffc17 	ldw	r5,-16(fp)
   32ed8:	e13ffd17 	ldw	r4,-12(fp)
   32edc:	00309300 	call	30930 <open>
   32ee0:	e0bfff15 	stw	r2,-4(fp)

  if (old >= 0)
   32ee4:	e0bfff17 	ldw	r2,-4(fp)
   32ee8:	10001716 	blt	r2,zero,32f48 <alt_open_fd+0x98>
  {
    fd->dev      = alt_fd_list[old].dev;
   32eec:	e0bfff17 	ldw	r2,-4(fp)
   32ef0:	10c00324 	muli	r3,r2,12
   32ef4:	008000f4 	movhi	r2,3
   32ef8:	1885883a 	add	r2,r3,r2
   32efc:	10d45f17 	ldw	r3,20860(r2)
   32f00:	e0bffe17 	ldw	r2,-8(fp)
   32f04:	10c00015 	stw	r3,0(r2)
    fd->priv     = alt_fd_list[old].priv;
   32f08:	e0bfff17 	ldw	r2,-4(fp)
   32f0c:	10c00324 	muli	r3,r2,12
   32f10:	008000f4 	movhi	r2,3
   32f14:	1885883a 	add	r2,r3,r2
   32f18:	10d46017 	ldw	r3,20864(r2)
   32f1c:	e0bffe17 	ldw	r2,-8(fp)
   32f20:	10c00115 	stw	r3,4(r2)
    fd->fd_flags = alt_fd_list[old].fd_flags;
   32f24:	e0bfff17 	ldw	r2,-4(fp)
   32f28:	10c00324 	muli	r3,r2,12
   32f2c:	008000f4 	movhi	r2,3
   32f30:	1885883a 	add	r2,r3,r2
   32f34:	10d46117 	ldw	r3,20868(r2)
   32f38:	e0bffe17 	ldw	r2,-8(fp)
   32f3c:	10c00215 	stw	r3,8(r2)

    alt_release_fd (old);
   32f40:	e13fff17 	ldw	r4,-4(fp)
   32f44:	0030bbc0 	call	30bbc <alt_release_fd>
  }
} 
   32f48:	0001883a 	nop
   32f4c:	e037883a 	mov	sp,fp
   32f50:	dfc00117 	ldw	ra,4(sp)
   32f54:	df000017 	ldw	fp,0(sp)
   32f58:	dec00204 	addi	sp,sp,8
   32f5c:	f800283a 	ret

00032f60 <alt_io_redirect>:
 */
 
void alt_io_redirect(const char* stdout_dev, 
                     const char* stdin_dev, 
                     const char* stderr_dev)
{
   32f60:	defffb04 	addi	sp,sp,-20
   32f64:	dfc00415 	stw	ra,16(sp)
   32f68:	df000315 	stw	fp,12(sp)
   32f6c:	df000304 	addi	fp,sp,12
   32f70:	e13fff15 	stw	r4,-4(fp)
   32f74:	e17ffe15 	stw	r5,-8(fp)
   32f78:	e1bffd15 	stw	r6,-12(fp)
  /* Redirect the channels */

  alt_open_fd (&alt_fd_list[STDOUT_FILENO], stdout_dev, O_WRONLY, 0777);
   32f7c:	01c07fc4 	movi	r7,511
   32f80:	01800044 	movi	r6,1
   32f84:	e17fff17 	ldw	r5,-4(fp)
   32f88:	010000f4 	movhi	r4,3
   32f8c:	21146204 	addi	r4,r4,20872
   32f90:	0032eb00 	call	32eb0 <alt_open_fd>
  alt_open_fd (&alt_fd_list[STDIN_FILENO], stdin_dev, O_RDONLY, 0777);
   32f94:	01c07fc4 	movi	r7,511
   32f98:	000d883a 	mov	r6,zero
   32f9c:	e17ffe17 	ldw	r5,-8(fp)
   32fa0:	010000f4 	movhi	r4,3
   32fa4:	21145f04 	addi	r4,r4,20860
   32fa8:	0032eb00 	call	32eb0 <alt_open_fd>
  alt_open_fd (&alt_fd_list[STDERR_FILENO], stderr_dev, O_WRONLY, 0777);
   32fac:	01c07fc4 	movi	r7,511
   32fb0:	01800044 	movi	r6,1
   32fb4:	e17ffd17 	ldw	r5,-12(fp)
   32fb8:	010000f4 	movhi	r4,3
   32fbc:	21146504 	addi	r4,r4,20884
   32fc0:	0032eb00 	call	32eb0 <alt_open_fd>
}  
   32fc4:	0001883a 	nop
   32fc8:	e037883a 	mov	sp,fp
   32fcc:	dfc00117 	ldw	ra,4(sp)
   32fd0:	df000017 	ldw	fp,0(sp)
   32fd4:	dec00204 	addi	sp,sp,8
   32fd8:	f800283a 	ret

00032fdc <altera_nios2_gen2_irq_init>:
/*
 * To initialize the internal interrupt controller, just clear the IENABLE
 * register so that all possible IRQs are disabled.
 */
void altera_nios2_gen2_irq_init(void) 
{
   32fdc:	deffff04 	addi	sp,sp,-4
   32fe0:	df000015 	stw	fp,0(sp)
   32fe4:	d839883a 	mov	fp,sp
    NIOS2_WRITE_IENABLE(0);
   32fe8:	000170fa 	wrctl	ienable,zero
}
   32fec:	0001883a 	nop
   32ff0:	e037883a 	mov	sp,fp
   32ff4:	df000017 	ldw	fp,0(sp)
   32ff8:	dec00104 	addi	sp,sp,4
   32ffc:	f800283a 	ret

00033000 <alt_icache_flush>:
 * alt_icache_flush() is called to flush the instruction cache for a memory
 * region of length "len" bytes, starting at address "start".
 */

void alt_icache_flush (void* start, alt_u32 len)
{
   33000:	defffb04 	addi	sp,sp,-20
   33004:	df000415 	stw	fp,16(sp)
   33008:	df000404 	addi	fp,sp,16
   3300c:	e13ffd15 	stw	r4,-12(fp)
   33010:	e17ffc15 	stw	r5,-16(fp)

  /*
   * This is the most we would ever need to flush.
   */
 
  if (len > NIOS2_ICACHE_SIZE)
   33014:	e0bffc17 	ldw	r2,-16(fp)
   33018:	10840070 	cmpltui	r2,r2,4097
   3301c:	1000021e 	bne	r2,zero,33028 <alt_icache_flush+0x28>
  {
    len = NIOS2_ICACHE_SIZE;
   33020:	00840004 	movi	r2,4096
   33024:	e0bffc15 	stw	r2,-16(fp)
  }

  end = ((char*) start) + len;
   33028:	e0fffd17 	ldw	r3,-12(fp)
   3302c:	e0bffc17 	ldw	r2,-16(fp)
   33030:	1885883a 	add	r2,r3,r2
   33034:	e0bffe15 	stw	r2,-8(fp)

  for (i = start; i < end; i+= NIOS2_ICACHE_LINE_SIZE)
   33038:	e0bffd17 	ldw	r2,-12(fp)
   3303c:	e0bfff15 	stw	r2,-4(fp)
   33040:	00000506 	br	33058 <alt_icache_flush+0x58>
  { 
    __asm__ volatile ("flushi %0" :: "r" (i)); 
   33044:	e0bfff17 	ldw	r2,-4(fp)
   33048:	1000603a 	flushi	r2
  for (i = start; i < end; i+= NIOS2_ICACHE_LINE_SIZE)
   3304c:	e0bfff17 	ldw	r2,-4(fp)
   33050:	10800804 	addi	r2,r2,32
   33054:	e0bfff15 	stw	r2,-4(fp)
   33058:	e0ffff17 	ldw	r3,-4(fp)
   3305c:	e0bffe17 	ldw	r2,-8(fp)
   33060:	18bff836 	bltu	r3,r2,33044 <alt_icache_flush+0x44>
   * For an unaligned flush request, we've got one more line left.
   * Note that this is dependent on NIOS2_ICACHE_LINE_SIZE to be a 
   * multiple of 2 (which it always is).
   */

  if (((alt_u32) start) & (NIOS2_ICACHE_LINE_SIZE - 1))
   33064:	e0bffd17 	ldw	r2,-12(fp)
   33068:	108007cc 	andi	r2,r2,31
   3306c:	10000226 	beq	r2,zero,33078 <alt_icache_flush+0x78>
  {
    __asm__ volatile ("flushi %0" :: "r" (i));
   33070:	e0bfff17 	ldw	r2,-4(fp)
   33074:	1000603a 	flushi	r2
  /* 
   * Having flushed the cache, flush any stale instructions in the 
   * pipeline 
   */

  __asm__ volatile ("flushp");
   33078:	0000203a 	flushp

#endif /* NIOS2_ICACHE_SIZE > 0 */
}
   3307c:	0001883a 	nop
   33080:	e037883a 	mov	sp,fp
   33084:	df000017 	ldw	fp,0(sp)
   33088:	dec00104 	addi	sp,sp,4
   3308c:	f800283a 	ret

00033090 <alt_exception_cause_generated_bad_addr>:
 * Return: 1: BADADDR (bad_addr argument to handler) is valid
 *         0: BADADDR is not valid
 */
int 
alt_exception_cause_generated_bad_addr(alt_exception_cause cause)
{
   33090:	defffe04 	addi	sp,sp,-8
   33094:	df000115 	stw	fp,4(sp)
   33098:	df000104 	addi	fp,sp,4
   3309c:	e13fff15 	stw	r4,-4(fp)
   330a0:	e0bfff17 	ldw	r2,-4(fp)
   330a4:	10bffe84 	addi	r2,r2,-6
   330a8:	10c00428 	cmpgeui	r3,r2,16
   330ac:	1800191e 	bne	r3,zero,33114 <alt_exception_cause_generated_bad_addr+0x84>
   330b0:	100690ba 	slli	r3,r2,2
   330b4:	008000f4 	movhi	r2,3
   330b8:	1885883a 	add	r2,r3,r2
   330bc:	108c3117 	ldw	r2,12484(r2)
   330c0:	1000683a 	jmp	r2
   330c4:	00033104 	movi	zero,3268
   330c8:	00033104 	movi	zero,3268
   330cc:	00033114 	movui	zero,3268
   330d0:	00033114 	movui	zero,3268
   330d4:	00033114 	movui	zero,3268
   330d8:	00033104 	movi	zero,3268
   330dc:	0003310c 	andi	zero,zero,3268
   330e0:	00033114 	movui	zero,3268
   330e4:	00033104 	movi	zero,3268
   330e8:	00033104 	movi	zero,3268
   330ec:	00033114 	movui	zero,3268
   330f0:	00033104 	movi	zero,3268
   330f4:	0003310c 	andi	zero,zero,3268
   330f8:	00033114 	movui	zero,3268
   330fc:	00033114 	movui	zero,3268
   33100:	00033104 	movi	zero,3268
  case NIOS2_EXCEPTION_MISALIGNED_TARGET_PC:
  case NIOS2_EXCEPTION_TLB_READ_PERM_VIOLATION:
  case NIOS2_EXCEPTION_TLB_WRITE_PERM_VIOLATION:
  case NIOS2_EXCEPTION_MPU_DATA_REGION_VIOLATION:
  case NIOS2_EXCEPTION_ECC_DATA_ERR:
    return 1;
   33104:	00800044 	movi	r2,1
   33108:	00000306 	br	33118 <alt_exception_cause_generated_bad_addr+0x88>

  case NIOS2_EXCEPTION_TLB_MISS:
  case NIOS2_EXCEPTION_ECC_TLB_ERR:
    return 0;
   3310c:	0005883a 	mov	r2,zero
   33110:	00000106 	br	33118 <alt_exception_cause_generated_bad_addr+0x88>

  default:
    return 0;
   33114:	0005883a 	mov	r2,zero
  }
}
   33118:	e037883a 	mov	sp,fp
   3311c:	df000017 	ldw	fp,0(sp)
   33120:	dec00104 	addi	sp,sp,4
   33124:	f800283a 	ret

00033128 <atexit>:
   33128:	200b883a 	mov	r5,r4
   3312c:	000f883a 	mov	r7,zero
   33130:	000d883a 	mov	r6,zero
   33134:	0009883a 	mov	r4,zero
   33138:	00331e81 	jmpi	331e8 <__register_exitproc>

0003313c <exit>:
   3313c:	defffe04 	addi	sp,sp,-8
   33140:	000b883a 	mov	r5,zero
   33144:	dc000015 	stw	r16,0(sp)
   33148:	dfc00115 	stw	ra,4(sp)
   3314c:	2021883a 	mov	r16,r4
   33150:	00332780 	call	33278 <__call_exitprocs>
   33154:	008000f4 	movhi	r2,3
   33158:	11190b17 	ldw	r4,25644(r2)
   3315c:	20800f17 	ldw	r2,60(r4)
   33160:	10000126 	beq	r2,zero,33168 <exit+0x2c>
   33164:	103ee83a 	callr	r2
   33168:	8009883a 	mov	r4,r16
   3316c:	00300900 	call	30090 <_exit>

00033170 <memcmp>:
   33170:	30800130 	cmpltui	r2,r6,4
   33174:	10000b1e 	bne	r2,zero,331a4 <memcmp+0x34>
   33178:	2144b03a 	or	r2,r4,r5
   3317c:	108000cc 	andi	r2,r2,3
   33180:	1000171e 	bne	r2,zero,331e0 <memcmp+0x70>
   33184:	20c00017 	ldw	r3,0(r4)
   33188:	28800017 	ldw	r2,0(r5)
   3318c:	1880141e 	bne	r3,r2,331e0 <memcmp+0x70>
   33190:	31bfff04 	addi	r6,r6,-4
   33194:	30800128 	cmpgeui	r2,r6,4
   33198:	21000104 	addi	r4,r4,4
   3319c:	29400104 	addi	r5,r5,4
   331a0:	103ff81e 	bne	r2,zero,33184 <memcmp+0x14>
   331a4:	30bfffc4 	addi	r2,r6,-1
   331a8:	30000b26 	beq	r6,zero,331d8 <memcmp+0x68>
   331ac:	11800044 	addi	r6,r2,1
   331b0:	298d883a 	add	r6,r5,r6
   331b4:	00000106 	br	331bc <memcmp+0x4c>
   331b8:	29800726 	beq	r5,r6,331d8 <memcmp+0x68>
   331bc:	20800003 	ldbu	r2,0(r4)
   331c0:	28c00003 	ldbu	r3,0(r5)
   331c4:	21000044 	addi	r4,r4,1
   331c8:	29400044 	addi	r5,r5,1
   331cc:	10fffa26 	beq	r2,r3,331b8 <memcmp+0x48>
   331d0:	10c5c83a 	sub	r2,r2,r3
   331d4:	f800283a 	ret
   331d8:	0005883a 	mov	r2,zero
   331dc:	f800283a 	ret
   331e0:	30bfffc4 	addi	r2,r6,-1
   331e4:	003ff106 	br	331ac <memcmp+0x3c>

000331e8 <__register_exitproc>:
   331e8:	008000f4 	movhi	r2,3
   331ec:	10d90b17 	ldw	r3,25644(r2)
   331f0:	18805217 	ldw	r2,328(r3)
   331f4:	10001726 	beq	r2,zero,33254 <__register_exitproc+0x6c>
   331f8:	10c00117 	ldw	r3,4(r2)
   331fc:	1a000808 	cmpgei	r8,r3,32
   33200:	40001b1e 	bne	r8,zero,33270 <__register_exitproc+0x88>
   33204:	20000b26 	beq	r4,zero,33234 <__register_exitproc+0x4c>
   33208:	181090ba 	slli	r8,r3,2
   3320c:	02400044 	movi	r9,1
   33210:	48d2983a 	sll	r9,r9,r3
   33214:	1211883a 	add	r8,r2,r8
   33218:	41802215 	stw	r6,136(r8)
   3321c:	11806217 	ldw	r6,392(r2)
   33220:	21000098 	cmpnei	r4,r4,2
   33224:	324cb03a 	or	r6,r6,r9
   33228:	11806215 	stw	r6,392(r2)
   3322c:	41c04215 	stw	r7,264(r8)
   33230:	20000b26 	beq	r4,zero,33260 <__register_exitproc+0x78>
   33234:	19000084 	addi	r4,r3,2
   33238:	200890ba 	slli	r4,r4,2
   3323c:	18c00044 	addi	r3,r3,1
   33240:	10c00115 	stw	r3,4(r2)
   33244:	1105883a 	add	r2,r2,r4
   33248:	11400015 	stw	r5,0(r2)
   3324c:	0005883a 	mov	r2,zero
   33250:	f800283a 	ret
   33254:	18805304 	addi	r2,r3,332
   33258:	18805215 	stw	r2,328(r3)
   3325c:	003fe606 	br	331f8 <__register_exitproc+0x10>
   33260:	11006317 	ldw	r4,396(r2)
   33264:	2252b03a 	or	r9,r4,r9
   33268:	12406315 	stw	r9,396(r2)
   3326c:	003ff106 	br	33234 <__register_exitproc+0x4c>
   33270:	00bfffc4 	movi	r2,-1
   33274:	f800283a 	ret

00033278 <__call_exitprocs>:
   33278:	defff704 	addi	sp,sp,-36
   3327c:	008000f4 	movhi	r2,3
   33280:	dcc00315 	stw	r19,12(sp)
   33284:	14d90b17 	ldw	r19,25644(r2)
   33288:	dc800215 	stw	r18,8(sp)
   3328c:	dfc00815 	stw	ra,32(sp)
   33290:	9c805217 	ldw	r18,328(r19)
   33294:	ddc00715 	stw	r23,28(sp)
   33298:	dd800615 	stw	r22,24(sp)
   3329c:	dd400515 	stw	r21,20(sp)
   332a0:	dd000415 	stw	r20,16(sp)
   332a4:	dc400115 	stw	r17,4(sp)
   332a8:	dc000015 	stw	r16,0(sp)
   332ac:	90001026 	beq	r18,zero,332f0 <__call_exitprocs+0x78>
   332b0:	202b883a 	mov	r21,r4
   332b4:	282d883a 	mov	r22,r5
   332b8:	05000044 	movi	r20,1
   332bc:	94000117 	ldw	r16,4(r18)
   332c0:	847fffc4 	addi	r17,r16,-1
   332c4:	88000a16 	blt	r17,zero,332f0 <__call_exitprocs+0x78>
   332c8:	84000044 	addi	r16,r16,1
   332cc:	802090ba 	slli	r16,r16,2
   332d0:	9421883a 	add	r16,r18,r16
   332d4:	b0001126 	beq	r22,zero,3331c <__call_exitprocs+0xa4>
   332d8:	80804017 	ldw	r2,256(r16)
   332dc:	15800f26 	beq	r2,r22,3331c <__call_exitprocs+0xa4>
   332e0:	8c7fffc4 	addi	r17,r17,-1
   332e4:	88bfffd8 	cmpnei	r2,r17,-1
   332e8:	843fff04 	addi	r16,r16,-4
   332ec:	103ff91e 	bne	r2,zero,332d4 <__call_exitprocs+0x5c>
   332f0:	dfc00817 	ldw	ra,32(sp)
   332f4:	ddc00717 	ldw	r23,28(sp)
   332f8:	dd800617 	ldw	r22,24(sp)
   332fc:	dd400517 	ldw	r21,20(sp)
   33300:	dd000417 	ldw	r20,16(sp)
   33304:	dcc00317 	ldw	r19,12(sp)
   33308:	dc800217 	ldw	r18,8(sp)
   3330c:	dc400117 	ldw	r17,4(sp)
   33310:	dc000017 	ldw	r16,0(sp)
   33314:	dec00904 	addi	sp,sp,36
   33318:	f800283a 	ret
   3331c:	90800117 	ldw	r2,4(r18)
   33320:	81800017 	ldw	r6,0(r16)
   33324:	10bfffc4 	addi	r2,r2,-1
   33328:	14401726 	beq	r2,r17,33388 <__call_exitprocs+0x110>
   3332c:	80000015 	stw	zero,0(r16)
   33330:	303feb26 	beq	r6,zero,332e0 <__call_exitprocs+0x68>
   33334:	a446983a 	sll	r3,r20,r17
   33338:	90806217 	ldw	r2,392(r18)
   3333c:	95c00117 	ldw	r23,4(r18)
   33340:	1884703a 	and	r2,r3,r2
   33344:	1000081e 	bne	r2,zero,33368 <__call_exitprocs+0xf0>
   33348:	303ee83a 	callr	r6
   3334c:	90c00117 	ldw	r3,4(r18)
   33350:	98805217 	ldw	r2,328(r19)
   33354:	1dc0011e 	bne	r3,r23,3335c <__call_exitprocs+0xe4>
   33358:	90bfe126 	beq	r18,r2,332e0 <__call_exitprocs+0x68>
   3335c:	103fe426 	beq	r2,zero,332f0 <__call_exitprocs+0x78>
   33360:	1025883a 	mov	r18,r2
   33364:	003fd506 	br	332bc <__call_exitprocs+0x44>
   33368:	90806317 	ldw	r2,396(r18)
   3336c:	81002017 	ldw	r4,128(r16)
   33370:	1886703a 	and	r3,r3,r2
   33374:	1800061e 	bne	r3,zero,33390 <__call_exitprocs+0x118>
   33378:	200b883a 	mov	r5,r4
   3337c:	a809883a 	mov	r4,r21
   33380:	303ee83a 	callr	r6
   33384:	003ff106 	br	3334c <__call_exitprocs+0xd4>
   33388:	94400115 	stw	r17,4(r18)
   3338c:	003fe806 	br	33330 <__call_exitprocs+0xb8>
   33390:	303ee83a 	callr	r6
   33394:	003fed06 	br	3334c <__call_exitprocs+0xd4>
