Archive member included to satisfy reference by file (symbol)

c:/intelfpga_lite/20.1/nios2eds/bin/gnu/h-x86_64-mingw32/bin/../lib/gcc/nios2-elf/9.2.1\libgcc.a(lib2-divmod.o)
                              obj/default/I2C_core.o (__divsi3)
c:/intelfpga_lite/20.1/nios2eds/bin/gnu/h-x86_64-mingw32/bin/../lib/gcc/nios2-elf/9.2.1/../../../../../H-x86_64-mingw32/nios2-elf/lib\libc.a(lib_a-fopen.o)
                              obj/default/main.o (fopen)
c:/intelfpga_lite/20.1/nios2eds/bin/gnu/h-x86_64-mingw32/bin/../lib/gcc/nios2-elf/9.2.1/../../../../../H-x86_64-mingw32/nios2-elf/lib\libc.a(lib_a-fseek.o)
                              c:/intelfpga_lite/20.1/nios2eds/bin/gnu/h-x86_64-mingw32/bin/../lib/gcc/nios2-elf/9.2.1/../../../../../H-x86_64-mingw32/nios2-elf/lib\libc.a(lib_a-fopen.o) (_fseek_r)
c:/intelfpga_lite/20.1/nios2eds/bin/gnu/h-x86_64-mingw32/bin/../lib/gcc/nios2-elf/9.2.1/../../../../../H-x86_64-mingw32/nios2-elf/lib\libc.a(lib_a-fseeko.o)
                              c:/intelfpga_lite/20.1/nios2eds/bin/gnu/h-x86_64-mingw32/bin/../lib/gcc/nios2-elf/9.2.1/../../../../../H-x86_64-mingw32/nios2-elf/lib\libc.a(lib_a-fseek.o) (_fseeko_r)
c:/intelfpga_lite/20.1/nios2eds/bin/gnu/h-x86_64-mingw32/bin/../lib/gcc/nios2-elf/9.2.1/../../../../../H-x86_64-mingw32/nios2-elf/lib\libc.a(lib_a-fstatr.o)
                              c:/intelfpga_lite/20.1/nios2eds/bin/gnu/h-x86_64-mingw32/bin/../lib/gcc/nios2-elf/9.2.1/../../../../../H-x86_64-mingw32/nios2-elf/lib\libc.a(lib_a-fseeko.o) (_fstat_r)
c:/intelfpga_lite/20.1/nios2eds/bin/gnu/h-x86_64-mingw32/bin/../lib/gcc/nios2-elf/9.2.1/../../../../../H-x86_64-mingw32/nios2-elf/lib\libc.a(lib_a-fwrite.o)
                              obj/default/main.o (fwrite)
c:/intelfpga_lite/20.1/nios2eds/bin/gnu/h-x86_64-mingw32/bin/../lib/gcc/nios2-elf/9.2.1/../../../../../H-x86_64-mingw32/nios2-elf/lib\libc.a(lib_a-getchar.o)
                              obj/default/main.o (getchar)
c:/intelfpga_lite/20.1/nios2eds/bin/gnu/h-x86_64-mingw32/bin/../lib/gcc/nios2-elf/9.2.1/../../../../../H-x86_64-mingw32/nios2-elf/lib\libc.a(lib_a-impure.o)
                              c:/intelfpga_lite/20.1/nios2eds/bin/gnu/h-x86_64-mingw32/bin/../lib/gcc/nios2-elf/9.2.1/../../../../../H-x86_64-mingw32/nios2-elf/lib\libc.a(lib_a-fopen.o) (_impure_ptr)
c:/intelfpga_lite/20.1/nios2eds/bin/gnu/h-x86_64-mingw32/bin/../lib/gcc/nios2-elf/9.2.1/../../../../../H-x86_64-mingw32/nios2-elf/lib\libc.a(lib_a-int_errno.o)
                              c:/intelfpga_lite/20.1/nios2eds/bin/gnu/h-x86_64-mingw32/bin/../lib/gcc/nios2-elf/9.2.1/../../../../../H-x86_64-mingw32/nios2-elf/lib\libc.a(lib_a-fstatr.o) (errno)
c:/intelfpga_lite/20.1/nios2eds/bin/gnu/h-x86_64-mingw32/bin/../lib/gcc/nios2-elf/9.2.1/../../../../../H-x86_64-mingw32/nios2-elf/lib\libc.a(lib_a-makebuf.o)
                              c:/intelfpga_lite/20.1/nios2eds/bin/gnu/h-x86_64-mingw32/bin/../lib/gcc/nios2-elf/9.2.1/../../../../../H-x86_64-mingw32/nios2-elf/lib\libc.a(lib_a-fseeko.o) (__smakebuf_r)
c:/intelfpga_lite/20.1/nios2eds/bin/gnu/h-x86_64-mingw32/bin/../lib/gcc/nios2-elf/9.2.1/../../../../../H-x86_64-mingw32/nios2-elf/lib\libc.a(lib_a-malloc.o)
                              obj/default/queue.o (malloc)
c:/intelfpga_lite/20.1/nios2eds/bin/gnu/h-x86_64-mingw32/bin/../lib/gcc/nios2-elf/9.2.1/../../../../../H-x86_64-mingw32/nios2-elf/lib\libc.a(lib_a-mallocr.o)
                              c:/intelfpga_lite/20.1/nios2eds/bin/gnu/h-x86_64-mingw32/bin/../lib/gcc/nios2-elf/9.2.1/../../../../../H-x86_64-mingw32/nios2-elf/lib\libc.a(lib_a-makebuf.o) (_malloc_r)
c:/intelfpga_lite/20.1/nios2eds/bin/gnu/h-x86_64-mingw32/bin/../lib/gcc/nios2-elf/9.2.1/../../../../../H-x86_64-mingw32/nios2-elf/lib\libc.a(lib_a-memset.o)
                              obj/default/queue.o (memset)
c:/intelfpga_lite/20.1/nios2eds/bin/gnu/h-x86_64-mingw32/bin/../lib/gcc/nios2-elf/9.2.1/../../../../../H-x86_64-mingw32/nios2-elf/lib\libc.a(lib_a-openr.o)
                              c:/intelfpga_lite/20.1/nios2eds/bin/gnu/h-x86_64-mingw32/bin/../lib/gcc/nios2-elf/9.2.1/../../../../../H-x86_64-mingw32/nios2-elf/lib\libc.a(lib_a-fopen.o) (_open_r)
c:/intelfpga_lite/20.1/nios2eds/bin/gnu/h-x86_64-mingw32/bin/../lib/gcc/nios2-elf/9.2.1/../../../../../H-x86_64-mingw32/nios2-elf/lib\libc.a(lib_a-printf.o)
                              obj/default/auto_focus.o (printf)
c:/intelfpga_lite/20.1/nios2eds/bin/gnu/h-x86_64-mingw32/bin/../lib/gcc/nios2-elf/9.2.1/../../../../../H-x86_64-mingw32/nios2-elf/lib\libc.a(lib_a-putchar.o)
                              obj/default/main.o (putchar)
c:/intelfpga_lite/20.1/nios2eds/bin/gnu/h-x86_64-mingw32/bin/../lib/gcc/nios2-elf/9.2.1/../../../../../H-x86_64-mingw32/nios2-elf/lib\libc.a(lib_a-puts.o)
                              obj/default/I2C_core.o (puts)
c:/intelfpga_lite/20.1/nios2eds/bin/gnu/h-x86_64-mingw32/bin/../lib/gcc/nios2-elf/9.2.1/../../../../../H-x86_64-mingw32/nios2-elf/lib\libc.a(lib_a-refill.o)
                              c:/intelfpga_lite/20.1/nios2eds/bin/gnu/h-x86_64-mingw32/bin/../lib/gcc/nios2-elf/9.2.1/../../../../../H-x86_64-mingw32/nios2-elf/lib\libc.a(lib_a-fseeko.o) (__srefill_r)
c:/intelfpga_lite/20.1/nios2eds/bin/gnu/h-x86_64-mingw32/bin/../lib/gcc/nios2-elf/9.2.1/../../../../../H-x86_64-mingw32/nios2-elf/lib\libc.a(lib_a-sbrkr.o)
                              c:/intelfpga_lite/20.1/nios2eds/bin/gnu/h-x86_64-mingw32/bin/../lib/gcc/nios2-elf/9.2.1/../../../../../H-x86_64-mingw32/nios2-elf/lib\libc.a(lib_a-mallocr.o) (_sbrk_r)
c:/intelfpga_lite/20.1/nios2eds/bin/gnu/h-x86_64-mingw32/bin/../lib/gcc/nios2-elf/9.2.1/../../../../../H-x86_64-mingw32/nios2-elf/lib\libc.a(lib_a-stdio.o)
                              c:/intelfpga_lite/20.1/nios2eds/bin/gnu/h-x86_64-mingw32/bin/../lib/gcc/nios2-elf/9.2.1/../../../../../H-x86_64-mingw32/nios2-elf/lib\libc.a(lib_a-fopen.o) (__sread)
c:/intelfpga_lite/20.1/nios2eds/bin/gnu/h-x86_64-mingw32/bin/../lib/gcc/nios2-elf/9.2.1/../../../../../H-x86_64-mingw32/nios2-elf/lib\libc.a(lib_a-strlen.o)
                              c:/intelfpga_lite/20.1/nios2eds/bin/gnu/h-x86_64-mingw32/bin/../lib/gcc/nios2-elf/9.2.1/../../../../../H-x86_64-mingw32/nios2-elf/lib\libc.a(lib_a-puts.o) (strlen)
c:/intelfpga_lite/20.1/nios2eds/bin/gnu/h-x86_64-mingw32/bin/../lib/gcc/nios2-elf/9.2.1/../../../../../H-x86_64-mingw32/nios2-elf/lib\libc.a(lib_a-vfprintf.o)
                              c:/intelfpga_lite/20.1/nios2eds/bin/gnu/h-x86_64-mingw32/bin/../lib/gcc/nios2-elf/9.2.1/../../../../../H-x86_64-mingw32/nios2-elf/lib\libc.a(lib_a-printf.o) (___vfprintf_internal_r)
c:/intelfpga_lite/20.1/nios2eds/bin/gnu/h-x86_64-mingw32/bin/../lib/gcc/nios2-elf/9.2.1/../../../../../H-x86_64-mingw32/nios2-elf/lib\libc.a(lib_a-writer.o)
                              c:/intelfpga_lite/20.1/nios2eds/bin/gnu/h-x86_64-mingw32/bin/../lib/gcc/nios2-elf/9.2.1/../../../../../H-x86_64-mingw32/nios2-elf/lib\libc.a(lib_a-stdio.o) (_write_r)
c:/intelfpga_lite/20.1/nios2eds/bin/gnu/h-x86_64-mingw32/bin/../lib/gcc/nios2-elf/9.2.1/../../../../../H-x86_64-mingw32/nios2-elf/lib\libc.a(lib_a-wsetup.o)
                              c:/intelfpga_lite/20.1/nios2eds/bin/gnu/h-x86_64-mingw32/bin/../lib/gcc/nios2-elf/9.2.1/../../../../../H-x86_64-mingw32/nios2-elf/lib\libc.a(lib_a-vfprintf.o) (__swsetup_r)
c:/intelfpga_lite/20.1/nios2eds/bin/gnu/h-x86_64-mingw32/bin/../lib/gcc/nios2-elf/9.2.1/../../../../../H-x86_64-mingw32/nios2-elf/lib\libc.a(closer.o)
                              c:/intelfpga_lite/20.1/nios2eds/bin/gnu/h-x86_64-mingw32/bin/../lib/gcc/nios2-elf/9.2.1/../../../../../H-x86_64-mingw32/nios2-elf/lib\libc.a(lib_a-stdio.o) (_close_r)
c:/intelfpga_lite/20.1/nios2eds/bin/gnu/h-x86_64-mingw32/bin/../lib/gcc/nios2-elf/9.2.1/../../../../../H-x86_64-mingw32/nios2-elf/lib\libc.a(lib_a-dtoa.o)
                              c:/intelfpga_lite/20.1/nios2eds/bin/gnu/h-x86_64-mingw32/bin/../lib/gcc/nios2-elf/9.2.1/../../../../../H-x86_64-mingw32/nios2-elf/lib\libc.a(lib_a-vfprintf.o) (_dtoa_r)
c:/intelfpga_lite/20.1/nios2eds/bin/gnu/h-x86_64-mingw32/bin/../lib/gcc/nios2-elf/9.2.1/../../../../../H-x86_64-mingw32/nios2-elf/lib\libc.a(lib_a-fflush.o)
                              c:/intelfpga_lite/20.1/nios2eds/bin/gnu/h-x86_64-mingw32/bin/../lib/gcc/nios2-elf/9.2.1/../../../../../H-x86_64-mingw32/nios2-elf/lib\libc.a(lib_a-refill.o) (__sflush_r)
c:/intelfpga_lite/20.1/nios2eds/bin/gnu/h-x86_64-mingw32/bin/../lib/gcc/nios2-elf/9.2.1/../../../../../H-x86_64-mingw32/nios2-elf/lib\libc.a(lib_a-findfp.o)
                              c:/intelfpga_lite/20.1/nios2eds/bin/gnu/h-x86_64-mingw32/bin/../lib/gcc/nios2-elf/9.2.1/../../../../../H-x86_64-mingw32/nios2-elf/lib\libc.a(lib_a-makebuf.o) (_cleanup_r)
c:/intelfpga_lite/20.1/nios2eds/bin/gnu/h-x86_64-mingw32/bin/../lib/gcc/nios2-elf/9.2.1/../../../../../H-x86_64-mingw32/nios2-elf/lib\libc.a(lib_a-flags.o)
                              c:/intelfpga_lite/20.1/nios2eds/bin/gnu/h-x86_64-mingw32/bin/../lib/gcc/nios2-elf/9.2.1/../../../../../H-x86_64-mingw32/nios2-elf/lib\libc.a(lib_a-fopen.o) (__sflags)
c:/intelfpga_lite/20.1/nios2eds/bin/gnu/h-x86_64-mingw32/bin/../lib/gcc/nios2-elf/9.2.1/../../../../../H-x86_64-mingw32/nios2-elf/lib\libc.a(lib_a-freer.o)
                              c:/intelfpga_lite/20.1/nios2eds/bin/gnu/h-x86_64-mingw32/bin/../lib/gcc/nios2-elf/9.2.1/../../../../../H-x86_64-mingw32/nios2-elf/lib\libc.a(lib_a-fseeko.o) (_free_r)
c:/intelfpga_lite/20.1/nios2eds/bin/gnu/h-x86_64-mingw32/bin/../lib/gcc/nios2-elf/9.2.1/../../../../../H-x86_64-mingw32/nios2-elf/lib\libc.a(lib_a-fvwrite.o)
                              c:/intelfpga_lite/20.1/nios2eds/bin/gnu/h-x86_64-mingw32/bin/../lib/gcc/nios2-elf/9.2.1/../../../../../H-x86_64-mingw32/nios2-elf/lib\libc.a(lib_a-fwrite.o) (__sfvwrite_r)
c:/intelfpga_lite/20.1/nios2eds/bin/gnu/h-x86_64-mingw32/bin/../lib/gcc/nios2-elf/9.2.1/../../../../../H-x86_64-mingw32/nios2-elf/lib\libc.a(lib_a-fwalk.o)
                              c:/intelfpga_lite/20.1/nios2eds/bin/gnu/h-x86_64-mingw32/bin/../lib/gcc/nios2-elf/9.2.1/../../../../../H-x86_64-mingw32/nios2-elf/lib\libc.a(lib_a-refill.o) (_fwalk)
c:/intelfpga_lite/20.1/nios2eds/bin/gnu/h-x86_64-mingw32/bin/../lib/gcc/nios2-elf/9.2.1/../../../../../H-x86_64-mingw32/nios2-elf/lib\libc.a(lib_a-getc.o)
                              c:/intelfpga_lite/20.1/nios2eds/bin/gnu/h-x86_64-mingw32/bin/../lib/gcc/nios2-elf/9.2.1/../../../../../H-x86_64-mingw32/nios2-elf/lib\libc.a(lib_a-getchar.o) (_getc_r)
c:/intelfpga_lite/20.1/nios2eds/bin/gnu/h-x86_64-mingw32/bin/../lib/gcc/nios2-elf/9.2.1/../../../../../H-x86_64-mingw32/nios2-elf/lib\libc.a(lib_a-isattyr.o)
                              c:/intelfpga_lite/20.1/nios2eds/bin/gnu/h-x86_64-mingw32/bin/../lib/gcc/nios2-elf/9.2.1/../../../../../H-x86_64-mingw32/nios2-elf/lib\libc.a(lib_a-makebuf.o) (_isatty_r)
c:/intelfpga_lite/20.1/nios2eds/bin/gnu/h-x86_64-mingw32/bin/../lib/gcc/nios2-elf/9.2.1/../../../../../H-x86_64-mingw32/nios2-elf/lib\libc.a(lib_a-localeconv.o)
                              c:/intelfpga_lite/20.1/nios2eds/bin/gnu/h-x86_64-mingw32/bin/../lib/gcc/nios2-elf/9.2.1/../../../../../H-x86_64-mingw32/nios2-elf/lib\libc.a(lib_a-vfprintf.o) (_localeconv_r)
c:/intelfpga_lite/20.1/nios2eds/bin/gnu/h-x86_64-mingw32/bin/../lib/gcc/nios2-elf/9.2.1/../../../../../H-x86_64-mingw32/nios2-elf/lib\libc.a(lib_a-lseekr.o)
                              c:/intelfpga_lite/20.1/nios2eds/bin/gnu/h-x86_64-mingw32/bin/../lib/gcc/nios2-elf/9.2.1/../../../../../H-x86_64-mingw32/nios2-elf/lib\libc.a(lib_a-stdio.o) (_lseek_r)
c:/intelfpga_lite/20.1/nios2eds/bin/gnu/h-x86_64-mingw32/bin/../lib/gcc/nios2-elf/9.2.1/../../../../../H-x86_64-mingw32/nios2-elf/lib\libc.a(lib_a-memchr.o)
                              c:/intelfpga_lite/20.1/nios2eds/bin/gnu/h-x86_64-mingw32/bin/../lib/gcc/nios2-elf/9.2.1/../../../../../H-x86_64-mingw32/nios2-elf/lib\libc.a(lib_a-vfprintf.o) (memchr)
c:/intelfpga_lite/20.1/nios2eds/bin/gnu/h-x86_64-mingw32/bin/../lib/gcc/nios2-elf/9.2.1/../../../../../H-x86_64-mingw32/nios2-elf/lib\libc.a(lib_a-memcpy.o)
                              c:/intelfpga_lite/20.1/nios2eds/bin/gnu/h-x86_64-mingw32/bin/../lib/gcc/nios2-elf/9.2.1/../../../../../H-x86_64-mingw32/nios2-elf/lib\libc.a(lib_a-dtoa.o) (memcpy)
c:/intelfpga_lite/20.1/nios2eds/bin/gnu/h-x86_64-mingw32/bin/../lib/gcc/nios2-elf/9.2.1/../../../../../H-x86_64-mingw32/nios2-elf/lib\libc.a(lib_a-memmove.o)
                              c:/intelfpga_lite/20.1/nios2eds/bin/gnu/h-x86_64-mingw32/bin/../lib/gcc/nios2-elf/9.2.1/../../../../../H-x86_64-mingw32/nios2-elf/lib\libc.a(lib_a-fvwrite.o) (memmove)
c:/intelfpga_lite/20.1/nios2eds/bin/gnu/h-x86_64-mingw32/bin/../lib/gcc/nios2-elf/9.2.1/../../../../../H-x86_64-mingw32/nios2-elf/lib\libc.a(lib_a-mprec.o)
                              c:/intelfpga_lite/20.1/nios2eds/bin/gnu/h-x86_64-mingw32/bin/../lib/gcc/nios2-elf/9.2.1/../../../../../H-x86_64-mingw32/nios2-elf/lib\libc.a(lib_a-dtoa.o) (_Balloc)
c:/intelfpga_lite/20.1/nios2eds/bin/gnu/h-x86_64-mingw32/bin/../lib/gcc/nios2-elf/9.2.1/../../../../../H-x86_64-mingw32/nios2-elf/lib\libc.a(lib_a-putc.o)
                              c:/intelfpga_lite/20.1/nios2eds/bin/gnu/h-x86_64-mingw32/bin/../lib/gcc/nios2-elf/9.2.1/../../../../../H-x86_64-mingw32/nios2-elf/lib\libc.a(lib_a-putchar.o) (_putc_r)
c:/intelfpga_lite/20.1/nios2eds/bin/gnu/h-x86_64-mingw32/bin/../lib/gcc/nios2-elf/9.2.1/../../../../../H-x86_64-mingw32/nios2-elf/lib\libc.a(lib_a-readr.o)
                              c:/intelfpga_lite/20.1/nios2eds/bin/gnu/h-x86_64-mingw32/bin/../lib/gcc/nios2-elf/9.2.1/../../../../../H-x86_64-mingw32/nios2-elf/lib\libc.a(lib_a-stdio.o) (_read_r)
c:/intelfpga_lite/20.1/nios2eds/bin/gnu/h-x86_64-mingw32/bin/../lib/gcc/nios2-elf/9.2.1/../../../../../H-x86_64-mingw32/nios2-elf/lib\libc.a(lib_a-reallocr.o)
                              c:/intelfpga_lite/20.1/nios2eds/bin/gnu/h-x86_64-mingw32/bin/../lib/gcc/nios2-elf/9.2.1/../../../../../H-x86_64-mingw32/nios2-elf/lib\libc.a(lib_a-fvwrite.o) (_realloc_r)
c:/intelfpga_lite/20.1/nios2eds/bin/gnu/h-x86_64-mingw32/bin/../lib/gcc/nios2-elf/9.2.1/../../../../../H-x86_64-mingw32/nios2-elf/lib\libc.a(lib_a-rget.o)
                              c:/intelfpga_lite/20.1/nios2eds/bin/gnu/h-x86_64-mingw32/bin/../lib/gcc/nios2-elf/9.2.1/../../../../../H-x86_64-mingw32/nios2-elf/lib\libc.a(lib_a-getc.o) (__srget_r)
c:/intelfpga_lite/20.1/nios2eds/bin/gnu/h-x86_64-mingw32/bin/../lib/gcc/nios2-elf/9.2.1/../../../../../H-x86_64-mingw32/nios2-elf/lib\libc.a(lib_a-vfiprintf.o)
                              c:/intelfpga_lite/20.1/nios2eds/bin/gnu/h-x86_64-mingw32/bin/../lib/gcc/nios2-elf/9.2.1/../../../../../H-x86_64-mingw32/nios2-elf/lib\libc.a(lib_a-vfprintf.o) (__sprint_r)
c:/intelfpga_lite/20.1/nios2eds/bin/gnu/h-x86_64-mingw32/bin/../lib/gcc/nios2-elf/9.2.1/../../../../../H-x86_64-mingw32/nios2-elf/lib\libc.a(lib_a-wbuf.o)
                              c:/intelfpga_lite/20.1/nios2eds/bin/gnu/h-x86_64-mingw32/bin/../lib/gcc/nios2-elf/9.2.1/../../../../../H-x86_64-mingw32/nios2-elf/lib\libc.a(lib_a-putc.o) (__swbuf_r)
c:/intelfpga_lite/20.1/nios2eds/bin/gnu/h-x86_64-mingw32/bin/../lib/gcc/nios2-elf/9.2.1/../../../../../H-x86_64-mingw32/nios2-elf/lib\libc.a(lib_a-assert.o)
                              c:/intelfpga_lite/20.1/nios2eds/bin/gnu/h-x86_64-mingw32/bin/../lib/gcc/nios2-elf/9.2.1/../../../../../H-x86_64-mingw32/nios2-elf/lib\libc.a(lib_a-dtoa.o) (__assert_func)
c:/intelfpga_lite/20.1/nios2eds/bin/gnu/h-x86_64-mingw32/bin/../lib/gcc/nios2-elf/9.2.1/../../../../../H-x86_64-mingw32/nios2-elf/lib\libc.a(lib_a-callocr.o)
                              c:/intelfpga_lite/20.1/nios2eds/bin/gnu/h-x86_64-mingw32/bin/../lib/gcc/nios2-elf/9.2.1/../../../../../H-x86_64-mingw32/nios2-elf/lib\libc.a(lib_a-mprec.o) (_calloc_r)
c:/intelfpga_lite/20.1/nios2eds/bin/gnu/h-x86_64-mingw32/bin/../lib/gcc/nios2-elf/9.2.1/../../../../../H-x86_64-mingw32/nios2-elf/lib\libc.a(lib_a-fclose.o)
                              c:/intelfpga_lite/20.1/nios2eds/bin/gnu/h-x86_64-mingw32/bin/../lib/gcc/nios2-elf/9.2.1/../../../../../H-x86_64-mingw32/nios2-elf/lib\libc.a(lib_a-findfp.o) (_fclose_r)
c:/intelfpga_lite/20.1/nios2eds/bin/gnu/h-x86_64-mingw32/bin/../lib/gcc/nios2-elf/9.2.1/../../../../../H-x86_64-mingw32/nios2-elf/lib\libc.a(lib_a-fiprintf.o)
                              c:/intelfpga_lite/20.1/nios2eds/bin/gnu/h-x86_64-mingw32/bin/../lib/gcc/nios2-elf/9.2.1/../../../../../H-x86_64-mingw32/nios2-elf/lib\libc.a(lib_a-assert.o) (fiprintf)
c:/intelfpga_lite/20.1/nios2eds/bin/gnu/h-x86_64-mingw32/bin/../lib/gcc/nios2-elf/9.2.1/../../../../../H-x86_64-mingw32/nios2-elf/lib\libc.a(lib_a-fputwc.o)
                              c:/intelfpga_lite/20.1/nios2eds/bin/gnu/h-x86_64-mingw32/bin/../lib/gcc/nios2-elf/9.2.1/../../../../../H-x86_64-mingw32/nios2-elf/lib\libc.a(lib_a-vfiprintf.o) (_fputwc_r)
c:/intelfpga_lite/20.1/nios2eds/bin/gnu/h-x86_64-mingw32/bin/../lib/gcc/nios2-elf/9.2.1/../../../../../H-x86_64-mingw32/nios2-elf/lib\libc.a(lib_a-locale.o)
                              c:/intelfpga_lite/20.1/nios2eds/bin/gnu/h-x86_64-mingw32/bin/../lib/gcc/nios2-elf/9.2.1/../../../../../H-x86_64-mingw32/nios2-elf/lib\libc.a(lib_a-fputwc.o) (__locale_mb_cur_max)
c:/intelfpga_lite/20.1/nios2eds/bin/gnu/h-x86_64-mingw32/bin/../lib/gcc/nios2-elf/9.2.1/../../../../../H-x86_64-mingw32/nios2-elf/lib\libc.a(lib_a-mbtowc_r.o)
                              c:/intelfpga_lite/20.1/nios2eds/bin/gnu/h-x86_64-mingw32/bin/../lib/gcc/nios2-elf/9.2.1/../../../../../H-x86_64-mingw32/nios2-elf/lib\libc.a(lib_a-locale.o) (__ascii_mbtowc)
c:/intelfpga_lite/20.1/nios2eds/bin/gnu/h-x86_64-mingw32/bin/../lib/gcc/nios2-elf/9.2.1/../../../../../H-x86_64-mingw32/nios2-elf/lib\libc.a(lib_a-strcmp.o)
                              c:/intelfpga_lite/20.1/nios2eds/bin/gnu/h-x86_64-mingw32/bin/../lib/gcc/nios2-elf/9.2.1/../../../../../H-x86_64-mingw32/nios2-elf/lib\libc.a(lib_a-locale.o) (strcmp)
c:/intelfpga_lite/20.1/nios2eds/bin/gnu/h-x86_64-mingw32/bin/../lib/gcc/nios2-elf/9.2.1/../../../../../H-x86_64-mingw32/nios2-elf/lib\libc.a(lib_a-vfiprintfr_1.o)
                              c:/intelfpga_lite/20.1/nios2eds/bin/gnu/h-x86_64-mingw32/bin/../lib/gcc/nios2-elf/9.2.1/../../../../../H-x86_64-mingw32/nios2-elf/lib\libc.a(lib_a-fiprintf.o) (_vfiprintf_r)
c:/intelfpga_lite/20.1/nios2eds/bin/gnu/h-x86_64-mingw32/bin/../lib/gcc/nios2-elf/9.2.1/../../../../../H-x86_64-mingw32/nios2-elf/lib\libc.a(lib_a-wcrtomb.o)
                              c:/intelfpga_lite/20.1/nios2eds/bin/gnu/h-x86_64-mingw32/bin/../lib/gcc/nios2-elf/9.2.1/../../../../../H-x86_64-mingw32/nios2-elf/lib\libc.a(lib_a-fputwc.o) (_wcrtomb_r)
c:/intelfpga_lite/20.1/nios2eds/bin/gnu/h-x86_64-mingw32/bin/../lib/gcc/nios2-elf/9.2.1/../../../../../H-x86_64-mingw32/nios2-elf/lib\libc.a(lib_a-wctomb_r.o)
                              c:/intelfpga_lite/20.1/nios2eds/bin/gnu/h-x86_64-mingw32/bin/../lib/gcc/nios2-elf/9.2.1/../../../../../H-x86_64-mingw32/nios2-elf/lib\libc.a(lib_a-locale.o) (__ascii_wctomb)
c:/intelfpga_lite/20.1/nios2eds/bin/gnu/h-x86_64-mingw32/bin/../lib/gcc/nios2-elf/9.2.1/../../../../../H-x86_64-mingw32/nios2-elf/lib\libc.a(lib_a-abort.o)
                              c:/intelfpga_lite/20.1/nios2eds/bin/gnu/h-x86_64-mingw32/bin/../lib/gcc/nios2-elf/9.2.1/../../../../../H-x86_64-mingw32/nios2-elf/lib\libc.a(lib_a-assert.o) (abort)
c:/intelfpga_lite/20.1/nios2eds/bin/gnu/h-x86_64-mingw32/bin/../lib/gcc/nios2-elf/9.2.1/../../../../../H-x86_64-mingw32/nios2-elf/lib\libc.a(lib_a-ctype_.o)
                              c:/intelfpga_lite/20.1/nios2eds/bin/gnu/h-x86_64-mingw32/bin/../lib/gcc/nios2-elf/9.2.1/../../../../../H-x86_64-mingw32/nios2-elf/lib\libc.a(lib_a-locale.o) (_ctype_b)
c:/intelfpga_lite/20.1/nios2eds/bin/gnu/h-x86_64-mingw32/bin/../lib/gcc/nios2-elf/9.2.1/../../../../../H-x86_64-mingw32/nios2-elf/lib\libc.a(lib_a-signal.o)
                              c:/intelfpga_lite/20.1/nios2eds/bin/gnu/h-x86_64-mingw32/bin/../lib/gcc/nios2-elf/9.2.1/../../../../../H-x86_64-mingw32/nios2-elf/lib\libc.a(lib_a-abort.o) (raise)
c:/intelfpga_lite/20.1/nios2eds/bin/gnu/h-x86_64-mingw32/bin/../lib/gcc/nios2-elf/9.2.1/../../../../../H-x86_64-mingw32/nios2-elf/lib\libc.a(lib_a-signalr.o)
                              c:/intelfpga_lite/20.1/nios2eds/bin/gnu/h-x86_64-mingw32/bin/../lib/gcc/nios2-elf/9.2.1/../../../../../H-x86_64-mingw32/nios2-elf/lib\libc.a(lib_a-signal.o) (_kill_r)
c:/intelfpga_lite/20.1/nios2eds/bin/gnu/h-x86_64-mingw32/bin/../lib/gcc/nios2-elf/9.2.1\libgcc.a(_udivdi3.o)
                              c:/intelfpga_lite/20.1/nios2eds/bin/gnu/h-x86_64-mingw32/bin/../lib/gcc/nios2-elf/9.2.1/../../../../../H-x86_64-mingw32/nios2-elf/lib\libc.a(lib_a-vfprintf.o) (__udivdi3)
c:/intelfpga_lite/20.1/nios2eds/bin/gnu/h-x86_64-mingw32/bin/../lib/gcc/nios2-elf/9.2.1\libgcc.a(_umoddi3.o)
                              c:/intelfpga_lite/20.1/nios2eds/bin/gnu/h-x86_64-mingw32/bin/../lib/gcc/nios2-elf/9.2.1/../../../../../H-x86_64-mingw32/nios2-elf/lib\libc.a(lib_a-vfprintf.o) (__umoddi3)
c:/intelfpga_lite/20.1/nios2eds/bin/gnu/h-x86_64-mingw32/bin/../lib/gcc/nios2-elf/9.2.1\libgcc.a(adddf3.o)
                              c:/intelfpga_lite/20.1/nios2eds/bin/gnu/h-x86_64-mingw32/bin/../lib/gcc/nios2-elf/9.2.1/../../../../../H-x86_64-mingw32/nios2-elf/lib\libc.a(lib_a-dtoa.o) (__adddf3)
c:/intelfpga_lite/20.1/nios2eds/bin/gnu/h-x86_64-mingw32/bin/../lib/gcc/nios2-elf/9.2.1\libgcc.a(divdf3.o)
                              c:/intelfpga_lite/20.1/nios2eds/bin/gnu/h-x86_64-mingw32/bin/../lib/gcc/nios2-elf/9.2.1/../../../../../H-x86_64-mingw32/nios2-elf/lib\libc.a(lib_a-dtoa.o) (__divdf3)
c:/intelfpga_lite/20.1/nios2eds/bin/gnu/h-x86_64-mingw32/bin/../lib/gcc/nios2-elf/9.2.1\libgcc.a(eqdf2.o)
                              c:/intelfpga_lite/20.1/nios2eds/bin/gnu/h-x86_64-mingw32/bin/../lib/gcc/nios2-elf/9.2.1/../../../../../H-x86_64-mingw32/nios2-elf/lib\libc.a(lib_a-vfprintf.o) (__eqdf2)
c:/intelfpga_lite/20.1/nios2eds/bin/gnu/h-x86_64-mingw32/bin/../lib/gcc/nios2-elf/9.2.1\libgcc.a(gedf2.o)
                              c:/intelfpga_lite/20.1/nios2eds/bin/gnu/h-x86_64-mingw32/bin/../lib/gcc/nios2-elf/9.2.1/../../../../../H-x86_64-mingw32/nios2-elf/lib\libc.a(lib_a-dtoa.o) (__gtdf2)
c:/intelfpga_lite/20.1/nios2eds/bin/gnu/h-x86_64-mingw32/bin/../lib/gcc/nios2-elf/9.2.1\libgcc.a(ledf2.o)
                              c:/intelfpga_lite/20.1/nios2eds/bin/gnu/h-x86_64-mingw32/bin/../lib/gcc/nios2-elf/9.2.1/../../../../../H-x86_64-mingw32/nios2-elf/lib\libc.a(lib_a-vfprintf.o) (__ledf2)
c:/intelfpga_lite/20.1/nios2eds/bin/gnu/h-x86_64-mingw32/bin/../lib/gcc/nios2-elf/9.2.1\libgcc.a(muldf3.o)
                              c:/intelfpga_lite/20.1/nios2eds/bin/gnu/h-x86_64-mingw32/bin/../lib/gcc/nios2-elf/9.2.1/../../../../../H-x86_64-mingw32/nios2-elf/lib\libc.a(lib_a-dtoa.o) (__muldf3)
c:/intelfpga_lite/20.1/nios2eds/bin/gnu/h-x86_64-mingw32/bin/../lib/gcc/nios2-elf/9.2.1\libgcc.a(subdf3.o)
                              c:/intelfpga_lite/20.1/nios2eds/bin/gnu/h-x86_64-mingw32/bin/../lib/gcc/nios2-elf/9.2.1/../../../../../H-x86_64-mingw32/nios2-elf/lib\libc.a(lib_a-dtoa.o) (__subdf3)
c:/intelfpga_lite/20.1/nios2eds/bin/gnu/h-x86_64-mingw32/bin/../lib/gcc/nios2-elf/9.2.1\libgcc.a(unorddf2.o)
                              c:/intelfpga_lite/20.1/nios2eds/bin/gnu/h-x86_64-mingw32/bin/../lib/gcc/nios2-elf/9.2.1/../../../../../H-x86_64-mingw32/nios2-elf/lib\libc.a(lib_a-vfprintf.o) (__unorddf2)
c:/intelfpga_lite/20.1/nios2eds/bin/gnu/h-x86_64-mingw32/bin/../lib/gcc/nios2-elf/9.2.1\libgcc.a(fixdfsi.o)
                              c:/intelfpga_lite/20.1/nios2eds/bin/gnu/h-x86_64-mingw32/bin/../lib/gcc/nios2-elf/9.2.1/../../../../../H-x86_64-mingw32/nios2-elf/lib\libc.a(lib_a-dtoa.o) (__fixdfsi)
c:/intelfpga_lite/20.1/nios2eds/bin/gnu/h-x86_64-mingw32/bin/../lib/gcc/nios2-elf/9.2.1\libgcc.a(floatsidf.o)
                              c:/intelfpga_lite/20.1/nios2eds/bin/gnu/h-x86_64-mingw32/bin/../lib/gcc/nios2-elf/9.2.1/../../../../../H-x86_64-mingw32/nios2-elf/lib\libc.a(lib_a-dtoa.o) (__floatsidf)
c:/intelfpga_lite/20.1/nios2eds/bin/gnu/h-x86_64-mingw32/bin/../lib/gcc/nios2-elf/9.2.1\libgcc.a(floatunsidf.o)
                              c:/intelfpga_lite/20.1/nios2eds/bin/gnu/h-x86_64-mingw32/bin/../lib/gcc/nios2-elf/9.2.1/../../../../../H-x86_64-mingw32/nios2-elf/lib\libc.a(lib_a-dtoa.o) (__floatunsidf)
c:/intelfpga_lite/20.1/nios2eds/bin/gnu/h-x86_64-mingw32/bin/../lib/gcc/nios2-elf/9.2.1\libgcc.a(_clz.o)
                              c:/intelfpga_lite/20.1/nios2eds/bin/gnu/h-x86_64-mingw32/bin/../lib/gcc/nios2-elf/9.2.1\libgcc.a(_udivdi3.o) (__clz_tab)
c:/intelfpga_lite/20.1/nios2eds/bin/gnu/h-x86_64-mingw32/bin/../lib/gcc/nios2-elf/9.2.1\libgcc.a(_clzsi2.o)
                              c:/intelfpga_lite/20.1/nios2eds/bin/gnu/h-x86_64-mingw32/bin/../lib/gcc/nios2-elf/9.2.1\libgcc.a(adddf3.o) (__clzsi2)
C:/Users/Emre/Documents/projectnios2/DE10_LITE_D8M_VIP_16/software/Vision_bsp\libhal_bsp.a(alt_close.o)
                              c:/intelfpga_lite/20.1/nios2eds/bin/gnu/h-x86_64-mingw32/bin/../lib/gcc/nios2-elf/9.2.1/../../../../../H-x86_64-mingw32/nios2-elf/lib\libc.a(closer.o) (close)
C:/Users/Emre/Documents/projectnios2/DE10_LITE_D8M_VIP_16/software/Vision_bsp\libhal_bsp.a(alt_dev.o)
                              C:/Users/Emre/Documents/projectnios2/DE10_LITE_D8M_VIP_16/software/Vision_bsp\libhal_bsp.a(alt_close.o) (alt_fd_list)
C:/Users/Emre/Documents/projectnios2/DE10_LITE_D8M_VIP_16/software/Vision_bsp\libhal_bsp.a(alt_errno.o)
                              C:/Users/Emre/Documents/projectnios2/DE10_LITE_D8M_VIP_16/software/Vision_bsp\libhal_bsp.a(alt_close.o) (alt_errno)
C:/Users/Emre/Documents/projectnios2/DE10_LITE_D8M_VIP_16/software/Vision_bsp\libhal_bsp.a(alt_exit.o)
                              c:/intelfpga_lite/20.1/nios2eds/bin/gnu/h-x86_64-mingw32/bin/../lib/gcc/nios2-elf/9.2.1/../../../../../H-x86_64-mingw32/nios2-elf/lib\libc.a(lib_a-abort.o) (_exit)
C:/Users/Emre/Documents/projectnios2/DE10_LITE_D8M_VIP_16/software/Vision_bsp\libhal_bsp.a(alt_fcntl.o)
                              obj/default/main.o (fcntl)
C:/Users/Emre/Documents/projectnios2/DE10_LITE_D8M_VIP_16/software/Vision_bsp\libhal_bsp.a(alt_fstat.o)
                              c:/intelfpga_lite/20.1/nios2eds/bin/gnu/h-x86_64-mingw32/bin/../lib/gcc/nios2-elf/9.2.1/../../../../../H-x86_64-mingw32/nios2-elf/lib\libc.a(lib_a-fstatr.o) (fstat)
C:/Users/Emre/Documents/projectnios2/DE10_LITE_D8M_VIP_16/software/Vision_bsp\libhal_bsp.a(alt_getpid.o)
                              c:/intelfpga_lite/20.1/nios2eds/bin/gnu/h-x86_64-mingw32/bin/../lib/gcc/nios2-elf/9.2.1/../../../../../H-x86_64-mingw32/nios2-elf/lib\libc.a(lib_a-signalr.o) (getpid)
C:/Users/Emre/Documents/projectnios2/DE10_LITE_D8M_VIP_16/software/Vision_bsp\libhal_bsp.a(alt_isatty.o)
                              c:/intelfpga_lite/20.1/nios2eds/bin/gnu/h-x86_64-mingw32/bin/../lib/gcc/nios2-elf/9.2.1/../../../../../H-x86_64-mingw32/nios2-elf/lib\libc.a(lib_a-isattyr.o) (isatty)
C:/Users/Emre/Documents/projectnios2/DE10_LITE_D8M_VIP_16/software/Vision_bsp\libhal_bsp.a(alt_kill.o)
                              c:/intelfpga_lite/20.1/nios2eds/bin/gnu/h-x86_64-mingw32/bin/../lib/gcc/nios2-elf/9.2.1/../../../../../H-x86_64-mingw32/nios2-elf/lib\libc.a(lib_a-signalr.o) (kill)
C:/Users/Emre/Documents/projectnios2/DE10_LITE_D8M_VIP_16/software/Vision_bsp\libhal_bsp.a(alt_load.o)
                              C:/Users/Emre/Documents/projectnios2/DE10_LITE_D8M_VIP_16/software/Vision_bsp/obj/HAL/src/crt0.o (alt_load)
C:/Users/Emre/Documents/projectnios2/DE10_LITE_D8M_VIP_16/software/Vision_bsp\libhal_bsp.a(alt_lseek.o)
                              c:/intelfpga_lite/20.1/nios2eds/bin/gnu/h-x86_64-mingw32/bin/../lib/gcc/nios2-elf/9.2.1/../../../../../H-x86_64-mingw32/nios2-elf/lib\libc.a(lib_a-lseekr.o) (lseek)
C:/Users/Emre/Documents/projectnios2/DE10_LITE_D8M_VIP_16/software/Vision_bsp\libhal_bsp.a(alt_main.o)
                              C:/Users/Emre/Documents/projectnios2/DE10_LITE_D8M_VIP_16/software/Vision_bsp/obj/HAL/src/crt0.o (alt_main)
C:/Users/Emre/Documents/projectnios2/DE10_LITE_D8M_VIP_16/software/Vision_bsp\libhal_bsp.a(alt_malloc_lock.o)
                              c:/intelfpga_lite/20.1/nios2eds/bin/gnu/h-x86_64-mingw32/bin/../lib/gcc/nios2-elf/9.2.1/../../../../../H-x86_64-mingw32/nios2-elf/lib\libc.a(lib_a-mallocr.o) (__malloc_lock)
C:/Users/Emre/Documents/projectnios2/DE10_LITE_D8M_VIP_16/software/Vision_bsp\libhal_bsp.a(alt_open.o)
                              c:/intelfpga_lite/20.1/nios2eds/bin/gnu/h-x86_64-mingw32/bin/../lib/gcc/nios2-elf/9.2.1/../../../../../H-x86_64-mingw32/nios2-elf/lib\libc.a(lib_a-openr.o) (open)
C:/Users/Emre/Documents/projectnios2/DE10_LITE_D8M_VIP_16/software/Vision_bsp\libhal_bsp.a(alt_read.o)
                              c:/intelfpga_lite/20.1/nios2eds/bin/gnu/h-x86_64-mingw32/bin/../lib/gcc/nios2-elf/9.2.1/../../../../../H-x86_64-mingw32/nios2-elf/lib\libc.a(lib_a-readr.o) (read)
C:/Users/Emre/Documents/projectnios2/DE10_LITE_D8M_VIP_16/software/Vision_bsp\libhal_bsp.a(alt_release_fd.o)
                              C:/Users/Emre/Documents/projectnios2/DE10_LITE_D8M_VIP_16/software/Vision_bsp\libhal_bsp.a(alt_close.o) (alt_release_fd)
C:/Users/Emre/Documents/projectnios2/DE10_LITE_D8M_VIP_16/software/Vision_bsp\libhal_bsp.a(alt_sbrk.o)
                              c:/intelfpga_lite/20.1/nios2eds/bin/gnu/h-x86_64-mingw32/bin/../lib/gcc/nios2-elf/9.2.1/../../../../../H-x86_64-mingw32/nios2-elf/lib\libc.a(lib_a-sbrkr.o) (sbrk)
C:/Users/Emre/Documents/projectnios2/DE10_LITE_D8M_VIP_16/software/Vision_bsp\libhal_bsp.a(alt_tick.o)
                              obj/default/auto_focus.o (_alt_tick_rate)
C:/Users/Emre/Documents/projectnios2/DE10_LITE_D8M_VIP_16/software/Vision_bsp\libhal_bsp.a(alt_usleep.o)
                              obj/default/I2C_core.o (usleep)
C:/Users/Emre/Documents/projectnios2/DE10_LITE_D8M_VIP_16/software/Vision_bsp\libhal_bsp.a(alt_write.o)
                              c:/intelfpga_lite/20.1/nios2eds/bin/gnu/h-x86_64-mingw32/bin/../lib/gcc/nios2-elf/9.2.1/../../../../../H-x86_64-mingw32/nios2-elf/lib\libc.a(lib_a-writer.o) (write)
C:/Users/Emre/Documents/projectnios2/DE10_LITE_D8M_VIP_16/software/Vision_bsp\libhal_bsp.a(alt_sys_init.o)
                              C:/Users/Emre/Documents/projectnios2/DE10_LITE_D8M_VIP_16/software/Vision_bsp\libhal_bsp.a(alt_main.o) (alt_irq_init)
C:/Users/Emre/Documents/projectnios2/DE10_LITE_D8M_VIP_16/software/Vision_bsp\libhal_bsp.a(altera_avalon_jtag_uart_fd.o)
                              C:/Users/Emre/Documents/projectnios2/DE10_LITE_D8M_VIP_16/software/Vision_bsp\libhal_bsp.a(alt_sys_init.o) (altera_avalon_jtag_uart_read_fd)
C:/Users/Emre/Documents/projectnios2/DE10_LITE_D8M_VIP_16/software/Vision_bsp\libhal_bsp.a(altera_avalon_jtag_uart_init.o)
                              C:/Users/Emre/Documents/projectnios2/DE10_LITE_D8M_VIP_16/software/Vision_bsp\libhal_bsp.a(alt_sys_init.o) (altera_avalon_jtag_uart_init)
C:/Users/Emre/Documents/projectnios2/DE10_LITE_D8M_VIP_16/software/Vision_bsp\libhal_bsp.a(altera_avalon_jtag_uart_ioctl.o)
                              C:/Users/Emre/Documents/projectnios2/DE10_LITE_D8M_VIP_16/software/Vision_bsp\libhal_bsp.a(altera_avalon_jtag_uart_fd.o) (altera_avalon_jtag_uart_ioctl)
C:/Users/Emre/Documents/projectnios2/DE10_LITE_D8M_VIP_16/software/Vision_bsp\libhal_bsp.a(altera_avalon_jtag_uart_read.o)
                              C:/Users/Emre/Documents/projectnios2/DE10_LITE_D8M_VIP_16/software/Vision_bsp\libhal_bsp.a(altera_avalon_jtag_uart_fd.o) (altera_avalon_jtag_uart_read)
C:/Users/Emre/Documents/projectnios2/DE10_LITE_D8M_VIP_16/software/Vision_bsp\libhal_bsp.a(altera_avalon_jtag_uart_write.o)
                              C:/Users/Emre/Documents/projectnios2/DE10_LITE_D8M_VIP_16/software/Vision_bsp\libhal_bsp.a(altera_avalon_jtag_uart_fd.o) (altera_avalon_jtag_uart_write)
C:/Users/Emre/Documents/projectnios2/DE10_LITE_D8M_VIP_16/software/Vision_bsp\libhal_bsp.a(altera_avalon_timer_sc.o)
                              C:/Users/Emre/Documents/projectnios2/DE10_LITE_D8M_VIP_16/software/Vision_bsp\libhal_bsp.a(alt_sys_init.o) (alt_avalon_timer_sc_init)
C:/Users/Emre/Documents/projectnios2/DE10_LITE_D8M_VIP_16/software/Vision_bsp\libhal_bsp.a(altera_avalon_uart_fd.o)
                              C:/Users/Emre/Documents/projectnios2/DE10_LITE_D8M_VIP_16/software/Vision_bsp\libhal_bsp.a(alt_sys_init.o) (altera_avalon_uart_read_fd)
C:/Users/Emre/Documents/projectnios2/DE10_LITE_D8M_VIP_16/software/Vision_bsp\libhal_bsp.a(altera_avalon_uart_init.o)
                              C:/Users/Emre/Documents/projectnios2/DE10_LITE_D8M_VIP_16/software/Vision_bsp\libhal_bsp.a(alt_sys_init.o) (altera_avalon_uart_init)
C:/Users/Emre/Documents/projectnios2/DE10_LITE_D8M_VIP_16/software/Vision_bsp\libhal_bsp.a(altera_avalon_uart_read.o)
                              C:/Users/Emre/Documents/projectnios2/DE10_LITE_D8M_VIP_16/software/Vision_bsp\libhal_bsp.a(altera_avalon_uart_fd.o) (altera_avalon_uart_read)
C:/Users/Emre/Documents/projectnios2/DE10_LITE_D8M_VIP_16/software/Vision_bsp\libhal_bsp.a(altera_avalon_uart_write.o)
                              C:/Users/Emre/Documents/projectnios2/DE10_LITE_D8M_VIP_16/software/Vision_bsp\libhal_bsp.a(altera_avalon_uart_fd.o) (altera_avalon_uart_write)
C:/Users/Emre/Documents/projectnios2/DE10_LITE_D8M_VIP_16/software/Vision_bsp\libhal_bsp.a(alt_alarm_start.o)
                              C:/Users/Emre/Documents/projectnios2/DE10_LITE_D8M_VIP_16/software/Vision_bsp\libhal_bsp.a(altera_avalon_jtag_uart_init.o) (alt_alarm_start)
C:/Users/Emre/Documents/projectnios2/DE10_LITE_D8M_VIP_16/software/Vision_bsp\libhal_bsp.a(alt_busy_sleep.o)
                              C:/Users/Emre/Documents/projectnios2/DE10_LITE_D8M_VIP_16/software/Vision_bsp\libhal_bsp.a(alt_usleep.o) (alt_busy_sleep)
C:/Users/Emre/Documents/projectnios2/DE10_LITE_D8M_VIP_16/software/Vision_bsp\libhal_bsp.a(alt_dcache_flush_all.o)
                              C:/Users/Emre/Documents/projectnios2/DE10_LITE_D8M_VIP_16/software/Vision_bsp\libhal_bsp.a(alt_load.o) (alt_dcache_flush_all)
C:/Users/Emre/Documents/projectnios2/DE10_LITE_D8M_VIP_16/software/Vision_bsp\libhal_bsp.a(alt_dev_llist_insert.o)
                              C:/Users/Emre/Documents/projectnios2/DE10_LITE_D8M_VIP_16/software/Vision_bsp\libhal_bsp.a(alt_sys_init.o) (alt_dev_llist_insert)
C:/Users/Emre/Documents/projectnios2/DE10_LITE_D8M_VIP_16/software/Vision_bsp\libhal_bsp.a(alt_do_ctors.o)
                              C:/Users/Emre/Documents/projectnios2/DE10_LITE_D8M_VIP_16/software/Vision_bsp\libhal_bsp.a(alt_main.o) (_do_ctors)
C:/Users/Emre/Documents/projectnios2/DE10_LITE_D8M_VIP_16/software/Vision_bsp\libhal_bsp.a(alt_do_dtors.o)
                              C:/Users/Emre/Documents/projectnios2/DE10_LITE_D8M_VIP_16/software/Vision_bsp\libhal_bsp.a(alt_main.o) (_do_dtors)
C:/Users/Emre/Documents/projectnios2/DE10_LITE_D8M_VIP_16/software/Vision_bsp\libhal_bsp.a(alt_find_dev.o)
                              C:/Users/Emre/Documents/projectnios2/DE10_LITE_D8M_VIP_16/software/Vision_bsp\libhal_bsp.a(alt_open.o) (alt_find_dev)
C:/Users/Emre/Documents/projectnios2/DE10_LITE_D8M_VIP_16/software/Vision_bsp\libhal_bsp.a(alt_find_file.o)
                              C:/Users/Emre/Documents/projectnios2/DE10_LITE_D8M_VIP_16/software/Vision_bsp\libhal_bsp.a(alt_open.o) (alt_find_file)
C:/Users/Emre/Documents/projectnios2/DE10_LITE_D8M_VIP_16/software/Vision_bsp\libhal_bsp.a(alt_get_fd.o)
                              C:/Users/Emre/Documents/projectnios2/DE10_LITE_D8M_VIP_16/software/Vision_bsp\libhal_bsp.a(alt_open.o) (alt_get_fd)
C:/Users/Emre/Documents/projectnios2/DE10_LITE_D8M_VIP_16/software/Vision_bsp\libhal_bsp.a(alt_icache_flush_all.o)
                              C:/Users/Emre/Documents/projectnios2/DE10_LITE_D8M_VIP_16/software/Vision_bsp\libhal_bsp.a(alt_load.o) (alt_icache_flush_all)
C:/Users/Emre/Documents/projectnios2/DE10_LITE_D8M_VIP_16/software/Vision_bsp\libhal_bsp.a(alt_iic.o)
                              C:/Users/Emre/Documents/projectnios2/DE10_LITE_D8M_VIP_16/software/Vision_bsp\libhal_bsp.a(altera_avalon_jtag_uart_init.o) (alt_ic_isr_register)
C:/Users/Emre/Documents/projectnios2/DE10_LITE_D8M_VIP_16/software/Vision_bsp\libhal_bsp.a(alt_iic_isr_register.o)
                              C:/Users/Emre/Documents/projectnios2/DE10_LITE_D8M_VIP_16/software/Vision_bsp\libhal_bsp.a(alt_iic.o) (alt_iic_isr_register)
C:/Users/Emre/Documents/projectnios2/DE10_LITE_D8M_VIP_16/software/Vision_bsp\libhal_bsp.a(alt_io_redirect.o)
                              C:/Users/Emre/Documents/projectnios2/DE10_LITE_D8M_VIP_16/software/Vision_bsp\libhal_bsp.a(alt_main.o) (alt_io_redirect)
C:/Users/Emre/Documents/projectnios2/DE10_LITE_D8M_VIP_16/software/Vision_bsp\libhal_bsp.a(alt_irq_entry.o)
                              C:/Users/Emre/Documents/projectnios2/DE10_LITE_D8M_VIP_16/software/Vision_bsp\libhal_bsp.a(alt_iic_isr_register.o) (alt_irq_entry)
C:/Users/Emre/Documents/projectnios2/DE10_LITE_D8M_VIP_16/software/Vision_bsp\libhal_bsp.a(alt_irq_handler.o)
                              C:/Users/Emre/Documents/projectnios2/DE10_LITE_D8M_VIP_16/software/Vision_bsp\libhal_bsp.a(alt_iic_isr_register.o) (alt_irq)
C:/Users/Emre/Documents/projectnios2/DE10_LITE_D8M_VIP_16/software/Vision_bsp\libhal_bsp.a(alt_irq_vars.o)
                              C:/Users/Emre/Documents/projectnios2/DE10_LITE_D8M_VIP_16/software/Vision_bsp\libhal_bsp.a(alt_iic.o) (alt_irq_active)
C:/Users/Emre/Documents/projectnios2/DE10_LITE_D8M_VIP_16/software/Vision_bsp\libhal_bsp.a(altera_nios2_gen2_irq.o)
                              C:/Users/Emre/Documents/projectnios2/DE10_LITE_D8M_VIP_16/software/Vision_bsp\libhal_bsp.a(alt_sys_init.o) (altera_nios2_gen2_irq_init)
C:/Users/Emre/Documents/projectnios2/DE10_LITE_D8M_VIP_16/software/Vision_bsp\libhal_bsp.a(alt_exception_entry.o)
                              C:/Users/Emre/Documents/projectnios2/DE10_LITE_D8M_VIP_16/software/Vision_bsp\libhal_bsp.a(alt_irq_entry.o) (alt_exception)
C:/Users/Emre/Documents/projectnios2/DE10_LITE_D8M_VIP_16/software/Vision_bsp\libhal_bsp.a(alt_icache_flush.o)
                              C:/Users/Emre/Documents/projectnios2/DE10_LITE_D8M_VIP_16/software/Vision_bsp\libhal_bsp.a(alt_icache_flush_all.o) (alt_icache_flush)
C:/Users/Emre/Documents/projectnios2/DE10_LITE_D8M_VIP_16/software/Vision_bsp\libhal_bsp.a(alt_instruction_exception_entry.o)
                              C:/Users/Emre/Documents/projectnios2/DE10_LITE_D8M_VIP_16/software/Vision_bsp\libhal_bsp.a(alt_exception_entry.o) (alt_instruction_exception_entry)
c:/intelfpga_lite/20.1/nios2eds/bin/gnu/h-x86_64-mingw32/bin/../lib/gcc/nios2-elf/9.2.1/../../../../../H-x86_64-mingw32/nios2-elf/lib\libc.a(lib_a-atexit.o)
                              C:/Users/Emre/Documents/projectnios2/DE10_LITE_D8M_VIP_16/software/Vision_bsp\libhal_bsp.a(alt_main.o) (atexit)
c:/intelfpga_lite/20.1/nios2eds/bin/gnu/h-x86_64-mingw32/bin/../lib/gcc/nios2-elf/9.2.1/../../../../../H-x86_64-mingw32/nios2-elf/lib\libc.a(lib_a-exit.o)
                              C:/Users/Emre/Documents/projectnios2/DE10_LITE_D8M_VIP_16/software/Vision_bsp\libhal_bsp.a(alt_main.o) (exit)
c:/intelfpga_lite/20.1/nios2eds/bin/gnu/h-x86_64-mingw32/bin/../lib/gcc/nios2-elf/9.2.1/../../../../../H-x86_64-mingw32/nios2-elf/lib\libc.a(lib_a-memcmp.o)
                              C:/Users/Emre/Documents/projectnios2/DE10_LITE_D8M_VIP_16/software/Vision_bsp\libhal_bsp.a(alt_find_dev.o) (memcmp)
c:/intelfpga_lite/20.1/nios2eds/bin/gnu/h-x86_64-mingw32/bin/../lib/gcc/nios2-elf/9.2.1/../../../../../H-x86_64-mingw32/nios2-elf/lib\libc.a(lib_a-__atexit.o)
                              c:/intelfpga_lite/20.1/nios2eds/bin/gnu/h-x86_64-mingw32/bin/../lib/gcc/nios2-elf/9.2.1/../../../../../H-x86_64-mingw32/nios2-elf/lib\libc.a(lib_a-atexit.o) (__register_exitproc)
c:/intelfpga_lite/20.1/nios2eds/bin/gnu/h-x86_64-mingw32/bin/../lib/gcc/nios2-elf/9.2.1/../../../../../H-x86_64-mingw32/nios2-elf/lib\libc.a(lib_a-__call_atexit.o)
                              c:/intelfpga_lite/20.1/nios2eds/bin/gnu/h-x86_64-mingw32/bin/../lib/gcc/nios2-elf/9.2.1/../../../../../H-x86_64-mingw32/nios2-elf/lib\libc.a(lib_a-exit.o) (__call_exitprocs)

Allocating common symbols
Common symbol       size              file

alt_irq             0x100             C:/Users/Emre/Documents/projectnios2/DE10_LITE_D8M_VIP_16/software/Vision_bsp\libhal_bsp.a(alt_irq_handler.o)
errno               0x4               c:/intelfpga_lite/20.1/nios2eds/bin/gnu/h-x86_64-mingw32/bin/../lib/gcc/nios2-elf/9.2.1/../../../../../H-x86_64-mingw32/nios2-elf/lib\libc.a(lib_a-int_errno.o)

Memory Configuration

Name             Origin             Length             Attributes
reset            0x0000000000020000 0x0000000000000020
onchip_memory2_0 0x0000000000020020 0x000000000001ffe0
*default*        0x0000000000000000 0xffffffffffffffff

Linker script and memory map

LOAD C:/Users/Emre/Documents/projectnios2/DE10_LITE_D8M_VIP_16/software/Vision_bsp/obj/HAL/src/crt0.o
LOAD obj/default/I2C_core.o
LOAD obj/default/auto_focus.o
LOAD obj/default/main.o
LOAD obj/default/mipi_bridge_config.o
LOAD obj/default/mipi_camera_config.o
LOAD obj/default/queue.o
LOAD c:/intelfpga_lite/20.1/nios2eds/bin/gnu/h-x86_64-mingw32/bin/../lib/gcc/nios2-elf/9.2.1/../../../../../H-x86_64-mingw32/nios2-elf/lib\libstdc++.a
LOAD c:/intelfpga_lite/20.1/nios2eds/bin/gnu/h-x86_64-mingw32/bin/../lib/gcc/nios2-elf/9.2.1/../../../../../H-x86_64-mingw32/nios2-elf/lib\libm.a
LOAD c:/intelfpga_lite/20.1/nios2eds/bin/gnu/h-x86_64-mingw32/bin/../lib/gcc/nios2-elf/9.2.1\libgcc.a
START GROUP
LOAD c:/intelfpga_lite/20.1/nios2eds/bin/gnu/h-x86_64-mingw32/bin/../lib/gcc/nios2-elf/9.2.1/../../../../../H-x86_64-mingw32/nios2-elf/lib\libc.a
LOAD c:/intelfpga_lite/20.1/nios2eds/bin/gnu/h-x86_64-mingw32/bin/../lib/gcc/nios2-elf/9.2.1\libgcc.a
LOAD C:/Users/Emre/Documents/projectnios2/DE10_LITE_D8M_VIP_16/software/Vision_bsp\libhal_bsp.a
LOAD c:/intelfpga_lite/20.1/nios2eds/bin/gnu/h-x86_64-mingw32/bin/../lib/gcc/nios2-elf/9.2.1/../../../../../H-x86_64-mingw32/nios2-elf/lib\libm.a
END GROUP
LOAD c:/intelfpga_lite/20.1/nios2eds/bin/gnu/h-x86_64-mingw32/bin/../lib/gcc/nios2-elf/9.2.1\libgcc.a
                0x0000000000020000                __alt_mem_onchip_memory2_0 = 0x20000

.entry          0x0000000000020000       0x20
 *(.entry)
 .entry         0x0000000000020000       0x20 C:/Users/Emre/Documents/projectnios2/DE10_LITE_D8M_VIP_16/software/Vision_bsp/obj/HAL/src/crt0.o
                0x0000000000020000                __reset

.exceptions     0x0000000000020020      0x218
                0x0000000000020020                PROVIDE (__ram_exceptions_start = ABSOLUTE (.))
                0x0000000000020020                . = ALIGN (0x20)
 *(.irq)
 *(.exceptions.entry.label)
 .exceptions.entry.label
                0x0000000000020020        0x0 C:/Users/Emre/Documents/projectnios2/DE10_LITE_D8M_VIP_16/software/Vision_bsp\libhal_bsp.a(alt_irq_entry.o)
                0x0000000000020020                alt_irq_entry
 .exceptions.entry.label
                0x0000000000020020        0x0 C:/Users/Emre/Documents/projectnios2/DE10_LITE_D8M_VIP_16/software/Vision_bsp\libhal_bsp.a(alt_exception_entry.o)
                0x0000000000020020                alt_exception
 *(.exceptions.entry.user)
 *(.exceptions.entry.ecc_fatal)
 *(.exceptions.entry)
 .exceptions.entry
                0x0000000000020020       0x54 C:/Users/Emre/Documents/projectnios2/DE10_LITE_D8M_VIP_16/software/Vision_bsp\libhal_bsp.a(alt_exception_entry.o)
 *(.exceptions.irqtest.user)
 *(.exceptions.irqtest)
 .exceptions.irqtest
                0x0000000000020074       0x10 C:/Users/Emre/Documents/projectnios2/DE10_LITE_D8M_VIP_16/software/Vision_bsp\libhal_bsp.a(alt_irq_entry.o)
 *(.exceptions.irqhandler.user)
 *(.exceptions.irqhandler)
 .exceptions.irqhandler
                0x0000000000020084        0x4 C:/Users/Emre/Documents/projectnios2/DE10_LITE_D8M_VIP_16/software/Vision_bsp\libhal_bsp.a(alt_irq_entry.o)
 *(.exceptions.irqreturn.user)
 *(.exceptions.irqreturn)
 .exceptions.irqreturn
                0x0000000000020088        0x4 C:/Users/Emre/Documents/projectnios2/DE10_LITE_D8M_VIP_16/software/Vision_bsp\libhal_bsp.a(alt_irq_entry.o)
 *(.exceptions.notirq.label)
 .exceptions.notirq.label
                0x000000000002008c        0x0 C:/Users/Emre/Documents/projectnios2/DE10_LITE_D8M_VIP_16/software/Vision_bsp\libhal_bsp.a(alt_irq_entry.o)
 *(.exceptions.notirq.user)
 *(.exceptions.notirq)
 .exceptions.notirq
                0x000000000002008c        0x8 C:/Users/Emre/Documents/projectnios2/DE10_LITE_D8M_VIP_16/software/Vision_bsp\libhal_bsp.a(alt_exception_entry.o)
 *(.exceptions.soft.user)
 *(.exceptions.soft)
 *(.exceptions.unknown.user)
 *(.exceptions.unknown)
 .exceptions.unknown
                0x0000000000020094       0x14 C:/Users/Emre/Documents/projectnios2/DE10_LITE_D8M_VIP_16/software/Vision_bsp\libhal_bsp.a(alt_exception_entry.o)
 *(.exceptions.exit.label)
 .exceptions.exit.label
                0x00000000000200a8        0x0 C:/Users/Emre/Documents/projectnios2/DE10_LITE_D8M_VIP_16/software/Vision_bsp\libhal_bsp.a(alt_irq_entry.o)
 .exceptions.exit.label
                0x00000000000200a8        0x0 C:/Users/Emre/Documents/projectnios2/DE10_LITE_D8M_VIP_16/software/Vision_bsp\libhal_bsp.a(alt_exception_entry.o)
 *(.exceptions.exit.user)
 *(.exceptions.exit)
 .exceptions.exit
                0x00000000000200a8       0x54 C:/Users/Emre/Documents/projectnios2/DE10_LITE_D8M_VIP_16/software/Vision_bsp\libhal_bsp.a(alt_exception_entry.o)
 *(.exceptions)
 .exceptions    0x00000000000200fc       0xc8 C:/Users/Emre/Documents/projectnios2/DE10_LITE_D8M_VIP_16/software/Vision_bsp\libhal_bsp.a(alt_irq_handler.o)
                0x00000000000200fc                alt_irq_handler
 .exceptions    0x00000000000201c4       0x74 C:/Users/Emre/Documents/projectnios2/DE10_LITE_D8M_VIP_16/software/Vision_bsp\libhal_bsp.a(alt_instruction_exception_entry.o)
                0x00000000000201c4                alt_instruction_exception_entry
                0x0000000000020238                PROVIDE (__ram_exceptions_end = ABSOLUTE (.))
                0x0000000000020020                PROVIDE (__flash_exceptions_start = LOADADDR (.exceptions))

.text           0x0000000000020238    0x13160
                [!provide]                        PROVIDE (stext = ABSOLUTE (.))
 *(.interp)
 *(.hash)
 *(.dynsym)
 *(.dynstr)
 *(.gnu.version)
 *(.gnu.version_d)
 *(.gnu.version_r)
 *(.rel.init)
 *(.rela.init)
 *(.rel.text .rel.text.* .rel.gnu.linkonce.t.*)
 *(.rela.text .rela.text.* .rela.gnu.linkonce.t.*)
 *(.rel.fini)
 *(.rela.fini)
 *(.rel.rodata .rel.rodata.* .rel.gnu.linkonce.r.*)
 *(.rela.rodata .rela.rodata.* .rela.gnu.linkonce.r.*)
 *(.rel.data .rel.data.* .rel.gnu.linkonce.d.*)
 *(.rela.data .rela.data.* .rela.gnu.linkonce.d.*)
 *(.rel.tdata .rel.tdata.* .rel.gnu.linkonce.td.*)
 *(.rela.tdata .rela.tdata.* .rela.gnu.linkonce.td.*)
 *(.rel.tbss .rel.tbss.* .rel.gnu.linkonce.tb.*)
 *(.rela.tbss .rela.tbss.* .rela.gnu.linkonce.tb.*)
 *(.rel.ctors)
 *(.rela.ctors)
 *(.rel.dtors)
 *(.rela.dtors)
 *(.rel.got)
 *(.rela.got)
 *(.rel.sdata .rel.sdata.* .rel.gnu.linkonce.s.*)
 *(.rela.sdata .rela.sdata.* .rela.gnu.linkonce.s.*)
 *(.rel.sbss .rel.sbss.* .rel.gnu.linkonce.sb.*)
 *(.rela.sbss .rela.sbss.* .rela.gnu.linkonce.sb.*)
 *(.rel.sdata2 .rel.sdata2.* .rel.gnu.linkonce.s2.*)
 *(.rela.sdata2 .rela.sdata2.* .rela.gnu.linkonce.s2.*)
 *(.rel.sbss2 .rel.sbss2.* .rel.gnu.linkonce.sb2.*)
 *(.rela.sbss2 .rela.sbss2.* .rela.gnu.linkonce.sb2.*)
 *(.rel.bss .rel.bss.* .rel.gnu.linkonce.b.*)
 *(.rela.bss .rela.bss.* .rela.gnu.linkonce.b.*)
 *(.rel.plt)
 *(.rela.plt)
 *(.rel.dyn)
 *(.init)
 *(.plt)
 *(.text .stub .text.* .gnu.linkonce.t.*)
 .text          0x0000000000020238       0x4c C:/Users/Emre/Documents/projectnios2/DE10_LITE_D8M_VIP_16/software/Vision_bsp/obj/HAL/src/crt0.o
                0x0000000000020238                _start
 .text          0x0000000000020284      0xdb4 obj/default/I2C_core.o
                0x0000000000020284                Write32_Data
                0x00000000000202d8                Read32_Data
                0x000000000002032c                oc_i2c_init
                0x0000000000020384                oc_i2c_init_ex
                0x00000000000204c0                oc_i2c_uninit
                0x0000000000020544                ACK_single_check
                0x00000000000205d0                ACK_check
                0x0000000000020630                OC_I2C_Write
                0x0000000000020834                ACK_judge_for_read
                0x0000000000020898                OC_I2C_Read
                0x0000000000020a68                OC_I2C_Read_Continue
                0x0000000000020ba0                OC_I2CL_Write
                0x0000000000020db4                OC_I2CL_Read
 .text          0x0000000000021038      0x358 obj/default/auto_focus.o
                0x0000000000021038                Focus_Init
                0x000000000002113c                Focus_Window
                0x0000000000021304                Focus_Released
 .text          0x0000000000021390      0x7a8 obj/default/main.o
                0x0000000000021390                mipi_clear_error
                0x0000000000021448                mipi_show_error_info
                0x00000000000214e0                mipi_show_error_info_more
                0x0000000000021658                MIPI_Init
                0x00000000000216e0                main
 .text          0x0000000000021b38      0x23c obj/default/mipi_bridge_config.o
                0x0000000000021b38                nSWAP16
                0x0000000000021b84                MipiBridgeRegWrite
                0x0000000000021bf4                MipiBridgeRegRead
                0x0000000000021c6c                MipiBridgeInit
 .text          0x0000000000021d74      0x8a4 obj/default/mipi_camera_config.o
                0x0000000000021d74                OV8865_read_cmos_sensor_8
                0x0000000000021dd8                OV8865_write_cmos_sensor_8
                0x0000000000021e48                OV8865_write_AF
                0x0000000000021eb8                OV8865_read_AF
                0x0000000000021f38                OV8865_FOCUS_Move_to
                0x0000000000022008                OV8865SetExposure
                0x00000000000220ec                OV8865SetGain
                0x00000000000221b8                OV8865ReadExposure
                0x0000000000022274                MIPI_BIN_LEVEL
                0x0000000000022434                MipiCameraInit
 .text          0x0000000000022618      0x294 obj/default/queue.o
                0x0000000000022618                QUEUE_New
                0x0000000000022684                QUEUE_Delete
                0x00000000000226b8                QUEUE_IsEmpty
                0x00000000000226f8                QUEUE_IsFull
                0x000000000002275c                QUEUE_Push
                0x00000000000227ec                QUEUE_Pop
                0x0000000000022878                QUEUE_Empty
 .text          0x00000000000228ac      0x1b4 c:/intelfpga_lite/20.1/nios2eds/bin/gnu/h-x86_64-mingw32/bin/../lib/gcc/nios2-elf/9.2.1\libgcc.a(lib2-divmod.o)
                0x00000000000228ac                __divsi3
                0x000000000002292c                __modsi3
                0x00000000000229a0                __udivsi3
                0x0000000000022a04                __umodsi3
 .text          0x0000000000022a60        0x0 c:/intelfpga_lite/20.1/nios2eds/bin/gnu/h-x86_64-mingw32/bin/../lib/gcc/nios2-elf/9.2.1/../../../../../H-x86_64-mingw32/nios2-elf/lib\libc.a(lib_a-fopen.o)
 .text._fopen_r
                0x0000000000022a60       0xf0 c:/intelfpga_lite/20.1/nios2eds/bin/gnu/h-x86_64-mingw32/bin/../lib/gcc/nios2-elf/9.2.1/../../../../../H-x86_64-mingw32/nios2-elf/lib\libc.a(lib_a-fopen.o)
                0x0000000000022a60                _fopen_r
 .text.fopen    0x0000000000022b50       0x18 c:/intelfpga_lite/20.1/nios2eds/bin/gnu/h-x86_64-mingw32/bin/../lib/gcc/nios2-elf/9.2.1/../../../../../H-x86_64-mingw32/nios2-elf/lib\libc.a(lib_a-fopen.o)
                0x0000000000022b50                fopen
 .text          0x0000000000022b68        0x0 c:/intelfpga_lite/20.1/nios2eds/bin/gnu/h-x86_64-mingw32/bin/../lib/gcc/nios2-elf/9.2.1/../../../../../H-x86_64-mingw32/nios2-elf/lib\libc.a(lib_a-fseek.o)
 .text._fseek_r
                0x0000000000022b68        0x4 c:/intelfpga_lite/20.1/nios2eds/bin/gnu/h-x86_64-mingw32/bin/../lib/gcc/nios2-elf/9.2.1/../../../../../H-x86_64-mingw32/nios2-elf/lib\libc.a(lib_a-fseek.o)
                0x0000000000022b68                _fseek_r
 .text.fseek    0x0000000000022b6c       0x1c c:/intelfpga_lite/20.1/nios2eds/bin/gnu/h-x86_64-mingw32/bin/../lib/gcc/nios2-elf/9.2.1/../../../../../H-x86_64-mingw32/nios2-elf/lib\libc.a(lib_a-fseek.o)
                0x0000000000022b6c                fseek
 .text          0x0000000000022b88        0x0 c:/intelfpga_lite/20.1/nios2eds/bin/gnu/h-x86_64-mingw32/bin/../lib/gcc/nios2-elf/9.2.1/../../../../../H-x86_64-mingw32/nios2-elf/lib\libc.a(lib_a-fseeko.o)
 .text._fseeko_r
                0x0000000000022b88      0x454 c:/intelfpga_lite/20.1/nios2eds/bin/gnu/h-x86_64-mingw32/bin/../lib/gcc/nios2-elf/9.2.1/../../../../../H-x86_64-mingw32/nios2-elf/lib\libc.a(lib_a-fseeko.o)
                0x0000000000022b88                _fseeko_r
 .text.fseeko   0x0000000000022fdc       0x1c c:/intelfpga_lite/20.1/nios2eds/bin/gnu/h-x86_64-mingw32/bin/../lib/gcc/nios2-elf/9.2.1/../../../../../H-x86_64-mingw32/nios2-elf/lib\libc.a(lib_a-fseeko.o)
                0x0000000000022fdc                fseeko
 .text          0x0000000000022ff8        0x0 c:/intelfpga_lite/20.1/nios2eds/bin/gnu/h-x86_64-mingw32/bin/../lib/gcc/nios2-elf/9.2.1/../../../../../H-x86_64-mingw32/nios2-elf/lib\libc.a(lib_a-fstatr.o)
 .text._fstat_r
                0x0000000000022ff8       0x60 c:/intelfpga_lite/20.1/nios2eds/bin/gnu/h-x86_64-mingw32/bin/../lib/gcc/nios2-elf/9.2.1/../../../../../H-x86_64-mingw32/nios2-elf/lib\libc.a(lib_a-fstatr.o)
                0x0000000000022ff8                _fstat_r
 .text          0x0000000000023058        0x0 c:/intelfpga_lite/20.1/nios2eds/bin/gnu/h-x86_64-mingw32/bin/../lib/gcc/nios2-elf/9.2.1/../../../../../H-x86_64-mingw32/nios2-elf/lib\libc.a(lib_a-fwrite.o)
 .text._fwrite_r
                0x0000000000023058       0xc4 c:/intelfpga_lite/20.1/nios2eds/bin/gnu/h-x86_64-mingw32/bin/../lib/gcc/nios2-elf/9.2.1/../../../../../H-x86_64-mingw32/nios2-elf/lib\libc.a(lib_a-fwrite.o)
                0x0000000000023058                _fwrite_r
 .text.fwrite   0x000000000002311c       0x34 c:/intelfpga_lite/20.1/nios2eds/bin/gnu/h-x86_64-mingw32/bin/../lib/gcc/nios2-elf/9.2.1/../../../../../H-x86_64-mingw32/nios2-elf/lib\libc.a(lib_a-fwrite.o)
                0x000000000002311c                fwrite
 .text          0x0000000000023150        0x0 c:/intelfpga_lite/20.1/nios2eds/bin/gnu/h-x86_64-mingw32/bin/../lib/gcc/nios2-elf/9.2.1/../../../../../H-x86_64-mingw32/nios2-elf/lib\libc.a(lib_a-getchar.o)
 .text._getchar_r
                0x0000000000023150        0x8 c:/intelfpga_lite/20.1/nios2eds/bin/gnu/h-x86_64-mingw32/bin/../lib/gcc/nios2-elf/9.2.1/../../../../../H-x86_64-mingw32/nios2-elf/lib\libc.a(lib_a-getchar.o)
                0x0000000000023150                _getchar_r
 .text.getchar  0x0000000000023158       0x10 c:/intelfpga_lite/20.1/nios2eds/bin/gnu/h-x86_64-mingw32/bin/../lib/gcc/nios2-elf/9.2.1/../../../../../H-x86_64-mingw32/nios2-elf/lib\libc.a(lib_a-getchar.o)
                0x0000000000023158                getchar
 .text          0x0000000000023168        0x0 c:/intelfpga_lite/20.1/nios2eds/bin/gnu/h-x86_64-mingw32/bin/../lib/gcc/nios2-elf/9.2.1/../../../../../H-x86_64-mingw32/nios2-elf/lib\libc.a(lib_a-impure.o)
 .text          0x0000000000023168        0x0 c:/intelfpga_lite/20.1/nios2eds/bin/gnu/h-x86_64-mingw32/bin/../lib/gcc/nios2-elf/9.2.1/../../../../../H-x86_64-mingw32/nios2-elf/lib\libc.a(lib_a-int_errno.o)
 .text          0x0000000000023168        0x0 c:/intelfpga_lite/20.1/nios2eds/bin/gnu/h-x86_64-mingw32/bin/../lib/gcc/nios2-elf/9.2.1/../../../../../H-x86_64-mingw32/nios2-elf/lib\libc.a(lib_a-makebuf.o)
 .text.__swhatbuf_r
                0x0000000000023168       0x98 c:/intelfpga_lite/20.1/nios2eds/bin/gnu/h-x86_64-mingw32/bin/../lib/gcc/nios2-elf/9.2.1/../../../../../H-x86_64-mingw32/nios2-elf/lib\libc.a(lib_a-makebuf.o)
                0x0000000000023168                __swhatbuf_r
 .text.__smakebuf_r
                0x0000000000023200      0x140 c:/intelfpga_lite/20.1/nios2eds/bin/gnu/h-x86_64-mingw32/bin/../lib/gcc/nios2-elf/9.2.1/../../../../../H-x86_64-mingw32/nios2-elf/lib\libc.a(lib_a-makebuf.o)
                0x0000000000023200                __smakebuf_r
 .text          0x0000000000023340        0x0 c:/intelfpga_lite/20.1/nios2eds/bin/gnu/h-x86_64-mingw32/bin/../lib/gcc/nios2-elf/9.2.1/../../../../../H-x86_64-mingw32/nios2-elf/lib\libc.a(lib_a-malloc.o)
 .text.malloc   0x0000000000023340       0x10 c:/intelfpga_lite/20.1/nios2eds/bin/gnu/h-x86_64-mingw32/bin/../lib/gcc/nios2-elf/9.2.1/../../../../../H-x86_64-mingw32/nios2-elf/lib\libc.a(lib_a-malloc.o)
                0x0000000000023340                malloc
 .text.free     0x0000000000023350       0x10 c:/intelfpga_lite/20.1/nios2eds/bin/gnu/h-x86_64-mingw32/bin/../lib/gcc/nios2-elf/9.2.1/../../../../../H-x86_64-mingw32/nios2-elf/lib\libc.a(lib_a-malloc.o)
                0x0000000000023350                free
 .text          0x0000000000023360        0x0 c:/intelfpga_lite/20.1/nios2eds/bin/gnu/h-x86_64-mingw32/bin/../lib/gcc/nios2-elf/9.2.1/../../../../../H-x86_64-mingw32/nios2-elf/lib\libc.a(lib_a-mallocr.o)
 .text._malloc_r
                0x0000000000023360      0x7e0 c:/intelfpga_lite/20.1/nios2eds/bin/gnu/h-x86_64-mingw32/bin/../lib/gcc/nios2-elf/9.2.1/../../../../../H-x86_64-mingw32/nios2-elf/lib\libc.a(lib_a-mallocr.o)
                0x0000000000023360                _malloc_r
 .text          0x0000000000023b40        0x0 c:/intelfpga_lite/20.1/nios2eds/bin/gnu/h-x86_64-mingw32/bin/../lib/gcc/nios2-elf/9.2.1/../../../../../H-x86_64-mingw32/nios2-elf/lib\libc.a(lib_a-memset.o)
 .text.memset   0x0000000000023b40       0xf0 c:/intelfpga_lite/20.1/nios2eds/bin/gnu/h-x86_64-mingw32/bin/../lib/gcc/nios2-elf/9.2.1/../../../../../H-x86_64-mingw32/nios2-elf/lib\libc.a(lib_a-memset.o)
                0x0000000000023b40                memset
 .text          0x0000000000023c30        0x0 c:/intelfpga_lite/20.1/nios2eds/bin/gnu/h-x86_64-mingw32/bin/../lib/gcc/nios2-elf/9.2.1/../../../../../H-x86_64-mingw32/nios2-elf/lib\libc.a(lib_a-openr.o)
 .text._open_r  0x0000000000023c30       0x64 c:/intelfpga_lite/20.1/nios2eds/bin/gnu/h-x86_64-mingw32/bin/../lib/gcc/nios2-elf/9.2.1/../../../../../H-x86_64-mingw32/nios2-elf/lib\libc.a(lib_a-openr.o)
                0x0000000000023c30                _open_r
 .text          0x0000000000023c94        0x0 c:/intelfpga_lite/20.1/nios2eds/bin/gnu/h-x86_64-mingw32/bin/../lib/gcc/nios2-elf/9.2.1/../../../../../H-x86_64-mingw32/nios2-elf/lib\libc.a(lib_a-printf.o)
 .text._printf_r
                0x0000000000023c94       0x30 c:/intelfpga_lite/20.1/nios2eds/bin/gnu/h-x86_64-mingw32/bin/../lib/gcc/nios2-elf/9.2.1/../../../../../H-x86_64-mingw32/nios2-elf/lib\libc.a(lib_a-printf.o)
                0x0000000000023c94                _printf_r
 .text.printf   0x0000000000023cc4       0x38 c:/intelfpga_lite/20.1/nios2eds/bin/gnu/h-x86_64-mingw32/bin/../lib/gcc/nios2-elf/9.2.1/../../../../../H-x86_64-mingw32/nios2-elf/lib\libc.a(lib_a-printf.o)
                0x0000000000023cc4                printf
 .text          0x0000000000023cfc        0x0 c:/intelfpga_lite/20.1/nios2eds/bin/gnu/h-x86_64-mingw32/bin/../lib/gcc/nios2-elf/9.2.1/../../../../../H-x86_64-mingw32/nios2-elf/lib\libc.a(lib_a-putchar.o)
 .text._putchar_r
                0x0000000000023cfc        0x8 c:/intelfpga_lite/20.1/nios2eds/bin/gnu/h-x86_64-mingw32/bin/../lib/gcc/nios2-elf/9.2.1/../../../../../H-x86_64-mingw32/nios2-elf/lib\libc.a(lib_a-putchar.o)
                0x0000000000023cfc                _putchar_r
 .text.putchar  0x0000000000023d04       0x18 c:/intelfpga_lite/20.1/nios2eds/bin/gnu/h-x86_64-mingw32/bin/../lib/gcc/nios2-elf/9.2.1/../../../../../H-x86_64-mingw32/nios2-elf/lib\libc.a(lib_a-putchar.o)
                0x0000000000023d04                putchar
 .text          0x0000000000023d1c        0x0 c:/intelfpga_lite/20.1/nios2eds/bin/gnu/h-x86_64-mingw32/bin/../lib/gcc/nios2-elf/9.2.1/../../../../../H-x86_64-mingw32/nios2-elf/lib\libc.a(lib_a-puts.o)
 .text._puts_r  0x0000000000023d1c       0xcc c:/intelfpga_lite/20.1/nios2eds/bin/gnu/h-x86_64-mingw32/bin/../lib/gcc/nios2-elf/9.2.1/../../../../../H-x86_64-mingw32/nios2-elf/lib\libc.a(lib_a-puts.o)
                0x0000000000023d1c                _puts_r
 .text.puts     0x0000000000023de8       0x10 c:/intelfpga_lite/20.1/nios2eds/bin/gnu/h-x86_64-mingw32/bin/../lib/gcc/nios2-elf/9.2.1/../../../../../H-x86_64-mingw32/nios2-elf/lib\libc.a(lib_a-puts.o)
                0x0000000000023de8                puts
 .text          0x0000000000023df8        0x0 c:/intelfpga_lite/20.1/nios2eds/bin/gnu/h-x86_64-mingw32/bin/../lib/gcc/nios2-elf/9.2.1/../../../../../H-x86_64-mingw32/nios2-elf/lib\libc.a(lib_a-refill.o)
 .text.lflush   0x0000000000023df8       0x1c c:/intelfpga_lite/20.1/nios2eds/bin/gnu/h-x86_64-mingw32/bin/../lib/gcc/nios2-elf/9.2.1/../../../../../H-x86_64-mingw32/nios2-elf/lib\libc.a(lib_a-refill.o)
 .text.__srefill_r
                0x0000000000023e14      0x1cc c:/intelfpga_lite/20.1/nios2eds/bin/gnu/h-x86_64-mingw32/bin/../lib/gcc/nios2-elf/9.2.1/../../../../../H-x86_64-mingw32/nios2-elf/lib\libc.a(lib_a-refill.o)
                0x0000000000023e14                __srefill_r
 .text          0x0000000000023fe0        0x0 c:/intelfpga_lite/20.1/nios2eds/bin/gnu/h-x86_64-mingw32/bin/../lib/gcc/nios2-elf/9.2.1/../../../../../H-x86_64-mingw32/nios2-elf/lib\libc.a(lib_a-sbrkr.o)
 .text._sbrk_r  0x0000000000023fe0       0x58 c:/intelfpga_lite/20.1/nios2eds/bin/gnu/h-x86_64-mingw32/bin/../lib/gcc/nios2-elf/9.2.1/../../../../../H-x86_64-mingw32/nios2-elf/lib\libc.a(lib_a-sbrkr.o)
                0x0000000000023fe0                _sbrk_r
 .text          0x0000000000024038        0x0 c:/intelfpga_lite/20.1/nios2eds/bin/gnu/h-x86_64-mingw32/bin/../lib/gcc/nios2-elf/9.2.1/../../../../../H-x86_64-mingw32/nios2-elf/lib\libc.a(lib_a-stdio.o)
 .text.__sread  0x0000000000024038       0x54 c:/intelfpga_lite/20.1/nios2eds/bin/gnu/h-x86_64-mingw32/bin/../lib/gcc/nios2-elf/9.2.1/../../../../../H-x86_64-mingw32/nios2-elf/lib\libc.a(lib_a-stdio.o)
                0x0000000000024038                __sread
 .text.__seofread
                0x000000000002408c        0x8 c:/intelfpga_lite/20.1/nios2eds/bin/gnu/h-x86_64-mingw32/bin/../lib/gcc/nios2-elf/9.2.1/../../../../../H-x86_64-mingw32/nios2-elf/lib\libc.a(lib_a-stdio.o)
                0x000000000002408c                __seofread
 .text.__swrite
                0x0000000000024094       0x80 c:/intelfpga_lite/20.1/nios2eds/bin/gnu/h-x86_64-mingw32/bin/../lib/gcc/nios2-elf/9.2.1/../../../../../H-x86_64-mingw32/nios2-elf/lib\libc.a(lib_a-stdio.o)
                0x0000000000024094                __swrite
 .text.__sseek  0x0000000000024114       0x5c c:/intelfpga_lite/20.1/nios2eds/bin/gnu/h-x86_64-mingw32/bin/../lib/gcc/nios2-elf/9.2.1/../../../../../H-x86_64-mingw32/nios2-elf/lib\libc.a(lib_a-stdio.o)
                0x0000000000024114                __sseek
 .text.__sclose
                0x0000000000024170        0x8 c:/intelfpga_lite/20.1/nios2eds/bin/gnu/h-x86_64-mingw32/bin/../lib/gcc/nios2-elf/9.2.1/../../../../../H-x86_64-mingw32/nios2-elf/lib\libc.a(lib_a-stdio.o)
                0x0000000000024170                __sclose
 .text          0x0000000000024178        0x0 c:/intelfpga_lite/20.1/nios2eds/bin/gnu/h-x86_64-mingw32/bin/../lib/gcc/nios2-elf/9.2.1/../../../../../H-x86_64-mingw32/nios2-elf/lib\libc.a(lib_a-strlen.o)
 .text.strlen   0x0000000000024178       0x98 c:/intelfpga_lite/20.1/nios2eds/bin/gnu/h-x86_64-mingw32/bin/../lib/gcc/nios2-elf/9.2.1/../../../../../H-x86_64-mingw32/nios2-elf/lib\libc.a(lib_a-strlen.o)
                0x0000000000024178                strlen
 .text          0x0000000000024210        0x0 c:/intelfpga_lite/20.1/nios2eds/bin/gnu/h-x86_64-mingw32/bin/../lib/gcc/nios2-elf/9.2.1/../../../../../H-x86_64-mingw32/nios2-elf/lib\libc.a(lib_a-vfprintf.o)
 .text.___vfprintf_internal_r
                0x0000000000024210     0x20dc c:/intelfpga_lite/20.1/nios2eds/bin/gnu/h-x86_64-mingw32/bin/../lib/gcc/nios2-elf/9.2.1/../../../../../H-x86_64-mingw32/nios2-elf/lib\libc.a(lib_a-vfprintf.o)
                0x0000000000024210                ___vfprintf_internal_r
 .text.__vfprintf_internal
                0x00000000000262ec       0x1c c:/intelfpga_lite/20.1/nios2eds/bin/gnu/h-x86_64-mingw32/bin/../lib/gcc/nios2-elf/9.2.1/../../../../../H-x86_64-mingw32/nios2-elf/lib\libc.a(lib_a-vfprintf.o)
                0x00000000000262ec                __vfprintf_internal
 .text.__sbprintf
                0x0000000000026308       0xc0 c:/intelfpga_lite/20.1/nios2eds/bin/gnu/h-x86_64-mingw32/bin/../lib/gcc/nios2-elf/9.2.1/../../../../../H-x86_64-mingw32/nios2-elf/lib\libc.a(lib_a-vfprintf.o)
 .text          0x00000000000263c8        0x0 c:/intelfpga_lite/20.1/nios2eds/bin/gnu/h-x86_64-mingw32/bin/../lib/gcc/nios2-elf/9.2.1/../../../../../H-x86_64-mingw32/nios2-elf/lib\libc.a(lib_a-writer.o)
 .text._write_r
                0x00000000000263c8       0x64 c:/intelfpga_lite/20.1/nios2eds/bin/gnu/h-x86_64-mingw32/bin/../lib/gcc/nios2-elf/9.2.1/../../../../../H-x86_64-mingw32/nios2-elf/lib\libc.a(lib_a-writer.o)
                0x00000000000263c8                _write_r
 .text          0x000000000002642c        0x0 c:/intelfpga_lite/20.1/nios2eds/bin/gnu/h-x86_64-mingw32/bin/../lib/gcc/nios2-elf/9.2.1/../../../../../H-x86_64-mingw32/nios2-elf/lib\libc.a(lib_a-wsetup.o)
 .text.__swsetup_r
                0x000000000002642c      0x15c c:/intelfpga_lite/20.1/nios2eds/bin/gnu/h-x86_64-mingw32/bin/../lib/gcc/nios2-elf/9.2.1/../../../../../H-x86_64-mingw32/nios2-elf/lib\libc.a(lib_a-wsetup.o)
                0x000000000002642c                __swsetup_r
 .text          0x0000000000026588        0x0 c:/intelfpga_lite/20.1/nios2eds/bin/gnu/h-x86_64-mingw32/bin/../lib/gcc/nios2-elf/9.2.1/../../../../../H-x86_64-mingw32/nios2-elf/lib\libc.a(closer.o)
 .text._close_r
                0x0000000000026588       0x58 c:/intelfpga_lite/20.1/nios2eds/bin/gnu/h-x86_64-mingw32/bin/../lib/gcc/nios2-elf/9.2.1/../../../../../H-x86_64-mingw32/nios2-elf/lib\libc.a(closer.o)
                0x0000000000026588                _close_r
 .text          0x00000000000265e0        0x0 c:/intelfpga_lite/20.1/nios2eds/bin/gnu/h-x86_64-mingw32/bin/../lib/gcc/nios2-elf/9.2.1/../../../../../H-x86_64-mingw32/nios2-elf/lib\libc.a(lib_a-dtoa.o)
 .text.quorem   0x00000000000265e0      0x1fc c:/intelfpga_lite/20.1/nios2eds/bin/gnu/h-x86_64-mingw32/bin/../lib/gcc/nios2-elf/9.2.1/../../../../../H-x86_64-mingw32/nios2-elf/lib\libc.a(lib_a-dtoa.o)
 .text._dtoa_r  0x00000000000267dc     0x1750 c:/intelfpga_lite/20.1/nios2eds/bin/gnu/h-x86_64-mingw32/bin/../lib/gcc/nios2-elf/9.2.1/../../../../../H-x86_64-mingw32/nios2-elf/lib\libc.a(lib_a-dtoa.o)
                0x00000000000267dc                _dtoa_r
 .text          0x0000000000027f2c        0x0 c:/intelfpga_lite/20.1/nios2eds/bin/gnu/h-x86_64-mingw32/bin/../lib/gcc/nios2-elf/9.2.1/../../../../../H-x86_64-mingw32/nios2-elf/lib\libc.a(lib_a-fflush.o)
 .text.__sflush_r
                0x0000000000027f2c      0x228 c:/intelfpga_lite/20.1/nios2eds/bin/gnu/h-x86_64-mingw32/bin/../lib/gcc/nios2-elf/9.2.1/../../../../../H-x86_64-mingw32/nios2-elf/lib\libc.a(lib_a-fflush.o)
                0x0000000000027f2c                __sflush_r
 .text._fflush_r
                0x0000000000028154       0x60 c:/intelfpga_lite/20.1/nios2eds/bin/gnu/h-x86_64-mingw32/bin/../lib/gcc/nios2-elf/9.2.1/../../../../../H-x86_64-mingw32/nios2-elf/lib\libc.a(lib_a-fflush.o)
                0x0000000000028154                _fflush_r
 .text.fflush   0x00000000000281b4       0x28 c:/intelfpga_lite/20.1/nios2eds/bin/gnu/h-x86_64-mingw32/bin/../lib/gcc/nios2-elf/9.2.1/../../../../../H-x86_64-mingw32/nios2-elf/lib\libc.a(lib_a-fflush.o)
                0x00000000000281b4                fflush
 .text          0x00000000000281dc        0x0 c:/intelfpga_lite/20.1/nios2eds/bin/gnu/h-x86_64-mingw32/bin/../lib/gcc/nios2-elf/9.2.1/../../../../../H-x86_64-mingw32/nios2-elf/lib\libc.a(lib_a-findfp.o)
 .text.__fp_lock
                0x00000000000281dc        0x8 c:/intelfpga_lite/20.1/nios2eds/bin/gnu/h-x86_64-mingw32/bin/../lib/gcc/nios2-elf/9.2.1/../../../../../H-x86_64-mingw32/nios2-elf/lib\libc.a(lib_a-findfp.o)
 .text._cleanup_r
                0x00000000000281e4        0xc c:/intelfpga_lite/20.1/nios2eds/bin/gnu/h-x86_64-mingw32/bin/../lib/gcc/nios2-elf/9.2.1/../../../../../H-x86_64-mingw32/nios2-elf/lib\libc.a(lib_a-findfp.o)
                0x00000000000281e4                _cleanup_r
 .text.__sinit.part.0
                0x00000000000281f0      0x168 c:/intelfpga_lite/20.1/nios2eds/bin/gnu/h-x86_64-mingw32/bin/../lib/gcc/nios2-elf/9.2.1/../../../../../H-x86_64-mingw32/nios2-elf/lib\libc.a(lib_a-findfp.o)
 .text.__fp_unlock
                0x0000000000028358        0x8 c:/intelfpga_lite/20.1/nios2eds/bin/gnu/h-x86_64-mingw32/bin/../lib/gcc/nios2-elf/9.2.1/../../../../../H-x86_64-mingw32/nios2-elf/lib\libc.a(lib_a-findfp.o)
 .text.__sfmoreglue
                0x0000000000028360       0x68 c:/intelfpga_lite/20.1/nios2eds/bin/gnu/h-x86_64-mingw32/bin/../lib/gcc/nios2-elf/9.2.1/../../../../../H-x86_64-mingw32/nios2-elf/lib\libc.a(lib_a-findfp.o)
                0x0000000000028360                __sfmoreglue
 .text.__sfp    0x00000000000283c8       0xfc c:/intelfpga_lite/20.1/nios2eds/bin/gnu/h-x86_64-mingw32/bin/../lib/gcc/nios2-elf/9.2.1/../../../../../H-x86_64-mingw32/nios2-elf/lib\libc.a(lib_a-findfp.o)
                0x00000000000283c8                __sfp
 .text._cleanup
                0x00000000000284c4       0x14 c:/intelfpga_lite/20.1/nios2eds/bin/gnu/h-x86_64-mingw32/bin/../lib/gcc/nios2-elf/9.2.1/../../../../../H-x86_64-mingw32/nios2-elf/lib\libc.a(lib_a-findfp.o)
                0x00000000000284c4                _cleanup
 .text.__sinit  0x00000000000284d8       0x10 c:/intelfpga_lite/20.1/nios2eds/bin/gnu/h-x86_64-mingw32/bin/../lib/gcc/nios2-elf/9.2.1/../../../../../H-x86_64-mingw32/nios2-elf/lib\libc.a(lib_a-findfp.o)
                0x00000000000284d8                __sinit
 .text.__sfp_lock_acquire
                0x00000000000284e8        0x4 c:/intelfpga_lite/20.1/nios2eds/bin/gnu/h-x86_64-mingw32/bin/../lib/gcc/nios2-elf/9.2.1/../../../../../H-x86_64-mingw32/nios2-elf/lib\libc.a(lib_a-findfp.o)
                0x00000000000284e8                __sfp_lock_acquire
 .text.__sfp_lock_release
                0x00000000000284ec        0x4 c:/intelfpga_lite/20.1/nios2eds/bin/gnu/h-x86_64-mingw32/bin/../lib/gcc/nios2-elf/9.2.1/../../../../../H-x86_64-mingw32/nios2-elf/lib\libc.a(lib_a-findfp.o)
                0x00000000000284ec                __sfp_lock_release
 .text.__sinit_lock_acquire
                0x00000000000284f0        0x4 c:/intelfpga_lite/20.1/nios2eds/bin/gnu/h-x86_64-mingw32/bin/../lib/gcc/nios2-elf/9.2.1/../../../../../H-x86_64-mingw32/nios2-elf/lib\libc.a(lib_a-findfp.o)
                0x00000000000284f0                __sinit_lock_acquire
 .text.__sinit_lock_release
                0x00000000000284f4        0x4 c:/intelfpga_lite/20.1/nios2eds/bin/gnu/h-x86_64-mingw32/bin/../lib/gcc/nios2-elf/9.2.1/../../../../../H-x86_64-mingw32/nios2-elf/lib\libc.a(lib_a-findfp.o)
                0x00000000000284f4                __sinit_lock_release
 .text.__fp_lock_all
                0x00000000000284f8       0x14 c:/intelfpga_lite/20.1/nios2eds/bin/gnu/h-x86_64-mingw32/bin/../lib/gcc/nios2-elf/9.2.1/../../../../../H-x86_64-mingw32/nios2-elf/lib\libc.a(lib_a-findfp.o)
                0x00000000000284f8                __fp_lock_all
 .text.__fp_unlock_all
                0x000000000002850c       0x14 c:/intelfpga_lite/20.1/nios2eds/bin/gnu/h-x86_64-mingw32/bin/../lib/gcc/nios2-elf/9.2.1/../../../../../H-x86_64-mingw32/nios2-elf/lib\libc.a(lib_a-findfp.o)
                0x000000000002850c                __fp_unlock_all
 .text          0x0000000000028520        0x0 c:/intelfpga_lite/20.1/nios2eds/bin/gnu/h-x86_64-mingw32/bin/../lib/gcc/nios2-elf/9.2.1/../../../../../H-x86_64-mingw32/nios2-elf/lib\libc.a(lib_a-flags.o)
 .text.__sflags
                0x0000000000028520       0xb8 c:/intelfpga_lite/20.1/nios2eds/bin/gnu/h-x86_64-mingw32/bin/../lib/gcc/nios2-elf/9.2.1/../../../../../H-x86_64-mingw32/nios2-elf/lib\libc.a(lib_a-flags.o)
                0x0000000000028520                __sflags
 .text          0x00000000000285d8        0x0 c:/intelfpga_lite/20.1/nios2eds/bin/gnu/h-x86_64-mingw32/bin/../lib/gcc/nios2-elf/9.2.1/../../../../../H-x86_64-mingw32/nios2-elf/lib\libc.a(lib_a-freer.o)
 .text._malloc_trim_r
                0x00000000000285d8      0x11c c:/intelfpga_lite/20.1/nios2eds/bin/gnu/h-x86_64-mingw32/bin/../lib/gcc/nios2-elf/9.2.1/../../../../../H-x86_64-mingw32/nios2-elf/lib\libc.a(lib_a-freer.o)
                0x00000000000285d8                _malloc_trim_r
 .text._free_r  0x00000000000286f4      0x2fc c:/intelfpga_lite/20.1/nios2eds/bin/gnu/h-x86_64-mingw32/bin/../lib/gcc/nios2-elf/9.2.1/../../../../../H-x86_64-mingw32/nios2-elf/lib\libc.a(lib_a-freer.o)
                0x00000000000286f4                _free_r
 .text          0x00000000000289f0        0x0 c:/intelfpga_lite/20.1/nios2eds/bin/gnu/h-x86_64-mingw32/bin/../lib/gcc/nios2-elf/9.2.1/../../../../../H-x86_64-mingw32/nios2-elf/lib\libc.a(lib_a-fvwrite.o)
 .text.__sfvwrite_r
                0x00000000000289f0      0x4bc c:/intelfpga_lite/20.1/nios2eds/bin/gnu/h-x86_64-mingw32/bin/../lib/gcc/nios2-elf/9.2.1/../../../../../H-x86_64-mingw32/nios2-elf/lib\libc.a(lib_a-fvwrite.o)
                0x00000000000289f0                __sfvwrite_r
 .text          0x0000000000028eac        0x0 c:/intelfpga_lite/20.1/nios2eds/bin/gnu/h-x86_64-mingw32/bin/../lib/gcc/nios2-elf/9.2.1/../../../../../H-x86_64-mingw32/nios2-elf/lib\libc.a(lib_a-fwalk.o)
 .text._fwalk   0x0000000000028eac       0x98 c:/intelfpga_lite/20.1/nios2eds/bin/gnu/h-x86_64-mingw32/bin/../lib/gcc/nios2-elf/9.2.1/../../../../../H-x86_64-mingw32/nios2-elf/lib\libc.a(lib_a-fwalk.o)
                0x0000000000028eac                _fwalk
 .text._fwalk_reent
                0x0000000000028f44       0xa8 c:/intelfpga_lite/20.1/nios2eds/bin/gnu/h-x86_64-mingw32/bin/../lib/gcc/nios2-elf/9.2.1/../../../../../H-x86_64-mingw32/nios2-elf/lib\libc.a(lib_a-fwalk.o)
                0x0000000000028f44                _fwalk_reent
 .text          0x0000000000028fec        0x0 c:/intelfpga_lite/20.1/nios2eds/bin/gnu/h-x86_64-mingw32/bin/../lib/gcc/nios2-elf/9.2.1/../../../../../H-x86_64-mingw32/nios2-elf/lib\libc.a(lib_a-getc.o)
 .text._getc_r  0x0000000000028fec       0x7c c:/intelfpga_lite/20.1/nios2eds/bin/gnu/h-x86_64-mingw32/bin/../lib/gcc/nios2-elf/9.2.1/../../../../../H-x86_64-mingw32/nios2-elf/lib\libc.a(lib_a-getc.o)
                0x0000000000028fec                _getc_r
 .text.getc     0x0000000000029068       0x90 c:/intelfpga_lite/20.1/nios2eds/bin/gnu/h-x86_64-mingw32/bin/../lib/gcc/nios2-elf/9.2.1/../../../../../H-x86_64-mingw32/nios2-elf/lib\libc.a(lib_a-getc.o)
                0x0000000000029068                getc
 .text          0x00000000000290f8        0x0 c:/intelfpga_lite/20.1/nios2eds/bin/gnu/h-x86_64-mingw32/bin/../lib/gcc/nios2-elf/9.2.1/../../../../../H-x86_64-mingw32/nios2-elf/lib\libc.a(lib_a-isattyr.o)
 .text._isatty_r
                0x00000000000290f8       0x58 c:/intelfpga_lite/20.1/nios2eds/bin/gnu/h-x86_64-mingw32/bin/../lib/gcc/nios2-elf/9.2.1/../../../../../H-x86_64-mingw32/nios2-elf/lib\libc.a(lib_a-isattyr.o)
                0x00000000000290f8                _isatty_r
 .text          0x0000000000029150        0x0 c:/intelfpga_lite/20.1/nios2eds/bin/gnu/h-x86_64-mingw32/bin/../lib/gcc/nios2-elf/9.2.1/../../../../../H-x86_64-mingw32/nios2-elf/lib\libc.a(lib_a-localeconv.o)
 .text.__localeconv_l
                0x0000000000029150        0x8 c:/intelfpga_lite/20.1/nios2eds/bin/gnu/h-x86_64-mingw32/bin/../lib/gcc/nios2-elf/9.2.1/../../../../../H-x86_64-mingw32/nios2-elf/lib\libc.a(lib_a-localeconv.o)
                0x0000000000029150                __localeconv_l
 .text._localeconv_r
                0x0000000000029158        0xc c:/intelfpga_lite/20.1/nios2eds/bin/gnu/h-x86_64-mingw32/bin/../lib/gcc/nios2-elf/9.2.1/../../../../../H-x86_64-mingw32/nios2-elf/lib\libc.a(lib_a-localeconv.o)
                0x0000000000029158                _localeconv_r
 .text.localeconv
                0x0000000000029164        0xc c:/intelfpga_lite/20.1/nios2eds/bin/gnu/h-x86_64-mingw32/bin/../lib/gcc/nios2-elf/9.2.1/../../../../../H-x86_64-mingw32/nios2-elf/lib\libc.a(lib_a-localeconv.o)
                0x0000000000029164                localeconv
 .text          0x0000000000029170        0x0 c:/intelfpga_lite/20.1/nios2eds/bin/gnu/h-x86_64-mingw32/bin/../lib/gcc/nios2-elf/9.2.1/../../../../../H-x86_64-mingw32/nios2-elf/lib\libc.a(lib_a-lseekr.o)
 .text._lseek_r
                0x0000000000029170       0x64 c:/intelfpga_lite/20.1/nios2eds/bin/gnu/h-x86_64-mingw32/bin/../lib/gcc/nios2-elf/9.2.1/../../../../../H-x86_64-mingw32/nios2-elf/lib\libc.a(lib_a-lseekr.o)
                0x0000000000029170                _lseek_r
 .text          0x00000000000291d4        0x0 c:/intelfpga_lite/20.1/nios2eds/bin/gnu/h-x86_64-mingw32/bin/../lib/gcc/nios2-elf/9.2.1/../../../../../H-x86_64-mingw32/nios2-elf/lib\libc.a(lib_a-memchr.o)
 .text.memchr   0x00000000000291d4       0xd4 c:/intelfpga_lite/20.1/nios2eds/bin/gnu/h-x86_64-mingw32/bin/../lib/gcc/nios2-elf/9.2.1/../../../../../H-x86_64-mingw32/nios2-elf/lib\libc.a(lib_a-memchr.o)
                0x00000000000291d4                memchr
 .text          0x00000000000292a8        0x0 c:/intelfpga_lite/20.1/nios2eds/bin/gnu/h-x86_64-mingw32/bin/../lib/gcc/nios2-elf/9.2.1/../../../../../H-x86_64-mingw32/nios2-elf/lib\libc.a(lib_a-memcpy.o)
 .text.memcpy   0x00000000000292a8      0x100 c:/intelfpga_lite/20.1/nios2eds/bin/gnu/h-x86_64-mingw32/bin/../lib/gcc/nios2-elf/9.2.1/../../../../../H-x86_64-mingw32/nios2-elf/lib\libc.a(lib_a-memcpy.o)
                0x00000000000292a8                memcpy
 .text          0x00000000000293a8        0x0 c:/intelfpga_lite/20.1/nios2eds/bin/gnu/h-x86_64-mingw32/bin/../lib/gcc/nios2-elf/9.2.1/../../../../../H-x86_64-mingw32/nios2-elf/lib\libc.a(lib_a-memmove.o)
 .text.memmove  0x00000000000293a8      0x12c c:/intelfpga_lite/20.1/nios2eds/bin/gnu/h-x86_64-mingw32/bin/../lib/gcc/nios2-elf/9.2.1/../../../../../H-x86_64-mingw32/nios2-elf/lib\libc.a(lib_a-memmove.o)
                0x00000000000293a8                memmove
 .text          0x00000000000294d4        0x0 c:/intelfpga_lite/20.1/nios2eds/bin/gnu/h-x86_64-mingw32/bin/../lib/gcc/nios2-elf/9.2.1/../../../../../H-x86_64-mingw32/nios2-elf/lib\libc.a(lib_a-mprec.o)
 .text._Balloc  0x00000000000294d4       0xa4 c:/intelfpga_lite/20.1/nios2eds/bin/gnu/h-x86_64-mingw32/bin/../lib/gcc/nios2-elf/9.2.1/../../../../../H-x86_64-mingw32/nios2-elf/lib\libc.a(lib_a-mprec.o)
                0x00000000000294d4                _Balloc
 .text._Bfree   0x0000000000029578       0x24 c:/intelfpga_lite/20.1/nios2eds/bin/gnu/h-x86_64-mingw32/bin/../lib/gcc/nios2-elf/9.2.1/../../../../../H-x86_64-mingw32/nios2-elf/lib\libc.a(lib_a-mprec.o)
                0x0000000000029578                _Bfree
 .text.__multadd
                0x000000000002959c      0x138 c:/intelfpga_lite/20.1/nios2eds/bin/gnu/h-x86_64-mingw32/bin/../lib/gcc/nios2-elf/9.2.1/../../../../../H-x86_64-mingw32/nios2-elf/lib\libc.a(lib_a-mprec.o)
                0x000000000002959c                __multadd
 .text.__s2b    0x00000000000296d4      0x138 c:/intelfpga_lite/20.1/nios2eds/bin/gnu/h-x86_64-mingw32/bin/../lib/gcc/nios2-elf/9.2.1/../../../../../H-x86_64-mingw32/nios2-elf/lib\libc.a(lib_a-mprec.o)
                0x00000000000296d4                __s2b
 .text.__hi0bits
                0x000000000002980c       0x64 c:/intelfpga_lite/20.1/nios2eds/bin/gnu/h-x86_64-mingw32/bin/../lib/gcc/nios2-elf/9.2.1/../../../../../H-x86_64-mingw32/nios2-elf/lib\libc.a(lib_a-mprec.o)
                0x000000000002980c                __hi0bits
 .text.__lo0bits
                0x0000000000029870       0xb0 c:/intelfpga_lite/20.1/nios2eds/bin/gnu/h-x86_64-mingw32/bin/../lib/gcc/nios2-elf/9.2.1/../../../../../H-x86_64-mingw32/nios2-elf/lib\libc.a(lib_a-mprec.o)
                0x0000000000029870                __lo0bits
 .text.__i2b    0x0000000000029920       0x54 c:/intelfpga_lite/20.1/nios2eds/bin/gnu/h-x86_64-mingw32/bin/../lib/gcc/nios2-elf/9.2.1/../../../../../H-x86_64-mingw32/nios2-elf/lib\libc.a(lib_a-mprec.o)
                0x0000000000029920                __i2b
 .text.__multiply
                0x0000000000029974      0x230 c:/intelfpga_lite/20.1/nios2eds/bin/gnu/h-x86_64-mingw32/bin/../lib/gcc/nios2-elf/9.2.1/../../../../../H-x86_64-mingw32/nios2-elf/lib\libc.a(lib_a-mprec.o)
                0x0000000000029974                __multiply
 .text.__pow5mult
                0x0000000000029ba4      0x118 c:/intelfpga_lite/20.1/nios2eds/bin/gnu/h-x86_64-mingw32/bin/../lib/gcc/nios2-elf/9.2.1/../../../../../H-x86_64-mingw32/nios2-elf/lib\libc.a(lib_a-mprec.o)
                0x0000000000029ba4                __pow5mult
 .text.__lshift
                0x0000000000029cbc      0x188 c:/intelfpga_lite/20.1/nios2eds/bin/gnu/h-x86_64-mingw32/bin/../lib/gcc/nios2-elf/9.2.1/../../../../../H-x86_64-mingw32/nios2-elf/lib\libc.a(lib_a-mprec.o)
                0x0000000000029cbc                __lshift
 .text.__mcmp   0x0000000000029e44       0x58 c:/intelfpga_lite/20.1/nios2eds/bin/gnu/h-x86_64-mingw32/bin/../lib/gcc/nios2-elf/9.2.1/../../../../../H-x86_64-mingw32/nios2-elf/lib\libc.a(lib_a-mprec.o)
                0x0000000000029e44                __mcmp
 .text.__mdiff  0x0000000000029e9c      0x22c c:/intelfpga_lite/20.1/nios2eds/bin/gnu/h-x86_64-mingw32/bin/../lib/gcc/nios2-elf/9.2.1/../../../../../H-x86_64-mingw32/nios2-elf/lib\libc.a(lib_a-mprec.o)
                0x0000000000029e9c                __mdiff
 .text.__ulp    0x000000000002a0c8       0x5c c:/intelfpga_lite/20.1/nios2eds/bin/gnu/h-x86_64-mingw32/bin/../lib/gcc/nios2-elf/9.2.1/../../../../../H-x86_64-mingw32/nios2-elf/lib\libc.a(lib_a-mprec.o)
                0x000000000002a0c8                __ulp
 .text.__b2d    0x000000000002a124      0x104 c:/intelfpga_lite/20.1/nios2eds/bin/gnu/h-x86_64-mingw32/bin/../lib/gcc/nios2-elf/9.2.1/../../../../../H-x86_64-mingw32/nios2-elf/lib\libc.a(lib_a-mprec.o)
                0x000000000002a124                __b2d
 .text.__d2b    0x000000000002a228      0x164 c:/intelfpga_lite/20.1/nios2eds/bin/gnu/h-x86_64-mingw32/bin/../lib/gcc/nios2-elf/9.2.1/../../../../../H-x86_64-mingw32/nios2-elf/lib\libc.a(lib_a-mprec.o)
                0x000000000002a228                __d2b
 .text.__ratio  0x000000000002a38c       0xa8 c:/intelfpga_lite/20.1/nios2eds/bin/gnu/h-x86_64-mingw32/bin/../lib/gcc/nios2-elf/9.2.1/../../../../../H-x86_64-mingw32/nios2-elf/lib\libc.a(lib_a-mprec.o)
                0x000000000002a38c                __ratio
 .text._mprec_log10
                0x000000000002a434       0x70 c:/intelfpga_lite/20.1/nios2eds/bin/gnu/h-x86_64-mingw32/bin/../lib/gcc/nios2-elf/9.2.1/../../../../../H-x86_64-mingw32/nios2-elf/lib\libc.a(lib_a-mprec.o)
                0x000000000002a434                _mprec_log10
 .text.__copybits
                0x000000000002a4a4       0x6c c:/intelfpga_lite/20.1/nios2eds/bin/gnu/h-x86_64-mingw32/bin/../lib/gcc/nios2-elf/9.2.1/../../../../../H-x86_64-mingw32/nios2-elf/lib\libc.a(lib_a-mprec.o)
                0x000000000002a4a4                __copybits
 .text.__any_on
                0x000000000002a510       0x60 c:/intelfpga_lite/20.1/nios2eds/bin/gnu/h-x86_64-mingw32/bin/../lib/gcc/nios2-elf/9.2.1/../../../../../H-x86_64-mingw32/nios2-elf/lib\libc.a(lib_a-mprec.o)
                0x000000000002a510                __any_on
 .text          0x000000000002a570        0x0 c:/intelfpga_lite/20.1/nios2eds/bin/gnu/h-x86_64-mingw32/bin/../lib/gcc/nios2-elf/9.2.1/../../../../../H-x86_64-mingw32/nios2-elf/lib\libc.a(lib_a-putc.o)
 .text._putc_r  0x000000000002a570       0xcc c:/intelfpga_lite/20.1/nios2eds/bin/gnu/h-x86_64-mingw32/bin/../lib/gcc/nios2-elf/9.2.1/../../../../../H-x86_64-mingw32/nios2-elf/lib\libc.a(lib_a-putc.o)
                0x000000000002a570                _putc_r
 .text.putc     0x000000000002a63c       0xe0 c:/intelfpga_lite/20.1/nios2eds/bin/gnu/h-x86_64-mingw32/bin/../lib/gcc/nios2-elf/9.2.1/../../../../../H-x86_64-mingw32/nios2-elf/lib\libc.a(lib_a-putc.o)
                0x000000000002a63c                putc
 .text          0x000000000002a71c        0x0 c:/intelfpga_lite/20.1/nios2eds/bin/gnu/h-x86_64-mingw32/bin/../lib/gcc/nios2-elf/9.2.1/../../../../../H-x86_64-mingw32/nios2-elf/lib\libc.a(lib_a-readr.o)
 .text._read_r  0x000000000002a71c       0x64 c:/intelfpga_lite/20.1/nios2eds/bin/gnu/h-x86_64-mingw32/bin/../lib/gcc/nios2-elf/9.2.1/../../../../../H-x86_64-mingw32/nios2-elf/lib\libc.a(lib_a-readr.o)
                0x000000000002a71c                _read_r
 .text          0x000000000002a780        0x0 c:/intelfpga_lite/20.1/nios2eds/bin/gnu/h-x86_64-mingw32/bin/../lib/gcc/nios2-elf/9.2.1/../../../../../H-x86_64-mingw32/nios2-elf/lib\libc.a(lib_a-reallocr.o)
 .text._realloc_r
                0x000000000002a780      0x564 c:/intelfpga_lite/20.1/nios2eds/bin/gnu/h-x86_64-mingw32/bin/../lib/gcc/nios2-elf/9.2.1/../../../../../H-x86_64-mingw32/nios2-elf/lib\libc.a(lib_a-reallocr.o)
                0x000000000002a780                _realloc_r
 .text          0x000000000002ace4        0x0 c:/intelfpga_lite/20.1/nios2eds/bin/gnu/h-x86_64-mingw32/bin/../lib/gcc/nios2-elf/9.2.1/../../../../../H-x86_64-mingw32/nios2-elf/lib\libc.a(lib_a-rget.o)
 .text.__srget_r
                0x000000000002ace4       0x74 c:/intelfpga_lite/20.1/nios2eds/bin/gnu/h-x86_64-mingw32/bin/../lib/gcc/nios2-elf/9.2.1/../../../../../H-x86_64-mingw32/nios2-elf/lib\libc.a(lib_a-rget.o)
                0x000000000002ace4                __srget_r
 .text.__srget  0x000000000002ad58       0x10 c:/intelfpga_lite/20.1/nios2eds/bin/gnu/h-x86_64-mingw32/bin/../lib/gcc/nios2-elf/9.2.1/../../../../../H-x86_64-mingw32/nios2-elf/lib\libc.a(lib_a-rget.o)
                0x000000000002ad58                __srget
 .text          0x000000000002ad68        0x0 c:/intelfpga_lite/20.1/nios2eds/bin/gnu/h-x86_64-mingw32/bin/../lib/gcc/nios2-elf/9.2.1/../../../../../H-x86_64-mingw32/nios2-elf/lib\libc.a(lib_a-vfiprintf.o)
 .text.__sprint_r.part.0
                0x000000000002ad68       0xf4 c:/intelfpga_lite/20.1/nios2eds/bin/gnu/h-x86_64-mingw32/bin/../lib/gcc/nios2-elf/9.2.1/../../../../../H-x86_64-mingw32/nios2-elf/lib\libc.a(lib_a-vfiprintf.o)
 .text.__sprint_r
                0x000000000002ae5c       0x18 c:/intelfpga_lite/20.1/nios2eds/bin/gnu/h-x86_64-mingw32/bin/../lib/gcc/nios2-elf/9.2.1/../../../../../H-x86_64-mingw32/nios2-elf/lib\libc.a(lib_a-vfiprintf.o)
                0x000000000002ae5c                __sprint_r
 .text.___vfiprintf_internal_r
                0x000000000002ae74     0x1304 c:/intelfpga_lite/20.1/nios2eds/bin/gnu/h-x86_64-mingw32/bin/../lib/gcc/nios2-elf/9.2.1/../../../../../H-x86_64-mingw32/nios2-elf/lib\libc.a(lib_a-vfiprintf.o)
                0x000000000002ae74                ___vfiprintf_internal_r
 .text.__vfiprintf_internal
                0x000000000002c178       0x1c c:/intelfpga_lite/20.1/nios2eds/bin/gnu/h-x86_64-mingw32/bin/../lib/gcc/nios2-elf/9.2.1/../../../../../H-x86_64-mingw32/nios2-elf/lib\libc.a(lib_a-vfiprintf.o)
                0x000000000002c178                __vfiprintf_internal
 .text.__sbprintf
                0x000000000002c194       0xc0 c:/intelfpga_lite/20.1/nios2eds/bin/gnu/h-x86_64-mingw32/bin/../lib/gcc/nios2-elf/9.2.1/../../../../../H-x86_64-mingw32/nios2-elf/lib\libc.a(lib_a-vfiprintf.o)
 .text          0x000000000002c254        0x0 c:/intelfpga_lite/20.1/nios2eds/bin/gnu/h-x86_64-mingw32/bin/../lib/gcc/nios2-elf/9.2.1/../../../../../H-x86_64-mingw32/nios2-elf/lib\libc.a(lib_a-wbuf.o)
 .text.__swbuf_r
                0x000000000002c254      0x148 c:/intelfpga_lite/20.1/nios2eds/bin/gnu/h-x86_64-mingw32/bin/../lib/gcc/nios2-elf/9.2.1/../../../../../H-x86_64-mingw32/nios2-elf/lib\libc.a(lib_a-wbuf.o)
                0x000000000002c254                __swbuf_r
 .text.__swbuf  0x000000000002c39c       0x18 c:/intelfpga_lite/20.1/nios2eds/bin/gnu/h-x86_64-mingw32/bin/../lib/gcc/nios2-elf/9.2.1/../../../../../H-x86_64-mingw32/nios2-elf/lib\libc.a(lib_a-wbuf.o)
                0x000000000002c39c                __swbuf
 .text          0x000000000002c3b4        0x0 c:/intelfpga_lite/20.1/nios2eds/bin/gnu/h-x86_64-mingw32/bin/../lib/gcc/nios2-elf/9.2.1/../../../../../H-x86_64-mingw32/nios2-elf/lib\libc.a(lib_a-assert.o)
 .text.__assert_func
                0x000000000002c3b4       0x64 c:/intelfpga_lite/20.1/nios2eds/bin/gnu/h-x86_64-mingw32/bin/../lib/gcc/nios2-elf/9.2.1/../../../../../H-x86_64-mingw32/nios2-elf/lib\libc.a(lib_a-assert.o)
                0x000000000002c3b4                __assert_func
 .text.__assert
                0x000000000002c418       0x14 c:/intelfpga_lite/20.1/nios2eds/bin/gnu/h-x86_64-mingw32/bin/../lib/gcc/nios2-elf/9.2.1/../../../../../H-x86_64-mingw32/nios2-elf/lib\libc.a(lib_a-assert.o)
                0x000000000002c418                __assert
 .text          0x000000000002c42c        0x0 c:/intelfpga_lite/20.1/nios2eds/bin/gnu/h-x86_64-mingw32/bin/../lib/gcc/nios2-elf/9.2.1/../../../../../H-x86_64-mingw32/nios2-elf/lib\libc.a(lib_a-callocr.o)
 .text._calloc_r
                0x000000000002c42c       0xb4 c:/intelfpga_lite/20.1/nios2eds/bin/gnu/h-x86_64-mingw32/bin/../lib/gcc/nios2-elf/9.2.1/../../../../../H-x86_64-mingw32/nios2-elf/lib\libc.a(lib_a-callocr.o)
                0x000000000002c42c                _calloc_r
 .text          0x000000000002c4e0        0x0 c:/intelfpga_lite/20.1/nios2eds/bin/gnu/h-x86_64-mingw32/bin/../lib/gcc/nios2-elf/9.2.1/../../../../../H-x86_64-mingw32/nios2-elf/lib\libc.a(lib_a-fclose.o)
 .text._fclose_r
                0x000000000002c4e0       0xf8 c:/intelfpga_lite/20.1/nios2eds/bin/gnu/h-x86_64-mingw32/bin/../lib/gcc/nios2-elf/9.2.1/../../../../../H-x86_64-mingw32/nios2-elf/lib\libc.a(lib_a-fclose.o)
                0x000000000002c4e0                _fclose_r
 .text.fclose   0x000000000002c5d8       0x10 c:/intelfpga_lite/20.1/nios2eds/bin/gnu/h-x86_64-mingw32/bin/../lib/gcc/nios2-elf/9.2.1/../../../../../H-x86_64-mingw32/nios2-elf/lib\libc.a(lib_a-fclose.o)
                0x000000000002c5d8                fclose
 .text          0x000000000002c5e8        0x0 c:/intelfpga_lite/20.1/nios2eds/bin/gnu/h-x86_64-mingw32/bin/../lib/gcc/nios2-elf/9.2.1/../../../../../H-x86_64-mingw32/nios2-elf/lib\libc.a(lib_a-fiprintf.o)
 .text._fiprintf_r
                0x000000000002c5e8       0x20 c:/intelfpga_lite/20.1/nios2eds/bin/gnu/h-x86_64-mingw32/bin/../lib/gcc/nios2-elf/9.2.1/../../../../../H-x86_64-mingw32/nios2-elf/lib\libc.a(lib_a-fiprintf.o)
                0x000000000002c5e8                _fiprintf_r
 .text.fiprintf
                0x000000000002c608       0x38 c:/intelfpga_lite/20.1/nios2eds/bin/gnu/h-x86_64-mingw32/bin/../lib/gcc/nios2-elf/9.2.1/../../../../../H-x86_64-mingw32/nios2-elf/lib\libc.a(lib_a-fiprintf.o)
                0x000000000002c608                fiprintf
 .text          0x000000000002c640        0x0 c:/intelfpga_lite/20.1/nios2eds/bin/gnu/h-x86_64-mingw32/bin/../lib/gcc/nios2-elf/9.2.1/../../../../../H-x86_64-mingw32/nios2-elf/lib\libc.a(lib_a-fputwc.o)
 .text.__fputwc
                0x000000000002c640      0x164 c:/intelfpga_lite/20.1/nios2eds/bin/gnu/h-x86_64-mingw32/bin/../lib/gcc/nios2-elf/9.2.1/../../../../../H-x86_64-mingw32/nios2-elf/lib\libc.a(lib_a-fputwc.o)
                0x000000000002c640                __fputwc
 .text._fputwc_r
                0x000000000002c7a4       0x24 c:/intelfpga_lite/20.1/nios2eds/bin/gnu/h-x86_64-mingw32/bin/../lib/gcc/nios2-elf/9.2.1/../../../../../H-x86_64-mingw32/nios2-elf/lib\libc.a(lib_a-fputwc.o)
                0x000000000002c7a4                _fputwc_r
 .text.fputwc   0x000000000002c7c8       0x78 c:/intelfpga_lite/20.1/nios2eds/bin/gnu/h-x86_64-mingw32/bin/../lib/gcc/nios2-elf/9.2.1/../../../../../H-x86_64-mingw32/nios2-elf/lib\libc.a(lib_a-fputwc.o)
                0x000000000002c7c8                fputwc
 .text          0x000000000002c840        0x0 c:/intelfpga_lite/20.1/nios2eds/bin/gnu/h-x86_64-mingw32/bin/../lib/gcc/nios2-elf/9.2.1/../../../../../H-x86_64-mingw32/nios2-elf/lib\libc.a(lib_a-locale.o)
 .text._setlocale_r
                0x000000000002c840       0x74 c:/intelfpga_lite/20.1/nios2eds/bin/gnu/h-x86_64-mingw32/bin/../lib/gcc/nios2-elf/9.2.1/../../../../../H-x86_64-mingw32/nios2-elf/lib\libc.a(lib_a-locale.o)
                0x000000000002c840                _setlocale_r
 .text.__locale_mb_cur_max
                0x000000000002c8b4        0xc c:/intelfpga_lite/20.1/nios2eds/bin/gnu/h-x86_64-mingw32/bin/../lib/gcc/nios2-elf/9.2.1/../../../../../H-x86_64-mingw32/nios2-elf/lib\libc.a(lib_a-locale.o)
                0x000000000002c8b4                __locale_mb_cur_max
 .text.setlocale
                0x000000000002c8c0       0x18 c:/intelfpga_lite/20.1/nios2eds/bin/gnu/h-x86_64-mingw32/bin/../lib/gcc/nios2-elf/9.2.1/../../../../../H-x86_64-mingw32/nios2-elf/lib\libc.a(lib_a-locale.o)
                0x000000000002c8c0                setlocale
 .text          0x000000000002c8d8        0x0 c:/intelfpga_lite/20.1/nios2eds/bin/gnu/h-x86_64-mingw32/bin/../lib/gcc/nios2-elf/9.2.1/../../../../../H-x86_64-mingw32/nios2-elf/lib\libc.a(lib_a-mbtowc_r.o)
 .text._mbtowc_r
                0x000000000002c8d8        0xc c:/intelfpga_lite/20.1/nios2eds/bin/gnu/h-x86_64-mingw32/bin/../lib/gcc/nios2-elf/9.2.1/../../../../../H-x86_64-mingw32/nios2-elf/lib\libc.a(lib_a-mbtowc_r.o)
                0x000000000002c8d8                _mbtowc_r
 .text.__ascii_mbtowc
                0x000000000002c8e4       0x44 c:/intelfpga_lite/20.1/nios2eds/bin/gnu/h-x86_64-mingw32/bin/../lib/gcc/nios2-elf/9.2.1/../../../../../H-x86_64-mingw32/nios2-elf/lib\libc.a(lib_a-mbtowc_r.o)
                0x000000000002c8e4                __ascii_mbtowc
 .text          0x000000000002c928        0x0 c:/intelfpga_lite/20.1/nios2eds/bin/gnu/h-x86_64-mingw32/bin/../lib/gcc/nios2-elf/9.2.1/../../../../../H-x86_64-mingw32/nios2-elf/lib\libc.a(lib_a-strcmp.o)
 .text.strcmp   0x000000000002c928       0xb8 c:/intelfpga_lite/20.1/nios2eds/bin/gnu/h-x86_64-mingw32/bin/../lib/gcc/nios2-elf/9.2.1/../../../../../H-x86_64-mingw32/nios2-elf/lib\libc.a(lib_a-strcmp.o)
                0x000000000002c928                strcmp
 .text          0x000000000002c9e0        0x0 c:/intelfpga_lite/20.1/nios2eds/bin/gnu/h-x86_64-mingw32/bin/../lib/gcc/nios2-elf/9.2.1/../../../../../H-x86_64-mingw32/nios2-elf/lib\libc.a(lib_a-vfiprintfr_1.o)
 .text._vfiprintf_r
                0x000000000002c9e0        0x4 c:/intelfpga_lite/20.1/nios2eds/bin/gnu/h-x86_64-mingw32/bin/../lib/gcc/nios2-elf/9.2.1/../../../../../H-x86_64-mingw32/nios2-elf/lib\libc.a(lib_a-vfiprintfr_1.o)
                0x000000000002c9e0                _vfiprintf_r
 .text          0x000000000002c9e4        0x0 c:/intelfpga_lite/20.1/nios2eds/bin/gnu/h-x86_64-mingw32/bin/../lib/gcc/nios2-elf/9.2.1/../../../../../H-x86_64-mingw32/nios2-elf/lib\libc.a(lib_a-wcrtomb.o)
 .text._wcrtomb_r
                0x000000000002c9e4       0x6c c:/intelfpga_lite/20.1/nios2eds/bin/gnu/h-x86_64-mingw32/bin/../lib/gcc/nios2-elf/9.2.1/../../../../../H-x86_64-mingw32/nios2-elf/lib\libc.a(lib_a-wcrtomb.o)
                0x000000000002c9e4                _wcrtomb_r
 .text.wcrtomb  0x000000000002ca50       0x88 c:/intelfpga_lite/20.1/nios2eds/bin/gnu/h-x86_64-mingw32/bin/../lib/gcc/nios2-elf/9.2.1/../../../../../H-x86_64-mingw32/nios2-elf/lib\libc.a(lib_a-wcrtomb.o)
                0x000000000002ca50                wcrtomb
 .text          0x000000000002cad8        0x0 c:/intelfpga_lite/20.1/nios2eds/bin/gnu/h-x86_64-mingw32/bin/../lib/gcc/nios2-elf/9.2.1/../../../../../H-x86_64-mingw32/nios2-elf/lib\libc.a(lib_a-wctomb_r.o)
 .text._wctomb_r
                0x000000000002cad8        0xc c:/intelfpga_lite/20.1/nios2eds/bin/gnu/h-x86_64-mingw32/bin/../lib/gcc/nios2-elf/9.2.1/../../../../../H-x86_64-mingw32/nios2-elf/lib\libc.a(lib_a-wctomb_r.o)
                0x000000000002cad8                _wctomb_r
 .text.__ascii_wctomb
                0x000000000002cae4       0x30 c:/intelfpga_lite/20.1/nios2eds/bin/gnu/h-x86_64-mingw32/bin/../lib/gcc/nios2-elf/9.2.1/../../../../../H-x86_64-mingw32/nios2-elf/lib\libc.a(lib_a-wctomb_r.o)
                0x000000000002cae4                __ascii_wctomb
 .text          0x000000000002cb14        0x0 c:/intelfpga_lite/20.1/nios2eds/bin/gnu/h-x86_64-mingw32/bin/../lib/gcc/nios2-elf/9.2.1/../../../../../H-x86_64-mingw32/nios2-elf/lib\libc.a(lib_a-abort.o)
 .text.unlikely.abort
                0x000000000002cb14       0x18 c:/intelfpga_lite/20.1/nios2eds/bin/gnu/h-x86_64-mingw32/bin/../lib/gcc/nios2-elf/9.2.1/../../../../../H-x86_64-mingw32/nios2-elf/lib\libc.a(lib_a-abort.o)
                0x000000000002cb14                abort
 .text          0x000000000002cb2c        0x0 c:/intelfpga_lite/20.1/nios2eds/bin/gnu/h-x86_64-mingw32/bin/../lib/gcc/nios2-elf/9.2.1/../../../../../H-x86_64-mingw32/nios2-elf/lib\libc.a(lib_a-ctype_.o)
 .text          0x000000000002cb2c        0x0 c:/intelfpga_lite/20.1/nios2eds/bin/gnu/h-x86_64-mingw32/bin/../lib/gcc/nios2-elf/9.2.1/../../../../../H-x86_64-mingw32/nios2-elf/lib\libc.a(lib_a-signal.o)
 .text._init_signal_r.part.0
                0x000000000002cb2c       0x4c c:/intelfpga_lite/20.1/nios2eds/bin/gnu/h-x86_64-mingw32/bin/../lib/gcc/nios2-elf/9.2.1/../../../../../H-x86_64-mingw32/nios2-elf/lib\libc.a(lib_a-signal.o)
 .text._init_signal_r
                0x000000000002cb78       0x14 c:/intelfpga_lite/20.1/nios2eds/bin/gnu/h-x86_64-mingw32/bin/../lib/gcc/nios2-elf/9.2.1/../../../../../H-x86_64-mingw32/nios2-elf/lib\libc.a(lib_a-signal.o)
                0x000000000002cb78                _init_signal_r
 .text._signal_r
                0x000000000002cb8c       0x84 c:/intelfpga_lite/20.1/nios2eds/bin/gnu/h-x86_64-mingw32/bin/../lib/gcc/nios2-elf/9.2.1/../../../../../H-x86_64-mingw32/nios2-elf/lib\libc.a(lib_a-signal.o)
                0x000000000002cb8c                _signal_r
 .text._raise_r
                0x000000000002cc10       0xc4 c:/intelfpga_lite/20.1/nios2eds/bin/gnu/h-x86_64-mingw32/bin/../lib/gcc/nios2-elf/9.2.1/../../../../../H-x86_64-mingw32/nios2-elf/lib\libc.a(lib_a-signal.o)
                0x000000000002cc10                _raise_r
 .text.__sigtramp_r
                0x000000000002ccd4       0xb8 c:/intelfpga_lite/20.1/nios2eds/bin/gnu/h-x86_64-mingw32/bin/../lib/gcc/nios2-elf/9.2.1/../../../../../H-x86_64-mingw32/nios2-elf/lib\libc.a(lib_a-signal.o)
                0x000000000002ccd4                __sigtramp_r
 .text.raise    0x000000000002cd8c       0x10 c:/intelfpga_lite/20.1/nios2eds/bin/gnu/h-x86_64-mingw32/bin/../lib/gcc/nios2-elf/9.2.1/../../../../../H-x86_64-mingw32/nios2-elf/lib\libc.a(lib_a-signal.o)
                0x000000000002cd8c                raise
 .text.signal   0x000000000002cd9c       0x18 c:/intelfpga_lite/20.1/nios2eds/bin/gnu/h-x86_64-mingw32/bin/../lib/gcc/nios2-elf/9.2.1/../../../../../H-x86_64-mingw32/nios2-elf/lib\libc.a(lib_a-signal.o)
                0x000000000002cd9c                signal
 .text._init_signal
                0x000000000002cdb4       0x1c c:/intelfpga_lite/20.1/nios2eds/bin/gnu/h-x86_64-mingw32/bin/../lib/gcc/nios2-elf/9.2.1/../../../../../H-x86_64-mingw32/nios2-elf/lib\libc.a(lib_a-signal.o)
                0x000000000002cdb4                _init_signal
 .text.__sigtramp
                0x000000000002cdd0       0x10 c:/intelfpga_lite/20.1/nios2eds/bin/gnu/h-x86_64-mingw32/bin/../lib/gcc/nios2-elf/9.2.1/../../../../../H-x86_64-mingw32/nios2-elf/lib\libc.a(lib_a-signal.o)
                0x000000000002cdd0                __sigtramp
 .text          0x000000000002cde0        0x0 c:/intelfpga_lite/20.1/nios2eds/bin/gnu/h-x86_64-mingw32/bin/../lib/gcc/nios2-elf/9.2.1/../../../../../H-x86_64-mingw32/nios2-elf/lib\libc.a(lib_a-signalr.o)
 .text._kill_r  0x000000000002cde0       0x60 c:/intelfpga_lite/20.1/nios2eds/bin/gnu/h-x86_64-mingw32/bin/../lib/gcc/nios2-elf/9.2.1/../../../../../H-x86_64-mingw32/nios2-elf/lib\libc.a(lib_a-signalr.o)
                0x000000000002cde0                _kill_r
 .text._getpid_r
                0x000000000002ce40        0x4 c:/intelfpga_lite/20.1/nios2eds/bin/gnu/h-x86_64-mingw32/bin/../lib/gcc/nios2-elf/9.2.1/../../../../../H-x86_64-mingw32/nios2-elf/lib\libc.a(lib_a-signalr.o)
                0x000000000002ce40                _getpid_r
 .text          0x000000000002ce44      0x590 c:/intelfpga_lite/20.1/nios2eds/bin/gnu/h-x86_64-mingw32/bin/../lib/gcc/nios2-elf/9.2.1\libgcc.a(_udivdi3.o)
                0x000000000002ce44                __udivdi3
 .text          0x000000000002d3d4      0x534 c:/intelfpga_lite/20.1/nios2eds/bin/gnu/h-x86_64-mingw32/bin/../lib/gcc/nios2-elf/9.2.1\libgcc.a(_umoddi3.o)
                0x000000000002d3d4                __umoddi3
 .text          0x000000000002d908      0x978 c:/intelfpga_lite/20.1/nios2eds/bin/gnu/h-x86_64-mingw32/bin/../lib/gcc/nios2-elf/9.2.1\libgcc.a(adddf3.o)
                0x000000000002d908                __adddf3
 .text          0x000000000002e280      0x860 c:/intelfpga_lite/20.1/nios2eds/bin/gnu/h-x86_64-mingw32/bin/../lib/gcc/nios2-elf/9.2.1\libgcc.a(divdf3.o)
                0x000000000002e280                __divdf3
 .text          0x000000000002eae0       0x80 c:/intelfpga_lite/20.1/nios2eds/bin/gnu/h-x86_64-mingw32/bin/../lib/gcc/nios2-elf/9.2.1\libgcc.a(eqdf2.o)
                0x000000000002eae0                __nedf2
                0x000000000002eae0                __eqdf2
 .text          0x000000000002eb60       0xf0 c:/intelfpga_lite/20.1/nios2eds/bin/gnu/h-x86_64-mingw32/bin/../lib/gcc/nios2-elf/9.2.1\libgcc.a(gedf2.o)
                0x000000000002eb60                __gedf2
                0x000000000002eb60                __gtdf2
 .text          0x000000000002ec50       0xf0 c:/intelfpga_lite/20.1/nios2eds/bin/gnu/h-x86_64-mingw32/bin/../lib/gcc/nios2-elf/9.2.1\libgcc.a(ledf2.o)
                0x000000000002ec50                __ledf2
                0x000000000002ec50                __ltdf2
 .text          0x000000000002ed40      0x670 c:/intelfpga_lite/20.1/nios2eds/bin/gnu/h-x86_64-mingw32/bin/../lib/gcc/nios2-elf/9.2.1\libgcc.a(muldf3.o)
                0x000000000002ed40                __muldf3
 .text          0x000000000002f3b0      0x934 c:/intelfpga_lite/20.1/nios2eds/bin/gnu/h-x86_64-mingw32/bin/../lib/gcc/nios2-elf/9.2.1\libgcc.a(subdf3.o)
                0x000000000002f3b0                __subdf3
 .text          0x000000000002fce4       0x54 c:/intelfpga_lite/20.1/nios2eds/bin/gnu/h-x86_64-mingw32/bin/../lib/gcc/nios2-elf/9.2.1\libgcc.a(unorddf2.o)
                0x000000000002fce4                __unorddf2
 .text          0x000000000002fd38       0x80 c:/intelfpga_lite/20.1/nios2eds/bin/gnu/h-x86_64-mingw32/bin/../lib/gcc/nios2-elf/9.2.1\libgcc.a(fixdfsi.o)
                0x000000000002fd38                __fixdfsi
 .text          0x000000000002fdb8       0xbc c:/intelfpga_lite/20.1/nios2eds/bin/gnu/h-x86_64-mingw32/bin/../lib/gcc/nios2-elf/9.2.1\libgcc.a(floatsidf.o)
                0x000000000002fdb8                __floatsidf
 .text          0x000000000002fe74       0x90 c:/intelfpga_lite/20.1/nios2eds/bin/gnu/h-x86_64-mingw32/bin/../lib/gcc/nios2-elf/9.2.1\libgcc.a(floatunsidf.o)
                0x000000000002fe74                __floatunsidf
 .text          0x000000000002ff04        0x0 c:/intelfpga_lite/20.1/nios2eds/bin/gnu/h-x86_64-mingw32/bin/../lib/gcc/nios2-elf/9.2.1\libgcc.a(_clz.o)
 .text          0x000000000002ff04       0x54 c:/intelfpga_lite/20.1/nios2eds/bin/gnu/h-x86_64-mingw32/bin/../lib/gcc/nios2-elf/9.2.1\libgcc.a(_clzsi2.o)
                0x000000000002ff04                __clzsi2
 .text          0x000000000002ff58      0x10c C:/Users/Emre/Documents/projectnios2/DE10_LITE_D8M_VIP_16/software/Vision_bsp\libhal_bsp.a(alt_close.o)
                0x000000000002ff94                close
 .text          0x0000000000030064       0x2c C:/Users/Emre/Documents/projectnios2/DE10_LITE_D8M_VIP_16/software/Vision_bsp\libhal_bsp.a(alt_dev.o)
 .text          0x0000000000030090        0x0 C:/Users/Emre/Documents/projectnios2/DE10_LITE_D8M_VIP_16/software/Vision_bsp\libhal_bsp.a(alt_errno.o)
 .text          0x0000000000030090       0x38 C:/Users/Emre/Documents/projectnios2/DE10_LITE_D8M_VIP_16/software/Vision_bsp\libhal_bsp.a(alt_exit.o)
                0x0000000000030090                _exit
 .text          0x00000000000300c8      0x160 C:/Users/Emre/Documents/projectnios2/DE10_LITE_D8M_VIP_16/software/Vision_bsp\libhal_bsp.a(alt_fcntl.o)
                0x0000000000030104                fcntl
 .text          0x0000000000030228       0xec C:/Users/Emre/Documents/projectnios2/DE10_LITE_D8M_VIP_16/software/Vision_bsp\libhal_bsp.a(alt_fstat.o)
                0x0000000000030264                fstat
 .text          0x0000000000030314       0x20 C:/Users/Emre/Documents/projectnios2/DE10_LITE_D8M_VIP_16/software/Vision_bsp\libhal_bsp.a(alt_getpid.o)
                0x0000000000030314                getpid
 .text          0x0000000000030334       0xe0 C:/Users/Emre/Documents/projectnios2/DE10_LITE_D8M_VIP_16/software/Vision_bsp\libhal_bsp.a(alt_isatty.o)
                0x0000000000030370                isatty
 .text          0x0000000000030414      0x168 C:/Users/Emre/Documents/projectnios2/DE10_LITE_D8M_VIP_16/software/Vision_bsp\libhal_bsp.a(alt_kill.o)
                0x0000000000030450                kill
 .text          0x000000000003057c       0xec C:/Users/Emre/Documents/projectnios2/DE10_LITE_D8M_VIP_16/software/Vision_bsp\libhal_bsp.a(alt_load.o)
                0x00000000000305e4                alt_load
 .text          0x0000000000030668      0x110 C:/Users/Emre/Documents/projectnios2/DE10_LITE_D8M_VIP_16/software/Vision_bsp\libhal_bsp.a(alt_lseek.o)
                0x00000000000306a4                lseek
 .text          0x0000000000030778       0x7c C:/Users/Emre/Documents/projectnios2/DE10_LITE_D8M_VIP_16/software/Vision_bsp\libhal_bsp.a(alt_main.o)
                0x0000000000030778                alt_main
 .text          0x00000000000307f4       0x48 C:/Users/Emre/Documents/projectnios2/DE10_LITE_D8M_VIP_16/software/Vision_bsp\libhal_bsp.a(alt_malloc_lock.o)
                0x00000000000307f4                __malloc_lock
                0x0000000000030818                __malloc_unlock
 .text          0x000000000003083c      0x248 C:/Users/Emre/Documents/projectnios2/DE10_LITE_D8M_VIP_16/software/Vision_bsp\libhal_bsp.a(alt_open.o)
                0x0000000000030930                open
 .text          0x0000000000030a84      0x138 C:/Users/Emre/Documents/projectnios2/DE10_LITE_D8M_VIP_16/software/Vision_bsp\libhal_bsp.a(alt_read.o)
                0x0000000000030ac0                read
 .text          0x0000000000030bbc       0x58 C:/Users/Emre/Documents/projectnios2/DE10_LITE_D8M_VIP_16/software/Vision_bsp\libhal_bsp.a(alt_release_fd.o)
                0x0000000000030bbc                alt_release_fd
 .text          0x0000000000030c14       0xb8 C:/Users/Emre/Documents/projectnios2/DE10_LITE_D8M_VIP_16/software/Vision_bsp\libhal_bsp.a(alt_sbrk.o)
                0x0000000000030c14                sbrk
 .text          0x0000000000030ccc      0x1ac C:/Users/Emre/Documents/projectnios2/DE10_LITE_D8M_VIP_16/software/Vision_bsp\libhal_bsp.a(alt_tick.o)
                0x0000000000030ccc                alt_alarm_stop
                0x0000000000030d70                alt_tick
 .text          0x0000000000030e78       0x30 C:/Users/Emre/Documents/projectnios2/DE10_LITE_D8M_VIP_16/software/Vision_bsp\libhal_bsp.a(alt_usleep.o)
                0x0000000000030e78                usleep
 .text          0x0000000000030ea8      0x134 C:/Users/Emre/Documents/projectnios2/DE10_LITE_D8M_VIP_16/software/Vision_bsp\libhal_bsp.a(alt_write.o)
                0x0000000000030ee4                write
 .text          0x0000000000030fdc       0xf4 C:/Users/Emre/Documents/projectnios2/DE10_LITE_D8M_VIP_16/software/Vision_bsp\libhal_bsp.a(alt_sys_init.o)
                0x0000000000031010                alt_irq_init
                0x000000000003104c                alt_sys_init
 .text          0x00000000000310d0      0x164 C:/Users/Emre/Documents/projectnios2/DE10_LITE_D8M_VIP_16/software/Vision_bsp\libhal_bsp.a(altera_avalon_jtag_uart_fd.o)
                0x00000000000310d0                altera_avalon_jtag_uart_read_fd
                0x0000000000031130                altera_avalon_jtag_uart_write_fd
                0x0000000000031190                altera_avalon_jtag_uart_close_fd
                0x00000000000311e0                altera_avalon_jtag_uart_ioctl_fd
 .text          0x0000000000031234      0x3d4 C:/Users/Emre/Documents/projectnios2/DE10_LITE_D8M_VIP_16/software/Vision_bsp\libhal_bsp.a(altera_avalon_jtag_uart_init.o)
                0x0000000000031234                altera_avalon_jtag_uart_init
                0x00000000000315a0                altera_avalon_jtag_uart_close
 .text          0x0000000000031608       0xf4 C:/Users/Emre/Documents/projectnios2/DE10_LITE_D8M_VIP_16/software/Vision_bsp\libhal_bsp.a(altera_avalon_jtag_uart_ioctl.o)
                0x0000000000031608                altera_avalon_jtag_uart_ioctl
 .text          0x00000000000316fc      0x220 C:/Users/Emre/Documents/projectnios2/DE10_LITE_D8M_VIP_16/software/Vision_bsp\libhal_bsp.a(altera_avalon_jtag_uart_read.o)
                0x00000000000316fc                altera_avalon_jtag_uart_read
 .text          0x000000000003191c      0x228 C:/Users/Emre/Documents/projectnios2/DE10_LITE_D8M_VIP_16/software/Vision_bsp\libhal_bsp.a(altera_avalon_jtag_uart_write.o)
                0x000000000003191c                altera_avalon_jtag_uart_write
 .text          0x0000000000031b44      0x100 C:/Users/Emre/Documents/projectnios2/DE10_LITE_D8M_VIP_16/software/Vision_bsp\libhal_bsp.a(altera_avalon_timer_sc.o)
                0x0000000000031bc0                alt_avalon_timer_sc_init
 .text          0x0000000000031c44      0x110 C:/Users/Emre/Documents/projectnios2/DE10_LITE_D8M_VIP_16/software/Vision_bsp\libhal_bsp.a(altera_avalon_uart_fd.o)
                0x0000000000031c44                altera_avalon_uart_read_fd
                0x0000000000031ca4                altera_avalon_uart_write_fd
                0x0000000000031d04                altera_avalon_uart_close_fd
 .text          0x0000000000031d54      0x3c0 C:/Users/Emre/Documents/projectnios2/DE10_LITE_D8M_VIP_16/software/Vision_bsp\libhal_bsp.a(altera_avalon_uart_init.o)
                0x0000000000031d54                altera_avalon_uart_init
                0x00000000000320c0                altera_avalon_uart_close
 .text          0x0000000000032114      0x224 C:/Users/Emre/Documents/projectnios2/DE10_LITE_D8M_VIP_16/software/Vision_bsp\libhal_bsp.a(altera_avalon_uart_read.o)
                0x0000000000032150                altera_avalon_uart_read
 .text          0x0000000000032338      0x1f0 C:/Users/Emre/Documents/projectnios2/DE10_LITE_D8M_VIP_16/software/Vision_bsp\libhal_bsp.a(altera_avalon_uart_write.o)
                0x0000000000032374                altera_avalon_uart_write
 .text          0x0000000000032528      0x134 C:/Users/Emre/Documents/projectnios2/DE10_LITE_D8M_VIP_16/software/Vision_bsp\libhal_bsp.a(alt_alarm_start.o)
                0x0000000000032528                alt_alarm_start
 .text          0x000000000003265c      0x158 C:/Users/Emre/Documents/projectnios2/DE10_LITE_D8M_VIP_16/software/Vision_bsp\libhal_bsp.a(alt_busy_sleep.o)
                0x000000000003265c                alt_busy_sleep
 .text          0x00000000000327b4       0x4c C:/Users/Emre/Documents/projectnios2/DE10_LITE_D8M_VIP_16/software/Vision_bsp\libhal_bsp.a(alt_dcache_flush_all.o)
                0x00000000000327b4                alt_dcache_flush_all
 .text          0x0000000000032800       0xe4 C:/Users/Emre/Documents/projectnios2/DE10_LITE_D8M_VIP_16/software/Vision_bsp\libhal_bsp.a(alt_dev_llist_insert.o)
                0x000000000003283c                alt_dev_llist_insert
 .text          0x00000000000328e4       0x64 C:/Users/Emre/Documents/projectnios2/DE10_LITE_D8M_VIP_16/software/Vision_bsp\libhal_bsp.a(alt_do_ctors.o)
                0x00000000000328e4                _do_ctors
 .text          0x0000000000032948       0x64 C:/Users/Emre/Documents/projectnios2/DE10_LITE_D8M_VIP_16/software/Vision_bsp\libhal_bsp.a(alt_do_dtors.o)
                0x0000000000032948                _do_dtors
 .text          0x00000000000329ac       0x90 C:/Users/Emre/Documents/projectnios2/DE10_LITE_D8M_VIP_16/software/Vision_bsp\libhal_bsp.a(alt_find_dev.o)
                0x00000000000329ac                alt_find_dev
 .text          0x0000000000032a3c      0x108 C:/Users/Emre/Documents/projectnios2/DE10_LITE_D8M_VIP_16/software/Vision_bsp\libhal_bsp.a(alt_find_file.o)
                0x0000000000032a3c                alt_find_file
 .text          0x0000000000032b44       0xa0 C:/Users/Emre/Documents/projectnios2/DE10_LITE_D8M_VIP_16/software/Vision_bsp\libhal_bsp.a(alt_get_fd.o)
                0x0000000000032b44                alt_get_fd
 .text          0x0000000000032be4       0x34 C:/Users/Emre/Documents/projectnios2/DE10_LITE_D8M_VIP_16/software/Vision_bsp\libhal_bsp.a(alt_icache_flush_all.o)
                0x0000000000032be4                alt_icache_flush_all
 .text          0x0000000000032c18      0x1b0 C:/Users/Emre/Documents/projectnios2/DE10_LITE_D8M_VIP_16/software/Vision_bsp\libhal_bsp.a(alt_iic.o)
                0x0000000000032c18                alt_ic_isr_register
                0x0000000000032c68                alt_ic_irq_enable
                0x0000000000032cf0                alt_ic_irq_disable
                0x0000000000032d7c                alt_ic_irq_enabled
 .text          0x0000000000032dc8       0xe8 C:/Users/Emre/Documents/projectnios2/DE10_LITE_D8M_VIP_16/software/Vision_bsp\libhal_bsp.a(alt_iic_isr_register.o)
                0x0000000000032dc8                alt_iic_isr_register
 .text          0x0000000000032eb0      0x12c C:/Users/Emre/Documents/projectnios2/DE10_LITE_D8M_VIP_16/software/Vision_bsp\libhal_bsp.a(alt_io_redirect.o)
                0x0000000000032f60                alt_io_redirect
 .text          0x0000000000032fdc        0x0 C:/Users/Emre/Documents/projectnios2/DE10_LITE_D8M_VIP_16/software/Vision_bsp\libhal_bsp.a(alt_irq_entry.o)
 .text          0x0000000000032fdc        0x0 C:/Users/Emre/Documents/projectnios2/DE10_LITE_D8M_VIP_16/software/Vision_bsp\libhal_bsp.a(alt_irq_handler.o)
 .text          0x0000000000032fdc        0x0 C:/Users/Emre/Documents/projectnios2/DE10_LITE_D8M_VIP_16/software/Vision_bsp\libhal_bsp.a(alt_irq_vars.o)
 .text          0x0000000000032fdc       0x24 C:/Users/Emre/Documents/projectnios2/DE10_LITE_D8M_VIP_16/software/Vision_bsp\libhal_bsp.a(altera_nios2_gen2_irq.o)
                0x0000000000032fdc                altera_nios2_gen2_irq_init
 .text          0x0000000000033000        0x0 C:/Users/Emre/Documents/projectnios2/DE10_LITE_D8M_VIP_16/software/Vision_bsp\libhal_bsp.a(alt_exception_entry.o)
 .text          0x0000000000033000       0x90 C:/Users/Emre/Documents/projectnios2/DE10_LITE_D8M_VIP_16/software/Vision_bsp\libhal_bsp.a(alt_icache_flush.o)
                0x0000000000033000                alt_icache_flush
 .text          0x0000000000033090       0x98 C:/Users/Emre/Documents/projectnios2/DE10_LITE_D8M_VIP_16/software/Vision_bsp\libhal_bsp.a(alt_instruction_exception_entry.o)
                0x0000000000033090                alt_exception_cause_generated_bad_addr
 .text          0x0000000000033128        0x0 c:/intelfpga_lite/20.1/nios2eds/bin/gnu/h-x86_64-mingw32/bin/../lib/gcc/nios2-elf/9.2.1/../../../../../H-x86_64-mingw32/nios2-elf/lib\libc.a(lib_a-atexit.o)
 .text.atexit   0x0000000000033128       0x14 c:/intelfpga_lite/20.1/nios2eds/bin/gnu/h-x86_64-mingw32/bin/../lib/gcc/nios2-elf/9.2.1/../../../../../H-x86_64-mingw32/nios2-elf/lib\libc.a(lib_a-atexit.o)
                0x0000000000033128                atexit
 .text          0x000000000003313c        0x0 c:/intelfpga_lite/20.1/nios2eds/bin/gnu/h-x86_64-mingw32/bin/../lib/gcc/nios2-elf/9.2.1/../../../../../H-x86_64-mingw32/nios2-elf/lib\libc.a(lib_a-exit.o)
 .text.exit     0x000000000003313c       0x34 c:/intelfpga_lite/20.1/nios2eds/bin/gnu/h-x86_64-mingw32/bin/../lib/gcc/nios2-elf/9.2.1/../../../../../H-x86_64-mingw32/nios2-elf/lib\libc.a(lib_a-exit.o)
                0x000000000003313c                exit
 .text          0x0000000000033170        0x0 c:/intelfpga_lite/20.1/nios2eds/bin/gnu/h-x86_64-mingw32/bin/../lib/gcc/nios2-elf/9.2.1/../../../../../H-x86_64-mingw32/nios2-elf/lib\libc.a(lib_a-memcmp.o)
 .text.memcmp   0x0000000000033170       0x78 c:/intelfpga_lite/20.1/nios2eds/bin/gnu/h-x86_64-mingw32/bin/../lib/gcc/nios2-elf/9.2.1/../../../../../H-x86_64-mingw32/nios2-elf/lib\libc.a(lib_a-memcmp.o)
                0x0000000000033170                memcmp
 .text          0x00000000000331e8        0x0 c:/intelfpga_lite/20.1/nios2eds/bin/gnu/h-x86_64-mingw32/bin/../lib/gcc/nios2-elf/9.2.1/../../../../../H-x86_64-mingw32/nios2-elf/lib\libc.a(lib_a-__atexit.o)
 .text.__register_exitproc
                0x00000000000331e8       0x90 c:/intelfpga_lite/20.1/nios2eds/bin/gnu/h-x86_64-mingw32/bin/../lib/gcc/nios2-elf/9.2.1/../../../../../H-x86_64-mingw32/nios2-elf/lib\libc.a(lib_a-__atexit.o)
                0x00000000000331e8                __register_exitproc
 .text          0x0000000000033278        0x0 c:/intelfpga_lite/20.1/nios2eds/bin/gnu/h-x86_64-mingw32/bin/../lib/gcc/nios2-elf/9.2.1/../../../../../H-x86_64-mingw32/nios2-elf/lib\libc.a(lib_a-__call_atexit.o)
 .text.__call_exitprocs
                0x0000000000033278      0x120 c:/intelfpga_lite/20.1/nios2eds/bin/gnu/h-x86_64-mingw32/bin/../lib/gcc/nios2-elf/9.2.1/../../../../../H-x86_64-mingw32/nios2-elf/lib\libc.a(lib_a-__call_atexit.o)
                0x0000000000033278                __call_exitprocs
 *(.gnu.warning.*)
 *(.fini)
                [!provide]                        PROVIDE (__etext = ABSOLUTE (.))
                [!provide]                        PROVIDE (_etext = ABSOLUTE (.))
                [!provide]                        PROVIDE (etext = ABSOLUTE (.))
 *(.eh_frame_hdr)
                0x0000000000033398                . = ALIGN (0x4)
                [!provide]                        PROVIDE (__preinit_array_start = ABSOLUTE (.))
 *(.preinit_array)
                [!provide]                        PROVIDE (__preinit_array_end = ABSOLUTE (.))
                [!provide]                        PROVIDE (__init_array_start = ABSOLUTE (.))
 *(.init_array)
                [!provide]                        PROVIDE (__init_array_end = ABSOLUTE (.))
                [!provide]                        PROVIDE (__fini_array_start = ABSOLUTE (.))
 *(.fini_array)
                [!provide]                        PROVIDE (__fini_array_end = ABSOLUTE (.))
 *(.eh_frame)
 *(.gcc_except_table .gcc_except_table.*)
 *(.dynamic)
                0x0000000000033398                PROVIDE (__CTOR_LIST__ = ABSOLUTE (.))
 *(.ctors)
 *(SORT_BY_NAME(.ctors.*))
                0x0000000000033398                PROVIDE (__CTOR_END__ = ABSOLUTE (.))
                0x0000000000033398                PROVIDE (__DTOR_LIST__ = ABSOLUTE (.))
 *(.dtors)
 *(SORT_BY_NAME(.dtors.*))
                0x0000000000033398                PROVIDE (__DTOR_END__ = ABSOLUTE (.))
 *(.jcr)
                0x0000000000033398                . = ALIGN (0x4)

.rodata         0x0000000000033398      0xc7c
                0x0000000000033398                PROVIDE (__ram_rodata_start = ABSOLUTE (.))
                0x0000000000033398                . = ALIGN (0x4)
 *(.rodata .rodata.* .gnu.linkonce.r.*)
 .rodata        0x0000000000033398      0x277 obj/default/I2C_core.o
 *fill*         0x000000000003360f        0x1 
 .rodata        0x0000000000033610       0x4e obj/default/auto_focus.o
 *fill*         0x000000000003365e        0x2 
 .rodata        0x0000000000033660      0x25d obj/default/main.o
 *fill*         0x00000000000338bd        0x3 
 .rodata        0x00000000000338c0       0x61 obj/default/mipi_bridge_config.o
 *fill*         0x0000000000033921        0x3 
 .rodata        0x0000000000033924       0x9c obj/default/mipi_camera_config.o
 .rodata._puts_r.str1.4
                0x00000000000339c0        0x2 c:/intelfpga_lite/20.1/nios2eds/bin/gnu/h-x86_64-mingw32/bin/../lib/gcc/nios2-elf/9.2.1/../../../../../H-x86_64-mingw32/nios2-elf/lib\libc.a(lib_a-puts.o)
 *fill*         0x00000000000339c2        0x2 
 .rodata.___vfprintf_internal_r.str1.4
                0x00000000000339c4       0x42 c:/intelfpga_lite/20.1/nios2eds/bin/gnu/h-x86_64-mingw32/bin/../lib/gcc/nios2-elf/9.2.1/../../../../../H-x86_64-mingw32/nios2-elf/lib\libc.a(lib_a-vfprintf.o)
 *fill*         0x0000000000033a06        0x2 
 .rodata.zeroes.5177
                0x0000000000033a08       0x10 c:/intelfpga_lite/20.1/nios2eds/bin/gnu/h-x86_64-mingw32/bin/../lib/gcc/nios2-elf/9.2.1/../../../../../H-x86_64-mingw32/nios2-elf/lib\libc.a(lib_a-vfprintf.o)
 .rodata.blanks.5176
                0x0000000000033a18       0x10 c:/intelfpga_lite/20.1/nios2eds/bin/gnu/h-x86_64-mingw32/bin/../lib/gcc/nios2-elf/9.2.1/../../../../../H-x86_64-mingw32/nios2-elf/lib\libc.a(lib_a-vfprintf.o)
 .rodata._dtoa_r.str1.4
                0x0000000000033a28       0x5e c:/intelfpga_lite/20.1/nios2eds/bin/gnu/h-x86_64-mingw32/bin/../lib/gcc/nios2-elf/9.2.1/../../../../../H-x86_64-mingw32/nios2-elf/lib\libc.a(lib_a-dtoa.o)
                                         0x62 (size before relaxing)
 *fill*         0x0000000000033a86        0x2 
 .rodata.__multadd.str1.4
                0x0000000000033a88       0x3b c:/intelfpga_lite/20.1/nios2eds/bin/gnu/h-x86_64-mingw32/bin/../lib/gcc/nios2-elf/9.2.1/../../../../../H-x86_64-mingw32/nios2-elf/lib\libc.a(lib_a-mprec.o)
                                         0x4f (size before relaxing)
 *fill*         0x0000000000033ac3        0x1 
 .rodata.p05.3991
                0x0000000000033ac4        0xc c:/intelfpga_lite/20.1/nios2eds/bin/gnu/h-x86_64-mingw32/bin/../lib/gcc/nios2-elf/9.2.1/../../../../../H-x86_64-mingw32/nios2-elf/lib\libc.a(lib_a-mprec.o)
 .rodata.__mprec_tinytens
                0x0000000000033ad0       0x28 c:/intelfpga_lite/20.1/nios2eds/bin/gnu/h-x86_64-mingw32/bin/../lib/gcc/nios2-elf/9.2.1/../../../../../H-x86_64-mingw32/nios2-elf/lib\libc.a(lib_a-mprec.o)
                0x0000000000033ad0                __mprec_tinytens
 .rodata.__mprec_bigtens
                0x0000000000033af8       0x28 c:/intelfpga_lite/20.1/nios2eds/bin/gnu/h-x86_64-mingw32/bin/../lib/gcc/nios2-elf/9.2.1/../../../../../H-x86_64-mingw32/nios2-elf/lib\libc.a(lib_a-mprec.o)
                0x0000000000033af8                __mprec_bigtens
 .rodata.__mprec_tens
                0x0000000000033b20       0xc8 c:/intelfpga_lite/20.1/nios2eds/bin/gnu/h-x86_64-mingw32/bin/../lib/gcc/nios2-elf/9.2.1/../../../../../H-x86_64-mingw32/nios2-elf/lib\libc.a(lib_a-mprec.o)
                0x0000000000033b20                __mprec_tens
 .rodata.___vfiprintf_internal_r.str1.4
                0x0000000000033be8       0x2f c:/intelfpga_lite/20.1/nios2eds/bin/gnu/h-x86_64-mingw32/bin/../lib/gcc/nios2-elf/9.2.1/../../../../../H-x86_64-mingw32/nios2-elf/lib\libc.a(lib_a-vfiprintf.o)
 .rodata.zeroes.5154
                0x0000000000033be8       0x10 c:/intelfpga_lite/20.1/nios2eds/bin/gnu/h-x86_64-mingw32/bin/../lib/gcc/nios2-elf/9.2.1/../../../../../H-x86_64-mingw32/nios2-elf/lib\libc.a(lib_a-vfiprintf.o)
 .rodata.blanks.5153
                0x0000000000033bf8       0x10 c:/intelfpga_lite/20.1/nios2eds/bin/gnu/h-x86_64-mingw32/bin/../lib/gcc/nios2-elf/9.2.1/../../../../../H-x86_64-mingw32/nios2-elf/lib\libc.a(lib_a-vfiprintf.o)
 .rodata.__assert_func.str1.4
                0x0000000000033c08       0x3f c:/intelfpga_lite/20.1/nios2eds/bin/gnu/h-x86_64-mingw32/bin/../lib/gcc/nios2-elf/9.2.1/../../../../../H-x86_64-mingw32/nios2-elf/lib\libc.a(lib_a-assert.o)
                                         0x43 (size before relaxing)
 *fill*         0x0000000000033c47        0x1 
 .rodata._setlocale_r.str1.4
                0x0000000000033c48        0xa c:/intelfpga_lite/20.1/nios2eds/bin/gnu/h-x86_64-mingw32/bin/../lib/gcc/nios2-elf/9.2.1/../../../../../H-x86_64-mingw32/nios2-elf/lib\libc.a(lib_a-locale.o)
 *fill*         0x0000000000033c52        0x2 
 .rodata.str1.4
                0x0000000000033c54        0x4 c:/intelfpga_lite/20.1/nios2eds/bin/gnu/h-x86_64-mingw32/bin/../lib/gcc/nios2-elf/9.2.1/../../../../../H-x86_64-mingw32/nios2-elf/lib\libc.a(lib_a-locale.o)
                                          0x5 (size before relaxing)
 .rodata._ctype_
                0x0000000000033c58      0x101 c:/intelfpga_lite/20.1/nios2eds/bin/gnu/h-x86_64-mingw32/bin/../lib/gcc/nios2-elf/9.2.1/../../../../../H-x86_64-mingw32/nios2-elf/lib\libc.a(lib_a-ctype_.o)
                0x0000000000033c58                _ctype_
 *fill*         0x0000000000033d59        0x3 
 .rodata._ctype_b
                0x0000000000033d5c      0x180 c:/intelfpga_lite/20.1/nios2eds/bin/gnu/h-x86_64-mingw32/bin/../lib/gcc/nios2-elf/9.2.1/../../../../../H-x86_64-mingw32/nios2-elf/lib\libc.a(lib_a-ctype_.o)
                0x0000000000033d5c                _ctype_b
 .rodata        0x0000000000033edc      0x100 c:/intelfpga_lite/20.1/nios2eds/bin/gnu/h-x86_64-mingw32/bin/../lib/gcc/nios2-elf/9.2.1\libgcc.a(_clz.o)
                0x0000000000033edc                __clz_tab
 .rodata        0x0000000000033fdc        0xa C:/Users/Emre/Documents/projectnios2/DE10_LITE_D8M_VIP_16/software/Vision_bsp\libhal_bsp.a(alt_dev.o)
 *fill*         0x0000000000033fe6        0x2 
 .rodata        0x0000000000033fe8        0xf C:/Users/Emre/Documents/projectnios2/DE10_LITE_D8M_VIP_16/software/Vision_bsp\libhal_bsp.a(alt_main.o)
 *fill*         0x0000000000033ff7        0x1 
 .rodata        0x0000000000033ff8       0x1c C:/Users/Emre/Documents/projectnios2/DE10_LITE_D8M_VIP_16/software/Vision_bsp\libhal_bsp.a(alt_sys_init.o)
 *(.rodata1)
                0x0000000000034014                . = ALIGN (0x4)
                0x0000000000034014                PROVIDE (__ram_rodata_end = ABSOLUTE (.))
                0x0000000000033398                PROVIDE (__flash_rodata_start = LOADADDR (.rodata))

.rwdata         0x0000000000034014     0x2450 load address 0x0000000000036464
                0x0000000000034014                PROVIDE (__ram_rwdata_start = ABSOLUTE (.))
                0x0000000000034014                . = ALIGN (0x4)
 *(.got.plt)
 *(.got)
 *(.data1)
 *(.data .data.* .gnu.linkonce.d.*)
 .data          0x0000000000034014        0x0 C:/Users/Emre/Documents/projectnios2/DE10_LITE_D8M_VIP_16/software/Vision_bsp/obj/HAL/src/crt0.o
 .data          0x0000000000034014        0x0 obj/default/I2C_core.o
 .data          0x0000000000034014        0x0 obj/default/auto_focus.o
 .data          0x0000000000034014        0x0 obj/default/main.o
 .data          0x0000000000034014       0x34 obj/default/mipi_bridge_config.o
 .data          0x0000000000034048      0x774 obj/default/mipi_camera_config.o
 .data          0x00000000000347bc        0x0 obj/default/queue.o
 .data          0x00000000000347bc        0x0 c:/intelfpga_lite/20.1/nios2eds/bin/gnu/h-x86_64-mingw32/bin/../lib/gcc/nios2-elf/9.2.1\libgcc.a(lib2-divmod.o)
 .data          0x00000000000347bc        0x0 c:/intelfpga_lite/20.1/nios2eds/bin/gnu/h-x86_64-mingw32/bin/../lib/gcc/nios2-elf/9.2.1/../../../../../H-x86_64-mingw32/nios2-elf/lib\libc.a(lib_a-fopen.o)
 .data          0x00000000000347bc        0x0 c:/intelfpga_lite/20.1/nios2eds/bin/gnu/h-x86_64-mingw32/bin/../lib/gcc/nios2-elf/9.2.1/../../../../../H-x86_64-mingw32/nios2-elf/lib\libc.a(lib_a-fseek.o)
 .data          0x00000000000347bc        0x0 c:/intelfpga_lite/20.1/nios2eds/bin/gnu/h-x86_64-mingw32/bin/../lib/gcc/nios2-elf/9.2.1/../../../../../H-x86_64-mingw32/nios2-elf/lib\libc.a(lib_a-fseeko.o)
 .data          0x00000000000347bc        0x0 c:/intelfpga_lite/20.1/nios2eds/bin/gnu/h-x86_64-mingw32/bin/../lib/gcc/nios2-elf/9.2.1/../../../../../H-x86_64-mingw32/nios2-elf/lib\libc.a(lib_a-fstatr.o)
 .data          0x00000000000347bc        0x0 c:/intelfpga_lite/20.1/nios2eds/bin/gnu/h-x86_64-mingw32/bin/../lib/gcc/nios2-elf/9.2.1/../../../../../H-x86_64-mingw32/nios2-elf/lib\libc.a(lib_a-fwrite.o)
 .data          0x00000000000347bc        0x0 c:/intelfpga_lite/20.1/nios2eds/bin/gnu/h-x86_64-mingw32/bin/../lib/gcc/nios2-elf/9.2.1/../../../../../H-x86_64-mingw32/nios2-elf/lib\libc.a(lib_a-getchar.o)
 .data          0x00000000000347bc        0x0 c:/intelfpga_lite/20.1/nios2eds/bin/gnu/h-x86_64-mingw32/bin/../lib/gcc/nios2-elf/9.2.1/../../../../../H-x86_64-mingw32/nios2-elf/lib\libc.a(lib_a-impure.o)
 .data.impure_data
                0x00000000000347bc      0x424 c:/intelfpga_lite/20.1/nios2eds/bin/gnu/h-x86_64-mingw32/bin/../lib/gcc/nios2-elf/9.2.1/../../../../../H-x86_64-mingw32/nios2-elf/lib\libc.a(lib_a-impure.o)
 .data          0x0000000000034be0        0x0 c:/intelfpga_lite/20.1/nios2eds/bin/gnu/h-x86_64-mingw32/bin/../lib/gcc/nios2-elf/9.2.1/../../../../../H-x86_64-mingw32/nios2-elf/lib\libc.a(lib_a-int_errno.o)
 .data          0x0000000000034be0        0x0 c:/intelfpga_lite/20.1/nios2eds/bin/gnu/h-x86_64-mingw32/bin/../lib/gcc/nios2-elf/9.2.1/../../../../../H-x86_64-mingw32/nios2-elf/lib\libc.a(lib_a-makebuf.o)
 .data          0x0000000000034be0        0x0 c:/intelfpga_lite/20.1/nios2eds/bin/gnu/h-x86_64-mingw32/bin/../lib/gcc/nios2-elf/9.2.1/../../../../../H-x86_64-mingw32/nios2-elf/lib\libc.a(lib_a-malloc.o)
 .data          0x0000000000034be0        0x0 c:/intelfpga_lite/20.1/nios2eds/bin/gnu/h-x86_64-mingw32/bin/../lib/gcc/nios2-elf/9.2.1/../../../../../H-x86_64-mingw32/nios2-elf/lib\libc.a(lib_a-mallocr.o)
 .data.__malloc_av_
                0x0000000000034be0      0x408 c:/intelfpga_lite/20.1/nios2eds/bin/gnu/h-x86_64-mingw32/bin/../lib/gcc/nios2-elf/9.2.1/../../../../../H-x86_64-mingw32/nios2-elf/lib\libc.a(lib_a-mallocr.o)
                0x0000000000034be0                __malloc_av_
 .data          0x0000000000034fe8        0x0 c:/intelfpga_lite/20.1/nios2eds/bin/gnu/h-x86_64-mingw32/bin/../lib/gcc/nios2-elf/9.2.1/../../../../../H-x86_64-mingw32/nios2-elf/lib\libc.a(lib_a-memset.o)
 .data          0x0000000000034fe8        0x0 c:/intelfpga_lite/20.1/nios2eds/bin/gnu/h-x86_64-mingw32/bin/../lib/gcc/nios2-elf/9.2.1/../../../../../H-x86_64-mingw32/nios2-elf/lib\libc.a(lib_a-openr.o)
 .data          0x0000000000034fe8        0x0 c:/intelfpga_lite/20.1/nios2eds/bin/gnu/h-x86_64-mingw32/bin/../lib/gcc/nios2-elf/9.2.1/../../../../../H-x86_64-mingw32/nios2-elf/lib\libc.a(lib_a-printf.o)
 .data          0x0000000000034fe8        0x0 c:/intelfpga_lite/20.1/nios2eds/bin/gnu/h-x86_64-mingw32/bin/../lib/gcc/nios2-elf/9.2.1/../../../../../H-x86_64-mingw32/nios2-elf/lib\libc.a(lib_a-putchar.o)
 .data          0x0000000000034fe8        0x0 c:/intelfpga_lite/20.1/nios2eds/bin/gnu/h-x86_64-mingw32/bin/../lib/gcc/nios2-elf/9.2.1/../../../../../H-x86_64-mingw32/nios2-elf/lib\libc.a(lib_a-puts.o)
 .data          0x0000000000034fe8        0x0 c:/intelfpga_lite/20.1/nios2eds/bin/gnu/h-x86_64-mingw32/bin/../lib/gcc/nios2-elf/9.2.1/../../../../../H-x86_64-mingw32/nios2-elf/lib\libc.a(lib_a-refill.o)
 .data          0x0000000000034fe8        0x0 c:/intelfpga_lite/20.1/nios2eds/bin/gnu/h-x86_64-mingw32/bin/../lib/gcc/nios2-elf/9.2.1/../../../../../H-x86_64-mingw32/nios2-elf/lib\libc.a(lib_a-sbrkr.o)
 .data          0x0000000000034fe8        0x0 c:/intelfpga_lite/20.1/nios2eds/bin/gnu/h-x86_64-mingw32/bin/../lib/gcc/nios2-elf/9.2.1/../../../../../H-x86_64-mingw32/nios2-elf/lib\libc.a(lib_a-stdio.o)
 .data          0x0000000000034fe8        0x0 c:/intelfpga_lite/20.1/nios2eds/bin/gnu/h-x86_64-mingw32/bin/../lib/gcc/nios2-elf/9.2.1/../../../../../H-x86_64-mingw32/nios2-elf/lib\libc.a(lib_a-strlen.o)
 .data          0x0000000000034fe8        0x0 c:/intelfpga_lite/20.1/nios2eds/bin/gnu/h-x86_64-mingw32/bin/../lib/gcc/nios2-elf/9.2.1/../../../../../H-x86_64-mingw32/nios2-elf/lib\libc.a(lib_a-vfprintf.o)
 .data          0x0000000000034fe8        0x0 c:/intelfpga_lite/20.1/nios2eds/bin/gnu/h-x86_64-mingw32/bin/../lib/gcc/nios2-elf/9.2.1/../../../../../H-x86_64-mingw32/nios2-elf/lib\libc.a(lib_a-writer.o)
 .data          0x0000000000034fe8        0x0 c:/intelfpga_lite/20.1/nios2eds/bin/gnu/h-x86_64-mingw32/bin/../lib/gcc/nios2-elf/9.2.1/../../../../../H-x86_64-mingw32/nios2-elf/lib\libc.a(lib_a-wsetup.o)
 .data          0x0000000000034fe8        0x0 c:/intelfpga_lite/20.1/nios2eds/bin/gnu/h-x86_64-mingw32/bin/../lib/gcc/nios2-elf/9.2.1/../../../../../H-x86_64-mingw32/nios2-elf/lib\libc.a(closer.o)
 .data          0x0000000000034fe8        0x0 c:/intelfpga_lite/20.1/nios2eds/bin/gnu/h-x86_64-mingw32/bin/../lib/gcc/nios2-elf/9.2.1/../../../../../H-x86_64-mingw32/nios2-elf/lib\libc.a(lib_a-dtoa.o)
 .data          0x0000000000034fe8        0x0 c:/intelfpga_lite/20.1/nios2eds/bin/gnu/h-x86_64-mingw32/bin/../lib/gcc/nios2-elf/9.2.1/../../../../../H-x86_64-mingw32/nios2-elf/lib\libc.a(lib_a-fflush.o)
 .data          0x0000000000034fe8        0x0 c:/intelfpga_lite/20.1/nios2eds/bin/gnu/h-x86_64-mingw32/bin/../lib/gcc/nios2-elf/9.2.1/../../../../../H-x86_64-mingw32/nios2-elf/lib\libc.a(lib_a-findfp.o)
 .data          0x0000000000034fe8        0x0 c:/intelfpga_lite/20.1/nios2eds/bin/gnu/h-x86_64-mingw32/bin/../lib/gcc/nios2-elf/9.2.1/../../../../../H-x86_64-mingw32/nios2-elf/lib\libc.a(lib_a-flags.o)
 .data          0x0000000000034fe8        0x0 c:/intelfpga_lite/20.1/nios2eds/bin/gnu/h-x86_64-mingw32/bin/../lib/gcc/nios2-elf/9.2.1/../../../../../H-x86_64-mingw32/nios2-elf/lib\libc.a(lib_a-freer.o)
 .data          0x0000000000034fe8        0x0 c:/intelfpga_lite/20.1/nios2eds/bin/gnu/h-x86_64-mingw32/bin/../lib/gcc/nios2-elf/9.2.1/../../../../../H-x86_64-mingw32/nios2-elf/lib\libc.a(lib_a-fvwrite.o)
 .data          0x0000000000034fe8        0x0 c:/intelfpga_lite/20.1/nios2eds/bin/gnu/h-x86_64-mingw32/bin/../lib/gcc/nios2-elf/9.2.1/../../../../../H-x86_64-mingw32/nios2-elf/lib\libc.a(lib_a-fwalk.o)
 .data          0x0000000000034fe8        0x0 c:/intelfpga_lite/20.1/nios2eds/bin/gnu/h-x86_64-mingw32/bin/../lib/gcc/nios2-elf/9.2.1/../../../../../H-x86_64-mingw32/nios2-elf/lib\libc.a(lib_a-getc.o)
 .data          0x0000000000034fe8        0x0 c:/intelfpga_lite/20.1/nios2eds/bin/gnu/h-x86_64-mingw32/bin/../lib/gcc/nios2-elf/9.2.1/../../../../../H-x86_64-mingw32/nios2-elf/lib\libc.a(lib_a-isattyr.o)
 .data          0x0000000000034fe8        0x0 c:/intelfpga_lite/20.1/nios2eds/bin/gnu/h-x86_64-mingw32/bin/../lib/gcc/nios2-elf/9.2.1/../../../../../H-x86_64-mingw32/nios2-elf/lib\libc.a(lib_a-localeconv.o)
 .data          0x0000000000034fe8        0x0 c:/intelfpga_lite/20.1/nios2eds/bin/gnu/h-x86_64-mingw32/bin/../lib/gcc/nios2-elf/9.2.1/../../../../../H-x86_64-mingw32/nios2-elf/lib\libc.a(lib_a-lseekr.o)
 .data          0x0000000000034fe8        0x0 c:/intelfpga_lite/20.1/nios2eds/bin/gnu/h-x86_64-mingw32/bin/../lib/gcc/nios2-elf/9.2.1/../../../../../H-x86_64-mingw32/nios2-elf/lib\libc.a(lib_a-memchr.o)
 .data          0x0000000000034fe8        0x0 c:/intelfpga_lite/20.1/nios2eds/bin/gnu/h-x86_64-mingw32/bin/../lib/gcc/nios2-elf/9.2.1/../../../../../H-x86_64-mingw32/nios2-elf/lib\libc.a(lib_a-memcpy.o)
 .data          0x0000000000034fe8        0x0 c:/intelfpga_lite/20.1/nios2eds/bin/gnu/h-x86_64-mingw32/bin/../lib/gcc/nios2-elf/9.2.1/../../../../../H-x86_64-mingw32/nios2-elf/lib\libc.a(lib_a-memmove.o)
 .data          0x0000000000034fe8        0x0 c:/intelfpga_lite/20.1/nios2eds/bin/gnu/h-x86_64-mingw32/bin/../lib/gcc/nios2-elf/9.2.1/../../../../../H-x86_64-mingw32/nios2-elf/lib\libc.a(lib_a-mprec.o)
 .data          0x0000000000034fe8        0x0 c:/intelfpga_lite/20.1/nios2eds/bin/gnu/h-x86_64-mingw32/bin/../lib/gcc/nios2-elf/9.2.1/../../../../../H-x86_64-mingw32/nios2-elf/lib\libc.a(lib_a-putc.o)
 .data          0x0000000000034fe8        0x0 c:/intelfpga_lite/20.1/nios2eds/bin/gnu/h-x86_64-mingw32/bin/../lib/gcc/nios2-elf/9.2.1/../../../../../H-x86_64-mingw32/nios2-elf/lib\libc.a(lib_a-readr.o)
 .data          0x0000000000034fe8        0x0 c:/intelfpga_lite/20.1/nios2eds/bin/gnu/h-x86_64-mingw32/bin/../lib/gcc/nios2-elf/9.2.1/../../../../../H-x86_64-mingw32/nios2-elf/lib\libc.a(lib_a-reallocr.o)
 .data          0x0000000000034fe8        0x0 c:/intelfpga_lite/20.1/nios2eds/bin/gnu/h-x86_64-mingw32/bin/../lib/gcc/nios2-elf/9.2.1/../../../../../H-x86_64-mingw32/nios2-elf/lib\libc.a(lib_a-rget.o)
 .data          0x0000000000034fe8        0x0 c:/intelfpga_lite/20.1/nios2eds/bin/gnu/h-x86_64-mingw32/bin/../lib/gcc/nios2-elf/9.2.1/../../../../../H-x86_64-mingw32/nios2-elf/lib\libc.a(lib_a-vfiprintf.o)
 .data          0x0000000000034fe8        0x0 c:/intelfpga_lite/20.1/nios2eds/bin/gnu/h-x86_64-mingw32/bin/../lib/gcc/nios2-elf/9.2.1/../../../../../H-x86_64-mingw32/nios2-elf/lib\libc.a(lib_a-wbuf.o)
 .data          0x0000000000034fe8        0x0 c:/intelfpga_lite/20.1/nios2eds/bin/gnu/h-x86_64-mingw32/bin/../lib/gcc/nios2-elf/9.2.1/../../../../../H-x86_64-mingw32/nios2-elf/lib\libc.a(lib_a-assert.o)
 .data          0x0000000000034fe8        0x0 c:/intelfpga_lite/20.1/nios2eds/bin/gnu/h-x86_64-mingw32/bin/../lib/gcc/nios2-elf/9.2.1/../../../../../H-x86_64-mingw32/nios2-elf/lib\libc.a(lib_a-callocr.o)
 .data          0x0000000000034fe8        0x0 c:/intelfpga_lite/20.1/nios2eds/bin/gnu/h-x86_64-mingw32/bin/../lib/gcc/nios2-elf/9.2.1/../../../../../H-x86_64-mingw32/nios2-elf/lib\libc.a(lib_a-fclose.o)
 .data          0x0000000000034fe8        0x0 c:/intelfpga_lite/20.1/nios2eds/bin/gnu/h-x86_64-mingw32/bin/../lib/gcc/nios2-elf/9.2.1/../../../../../H-x86_64-mingw32/nios2-elf/lib\libc.a(lib_a-fiprintf.o)
 .data          0x0000000000034fe8        0x0 c:/intelfpga_lite/20.1/nios2eds/bin/gnu/h-x86_64-mingw32/bin/../lib/gcc/nios2-elf/9.2.1/../../../../../H-x86_64-mingw32/nios2-elf/lib\libc.a(lib_a-fputwc.o)
 .data          0x0000000000034fe8        0x0 c:/intelfpga_lite/20.1/nios2eds/bin/gnu/h-x86_64-mingw32/bin/../lib/gcc/nios2-elf/9.2.1/../../../../../H-x86_64-mingw32/nios2-elf/lib\libc.a(lib_a-locale.o)
 .data.__global_locale
                0x0000000000034fe8      0x16c c:/intelfpga_lite/20.1/nios2eds/bin/gnu/h-x86_64-mingw32/bin/../lib/gcc/nios2-elf/9.2.1/../../../../../H-x86_64-mingw32/nios2-elf/lib\libc.a(lib_a-locale.o)
                0x0000000000034fe8                __global_locale
 .data          0x0000000000035154        0x0 c:/intelfpga_lite/20.1/nios2eds/bin/gnu/h-x86_64-mingw32/bin/../lib/gcc/nios2-elf/9.2.1/../../../../../H-x86_64-mingw32/nios2-elf/lib\libc.a(lib_a-mbtowc_r.o)
 .data          0x0000000000035154        0x0 c:/intelfpga_lite/20.1/nios2eds/bin/gnu/h-x86_64-mingw32/bin/../lib/gcc/nios2-elf/9.2.1/../../../../../H-x86_64-mingw32/nios2-elf/lib\libc.a(lib_a-strcmp.o)
 .data          0x0000000000035154        0x0 c:/intelfpga_lite/20.1/nios2eds/bin/gnu/h-x86_64-mingw32/bin/../lib/gcc/nios2-elf/9.2.1/../../../../../H-x86_64-mingw32/nios2-elf/lib\libc.a(lib_a-vfiprintfr_1.o)
 .data          0x0000000000035154        0x0 c:/intelfpga_lite/20.1/nios2eds/bin/gnu/h-x86_64-mingw32/bin/../lib/gcc/nios2-elf/9.2.1/../../../../../H-x86_64-mingw32/nios2-elf/lib\libc.a(lib_a-wcrtomb.o)
 .data          0x0000000000035154        0x0 c:/intelfpga_lite/20.1/nios2eds/bin/gnu/h-x86_64-mingw32/bin/../lib/gcc/nios2-elf/9.2.1/../../../../../H-x86_64-mingw32/nios2-elf/lib\libc.a(lib_a-wctomb_r.o)
 .data          0x0000000000035154        0x0 c:/intelfpga_lite/20.1/nios2eds/bin/gnu/h-x86_64-mingw32/bin/../lib/gcc/nios2-elf/9.2.1/../../../../../H-x86_64-mingw32/nios2-elf/lib\libc.a(lib_a-abort.o)
 .data          0x0000000000035154        0x0 c:/intelfpga_lite/20.1/nios2eds/bin/gnu/h-x86_64-mingw32/bin/../lib/gcc/nios2-elf/9.2.1/../../../../../H-x86_64-mingw32/nios2-elf/lib\libc.a(lib_a-ctype_.o)
 .data          0x0000000000035154        0x0 c:/intelfpga_lite/20.1/nios2eds/bin/gnu/h-x86_64-mingw32/bin/../lib/gcc/nios2-elf/9.2.1/../../../../../H-x86_64-mingw32/nios2-elf/lib\libc.a(lib_a-signal.o)
 .data          0x0000000000035154        0x0 c:/intelfpga_lite/20.1/nios2eds/bin/gnu/h-x86_64-mingw32/bin/../lib/gcc/nios2-elf/9.2.1/../../../../../H-x86_64-mingw32/nios2-elf/lib\libc.a(lib_a-signalr.o)
 .data          0x0000000000035154        0x0 c:/intelfpga_lite/20.1/nios2eds/bin/gnu/h-x86_64-mingw32/bin/../lib/gcc/nios2-elf/9.2.1\libgcc.a(_udivdi3.o)
 .data          0x0000000000035154        0x0 c:/intelfpga_lite/20.1/nios2eds/bin/gnu/h-x86_64-mingw32/bin/../lib/gcc/nios2-elf/9.2.1\libgcc.a(_umoddi3.o)
 .data          0x0000000000035154        0x0 c:/intelfpga_lite/20.1/nios2eds/bin/gnu/h-x86_64-mingw32/bin/../lib/gcc/nios2-elf/9.2.1\libgcc.a(adddf3.o)
 .data          0x0000000000035154        0x0 c:/intelfpga_lite/20.1/nios2eds/bin/gnu/h-x86_64-mingw32/bin/../lib/gcc/nios2-elf/9.2.1\libgcc.a(divdf3.o)
 .data          0x0000000000035154        0x0 c:/intelfpga_lite/20.1/nios2eds/bin/gnu/h-x86_64-mingw32/bin/../lib/gcc/nios2-elf/9.2.1\libgcc.a(eqdf2.o)
 .data          0x0000000000035154        0x0 c:/intelfpga_lite/20.1/nios2eds/bin/gnu/h-x86_64-mingw32/bin/../lib/gcc/nios2-elf/9.2.1\libgcc.a(gedf2.o)
 .data          0x0000000000035154        0x0 c:/intelfpga_lite/20.1/nios2eds/bin/gnu/h-x86_64-mingw32/bin/../lib/gcc/nios2-elf/9.2.1\libgcc.a(ledf2.o)
 .data          0x0000000000035154        0x0 c:/intelfpga_lite/20.1/nios2eds/bin/gnu/h-x86_64-mingw32/bin/../lib/gcc/nios2-elf/9.2.1\libgcc.a(muldf3.o)
 .data          0x0000000000035154        0x0 c:/intelfpga_lite/20.1/nios2eds/bin/gnu/h-x86_64-mingw32/bin/../lib/gcc/nios2-elf/9.2.1\libgcc.a(subdf3.o)
 .data          0x0000000000035154        0x0 c:/intelfpga_lite/20.1/nios2eds/bin/gnu/h-x86_64-mingw32/bin/../lib/gcc/nios2-elf/9.2.1\libgcc.a(unorddf2.o)
 .data          0x0000000000035154        0x0 c:/intelfpga_lite/20.1/nios2eds/bin/gnu/h-x86_64-mingw32/bin/../lib/gcc/nios2-elf/9.2.1\libgcc.a(fixdfsi.o)
 .data          0x0000000000035154        0x0 c:/intelfpga_lite/20.1/nios2eds/bin/gnu/h-x86_64-mingw32/bin/../lib/gcc/nios2-elf/9.2.1\libgcc.a(floatsidf.o)
 .data          0x0000000000035154        0x0 c:/intelfpga_lite/20.1/nios2eds/bin/gnu/h-x86_64-mingw32/bin/../lib/gcc/nios2-elf/9.2.1\libgcc.a(floatunsidf.o)
 .data          0x0000000000035154        0x0 c:/intelfpga_lite/20.1/nios2eds/bin/gnu/h-x86_64-mingw32/bin/../lib/gcc/nios2-elf/9.2.1\libgcc.a(_clz.o)
 .data          0x0000000000035154        0x0 c:/intelfpga_lite/20.1/nios2eds/bin/gnu/h-x86_64-mingw32/bin/../lib/gcc/nios2-elf/9.2.1\libgcc.a(_clzsi2.o)
 .data          0x0000000000035154        0x0 C:/Users/Emre/Documents/projectnios2/DE10_LITE_D8M_VIP_16/software/Vision_bsp\libhal_bsp.a(alt_close.o)
 .data          0x0000000000035154      0x1a8 C:/Users/Emre/Documents/projectnios2/DE10_LITE_D8M_VIP_16/software/Vision_bsp\libhal_bsp.a(alt_dev.o)
                0x0000000000035154                alt_dev_null
                0x000000000003517c                alt_fd_list
 .data          0x00000000000352fc        0x0 C:/Users/Emre/Documents/projectnios2/DE10_LITE_D8M_VIP_16/software/Vision_bsp\libhal_bsp.a(alt_errno.o)
 .data          0x00000000000352fc        0x0 C:/Users/Emre/Documents/projectnios2/DE10_LITE_D8M_VIP_16/software/Vision_bsp\libhal_bsp.a(alt_exit.o)
 .data          0x00000000000352fc        0x0 C:/Users/Emre/Documents/projectnios2/DE10_LITE_D8M_VIP_16/software/Vision_bsp\libhal_bsp.a(alt_fcntl.o)
 .data          0x00000000000352fc        0x0 C:/Users/Emre/Documents/projectnios2/DE10_LITE_D8M_VIP_16/software/Vision_bsp\libhal_bsp.a(alt_fstat.o)
 .data          0x00000000000352fc        0x0 C:/Users/Emre/Documents/projectnios2/DE10_LITE_D8M_VIP_16/software/Vision_bsp\libhal_bsp.a(alt_getpid.o)
 .data          0x00000000000352fc        0x0 C:/Users/Emre/Documents/projectnios2/DE10_LITE_D8M_VIP_16/software/Vision_bsp\libhal_bsp.a(alt_isatty.o)
 .data          0x00000000000352fc        0x0 C:/Users/Emre/Documents/projectnios2/DE10_LITE_D8M_VIP_16/software/Vision_bsp\libhal_bsp.a(alt_kill.o)
 .data          0x00000000000352fc        0x0 C:/Users/Emre/Documents/projectnios2/DE10_LITE_D8M_VIP_16/software/Vision_bsp\libhal_bsp.a(alt_load.o)
 .data          0x00000000000352fc        0x0 C:/Users/Emre/Documents/projectnios2/DE10_LITE_D8M_VIP_16/software/Vision_bsp\libhal_bsp.a(alt_lseek.o)
 .data          0x00000000000352fc        0x0 C:/Users/Emre/Documents/projectnios2/DE10_LITE_D8M_VIP_16/software/Vision_bsp\libhal_bsp.a(alt_main.o)
 .data          0x00000000000352fc        0x0 C:/Users/Emre/Documents/projectnios2/DE10_LITE_D8M_VIP_16/software/Vision_bsp\libhal_bsp.a(alt_malloc_lock.o)
 .data          0x00000000000352fc        0x0 C:/Users/Emre/Documents/projectnios2/DE10_LITE_D8M_VIP_16/software/Vision_bsp\libhal_bsp.a(alt_open.o)
 .data          0x00000000000352fc        0x0 C:/Users/Emre/Documents/projectnios2/DE10_LITE_D8M_VIP_16/software/Vision_bsp\libhal_bsp.a(alt_read.o)
 .data          0x00000000000352fc        0x0 C:/Users/Emre/Documents/projectnios2/DE10_LITE_D8M_VIP_16/software/Vision_bsp\libhal_bsp.a(alt_release_fd.o)
 .data          0x00000000000352fc        0x0 C:/Users/Emre/Documents/projectnios2/DE10_LITE_D8M_VIP_16/software/Vision_bsp\libhal_bsp.a(alt_sbrk.o)
 .data          0x00000000000352fc        0x0 C:/Users/Emre/Documents/projectnios2/DE10_LITE_D8M_VIP_16/software/Vision_bsp\libhal_bsp.a(alt_tick.o)
 .data          0x00000000000352fc        0x0 C:/Users/Emre/Documents/projectnios2/DE10_LITE_D8M_VIP_16/software/Vision_bsp\libhal_bsp.a(alt_usleep.o)
 .data          0x00000000000352fc        0x0 C:/Users/Emre/Documents/projectnios2/DE10_LITE_D8M_VIP_16/software/Vision_bsp\libhal_bsp.a(alt_write.o)
 .data          0x00000000000352fc     0x1124 C:/Users/Emre/Documents/projectnios2/DE10_LITE_D8M_VIP_16/software/Vision_bsp\libhal_bsp.a(alt_sys_init.o)
 .data          0x0000000000036420        0x0 C:/Users/Emre/Documents/projectnios2/DE10_LITE_D8M_VIP_16/software/Vision_bsp\libhal_bsp.a(altera_avalon_jtag_uart_fd.o)
 .data          0x0000000000036420        0x0 C:/Users/Emre/Documents/projectnios2/DE10_LITE_D8M_VIP_16/software/Vision_bsp\libhal_bsp.a(altera_avalon_jtag_uart_init.o)
 .data          0x0000000000036420        0x0 C:/Users/Emre/Documents/projectnios2/DE10_LITE_D8M_VIP_16/software/Vision_bsp\libhal_bsp.a(altera_avalon_jtag_uart_ioctl.o)
 .data          0x0000000000036420        0x0 C:/Users/Emre/Documents/projectnios2/DE10_LITE_D8M_VIP_16/software/Vision_bsp\libhal_bsp.a(altera_avalon_jtag_uart_read.o)
 .data          0x0000000000036420        0x0 C:/Users/Emre/Documents/projectnios2/DE10_LITE_D8M_VIP_16/software/Vision_bsp\libhal_bsp.a(altera_avalon_jtag_uart_write.o)
 .data          0x0000000000036420        0x0 C:/Users/Emre/Documents/projectnios2/DE10_LITE_D8M_VIP_16/software/Vision_bsp\libhal_bsp.a(altera_avalon_timer_sc.o)
 .data          0x0000000000036420        0x0 C:/Users/Emre/Documents/projectnios2/DE10_LITE_D8M_VIP_16/software/Vision_bsp\libhal_bsp.a(altera_avalon_uart_fd.o)
 .data          0x0000000000036420        0x0 C:/Users/Emre/Documents/projectnios2/DE10_LITE_D8M_VIP_16/software/Vision_bsp\libhal_bsp.a(altera_avalon_uart_init.o)
 .data          0x0000000000036420        0x0 C:/Users/Emre/Documents/projectnios2/DE10_LITE_D8M_VIP_16/software/Vision_bsp\libhal_bsp.a(altera_avalon_uart_read.o)
 .data          0x0000000000036420        0x0 C:/Users/Emre/Documents/projectnios2/DE10_LITE_D8M_VIP_16/software/Vision_bsp\libhal_bsp.a(altera_avalon_uart_write.o)
 .data          0x0000000000036420        0x0 C:/Users/Emre/Documents/projectnios2/DE10_LITE_D8M_VIP_16/software/Vision_bsp\libhal_bsp.a(alt_alarm_start.o)
 .data          0x0000000000036420        0x0 C:/Users/Emre/Documents/projectnios2/DE10_LITE_D8M_VIP_16/software/Vision_bsp\libhal_bsp.a(alt_busy_sleep.o)
 .data          0x0000000000036420        0x0 C:/Users/Emre/Documents/projectnios2/DE10_LITE_D8M_VIP_16/software/Vision_bsp\libhal_bsp.a(alt_dcache_flush_all.o)
 .data          0x0000000000036420        0x0 C:/Users/Emre/Documents/projectnios2/DE10_LITE_D8M_VIP_16/software/Vision_bsp\libhal_bsp.a(alt_dev_llist_insert.o)
 .data          0x0000000000036420        0x0 C:/Users/Emre/Documents/projectnios2/DE10_LITE_D8M_VIP_16/software/Vision_bsp\libhal_bsp.a(alt_do_ctors.o)
 .data          0x0000000000036420        0x0 C:/Users/Emre/Documents/projectnios2/DE10_LITE_D8M_VIP_16/software/Vision_bsp\libhal_bsp.a(alt_do_dtors.o)
 .data          0x0000000000036420        0x0 C:/Users/Emre/Documents/projectnios2/DE10_LITE_D8M_VIP_16/software/Vision_bsp\libhal_bsp.a(alt_find_dev.o)
 .data          0x0000000000036420        0x0 C:/Users/Emre/Documents/projectnios2/DE10_LITE_D8M_VIP_16/software/Vision_bsp\libhal_bsp.a(alt_find_file.o)
 .data          0x0000000000036420        0x0 C:/Users/Emre/Documents/projectnios2/DE10_LITE_D8M_VIP_16/software/Vision_bsp\libhal_bsp.a(alt_get_fd.o)
 .data          0x0000000000036420        0x0 C:/Users/Emre/Documents/projectnios2/DE10_LITE_D8M_VIP_16/software/Vision_bsp\libhal_bsp.a(alt_icache_flush_all.o)
 .data          0x0000000000036420        0x0 C:/Users/Emre/Documents/projectnios2/DE10_LITE_D8M_VIP_16/software/Vision_bsp\libhal_bsp.a(alt_iic.o)
 .data          0x0000000000036420        0x0 C:/Users/Emre/Documents/projectnios2/DE10_LITE_D8M_VIP_16/software/Vision_bsp\libhal_bsp.a(alt_iic_isr_register.o)
 .data          0x0000000000036420        0x0 C:/Users/Emre/Documents/projectnios2/DE10_LITE_D8M_VIP_16/software/Vision_bsp\libhal_bsp.a(alt_io_redirect.o)
 .data          0x0000000000036420        0x0 C:/Users/Emre/Documents/projectnios2/DE10_LITE_D8M_VIP_16/software/Vision_bsp\libhal_bsp.a(alt_irq_entry.o)
 .data          0x0000000000036420        0x0 C:/Users/Emre/Documents/projectnios2/DE10_LITE_D8M_VIP_16/software/Vision_bsp\libhal_bsp.a(alt_irq_handler.o)
 .data          0x0000000000036420        0x0 C:/Users/Emre/Documents/projectnios2/DE10_LITE_D8M_VIP_16/software/Vision_bsp\libhal_bsp.a(alt_irq_vars.o)
 .data          0x0000000000036420        0x0 C:/Users/Emre/Documents/projectnios2/DE10_LITE_D8M_VIP_16/software/Vision_bsp\libhal_bsp.a(altera_nios2_gen2_irq.o)
 .data          0x0000000000036420        0x0 C:/Users/Emre/Documents/projectnios2/DE10_LITE_D8M_VIP_16/software/Vision_bsp\libhal_bsp.a(alt_exception_entry.o)
 .data          0x0000000000036420        0x0 C:/Users/Emre/Documents/projectnios2/DE10_LITE_D8M_VIP_16/software/Vision_bsp\libhal_bsp.a(alt_icache_flush.o)
 .data          0x0000000000036420        0x0 C:/Users/Emre/Documents/projectnios2/DE10_LITE_D8M_VIP_16/software/Vision_bsp\libhal_bsp.a(alt_instruction_exception_entry.o)
 .data          0x0000000000036420        0x0 c:/intelfpga_lite/20.1/nios2eds/bin/gnu/h-x86_64-mingw32/bin/../lib/gcc/nios2-elf/9.2.1/../../../../../H-x86_64-mingw32/nios2-elf/lib\libc.a(lib_a-atexit.o)
 .data          0x0000000000036420        0x0 c:/intelfpga_lite/20.1/nios2eds/bin/gnu/h-x86_64-mingw32/bin/../lib/gcc/nios2-elf/9.2.1/../../../../../H-x86_64-mingw32/nios2-elf/lib\libc.a(lib_a-exit.o)
 .data          0x0000000000036420        0x0 c:/intelfpga_lite/20.1/nios2eds/bin/gnu/h-x86_64-mingw32/bin/../lib/gcc/nios2-elf/9.2.1/../../../../../H-x86_64-mingw32/nios2-elf/lib\libc.a(lib_a-memcmp.o)
 .data          0x0000000000036420        0x0 c:/intelfpga_lite/20.1/nios2eds/bin/gnu/h-x86_64-mingw32/bin/../lib/gcc/nios2-elf/9.2.1/../../../../../H-x86_64-mingw32/nios2-elf/lib\libc.a(lib_a-__atexit.o)
 .data          0x0000000000036420        0x0 c:/intelfpga_lite/20.1/nios2eds/bin/gnu/h-x86_64-mingw32/bin/../lib/gcc/nios2-elf/9.2.1/../../../../../H-x86_64-mingw32/nios2-elf/lib\libc.a(lib_a-__call_atexit.o)
                0x000000000003e420                _gp = ABSOLUTE ((. + 0x8000))
                [!provide]                        PROVIDE (gp = _gp)
 *(.rwdata .rwdata.*)
 *(.sdata .sdata.* .gnu.linkonce.s.*)
 .sdata         0x0000000000036420        0xb obj/default/auto_focus.o
                0x0000000000036420                video_w
                0x0000000000036422                video_h
                0x0000000000036424                focus_width
                0x0000000000036426                focus_height
                0x0000000000036428                focus_scal
                0x0000000000036429                focus_scal_f
                0x000000000003642a                focus_th
 *fill*         0x000000000003642b        0x1 
 .sdata._global_impure_ptr
                0x000000000003642c        0x4 c:/intelfpga_lite/20.1/nios2eds/bin/gnu/h-x86_64-mingw32/bin/../lib/gcc/nios2-elf/9.2.1/../../../../../H-x86_64-mingw32/nios2-elf/lib\libc.a(lib_a-impure.o)
                0x000000000003642c                _global_impure_ptr
 .sdata._impure_ptr
                0x0000000000036430        0x4 c:/intelfpga_lite/20.1/nios2eds/bin/gnu/h-x86_64-mingw32/bin/../lib/gcc/nios2-elf/9.2.1/../../../../../H-x86_64-mingw32/nios2-elf/lib\libc.a(lib_a-impure.o)
                0x0000000000036430                _impure_ptr
 .sdata.__malloc_sbrk_base
                0x0000000000036434        0x4 c:/intelfpga_lite/20.1/nios2eds/bin/gnu/h-x86_64-mingw32/bin/../lib/gcc/nios2-elf/9.2.1/../../../../../H-x86_64-mingw32/nios2-elf/lib\libc.a(lib_a-mallocr.o)
                0x0000000000036434                __malloc_sbrk_base
 .sdata.__malloc_trim_threshold
                0x0000000000036438        0x4 c:/intelfpga_lite/20.1/nios2eds/bin/gnu/h-x86_64-mingw32/bin/../lib/gcc/nios2-elf/9.2.1/../../../../../H-x86_64-mingw32/nios2-elf/lib\libc.a(lib_a-mallocr.o)
                0x0000000000036438                __malloc_trim_threshold
 .sdata         0x000000000003643c       0x14 C:/Users/Emre/Documents/projectnios2/DE10_LITE_D8M_VIP_16/software/Vision_bsp\libhal_bsp.a(alt_dev.o)
                0x000000000003643c                alt_fs_list
                0x0000000000036444                alt_dev_list
                0x000000000003644c                alt_max_fd
 .sdata         0x0000000000036450        0x4 C:/Users/Emre/Documents/projectnios2/DE10_LITE_D8M_VIP_16/software/Vision_bsp\libhal_bsp.a(alt_errno.o)
                0x0000000000036450                alt_errno
 .sdata         0x0000000000036454        0x4 C:/Users/Emre/Documents/projectnios2/DE10_LITE_D8M_VIP_16/software/Vision_bsp\libhal_bsp.a(alt_sbrk.o)
 .sdata         0x0000000000036458        0x8 C:/Users/Emre/Documents/projectnios2/DE10_LITE_D8M_VIP_16/software/Vision_bsp\libhal_bsp.a(alt_tick.o)
                0x0000000000036458                alt_alarm_list
 .sdata         0x0000000000036460        0x4 C:/Users/Emre/Documents/projectnios2/DE10_LITE_D8M_VIP_16/software/Vision_bsp\libhal_bsp.a(alt_irq_vars.o)
                0x0000000000036460                alt_priority_mask
 *(.sdata2 .sdata2.* .gnu.linkonce.s2.*)
                0x0000000000036464                . = ALIGN (0x4)
                0x0000000000036464                _edata = ABSOLUTE (.)
                [!provide]                        PROVIDE (edata = ABSOLUTE (.))
                0x0000000000036464                PROVIDE (__ram_rwdata_end = ABSOLUTE (.))
                0x0000000000036464                PROVIDE (__flash_rwdata_start = LOADADDR (.rwdata))

.bss            0x00000000000388b4      0x158
                0x00000000000388b4                __bss_start = ABSOLUTE (.)
                [!provide]                        PROVIDE (__sbss_start = ABSOLUTE (.))
                [!provide]                        PROVIDE (___sbss_start = ABSOLUTE (.))
 *(.dynsbss)
 *(.sbss .sbss.* .gnu.linkonce.sb.*)
 .sbss          0x00000000000388b4        0x4 c:/intelfpga_lite/20.1/nios2eds/bin/gnu/h-x86_64-mingw32/bin/../lib/gcc/nios2-elf/9.2.1/../../../../../H-x86_64-mingw32/nios2-elf/lib\libc.a(lib_a-int_errno.o)
                0x00000000000388b4                errno
 .sbss.__malloc_max_total_mem
                0x00000000000388b8        0x4 c:/intelfpga_lite/20.1/nios2eds/bin/gnu/h-x86_64-mingw32/bin/../lib/gcc/nios2-elf/9.2.1/../../../../../H-x86_64-mingw32/nios2-elf/lib\libc.a(lib_a-mallocr.o)
                0x00000000000388b8                __malloc_max_total_mem
 .sbss.__malloc_max_sbrked_mem
                0x00000000000388bc        0x4 c:/intelfpga_lite/20.1/nios2eds/bin/gnu/h-x86_64-mingw32/bin/../lib/gcc/nios2-elf/9.2.1/../../../../../H-x86_64-mingw32/nios2-elf/lib\libc.a(lib_a-mallocr.o)
                0x00000000000388bc                __malloc_max_sbrked_mem
 .sbss.__malloc_top_pad
                0x00000000000388c0        0x4 c:/intelfpga_lite/20.1/nios2eds/bin/gnu/h-x86_64-mingw32/bin/../lib/gcc/nios2-elf/9.2.1/../../../../../H-x86_64-mingw32/nios2-elf/lib\libc.a(lib_a-mallocr.o)
                0x00000000000388c0                __malloc_top_pad
 .sbss._PathLocale
                0x00000000000388c4        0x4 c:/intelfpga_lite/20.1/nios2eds/bin/gnu/h-x86_64-mingw32/bin/../lib/gcc/nios2-elf/9.2.1/../../../../../H-x86_64-mingw32/nios2-elf/lib\libc.a(lib_a-locale.o)
                0x00000000000388c4                _PathLocale
 .sbss          0x00000000000388c8        0xc C:/Users/Emre/Documents/projectnios2/DE10_LITE_D8M_VIP_16/software/Vision_bsp\libhal_bsp.a(alt_main.o)
                0x00000000000388c8                alt_argc
                0x00000000000388cc                alt_argv
                0x00000000000388d0                alt_envp
 .sbss          0x00000000000388d4        0x8 C:/Users/Emre/Documents/projectnios2/DE10_LITE_D8M_VIP_16/software/Vision_bsp\libhal_bsp.a(alt_tick.o)
                0x00000000000388d4                _alt_tick_rate
                0x00000000000388d8                _alt_nticks
 .sbss          0x00000000000388dc        0x4 C:/Users/Emre/Documents/projectnios2/DE10_LITE_D8M_VIP_16/software/Vision_bsp\libhal_bsp.a(alt_irq_vars.o)
                0x00000000000388dc                alt_irq_active
 .sbss          0x00000000000388e0        0x4 C:/Users/Emre/Documents/projectnios2/DE10_LITE_D8M_VIP_16/software/Vision_bsp\libhal_bsp.a(alt_instruction_exception_entry.o)
                0x00000000000388e0                alt_instruction_exception_handler
 *(.sbss2 .sbss2.* .gnu.linkonce.sb2.*)
 *(.scommon)
                [!provide]                        PROVIDE (__sbss_end = ABSOLUTE (.))
                [!provide]                        PROVIDE (___sbss_end = ABSOLUTE (.))
 *(.dynbss)
 *(.bss .bss.* .gnu.linkonce.b.*)
 .bss           0x00000000000388e4        0x0 C:/Users/Emre/Documents/projectnios2/DE10_LITE_D8M_VIP_16/software/Vision_bsp/obj/HAL/src/crt0.o
 .bss           0x00000000000388e4        0x0 obj/default/I2C_core.o
 .bss           0x00000000000388e4        0x0 obj/default/auto_focus.o
 .bss           0x00000000000388e4        0x0 obj/default/main.o
 .bss           0x00000000000388e4        0x0 obj/default/mipi_bridge_config.o
 .bss           0x00000000000388e4        0x0 obj/default/mipi_camera_config.o
 .bss           0x00000000000388e4        0x0 obj/default/queue.o
 .bss           0x00000000000388e4        0x0 c:/intelfpga_lite/20.1/nios2eds/bin/gnu/h-x86_64-mingw32/bin/../lib/gcc/nios2-elf/9.2.1\libgcc.a(lib2-divmod.o)
 .bss           0x00000000000388e4        0x0 c:/intelfpga_lite/20.1/nios2eds/bin/gnu/h-x86_64-mingw32/bin/../lib/gcc/nios2-elf/9.2.1/../../../../../H-x86_64-mingw32/nios2-elf/lib\libc.a(lib_a-fopen.o)
 .bss           0x00000000000388e4        0x0 c:/intelfpga_lite/20.1/nios2eds/bin/gnu/h-x86_64-mingw32/bin/../lib/gcc/nios2-elf/9.2.1/../../../../../H-x86_64-mingw32/nios2-elf/lib\libc.a(lib_a-fseek.o)
 .bss           0x00000000000388e4        0x0 c:/intelfpga_lite/20.1/nios2eds/bin/gnu/h-x86_64-mingw32/bin/../lib/gcc/nios2-elf/9.2.1/../../../../../H-x86_64-mingw32/nios2-elf/lib\libc.a(lib_a-fseeko.o)
 .bss           0x00000000000388e4        0x0 c:/intelfpga_lite/20.1/nios2eds/bin/gnu/h-x86_64-mingw32/bin/../lib/gcc/nios2-elf/9.2.1/../../../../../H-x86_64-mingw32/nios2-elf/lib\libc.a(lib_a-fstatr.o)
 .bss           0x00000000000388e4        0x0 c:/intelfpga_lite/20.1/nios2eds/bin/gnu/h-x86_64-mingw32/bin/../lib/gcc/nios2-elf/9.2.1/../../../../../H-x86_64-mingw32/nios2-elf/lib\libc.a(lib_a-fwrite.o)
 .bss           0x00000000000388e4        0x0 c:/intelfpga_lite/20.1/nios2eds/bin/gnu/h-x86_64-mingw32/bin/../lib/gcc/nios2-elf/9.2.1/../../../../../H-x86_64-mingw32/nios2-elf/lib\libc.a(lib_a-getchar.o)
 .bss           0x00000000000388e4        0x0 c:/intelfpga_lite/20.1/nios2eds/bin/gnu/h-x86_64-mingw32/bin/../lib/gcc/nios2-elf/9.2.1/../../../../../H-x86_64-mingw32/nios2-elf/lib\libc.a(lib_a-impure.o)
 .bss           0x00000000000388e4        0x0 c:/intelfpga_lite/20.1/nios2eds/bin/gnu/h-x86_64-mingw32/bin/../lib/gcc/nios2-elf/9.2.1/../../../../../H-x86_64-mingw32/nios2-elf/lib\libc.a(lib_a-int_errno.o)
 .bss           0x00000000000388e4        0x0 c:/intelfpga_lite/20.1/nios2eds/bin/gnu/h-x86_64-mingw32/bin/../lib/gcc/nios2-elf/9.2.1/../../../../../H-x86_64-mingw32/nios2-elf/lib\libc.a(lib_a-makebuf.o)
 .bss           0x00000000000388e4        0x0 c:/intelfpga_lite/20.1/nios2eds/bin/gnu/h-x86_64-mingw32/bin/../lib/gcc/nios2-elf/9.2.1/../../../../../H-x86_64-mingw32/nios2-elf/lib\libc.a(lib_a-malloc.o)
 .bss           0x00000000000388e4        0x0 c:/intelfpga_lite/20.1/nios2eds/bin/gnu/h-x86_64-mingw32/bin/../lib/gcc/nios2-elf/9.2.1/../../../../../H-x86_64-mingw32/nios2-elf/lib\libc.a(lib_a-mallocr.o)
 .bss.__malloc_current_mallinfo
                0x00000000000388e4       0x28 c:/intelfpga_lite/20.1/nios2eds/bin/gnu/h-x86_64-mingw32/bin/../lib/gcc/nios2-elf/9.2.1/../../../../../H-x86_64-mingw32/nios2-elf/lib\libc.a(lib_a-mallocr.o)
                0x00000000000388e4                __malloc_current_mallinfo
 .bss           0x000000000003890c        0x0 c:/intelfpga_lite/20.1/nios2eds/bin/gnu/h-x86_64-mingw32/bin/../lib/gcc/nios2-elf/9.2.1/../../../../../H-x86_64-mingw32/nios2-elf/lib\libc.a(lib_a-memset.o)
 .bss           0x000000000003890c        0x0 c:/intelfpga_lite/20.1/nios2eds/bin/gnu/h-x86_64-mingw32/bin/../lib/gcc/nios2-elf/9.2.1/../../../../../H-x86_64-mingw32/nios2-elf/lib\libc.a(lib_a-openr.o)
 .bss           0x000000000003890c        0x0 c:/intelfpga_lite/20.1/nios2eds/bin/gnu/h-x86_64-mingw32/bin/../lib/gcc/nios2-elf/9.2.1/../../../../../H-x86_64-mingw32/nios2-elf/lib\libc.a(lib_a-printf.o)
 .bss           0x000000000003890c        0x0 c:/intelfpga_lite/20.1/nios2eds/bin/gnu/h-x86_64-mingw32/bin/../lib/gcc/nios2-elf/9.2.1/../../../../../H-x86_64-mingw32/nios2-elf/lib\libc.a(lib_a-putchar.o)
 .bss           0x000000000003890c        0x0 c:/intelfpga_lite/20.1/nios2eds/bin/gnu/h-x86_64-mingw32/bin/../lib/gcc/nios2-elf/9.2.1/../../../../../H-x86_64-mingw32/nios2-elf/lib\libc.a(lib_a-puts.o)
 .bss           0x000000000003890c        0x0 c:/intelfpga_lite/20.1/nios2eds/bin/gnu/h-x86_64-mingw32/bin/../lib/gcc/nios2-elf/9.2.1/../../../../../H-x86_64-mingw32/nios2-elf/lib\libc.a(lib_a-refill.o)
 .bss           0x000000000003890c        0x0 c:/intelfpga_lite/20.1/nios2eds/bin/gnu/h-x86_64-mingw32/bin/../lib/gcc/nios2-elf/9.2.1/../../../../../H-x86_64-mingw32/nios2-elf/lib\libc.a(lib_a-sbrkr.o)
 .bss           0x000000000003890c        0x0 c:/intelfpga_lite/20.1/nios2eds/bin/gnu/h-x86_64-mingw32/bin/../lib/gcc/nios2-elf/9.2.1/../../../../../H-x86_64-mingw32/nios2-elf/lib\libc.a(lib_a-stdio.o)
 .bss           0x000000000003890c        0x0 c:/intelfpga_lite/20.1/nios2eds/bin/gnu/h-x86_64-mingw32/bin/../lib/gcc/nios2-elf/9.2.1/../../../../../H-x86_64-mingw32/nios2-elf/lib\libc.a(lib_a-strlen.o)
 .bss           0x000000000003890c        0x0 c:/intelfpga_lite/20.1/nios2eds/bin/gnu/h-x86_64-mingw32/bin/../lib/gcc/nios2-elf/9.2.1/../../../../../H-x86_64-mingw32/nios2-elf/lib\libc.a(lib_a-vfprintf.o)
 .bss           0x000000000003890c        0x0 c:/intelfpga_lite/20.1/nios2eds/bin/gnu/h-x86_64-mingw32/bin/../lib/gcc/nios2-elf/9.2.1/../../../../../H-x86_64-mingw32/nios2-elf/lib\libc.a(lib_a-writer.o)
 .bss           0x000000000003890c        0x0 c:/intelfpga_lite/20.1/nios2eds/bin/gnu/h-x86_64-mingw32/bin/../lib/gcc/nios2-elf/9.2.1/../../../../../H-x86_64-mingw32/nios2-elf/lib\libc.a(lib_a-wsetup.o)
 .bss           0x000000000003890c        0x0 c:/intelfpga_lite/20.1/nios2eds/bin/gnu/h-x86_64-mingw32/bin/../lib/gcc/nios2-elf/9.2.1/../../../../../H-x86_64-mingw32/nios2-elf/lib\libc.a(closer.o)
 .bss           0x000000000003890c        0x0 c:/intelfpga_lite/20.1/nios2eds/bin/gnu/h-x86_64-mingw32/bin/../lib/gcc/nios2-elf/9.2.1/../../../../../H-x86_64-mingw32/nios2-elf/lib\libc.a(lib_a-dtoa.o)
 .bss           0x000000000003890c        0x0 c:/intelfpga_lite/20.1/nios2eds/bin/gnu/h-x86_64-mingw32/bin/../lib/gcc/nios2-elf/9.2.1/../../../../../H-x86_64-mingw32/nios2-elf/lib\libc.a(lib_a-fflush.o)
 .bss           0x000000000003890c        0x0 c:/intelfpga_lite/20.1/nios2eds/bin/gnu/h-x86_64-mingw32/bin/../lib/gcc/nios2-elf/9.2.1/../../../../../H-x86_64-mingw32/nios2-elf/lib\libc.a(lib_a-findfp.o)
 .bss           0x000000000003890c        0x0 c:/intelfpga_lite/20.1/nios2eds/bin/gnu/h-x86_64-mingw32/bin/../lib/gcc/nios2-elf/9.2.1/../../../../../H-x86_64-mingw32/nios2-elf/lib\libc.a(lib_a-flags.o)
 .bss           0x000000000003890c        0x0 c:/intelfpga_lite/20.1/nios2eds/bin/gnu/h-x86_64-mingw32/bin/../lib/gcc/nios2-elf/9.2.1/../../../../../H-x86_64-mingw32/nios2-elf/lib\libc.a(lib_a-freer.o)
 .bss           0x000000000003890c        0x0 c:/intelfpga_lite/20.1/nios2eds/bin/gnu/h-x86_64-mingw32/bin/../lib/gcc/nios2-elf/9.2.1/../../../../../H-x86_64-mingw32/nios2-elf/lib\libc.a(lib_a-fvwrite.o)
 .bss           0x000000000003890c        0x0 c:/intelfpga_lite/20.1/nios2eds/bin/gnu/h-x86_64-mingw32/bin/../lib/gcc/nios2-elf/9.2.1/../../../../../H-x86_64-mingw32/nios2-elf/lib\libc.a(lib_a-fwalk.o)
 .bss           0x000000000003890c        0x0 c:/intelfpga_lite/20.1/nios2eds/bin/gnu/h-x86_64-mingw32/bin/../lib/gcc/nios2-elf/9.2.1/../../../../../H-x86_64-mingw32/nios2-elf/lib\libc.a(lib_a-getc.o)
 .bss           0x000000000003890c        0x0 c:/intelfpga_lite/20.1/nios2eds/bin/gnu/h-x86_64-mingw32/bin/../lib/gcc/nios2-elf/9.2.1/../../../../../H-x86_64-mingw32/nios2-elf/lib\libc.a(lib_a-isattyr.o)
 .bss           0x000000000003890c        0x0 c:/intelfpga_lite/20.1/nios2eds/bin/gnu/h-x86_64-mingw32/bin/../lib/gcc/nios2-elf/9.2.1/../../../../../H-x86_64-mingw32/nios2-elf/lib\libc.a(lib_a-localeconv.o)
 .bss           0x000000000003890c        0x0 c:/intelfpga_lite/20.1/nios2eds/bin/gnu/h-x86_64-mingw32/bin/../lib/gcc/nios2-elf/9.2.1/../../../../../H-x86_64-mingw32/nios2-elf/lib\libc.a(lib_a-lseekr.o)
 .bss           0x000000000003890c        0x0 c:/intelfpga_lite/20.1/nios2eds/bin/gnu/h-x86_64-mingw32/bin/../lib/gcc/nios2-elf/9.2.1/../../../../../H-x86_64-mingw32/nios2-elf/lib\libc.a(lib_a-memchr.o)
 .bss           0x000000000003890c        0x0 c:/intelfpga_lite/20.1/nios2eds/bin/gnu/h-x86_64-mingw32/bin/../lib/gcc/nios2-elf/9.2.1/../../../../../H-x86_64-mingw32/nios2-elf/lib\libc.a(lib_a-memcpy.o)
 .bss           0x000000000003890c        0x0 c:/intelfpga_lite/20.1/nios2eds/bin/gnu/h-x86_64-mingw32/bin/../lib/gcc/nios2-elf/9.2.1/../../../../../H-x86_64-mingw32/nios2-elf/lib\libc.a(lib_a-memmove.o)
 .bss           0x000000000003890c        0x0 c:/intelfpga_lite/20.1/nios2eds/bin/gnu/h-x86_64-mingw32/bin/../lib/gcc/nios2-elf/9.2.1/../../../../../H-x86_64-mingw32/nios2-elf/lib\libc.a(lib_a-mprec.o)
 .bss           0x000000000003890c        0x0 c:/intelfpga_lite/20.1/nios2eds/bin/gnu/h-x86_64-mingw32/bin/../lib/gcc/nios2-elf/9.2.1/../../../../../H-x86_64-mingw32/nios2-elf/lib\libc.a(lib_a-putc.o)
 .bss           0x000000000003890c        0x0 c:/intelfpga_lite/20.1/nios2eds/bin/gnu/h-x86_64-mingw32/bin/../lib/gcc/nios2-elf/9.2.1/../../../../../H-x86_64-mingw32/nios2-elf/lib\libc.a(lib_a-readr.o)
 .bss           0x000000000003890c        0x0 c:/intelfpga_lite/20.1/nios2eds/bin/gnu/h-x86_64-mingw32/bin/../lib/gcc/nios2-elf/9.2.1/../../../../../H-x86_64-mingw32/nios2-elf/lib\libc.a(lib_a-reallocr.o)
 .bss           0x000000000003890c        0x0 c:/intelfpga_lite/20.1/nios2eds/bin/gnu/h-x86_64-mingw32/bin/../lib/gcc/nios2-elf/9.2.1/../../../../../H-x86_64-mingw32/nios2-elf/lib\libc.a(lib_a-rget.o)
 .bss           0x000000000003890c        0x0 c:/intelfpga_lite/20.1/nios2eds/bin/gnu/h-x86_64-mingw32/bin/../lib/gcc/nios2-elf/9.2.1/../../../../../H-x86_64-mingw32/nios2-elf/lib\libc.a(lib_a-vfiprintf.o)
 .bss           0x000000000003890c        0x0 c:/intelfpga_lite/20.1/nios2eds/bin/gnu/h-x86_64-mingw32/bin/../lib/gcc/nios2-elf/9.2.1/../../../../../H-x86_64-mingw32/nios2-elf/lib\libc.a(lib_a-wbuf.o)
 .bss           0x000000000003890c        0x0 c:/intelfpga_lite/20.1/nios2eds/bin/gnu/h-x86_64-mingw32/bin/../lib/gcc/nios2-elf/9.2.1/../../../../../H-x86_64-mingw32/nios2-elf/lib\libc.a(lib_a-assert.o)
 .bss           0x000000000003890c        0x0 c:/intelfpga_lite/20.1/nios2eds/bin/gnu/h-x86_64-mingw32/bin/../lib/gcc/nios2-elf/9.2.1/../../../../../H-x86_64-mingw32/nios2-elf/lib\libc.a(lib_a-callocr.o)
 .bss           0x000000000003890c        0x0 c:/intelfpga_lite/20.1/nios2eds/bin/gnu/h-x86_64-mingw32/bin/../lib/gcc/nios2-elf/9.2.1/../../../../../H-x86_64-mingw32/nios2-elf/lib\libc.a(lib_a-fclose.o)
 .bss           0x000000000003890c        0x0 c:/intelfpga_lite/20.1/nios2eds/bin/gnu/h-x86_64-mingw32/bin/../lib/gcc/nios2-elf/9.2.1/../../../../../H-x86_64-mingw32/nios2-elf/lib\libc.a(lib_a-fiprintf.o)
 .bss           0x000000000003890c        0x0 c:/intelfpga_lite/20.1/nios2eds/bin/gnu/h-x86_64-mingw32/bin/../lib/gcc/nios2-elf/9.2.1/../../../../../H-x86_64-mingw32/nios2-elf/lib\libc.a(lib_a-fputwc.o)
 .bss           0x000000000003890c        0x0 c:/intelfpga_lite/20.1/nios2eds/bin/gnu/h-x86_64-mingw32/bin/../lib/gcc/nios2-elf/9.2.1/../../../../../H-x86_64-mingw32/nios2-elf/lib\libc.a(lib_a-locale.o)
 .bss           0x000000000003890c        0x0 c:/intelfpga_lite/20.1/nios2eds/bin/gnu/h-x86_64-mingw32/bin/../lib/gcc/nios2-elf/9.2.1/../../../../../H-x86_64-mingw32/nios2-elf/lib\libc.a(lib_a-mbtowc_r.o)
 .bss           0x000000000003890c        0x0 c:/intelfpga_lite/20.1/nios2eds/bin/gnu/h-x86_64-mingw32/bin/../lib/gcc/nios2-elf/9.2.1/../../../../../H-x86_64-mingw32/nios2-elf/lib\libc.a(lib_a-strcmp.o)
 .bss           0x000000000003890c        0x0 c:/intelfpga_lite/20.1/nios2eds/bin/gnu/h-x86_64-mingw32/bin/../lib/gcc/nios2-elf/9.2.1/../../../../../H-x86_64-mingw32/nios2-elf/lib\libc.a(lib_a-vfiprintfr_1.o)
 .bss           0x000000000003890c        0x0 c:/intelfpga_lite/20.1/nios2eds/bin/gnu/h-x86_64-mingw32/bin/../lib/gcc/nios2-elf/9.2.1/../../../../../H-x86_64-mingw32/nios2-elf/lib\libc.a(lib_a-wcrtomb.o)
 .bss           0x000000000003890c        0x0 c:/intelfpga_lite/20.1/nios2eds/bin/gnu/h-x86_64-mingw32/bin/../lib/gcc/nios2-elf/9.2.1/../../../../../H-x86_64-mingw32/nios2-elf/lib\libc.a(lib_a-wctomb_r.o)
 .bss           0x000000000003890c        0x0 c:/intelfpga_lite/20.1/nios2eds/bin/gnu/h-x86_64-mingw32/bin/../lib/gcc/nios2-elf/9.2.1/../../../../../H-x86_64-mingw32/nios2-elf/lib\libc.a(lib_a-abort.o)
 .bss           0x000000000003890c        0x0 c:/intelfpga_lite/20.1/nios2eds/bin/gnu/h-x86_64-mingw32/bin/../lib/gcc/nios2-elf/9.2.1/../../../../../H-x86_64-mingw32/nios2-elf/lib\libc.a(lib_a-ctype_.o)
 .bss           0x000000000003890c        0x0 c:/intelfpga_lite/20.1/nios2eds/bin/gnu/h-x86_64-mingw32/bin/../lib/gcc/nios2-elf/9.2.1/../../../../../H-x86_64-mingw32/nios2-elf/lib\libc.a(lib_a-signal.o)
 .bss           0x000000000003890c        0x0 c:/intelfpga_lite/20.1/nios2eds/bin/gnu/h-x86_64-mingw32/bin/../lib/gcc/nios2-elf/9.2.1/../../../../../H-x86_64-mingw32/nios2-elf/lib\libc.a(lib_a-signalr.o)
 .bss           0x000000000003890c        0x0 c:/intelfpga_lite/20.1/nios2eds/bin/gnu/h-x86_64-mingw32/bin/../lib/gcc/nios2-elf/9.2.1\libgcc.a(_udivdi3.o)
 .bss           0x000000000003890c        0x0 c:/intelfpga_lite/20.1/nios2eds/bin/gnu/h-x86_64-mingw32/bin/../lib/gcc/nios2-elf/9.2.1\libgcc.a(_umoddi3.o)
 .bss           0x000000000003890c        0x0 c:/intelfpga_lite/20.1/nios2eds/bin/gnu/h-x86_64-mingw32/bin/../lib/gcc/nios2-elf/9.2.1\libgcc.a(adddf3.o)
 .bss           0x000000000003890c        0x0 c:/intelfpga_lite/20.1/nios2eds/bin/gnu/h-x86_64-mingw32/bin/../lib/gcc/nios2-elf/9.2.1\libgcc.a(divdf3.o)
 .bss           0x000000000003890c        0x0 c:/intelfpga_lite/20.1/nios2eds/bin/gnu/h-x86_64-mingw32/bin/../lib/gcc/nios2-elf/9.2.1\libgcc.a(eqdf2.o)
 .bss           0x000000000003890c        0x0 c:/intelfpga_lite/20.1/nios2eds/bin/gnu/h-x86_64-mingw32/bin/../lib/gcc/nios2-elf/9.2.1\libgcc.a(gedf2.o)
 .bss           0x000000000003890c        0x0 c:/intelfpga_lite/20.1/nios2eds/bin/gnu/h-x86_64-mingw32/bin/../lib/gcc/nios2-elf/9.2.1\libgcc.a(ledf2.o)
 .bss           0x000000000003890c        0x0 c:/intelfpga_lite/20.1/nios2eds/bin/gnu/h-x86_64-mingw32/bin/../lib/gcc/nios2-elf/9.2.1\libgcc.a(muldf3.o)
 .bss           0x000000000003890c        0x0 c:/intelfpga_lite/20.1/nios2eds/bin/gnu/h-x86_64-mingw32/bin/../lib/gcc/nios2-elf/9.2.1\libgcc.a(subdf3.o)
 .bss           0x000000000003890c        0x0 c:/intelfpga_lite/20.1/nios2eds/bin/gnu/h-x86_64-mingw32/bin/../lib/gcc/nios2-elf/9.2.1\libgcc.a(unorddf2.o)
 .bss           0x000000000003890c        0x0 c:/intelfpga_lite/20.1/nios2eds/bin/gnu/h-x86_64-mingw32/bin/../lib/gcc/nios2-elf/9.2.1\libgcc.a(fixdfsi.o)
 .bss           0x000000000003890c        0x0 c:/intelfpga_lite/20.1/nios2eds/bin/gnu/h-x86_64-mingw32/bin/../lib/gcc/nios2-elf/9.2.1\libgcc.a(floatsidf.o)
 .bss           0x000000000003890c        0x0 c:/intelfpga_lite/20.1/nios2eds/bin/gnu/h-x86_64-mingw32/bin/../lib/gcc/nios2-elf/9.2.1\libgcc.a(floatunsidf.o)
 .bss           0x000000000003890c        0x0 c:/intelfpga_lite/20.1/nios2eds/bin/gnu/h-x86_64-mingw32/bin/../lib/gcc/nios2-elf/9.2.1\libgcc.a(_clz.o)
 .bss           0x000000000003890c        0x0 c:/intelfpga_lite/20.1/nios2eds/bin/gnu/h-x86_64-mingw32/bin/../lib/gcc/nios2-elf/9.2.1\libgcc.a(_clzsi2.o)
 .bss           0x000000000003890c        0x0 C:/Users/Emre/Documents/projectnios2/DE10_LITE_D8M_VIP_16/software/Vision_bsp\libhal_bsp.a(alt_close.o)
 .bss           0x000000000003890c        0x0 C:/Users/Emre/Documents/projectnios2/DE10_LITE_D8M_VIP_16/software/Vision_bsp\libhal_bsp.a(alt_dev.o)
 .bss           0x000000000003890c        0x0 C:/Users/Emre/Documents/projectnios2/DE10_LITE_D8M_VIP_16/software/Vision_bsp\libhal_bsp.a(alt_errno.o)
 .bss           0x000000000003890c        0x0 C:/Users/Emre/Documents/projectnios2/DE10_LITE_D8M_VIP_16/software/Vision_bsp\libhal_bsp.a(alt_exit.o)
 .bss           0x000000000003890c        0x0 C:/Users/Emre/Documents/projectnios2/DE10_LITE_D8M_VIP_16/software/Vision_bsp\libhal_bsp.a(alt_fcntl.o)
 .bss           0x000000000003890c        0x0 C:/Users/Emre/Documents/projectnios2/DE10_LITE_D8M_VIP_16/software/Vision_bsp\libhal_bsp.a(alt_fstat.o)
 .bss           0x000000000003890c        0x0 C:/Users/Emre/Documents/projectnios2/DE10_LITE_D8M_VIP_16/software/Vision_bsp\libhal_bsp.a(alt_getpid.o)
 .bss           0x000000000003890c        0x0 C:/Users/Emre/Documents/projectnios2/DE10_LITE_D8M_VIP_16/software/Vision_bsp\libhal_bsp.a(alt_isatty.o)
 .bss           0x000000000003890c        0x0 C:/Users/Emre/Documents/projectnios2/DE10_LITE_D8M_VIP_16/software/Vision_bsp\libhal_bsp.a(alt_kill.o)
 .bss           0x000000000003890c        0x0 C:/Users/Emre/Documents/projectnios2/DE10_LITE_D8M_VIP_16/software/Vision_bsp\libhal_bsp.a(alt_load.o)
 .bss           0x000000000003890c        0x0 C:/Users/Emre/Documents/projectnios2/DE10_LITE_D8M_VIP_16/software/Vision_bsp\libhal_bsp.a(alt_lseek.o)
 .bss           0x000000000003890c        0x0 C:/Users/Emre/Documents/projectnios2/DE10_LITE_D8M_VIP_16/software/Vision_bsp\libhal_bsp.a(alt_main.o)
 .bss           0x000000000003890c        0x0 C:/Users/Emre/Documents/projectnios2/DE10_LITE_D8M_VIP_16/software/Vision_bsp\libhal_bsp.a(alt_malloc_lock.o)
 .bss           0x000000000003890c        0x0 C:/Users/Emre/Documents/projectnios2/DE10_LITE_D8M_VIP_16/software/Vision_bsp\libhal_bsp.a(alt_open.o)
 .bss           0x000000000003890c        0x0 C:/Users/Emre/Documents/projectnios2/DE10_LITE_D8M_VIP_16/software/Vision_bsp\libhal_bsp.a(alt_read.o)
 .bss           0x000000000003890c        0x0 C:/Users/Emre/Documents/projectnios2/DE10_LITE_D8M_VIP_16/software/Vision_bsp\libhal_bsp.a(alt_release_fd.o)
 .bss           0x000000000003890c        0x0 C:/Users/Emre/Documents/projectnios2/DE10_LITE_D8M_VIP_16/software/Vision_bsp\libhal_bsp.a(alt_sbrk.o)
 .bss           0x000000000003890c        0x0 C:/Users/Emre/Documents/projectnios2/DE10_LITE_D8M_VIP_16/software/Vision_bsp\libhal_bsp.a(alt_tick.o)
 .bss           0x000000000003890c        0x0 C:/Users/Emre/Documents/projectnios2/DE10_LITE_D8M_VIP_16/software/Vision_bsp\libhal_bsp.a(alt_usleep.o)
 .bss           0x000000000003890c        0x0 C:/Users/Emre/Documents/projectnios2/DE10_LITE_D8M_VIP_16/software/Vision_bsp\libhal_bsp.a(alt_write.o)
 .bss           0x000000000003890c        0x0 C:/Users/Emre/Documents/projectnios2/DE10_LITE_D8M_VIP_16/software/Vision_bsp\libhal_bsp.a(alt_sys_init.o)
 .bss           0x000000000003890c        0x0 C:/Users/Emre/Documents/projectnios2/DE10_LITE_D8M_VIP_16/software/Vision_bsp\libhal_bsp.a(altera_avalon_jtag_uart_fd.o)
 .bss           0x000000000003890c        0x0 C:/Users/Emre/Documents/projectnios2/DE10_LITE_D8M_VIP_16/software/Vision_bsp\libhal_bsp.a(altera_avalon_jtag_uart_init.o)
 .bss           0x000000000003890c        0x0 C:/Users/Emre/Documents/projectnios2/DE10_LITE_D8M_VIP_16/software/Vision_bsp\libhal_bsp.a(altera_avalon_jtag_uart_ioctl.o)
 .bss           0x000000000003890c        0x0 C:/Users/Emre/Documents/projectnios2/DE10_LITE_D8M_VIP_16/software/Vision_bsp\libhal_bsp.a(altera_avalon_jtag_uart_read.o)
 .bss           0x000000000003890c        0x0 C:/Users/Emre/Documents/projectnios2/DE10_LITE_D8M_VIP_16/software/Vision_bsp\libhal_bsp.a(altera_avalon_jtag_uart_write.o)
 .bss           0x000000000003890c        0x0 C:/Users/Emre/Documents/projectnios2/DE10_LITE_D8M_VIP_16/software/Vision_bsp\libhal_bsp.a(altera_avalon_timer_sc.o)
 .bss           0x000000000003890c        0x0 C:/Users/Emre/Documents/projectnios2/DE10_LITE_D8M_VIP_16/software/Vision_bsp\libhal_bsp.a(altera_avalon_uart_fd.o)
 .bss           0x000000000003890c        0x0 C:/Users/Emre/Documents/projectnios2/DE10_LITE_D8M_VIP_16/software/Vision_bsp\libhal_bsp.a(altera_avalon_uart_init.o)
 .bss           0x000000000003890c        0x0 C:/Users/Emre/Documents/projectnios2/DE10_LITE_D8M_VIP_16/software/Vision_bsp\libhal_bsp.a(altera_avalon_uart_read.o)
 .bss           0x000000000003890c        0x0 C:/Users/Emre/Documents/projectnios2/DE10_LITE_D8M_VIP_16/software/Vision_bsp\libhal_bsp.a(altera_avalon_uart_write.o)
 .bss           0x000000000003890c        0x0 C:/Users/Emre/Documents/projectnios2/DE10_LITE_D8M_VIP_16/software/Vision_bsp\libhal_bsp.a(alt_alarm_start.o)
 .bss           0x000000000003890c        0x0 C:/Users/Emre/Documents/projectnios2/DE10_LITE_D8M_VIP_16/software/Vision_bsp\libhal_bsp.a(alt_busy_sleep.o)
 .bss           0x000000000003890c        0x0 C:/Users/Emre/Documents/projectnios2/DE10_LITE_D8M_VIP_16/software/Vision_bsp\libhal_bsp.a(alt_dcache_flush_all.o)
 .bss           0x000000000003890c        0x0 C:/Users/Emre/Documents/projectnios2/DE10_LITE_D8M_VIP_16/software/Vision_bsp\libhal_bsp.a(alt_dev_llist_insert.o)
 .bss           0x000000000003890c        0x0 C:/Users/Emre/Documents/projectnios2/DE10_LITE_D8M_VIP_16/software/Vision_bsp\libhal_bsp.a(alt_do_ctors.o)
 .bss           0x000000000003890c        0x0 C:/Users/Emre/Documents/projectnios2/DE10_LITE_D8M_VIP_16/software/Vision_bsp\libhal_bsp.a(alt_do_dtors.o)
 .bss           0x000000000003890c        0x0 C:/Users/Emre/Documents/projectnios2/DE10_LITE_D8M_VIP_16/software/Vision_bsp\libhal_bsp.a(alt_find_dev.o)
 .bss           0x000000000003890c        0x0 C:/Users/Emre/Documents/projectnios2/DE10_LITE_D8M_VIP_16/software/Vision_bsp\libhal_bsp.a(alt_find_file.o)
 .bss           0x000000000003890c        0x0 C:/Users/Emre/Documents/projectnios2/DE10_LITE_D8M_VIP_16/software/Vision_bsp\libhal_bsp.a(alt_get_fd.o)
 .bss           0x000000000003890c        0x0 C:/Users/Emre/Documents/projectnios2/DE10_LITE_D8M_VIP_16/software/Vision_bsp\libhal_bsp.a(alt_icache_flush_all.o)
 .bss           0x000000000003890c        0x0 C:/Users/Emre/Documents/projectnios2/DE10_LITE_D8M_VIP_16/software/Vision_bsp\libhal_bsp.a(alt_iic.o)
 .bss           0x000000000003890c        0x0 C:/Users/Emre/Documents/projectnios2/DE10_LITE_D8M_VIP_16/software/Vision_bsp\libhal_bsp.a(alt_iic_isr_register.o)
 .bss           0x000000000003890c        0x0 C:/Users/Emre/Documents/projectnios2/DE10_LITE_D8M_VIP_16/software/Vision_bsp\libhal_bsp.a(alt_io_redirect.o)
 .bss           0x000000000003890c        0x0 C:/Users/Emre/Documents/projectnios2/DE10_LITE_D8M_VIP_16/software/Vision_bsp\libhal_bsp.a(alt_irq_entry.o)
 .bss           0x000000000003890c        0x0 C:/Users/Emre/Documents/projectnios2/DE10_LITE_D8M_VIP_16/software/Vision_bsp\libhal_bsp.a(alt_irq_handler.o)
 .bss           0x000000000003890c        0x0 C:/Users/Emre/Documents/projectnios2/DE10_LITE_D8M_VIP_16/software/Vision_bsp\libhal_bsp.a(alt_irq_vars.o)
 .bss           0x000000000003890c        0x0 C:/Users/Emre/Documents/projectnios2/DE10_LITE_D8M_VIP_16/software/Vision_bsp\libhal_bsp.a(altera_nios2_gen2_irq.o)
 .bss           0x000000000003890c        0x0 C:/Users/Emre/Documents/projectnios2/DE10_LITE_D8M_VIP_16/software/Vision_bsp\libhal_bsp.a(alt_exception_entry.o)
 .bss           0x000000000003890c        0x0 C:/Users/Emre/Documents/projectnios2/DE10_LITE_D8M_VIP_16/software/Vision_bsp\libhal_bsp.a(alt_icache_flush.o)
 .bss           0x000000000003890c        0x0 C:/Users/Emre/Documents/projectnios2/DE10_LITE_D8M_VIP_16/software/Vision_bsp\libhal_bsp.a(alt_instruction_exception_entry.o)
 .bss           0x000000000003890c        0x0 c:/intelfpga_lite/20.1/nios2eds/bin/gnu/h-x86_64-mingw32/bin/../lib/gcc/nios2-elf/9.2.1/../../../../../H-x86_64-mingw32/nios2-elf/lib\libc.a(lib_a-atexit.o)
 .bss           0x000000000003890c        0x0 c:/intelfpga_lite/20.1/nios2eds/bin/gnu/h-x86_64-mingw32/bin/../lib/gcc/nios2-elf/9.2.1/../../../../../H-x86_64-mingw32/nios2-elf/lib\libc.a(lib_a-exit.o)
 .bss           0x000000000003890c        0x0 c:/intelfpga_lite/20.1/nios2eds/bin/gnu/h-x86_64-mingw32/bin/../lib/gcc/nios2-elf/9.2.1/../../../../../H-x86_64-mingw32/nios2-elf/lib\libc.a(lib_a-memcmp.o)
 .bss           0x000000000003890c        0x0 c:/intelfpga_lite/20.1/nios2eds/bin/gnu/h-x86_64-mingw32/bin/../lib/gcc/nios2-elf/9.2.1/../../../../../H-x86_64-mingw32/nios2-elf/lib\libc.a(lib_a-__atexit.o)
 .bss           0x000000000003890c        0x0 c:/intelfpga_lite/20.1/nios2eds/bin/gnu/h-x86_64-mingw32/bin/../lib/gcc/nios2-elf/9.2.1/../../../../../H-x86_64-mingw32/nios2-elf/lib\libc.a(lib_a-__call_atexit.o)
 *(COMMON)
 COMMON         0x000000000003890c      0x100 C:/Users/Emre/Documents/projectnios2/DE10_LITE_D8M_VIP_16/software/Vision_bsp\libhal_bsp.a(alt_irq_handler.o)
                0x000000000003890c                alt_irq
                0x0000000000038a0c                . = ALIGN (0x4)
                0x0000000000038a0c                __bss_end = ABSOLUTE (.)

.onchip_memory2_0
                0x0000000000038a0c        0x0
                [!provide]                        PROVIDE (_alt_partition_onchip_memory2_0_start = ABSOLUTE (.))
 *(.onchip_memory2_0 .onchip_memory2_0. onchip_memory2_0.*)
                0x0000000000038a0c                . = ALIGN (0x4)
                [!provide]                        PROVIDE (_alt_partition_onchip_memory2_0_end = ABSOLUTE (.))
                0x0000000000038a0c                _end = ABSOLUTE (.)
                0x0000000000038a0c                end = ABSOLUTE (.)
                0x0000000000038a0c                __alt_stack_base = ABSOLUTE (.)
                [!provide]                        PROVIDE (_alt_partition_onchip_memory2_0_load_addr = LOADADDR (.onchip_memory2_0))

.stab
 *(.stab)

.stabstr
 *(.stabstr)

.stab.excl
 *(.stab.excl)

.stab.exclstr
 *(.stab.exclstr)

.stab.index
 *(.stab.index)

.stab.indexstr
 *(.stab.indexstr)

.comment        0x0000000000000000       0x2c
 *(.comment)
 .comment       0x0000000000000000       0x2c obj/default/I2C_core.o
                                         0x2d (size before relaxing)
 .comment       0x000000000000002c       0x2d obj/default/auto_focus.o
 .comment       0x000000000000002c       0x2d obj/default/main.o
 .comment       0x000000000000002c       0x2d obj/default/mipi_bridge_config.o
 .comment       0x000000000000002c       0x2d obj/default/mipi_camera_config.o
 .comment       0x000000000000002c       0x2d obj/default/queue.o
 .comment       0x000000000000002c       0x2d c:/intelfpga_lite/20.1/nios2eds/bin/gnu/h-x86_64-mingw32/bin/../lib/gcc/nios2-elf/9.2.1\libgcc.a(lib2-divmod.o)
 .comment       0x000000000000002c       0x2d c:/intelfpga_lite/20.1/nios2eds/bin/gnu/h-x86_64-mingw32/bin/../lib/gcc/nios2-elf/9.2.1/../../../../../H-x86_64-mingw32/nios2-elf/lib\libc.a(lib_a-fopen.o)
 .comment       0x000000000000002c       0x2d c:/intelfpga_lite/20.1/nios2eds/bin/gnu/h-x86_64-mingw32/bin/../lib/gcc/nios2-elf/9.2.1/../../../../../H-x86_64-mingw32/nios2-elf/lib\libc.a(lib_a-fseek.o)
 .comment       0x000000000000002c       0x2d c:/intelfpga_lite/20.1/nios2eds/bin/gnu/h-x86_64-mingw32/bin/../lib/gcc/nios2-elf/9.2.1/../../../../../H-x86_64-mingw32/nios2-elf/lib\libc.a(lib_a-fseeko.o)
 .comment       0x000000000000002c       0x2d c:/intelfpga_lite/20.1/nios2eds/bin/gnu/h-x86_64-mingw32/bin/../lib/gcc/nios2-elf/9.2.1/../../../../../H-x86_64-mingw32/nios2-elf/lib\libc.a(lib_a-fstatr.o)
 .comment       0x000000000000002c       0x2d c:/intelfpga_lite/20.1/nios2eds/bin/gnu/h-x86_64-mingw32/bin/../lib/gcc/nios2-elf/9.2.1/../../../../../H-x86_64-mingw32/nios2-elf/lib\libc.a(lib_a-fwrite.o)
 .comment       0x000000000000002c       0x2d c:/intelfpga_lite/20.1/nios2eds/bin/gnu/h-x86_64-mingw32/bin/../lib/gcc/nios2-elf/9.2.1/../../../../../H-x86_64-mingw32/nios2-elf/lib\libc.a(lib_a-getchar.o)
 .comment       0x000000000000002c       0x2d c:/intelfpga_lite/20.1/nios2eds/bin/gnu/h-x86_64-mingw32/bin/../lib/gcc/nios2-elf/9.2.1/../../../../../H-x86_64-mingw32/nios2-elf/lib\libc.a(lib_a-impure.o)
 .comment       0x000000000000002c       0x2d c:/intelfpga_lite/20.1/nios2eds/bin/gnu/h-x86_64-mingw32/bin/../lib/gcc/nios2-elf/9.2.1/../../../../../H-x86_64-mingw32/nios2-elf/lib\libc.a(lib_a-int_errno.o)
 .comment       0x000000000000002c       0x2d c:/intelfpga_lite/20.1/nios2eds/bin/gnu/h-x86_64-mingw32/bin/../lib/gcc/nios2-elf/9.2.1/../../../../../H-x86_64-mingw32/nios2-elf/lib\libc.a(lib_a-makebuf.o)
 .comment       0x000000000000002c       0x2d c:/intelfpga_lite/20.1/nios2eds/bin/gnu/h-x86_64-mingw32/bin/../lib/gcc/nios2-elf/9.2.1/../../../../../H-x86_64-mingw32/nios2-elf/lib\libc.a(lib_a-malloc.o)
 .comment       0x000000000000002c       0x2d c:/intelfpga_lite/20.1/nios2eds/bin/gnu/h-x86_64-mingw32/bin/../lib/gcc/nios2-elf/9.2.1/../../../../../H-x86_64-mingw32/nios2-elf/lib\libc.a(lib_a-mallocr.o)
 .comment       0x000000000000002c       0x2d c:/intelfpga_lite/20.1/nios2eds/bin/gnu/h-x86_64-mingw32/bin/../lib/gcc/nios2-elf/9.2.1/../../../../../H-x86_64-mingw32/nios2-elf/lib\libc.a(lib_a-memset.o)
 .comment       0x000000000000002c       0x2d c:/intelfpga_lite/20.1/nios2eds/bin/gnu/h-x86_64-mingw32/bin/../lib/gcc/nios2-elf/9.2.1/../../../../../H-x86_64-mingw32/nios2-elf/lib\libc.a(lib_a-openr.o)
 .comment       0x000000000000002c       0x2d c:/intelfpga_lite/20.1/nios2eds/bin/gnu/h-x86_64-mingw32/bin/../lib/gcc/nios2-elf/9.2.1/../../../../../H-x86_64-mingw32/nios2-elf/lib\libc.a(lib_a-printf.o)
 .comment       0x000000000000002c       0x2d c:/intelfpga_lite/20.1/nios2eds/bin/gnu/h-x86_64-mingw32/bin/../lib/gcc/nios2-elf/9.2.1/../../../../../H-x86_64-mingw32/nios2-elf/lib\libc.a(lib_a-putchar.o)
 .comment       0x000000000000002c       0x2d c:/intelfpga_lite/20.1/nios2eds/bin/gnu/h-x86_64-mingw32/bin/../lib/gcc/nios2-elf/9.2.1/../../../../../H-x86_64-mingw32/nios2-elf/lib\libc.a(lib_a-puts.o)
 .comment       0x000000000000002c       0x2d c:/intelfpga_lite/20.1/nios2eds/bin/gnu/h-x86_64-mingw32/bin/../lib/gcc/nios2-elf/9.2.1/../../../../../H-x86_64-mingw32/nios2-elf/lib\libc.a(lib_a-refill.o)
 .comment       0x000000000000002c       0x2d c:/intelfpga_lite/20.1/nios2eds/bin/gnu/h-x86_64-mingw32/bin/../lib/gcc/nios2-elf/9.2.1/../../../../../H-x86_64-mingw32/nios2-elf/lib\libc.a(lib_a-sbrkr.o)
 .comment       0x000000000000002c       0x2d c:/intelfpga_lite/20.1/nios2eds/bin/gnu/h-x86_64-mingw32/bin/../lib/gcc/nios2-elf/9.2.1/../../../../../H-x86_64-mingw32/nios2-elf/lib\libc.a(lib_a-stdio.o)
 .comment       0x000000000000002c       0x2d c:/intelfpga_lite/20.1/nios2eds/bin/gnu/h-x86_64-mingw32/bin/../lib/gcc/nios2-elf/9.2.1/../../../../../H-x86_64-mingw32/nios2-elf/lib\libc.a(lib_a-strlen.o)
 .comment       0x000000000000002c       0x2d c:/intelfpga_lite/20.1/nios2eds/bin/gnu/h-x86_64-mingw32/bin/../lib/gcc/nios2-elf/9.2.1/../../../../../H-x86_64-mingw32/nios2-elf/lib\libc.a(lib_a-vfprintf.o)
 .comment       0x000000000000002c       0x2d c:/intelfpga_lite/20.1/nios2eds/bin/gnu/h-x86_64-mingw32/bin/../lib/gcc/nios2-elf/9.2.1/../../../../../H-x86_64-mingw32/nios2-elf/lib\libc.a(lib_a-writer.o)
 .comment       0x000000000000002c       0x2d c:/intelfpga_lite/20.1/nios2eds/bin/gnu/h-x86_64-mingw32/bin/../lib/gcc/nios2-elf/9.2.1/../../../../../H-x86_64-mingw32/nios2-elf/lib\libc.a(lib_a-wsetup.o)
 .comment       0x000000000000002c       0x2d c:/intelfpga_lite/20.1/nios2eds/bin/gnu/h-x86_64-mingw32/bin/../lib/gcc/nios2-elf/9.2.1/../../../../../H-x86_64-mingw32/nios2-elf/lib\libc.a(closer.o)
 .comment       0x000000000000002c       0x2d c:/intelfpga_lite/20.1/nios2eds/bin/gnu/h-x86_64-mingw32/bin/../lib/gcc/nios2-elf/9.2.1/../../../../../H-x86_64-mingw32/nios2-elf/lib\libc.a(lib_a-dtoa.o)
 .comment       0x000000000000002c       0x2d c:/intelfpga_lite/20.1/nios2eds/bin/gnu/h-x86_64-mingw32/bin/../lib/gcc/nios2-elf/9.2.1/../../../../../H-x86_64-mingw32/nios2-elf/lib\libc.a(lib_a-fflush.o)
 .comment       0x000000000000002c       0x2d c:/intelfpga_lite/20.1/nios2eds/bin/gnu/h-x86_64-mingw32/bin/../lib/gcc/nios2-elf/9.2.1/../../../../../H-x86_64-mingw32/nios2-elf/lib\libc.a(lib_a-findfp.o)
 .comment       0x000000000000002c       0x2d c:/intelfpga_lite/20.1/nios2eds/bin/gnu/h-x86_64-mingw32/bin/../lib/gcc/nios2-elf/9.2.1/../../../../../H-x86_64-mingw32/nios2-elf/lib\libc.a(lib_a-flags.o)
 .comment       0x000000000000002c       0x2d c:/intelfpga_lite/20.1/nios2eds/bin/gnu/h-x86_64-mingw32/bin/../lib/gcc/nios2-elf/9.2.1/../../../../../H-x86_64-mingw32/nios2-elf/lib\libc.a(lib_a-freer.o)
 .comment       0x000000000000002c       0x2d c:/intelfpga_lite/20.1/nios2eds/bin/gnu/h-x86_64-mingw32/bin/../lib/gcc/nios2-elf/9.2.1/../../../../../H-x86_64-mingw32/nios2-elf/lib\libc.a(lib_a-fvwrite.o)
 .comment       0x000000000000002c       0x2d c:/intelfpga_lite/20.1/nios2eds/bin/gnu/h-x86_64-mingw32/bin/../lib/gcc/nios2-elf/9.2.1/../../../../../H-x86_64-mingw32/nios2-elf/lib\libc.a(lib_a-fwalk.o)
 .comment       0x000000000000002c       0x2d c:/intelfpga_lite/20.1/nios2eds/bin/gnu/h-x86_64-mingw32/bin/../lib/gcc/nios2-elf/9.2.1/../../../../../H-x86_64-mingw32/nios2-elf/lib\libc.a(lib_a-getc.o)
 .comment       0x000000000000002c       0x2d c:/intelfpga_lite/20.1/nios2eds/bin/gnu/h-x86_64-mingw32/bin/../lib/gcc/nios2-elf/9.2.1/../../../../../H-x86_64-mingw32/nios2-elf/lib\libc.a(lib_a-isattyr.o)
 .comment       0x000000000000002c       0x2d c:/intelfpga_lite/20.1/nios2eds/bin/gnu/h-x86_64-mingw32/bin/../lib/gcc/nios2-elf/9.2.1/../../../../../H-x86_64-mingw32/nios2-elf/lib\libc.a(lib_a-localeconv.o)
 .comment       0x000000000000002c       0x2d c:/intelfpga_lite/20.1/nios2eds/bin/gnu/h-x86_64-mingw32/bin/../lib/gcc/nios2-elf/9.2.1/../../../../../H-x86_64-mingw32/nios2-elf/lib\libc.a(lib_a-lseekr.o)
 .comment       0x000000000000002c       0x2d c:/intelfpga_lite/20.1/nios2eds/bin/gnu/h-x86_64-mingw32/bin/../lib/gcc/nios2-elf/9.2.1/../../../../../H-x86_64-mingw32/nios2-elf/lib\libc.a(lib_a-memchr.o)
 .comment       0x000000000000002c       0x2d c:/intelfpga_lite/20.1/nios2eds/bin/gnu/h-x86_64-mingw32/bin/../lib/gcc/nios2-elf/9.2.1/../../../../../H-x86_64-mingw32/nios2-elf/lib\libc.a(lib_a-memcpy.o)
 .comment       0x000000000000002c       0x2d c:/intelfpga_lite/20.1/nios2eds/bin/gnu/h-x86_64-mingw32/bin/../lib/gcc/nios2-elf/9.2.1/../../../../../H-x86_64-mingw32/nios2-elf/lib\libc.a(lib_a-memmove.o)
 .comment       0x000000000000002c       0x2d c:/intelfpga_lite/20.1/nios2eds/bin/gnu/h-x86_64-mingw32/bin/../lib/gcc/nios2-elf/9.2.1/../../../../../H-x86_64-mingw32/nios2-elf/lib\libc.a(lib_a-mprec.o)
 .comment       0x000000000000002c       0x2d c:/intelfpga_lite/20.1/nios2eds/bin/gnu/h-x86_64-mingw32/bin/../lib/gcc/nios2-elf/9.2.1/../../../../../H-x86_64-mingw32/nios2-elf/lib\libc.a(lib_a-putc.o)
 .comment       0x000000000000002c       0x2d c:/intelfpga_lite/20.1/nios2eds/bin/gnu/h-x86_64-mingw32/bin/../lib/gcc/nios2-elf/9.2.1/../../../../../H-x86_64-mingw32/nios2-elf/lib\libc.a(lib_a-readr.o)
 .comment       0x000000000000002c       0x2d c:/intelfpga_lite/20.1/nios2eds/bin/gnu/h-x86_64-mingw32/bin/../lib/gcc/nios2-elf/9.2.1/../../../../../H-x86_64-mingw32/nios2-elf/lib\libc.a(lib_a-reallocr.o)
 .comment       0x000000000000002c       0x2d c:/intelfpga_lite/20.1/nios2eds/bin/gnu/h-x86_64-mingw32/bin/../lib/gcc/nios2-elf/9.2.1/../../../../../H-x86_64-mingw32/nios2-elf/lib\libc.a(lib_a-rget.o)
 .comment       0x000000000000002c       0x2d c:/intelfpga_lite/20.1/nios2eds/bin/gnu/h-x86_64-mingw32/bin/../lib/gcc/nios2-elf/9.2.1/../../../../../H-x86_64-mingw32/nios2-elf/lib\libc.a(lib_a-vfiprintf.o)
 .comment       0x000000000000002c       0x2d c:/intelfpga_lite/20.1/nios2eds/bin/gnu/h-x86_64-mingw32/bin/../lib/gcc/nios2-elf/9.2.1/../../../../../H-x86_64-mingw32/nios2-elf/lib\libc.a(lib_a-wbuf.o)
 .comment       0x000000000000002c       0x2d c:/intelfpga_lite/20.1/nios2eds/bin/gnu/h-x86_64-mingw32/bin/../lib/gcc/nios2-elf/9.2.1/../../../../../H-x86_64-mingw32/nios2-elf/lib\libc.a(lib_a-assert.o)
 .comment       0x000000000000002c       0x2d c:/intelfpga_lite/20.1/nios2eds/bin/gnu/h-x86_64-mingw32/bin/../lib/gcc/nios2-elf/9.2.1/../../../../../H-x86_64-mingw32/nios2-elf/lib\libc.a(lib_a-callocr.o)
 .comment       0x000000000000002c       0x2d c:/intelfpga_lite/20.1/nios2eds/bin/gnu/h-x86_64-mingw32/bin/../lib/gcc/nios2-elf/9.2.1/../../../../../H-x86_64-mingw32/nios2-elf/lib\libc.a(lib_a-fclose.o)
 .comment       0x000000000000002c       0x2d c:/intelfpga_lite/20.1/nios2eds/bin/gnu/h-x86_64-mingw32/bin/../lib/gcc/nios2-elf/9.2.1/../../../../../H-x86_64-mingw32/nios2-elf/lib\libc.a(lib_a-fiprintf.o)
 .comment       0x000000000000002c       0x2d c:/intelfpga_lite/20.1/nios2eds/bin/gnu/h-x86_64-mingw32/bin/../lib/gcc/nios2-elf/9.2.1/../../../../../H-x86_64-mingw32/nios2-elf/lib\libc.a(lib_a-fputwc.o)
 .comment       0x000000000000002c       0x2d c:/intelfpga_lite/20.1/nios2eds/bin/gnu/h-x86_64-mingw32/bin/../lib/gcc/nios2-elf/9.2.1/../../../../../H-x86_64-mingw32/nios2-elf/lib\libc.a(lib_a-locale.o)
 .comment       0x000000000000002c       0x2d c:/intelfpga_lite/20.1/nios2eds/bin/gnu/h-x86_64-mingw32/bin/../lib/gcc/nios2-elf/9.2.1/../../../../../H-x86_64-mingw32/nios2-elf/lib\libc.a(lib_a-mbtowc_r.o)
 .comment       0x000000000000002c       0x2d c:/intelfpga_lite/20.1/nios2eds/bin/gnu/h-x86_64-mingw32/bin/../lib/gcc/nios2-elf/9.2.1/../../../../../H-x86_64-mingw32/nios2-elf/lib\libc.a(lib_a-strcmp.o)
 .comment       0x000000000000002c       0x2d c:/intelfpga_lite/20.1/nios2eds/bin/gnu/h-x86_64-mingw32/bin/../lib/gcc/nios2-elf/9.2.1/../../../../../H-x86_64-mingw32/nios2-elf/lib\libc.a(lib_a-vfiprintfr_1.o)
 .comment       0x000000000000002c       0x2d c:/intelfpga_lite/20.1/nios2eds/bin/gnu/h-x86_64-mingw32/bin/../lib/gcc/nios2-elf/9.2.1/../../../../../H-x86_64-mingw32/nios2-elf/lib\libc.a(lib_a-wcrtomb.o)
 .comment       0x000000000000002c       0x2d c:/intelfpga_lite/20.1/nios2eds/bin/gnu/h-x86_64-mingw32/bin/../lib/gcc/nios2-elf/9.2.1/../../../../../H-x86_64-mingw32/nios2-elf/lib\libc.a(lib_a-wctomb_r.o)
 .comment       0x000000000000002c       0x2d c:/intelfpga_lite/20.1/nios2eds/bin/gnu/h-x86_64-mingw32/bin/../lib/gcc/nios2-elf/9.2.1/../../../../../H-x86_64-mingw32/nios2-elf/lib\libc.a(lib_a-abort.o)
 .comment       0x000000000000002c       0x2d c:/intelfpga_lite/20.1/nios2eds/bin/gnu/h-x86_64-mingw32/bin/../lib/gcc/nios2-elf/9.2.1/../../../../../H-x86_64-mingw32/nios2-elf/lib\libc.a(lib_a-ctype_.o)
 .comment       0x000000000000002c       0x2d c:/intelfpga_lite/20.1/nios2eds/bin/gnu/h-x86_64-mingw32/bin/../lib/gcc/nios2-elf/9.2.1/../../../../../H-x86_64-mingw32/nios2-elf/lib\libc.a(lib_a-signal.o)
 .comment       0x000000000000002c       0x2d c:/intelfpga_lite/20.1/nios2eds/bin/gnu/h-x86_64-mingw32/bin/../lib/gcc/nios2-elf/9.2.1/../../../../../H-x86_64-mingw32/nios2-elf/lib\libc.a(lib_a-signalr.o)
 .comment       0x000000000000002c       0x2d c:/intelfpga_lite/20.1/nios2eds/bin/gnu/h-x86_64-mingw32/bin/../lib/gcc/nios2-elf/9.2.1\libgcc.a(_udivdi3.o)
 .comment       0x000000000000002c       0x2d c:/intelfpga_lite/20.1/nios2eds/bin/gnu/h-x86_64-mingw32/bin/../lib/gcc/nios2-elf/9.2.1\libgcc.a(_umoddi3.o)
 .comment       0x000000000000002c       0x2d c:/intelfpga_lite/20.1/nios2eds/bin/gnu/h-x86_64-mingw32/bin/../lib/gcc/nios2-elf/9.2.1\libgcc.a(adddf3.o)
 .comment       0x000000000000002c       0x2d c:/intelfpga_lite/20.1/nios2eds/bin/gnu/h-x86_64-mingw32/bin/../lib/gcc/nios2-elf/9.2.1\libgcc.a(divdf3.o)
 .comment       0x000000000000002c       0x2d c:/intelfpga_lite/20.1/nios2eds/bin/gnu/h-x86_64-mingw32/bin/../lib/gcc/nios2-elf/9.2.1\libgcc.a(eqdf2.o)
 .comment       0x000000000000002c       0x2d c:/intelfpga_lite/20.1/nios2eds/bin/gnu/h-x86_64-mingw32/bin/../lib/gcc/nios2-elf/9.2.1\libgcc.a(gedf2.o)
 .comment       0x000000000000002c       0x2d c:/intelfpga_lite/20.1/nios2eds/bin/gnu/h-x86_64-mingw32/bin/../lib/gcc/nios2-elf/9.2.1\libgcc.a(ledf2.o)
 .comment       0x000000000000002c       0x2d c:/intelfpga_lite/20.1/nios2eds/bin/gnu/h-x86_64-mingw32/bin/../lib/gcc/nios2-elf/9.2.1\libgcc.a(muldf3.o)
 .comment       0x000000000000002c       0x2d c:/intelfpga_lite/20.1/nios2eds/bin/gnu/h-x86_64-mingw32/bin/../lib/gcc/nios2-elf/9.2.1\libgcc.a(subdf3.o)
 .comment       0x000000000000002c       0x2d c:/intelfpga_lite/20.1/nios2eds/bin/gnu/h-x86_64-mingw32/bin/../lib/gcc/nios2-elf/9.2.1\libgcc.a(unorddf2.o)
 .comment       0x000000000000002c       0x2d c:/intelfpga_lite/20.1/nios2eds/bin/gnu/h-x86_64-mingw32/bin/../lib/gcc/nios2-elf/9.2.1\libgcc.a(fixdfsi.o)
 .comment       0x000000000000002c       0x2d c:/intelfpga_lite/20.1/nios2eds/bin/gnu/h-x86_64-mingw32/bin/../lib/gcc/nios2-elf/9.2.1\libgcc.a(floatsidf.o)
 .comment       0x000000000000002c       0x2d c:/intelfpga_lite/20.1/nios2eds/bin/gnu/h-x86_64-mingw32/bin/../lib/gcc/nios2-elf/9.2.1\libgcc.a(floatunsidf.o)
 .comment       0x000000000000002c       0x2d c:/intelfpga_lite/20.1/nios2eds/bin/gnu/h-x86_64-mingw32/bin/../lib/gcc/nios2-elf/9.2.1\libgcc.a(_clz.o)
 .comment       0x000000000000002c       0x2d c:/intelfpga_lite/20.1/nios2eds/bin/gnu/h-x86_64-mingw32/bin/../lib/gcc/nios2-elf/9.2.1\libgcc.a(_clzsi2.o)
 .comment       0x000000000000002c       0x2d C:/Users/Emre/Documents/projectnios2/DE10_LITE_D8M_VIP_16/software/Vision_bsp\libhal_bsp.a(alt_close.o)
 .comment       0x000000000000002c       0x2d C:/Users/Emre/Documents/projectnios2/DE10_LITE_D8M_VIP_16/software/Vision_bsp\libhal_bsp.a(alt_dev.o)
 .comment       0x000000000000002c       0x2d C:/Users/Emre/Documents/projectnios2/DE10_LITE_D8M_VIP_16/software/Vision_bsp\libhal_bsp.a(alt_errno.o)
 .comment       0x000000000000002c       0x2d C:/Users/Emre/Documents/projectnios2/DE10_LITE_D8M_VIP_16/software/Vision_bsp\libhal_bsp.a(alt_exit.o)
 .comment       0x000000000000002c       0x2d C:/Users/Emre/Documents/projectnios2/DE10_LITE_D8M_VIP_16/software/Vision_bsp\libhal_bsp.a(alt_fcntl.o)
 .comment       0x000000000000002c       0x2d C:/Users/Emre/Documents/projectnios2/DE10_LITE_D8M_VIP_16/software/Vision_bsp\libhal_bsp.a(alt_fstat.o)
 .comment       0x000000000000002c       0x2d C:/Users/Emre/Documents/projectnios2/DE10_LITE_D8M_VIP_16/software/Vision_bsp\libhal_bsp.a(alt_getpid.o)
 .comment       0x000000000000002c       0x2d C:/Users/Emre/Documents/projectnios2/DE10_LITE_D8M_VIP_16/software/Vision_bsp\libhal_bsp.a(alt_isatty.o)
 .comment       0x000000000000002c       0x2d C:/Users/Emre/Documents/projectnios2/DE10_LITE_D8M_VIP_16/software/Vision_bsp\libhal_bsp.a(alt_kill.o)
 .comment       0x000000000000002c       0x2d C:/Users/Emre/Documents/projectnios2/DE10_LITE_D8M_VIP_16/software/Vision_bsp\libhal_bsp.a(alt_load.o)
 .comment       0x000000000000002c       0x2d C:/Users/Emre/Documents/projectnios2/DE10_LITE_D8M_VIP_16/software/Vision_bsp\libhal_bsp.a(alt_lseek.o)
 .comment       0x000000000000002c       0x2d C:/Users/Emre/Documents/projectnios2/DE10_LITE_D8M_VIP_16/software/Vision_bsp\libhal_bsp.a(alt_main.o)
 .comment       0x000000000000002c       0x2d C:/Users/Emre/Documents/projectnios2/DE10_LITE_D8M_VIP_16/software/Vision_bsp\libhal_bsp.a(alt_malloc_lock.o)
 .comment       0x000000000000002c       0x2d C:/Users/Emre/Documents/projectnios2/DE10_LITE_D8M_VIP_16/software/Vision_bsp\libhal_bsp.a(alt_open.o)
 .comment       0x000000000000002c       0x2d C:/Users/Emre/Documents/projectnios2/DE10_LITE_D8M_VIP_16/software/Vision_bsp\libhal_bsp.a(alt_read.o)
 .comment       0x000000000000002c       0x2d C:/Users/Emre/Documents/projectnios2/DE10_LITE_D8M_VIP_16/software/Vision_bsp\libhal_bsp.a(alt_release_fd.o)
 .comment       0x000000000000002c       0x2d C:/Users/Emre/Documents/projectnios2/DE10_LITE_D8M_VIP_16/software/Vision_bsp\libhal_bsp.a(alt_sbrk.o)
 .comment       0x000000000000002c       0x2d C:/Users/Emre/Documents/projectnios2/DE10_LITE_D8M_VIP_16/software/Vision_bsp\libhal_bsp.a(alt_tick.o)
 .comment       0x000000000000002c       0x2d C:/Users/Emre/Documents/projectnios2/DE10_LITE_D8M_VIP_16/software/Vision_bsp\libhal_bsp.a(alt_usleep.o)
 .comment       0x000000000000002c       0x2d C:/Users/Emre/Documents/projectnios2/DE10_LITE_D8M_VIP_16/software/Vision_bsp\libhal_bsp.a(alt_write.o)
 .comment       0x000000000000002c       0x2d C:/Users/Emre/Documents/projectnios2/DE10_LITE_D8M_VIP_16/software/Vision_bsp\libhal_bsp.a(alt_sys_init.o)
 .comment       0x000000000000002c       0x2d C:/Users/Emre/Documents/projectnios2/DE10_LITE_D8M_VIP_16/software/Vision_bsp\libhal_bsp.a(altera_avalon_jtag_uart_fd.o)
 .comment       0x000000000000002c       0x2d C:/Users/Emre/Documents/projectnios2/DE10_LITE_D8M_VIP_16/software/Vision_bsp\libhal_bsp.a(altera_avalon_jtag_uart_init.o)
 .comment       0x000000000000002c       0x2d C:/Users/Emre/Documents/projectnios2/DE10_LITE_D8M_VIP_16/software/Vision_bsp\libhal_bsp.a(altera_avalon_jtag_uart_ioctl.o)
 .comment       0x000000000000002c       0x2d C:/Users/Emre/Documents/projectnios2/DE10_LITE_D8M_VIP_16/software/Vision_bsp\libhal_bsp.a(altera_avalon_jtag_uart_read.o)
 .comment       0x000000000000002c       0x2d C:/Users/Emre/Documents/projectnios2/DE10_LITE_D8M_VIP_16/software/Vision_bsp\libhal_bsp.a(altera_avalon_jtag_uart_write.o)
 .comment       0x000000000000002c       0x2d C:/Users/Emre/Documents/projectnios2/DE10_LITE_D8M_VIP_16/software/Vision_bsp\libhal_bsp.a(altera_avalon_timer_sc.o)
 .comment       0x000000000000002c       0x2d C:/Users/Emre/Documents/projectnios2/DE10_LITE_D8M_VIP_16/software/Vision_bsp\libhal_bsp.a(altera_avalon_uart_fd.o)
 .comment       0x000000000000002c       0x2d C:/Users/Emre/Documents/projectnios2/DE10_LITE_D8M_VIP_16/software/Vision_bsp\libhal_bsp.a(altera_avalon_uart_init.o)
 .comment       0x000000000000002c       0x2d C:/Users/Emre/Documents/projectnios2/DE10_LITE_D8M_VIP_16/software/Vision_bsp\libhal_bsp.a(altera_avalon_uart_read.o)
 .comment       0x000000000000002c       0x2d C:/Users/Emre/Documents/projectnios2/DE10_LITE_D8M_VIP_16/software/Vision_bsp\libhal_bsp.a(altera_avalon_uart_write.o)
 .comment       0x000000000000002c       0x2d C:/Users/Emre/Documents/projectnios2/DE10_LITE_D8M_VIP_16/software/Vision_bsp\libhal_bsp.a(alt_alarm_start.o)
 .comment       0x000000000000002c       0x2d C:/Users/Emre/Documents/projectnios2/DE10_LITE_D8M_VIP_16/software/Vision_bsp\libhal_bsp.a(alt_busy_sleep.o)
 .comment       0x000000000000002c       0x2d C:/Users/Emre/Documents/projectnios2/DE10_LITE_D8M_VIP_16/software/Vision_bsp\libhal_bsp.a(alt_dcache_flush_all.o)
 .comment       0x000000000000002c       0x2d C:/Users/Emre/Documents/projectnios2/DE10_LITE_D8M_VIP_16/software/Vision_bsp\libhal_bsp.a(alt_dev_llist_insert.o)
 .comment       0x000000000000002c       0x2d C:/Users/Emre/Documents/projectnios2/DE10_LITE_D8M_VIP_16/software/Vision_bsp\libhal_bsp.a(alt_do_ctors.o)
 .comment       0x000000000000002c       0x2d C:/Users/Emre/Documents/projectnios2/DE10_LITE_D8M_VIP_16/software/Vision_bsp\libhal_bsp.a(alt_do_dtors.o)
 .comment       0x000000000000002c       0x2d C:/Users/Emre/Documents/projectnios2/DE10_LITE_D8M_VIP_16/software/Vision_bsp\libhal_bsp.a(alt_find_dev.o)
 .comment       0x000000000000002c       0x2d C:/Users/Emre/Documents/projectnios2/DE10_LITE_D8M_VIP_16/software/Vision_bsp\libhal_bsp.a(alt_find_file.o)
 .comment       0x000000000000002c       0x2d C:/Users/Emre/Documents/projectnios2/DE10_LITE_D8M_VIP_16/software/Vision_bsp\libhal_bsp.a(alt_get_fd.o)
 .comment       0x000000000000002c       0x2d C:/Users/Emre/Documents/projectnios2/DE10_LITE_D8M_VIP_16/software/Vision_bsp\libhal_bsp.a(alt_icache_flush_all.o)
 .comment       0x000000000000002c       0x2d C:/Users/Emre/Documents/projectnios2/DE10_LITE_D8M_VIP_16/software/Vision_bsp\libhal_bsp.a(alt_iic.o)
 .comment       0x000000000000002c       0x2d C:/Users/Emre/Documents/projectnios2/DE10_LITE_D8M_VIP_16/software/Vision_bsp\libhal_bsp.a(alt_iic_isr_register.o)
 .comment       0x000000000000002c       0x2d C:/Users/Emre/Documents/projectnios2/DE10_LITE_D8M_VIP_16/software/Vision_bsp\libhal_bsp.a(alt_io_redirect.o)
 .comment       0x000000000000002c       0x2d C:/Users/Emre/Documents/projectnios2/DE10_LITE_D8M_VIP_16/software/Vision_bsp\libhal_bsp.a(alt_irq_handler.o)
 .comment       0x000000000000002c       0x2d C:/Users/Emre/Documents/projectnios2/DE10_LITE_D8M_VIP_16/software/Vision_bsp\libhal_bsp.a(alt_irq_vars.o)
 .comment       0x000000000000002c       0x2d C:/Users/Emre/Documents/projectnios2/DE10_LITE_D8M_VIP_16/software/Vision_bsp\libhal_bsp.a(altera_nios2_gen2_irq.o)
 .comment       0x000000000000002c       0x2d C:/Users/Emre/Documents/projectnios2/DE10_LITE_D8M_VIP_16/software/Vision_bsp\libhal_bsp.a(alt_icache_flush.o)
 .comment       0x000000000000002c       0x2d C:/Users/Emre/Documents/projectnios2/DE10_LITE_D8M_VIP_16/software/Vision_bsp\libhal_bsp.a(alt_instruction_exception_entry.o)
 .comment       0x000000000000002c       0x2d c:/intelfpga_lite/20.1/nios2eds/bin/gnu/h-x86_64-mingw32/bin/../lib/gcc/nios2-elf/9.2.1/../../../../../H-x86_64-mingw32/nios2-elf/lib\libc.a(lib_a-atexit.o)
 .comment       0x000000000000002c       0x2d c:/intelfpga_lite/20.1/nios2eds/bin/gnu/h-x86_64-mingw32/bin/../lib/gcc/nios2-elf/9.2.1/../../../../../H-x86_64-mingw32/nios2-elf/lib\libc.a(lib_a-exit.o)
 .comment       0x000000000000002c       0x2d c:/intelfpga_lite/20.1/nios2eds/bin/gnu/h-x86_64-mingw32/bin/../lib/gcc/nios2-elf/9.2.1/../../../../../H-x86_64-mingw32/nios2-elf/lib\libc.a(lib_a-memcmp.o)
 .comment       0x000000000000002c       0x2d c:/intelfpga_lite/20.1/nios2eds/bin/gnu/h-x86_64-mingw32/bin/../lib/gcc/nios2-elf/9.2.1/../../../../../H-x86_64-mingw32/nios2-elf/lib\libc.a(lib_a-__atexit.o)
 .comment       0x000000000000002c       0x2d c:/intelfpga_lite/20.1/nios2eds/bin/gnu/h-x86_64-mingw32/bin/../lib/gcc/nios2-elf/9.2.1/../../../../../H-x86_64-mingw32/nios2-elf/lib\libc.a(lib_a-__call_atexit.o)

.debug
 *(.debug)

.line
 *(.line)

.debug_srcinfo
 *(.debug_srcinfo)

.debug_sfnames
 *(.debug_sfnames)

.debug_aranges  0x0000000000000000     0x13d8
 *(.debug_aranges)
 .debug_aranges
                0x0000000000000000       0x28 C:/Users/Emre/Documents/projectnios2/DE10_LITE_D8M_VIP_16/software/Vision_bsp/obj/HAL/src/crt0.o
 .debug_aranges
                0x0000000000000028       0x20 obj/default/I2C_core.o
 .debug_aranges
                0x0000000000000048       0x20 obj/default/auto_focus.o
 .debug_aranges
                0x0000000000000068       0x20 obj/default/main.o
 .debug_aranges
                0x0000000000000088       0x20 obj/default/mipi_bridge_config.o
 .debug_aranges
                0x00000000000000a8       0x20 obj/default/mipi_camera_config.o
 .debug_aranges
                0x00000000000000c8       0x20 obj/default/queue.o
 .debug_aranges
                0x00000000000000e8       0x20 c:/intelfpga_lite/20.1/nios2eds/bin/gnu/h-x86_64-mingw32/bin/../lib/gcc/nios2-elf/9.2.1\libgcc.a(lib2-divmod.o)
 .debug_aranges
                0x0000000000000108       0x28 c:/intelfpga_lite/20.1/nios2eds/bin/gnu/h-x86_64-mingw32/bin/../lib/gcc/nios2-elf/9.2.1/../../../../../H-x86_64-mingw32/nios2-elf/lib\libc.a(lib_a-fopen.o)
 .debug_aranges
                0x0000000000000130       0x28 c:/intelfpga_lite/20.1/nios2eds/bin/gnu/h-x86_64-mingw32/bin/../lib/gcc/nios2-elf/9.2.1/../../../../../H-x86_64-mingw32/nios2-elf/lib\libc.a(lib_a-fseek.o)
 .debug_aranges
                0x0000000000000158       0x28 c:/intelfpga_lite/20.1/nios2eds/bin/gnu/h-x86_64-mingw32/bin/../lib/gcc/nios2-elf/9.2.1/../../../../../H-x86_64-mingw32/nios2-elf/lib\libc.a(lib_a-fseeko.o)
 .debug_aranges
                0x0000000000000180       0x20 c:/intelfpga_lite/20.1/nios2eds/bin/gnu/h-x86_64-mingw32/bin/../lib/gcc/nios2-elf/9.2.1/../../../../../H-x86_64-mingw32/nios2-elf/lib\libc.a(lib_a-fstatr.o)
 .debug_aranges
                0x00000000000001a0       0x28 c:/intelfpga_lite/20.1/nios2eds/bin/gnu/h-x86_64-mingw32/bin/../lib/gcc/nios2-elf/9.2.1/../../../../../H-x86_64-mingw32/nios2-elf/lib\libc.a(lib_a-fwrite.o)
 .debug_aranges
                0x00000000000001c8       0x28 c:/intelfpga_lite/20.1/nios2eds/bin/gnu/h-x86_64-mingw32/bin/../lib/gcc/nios2-elf/9.2.1/../../../../../H-x86_64-mingw32/nios2-elf/lib\libc.a(lib_a-getchar.o)
 .debug_aranges
                0x00000000000001f0       0x18 c:/intelfpga_lite/20.1/nios2eds/bin/gnu/h-x86_64-mingw32/bin/../lib/gcc/nios2-elf/9.2.1/../../../../../H-x86_64-mingw32/nios2-elf/lib\libc.a(lib_a-impure.o)
 .debug_aranges
                0x0000000000000208       0x18 c:/intelfpga_lite/20.1/nios2eds/bin/gnu/h-x86_64-mingw32/bin/../lib/gcc/nios2-elf/9.2.1/../../../../../H-x86_64-mingw32/nios2-elf/lib\libc.a(lib_a-int_errno.o)
 .debug_aranges
                0x0000000000000220       0x28 c:/intelfpga_lite/20.1/nios2eds/bin/gnu/h-x86_64-mingw32/bin/../lib/gcc/nios2-elf/9.2.1/../../../../../H-x86_64-mingw32/nios2-elf/lib\libc.a(lib_a-makebuf.o)
 .debug_aranges
                0x0000000000000248       0x28 c:/intelfpga_lite/20.1/nios2eds/bin/gnu/h-x86_64-mingw32/bin/../lib/gcc/nios2-elf/9.2.1/../../../../../H-x86_64-mingw32/nios2-elf/lib\libc.a(lib_a-malloc.o)
 .debug_aranges
                0x0000000000000270       0x20 c:/intelfpga_lite/20.1/nios2eds/bin/gnu/h-x86_64-mingw32/bin/../lib/gcc/nios2-elf/9.2.1/../../../../../H-x86_64-mingw32/nios2-elf/lib\libc.a(lib_a-mallocr.o)
 .debug_aranges
                0x0000000000000290       0x20 c:/intelfpga_lite/20.1/nios2eds/bin/gnu/h-x86_64-mingw32/bin/../lib/gcc/nios2-elf/9.2.1/../../../../../H-x86_64-mingw32/nios2-elf/lib\libc.a(lib_a-memset.o)
 .debug_aranges
                0x00000000000002b0       0x20 c:/intelfpga_lite/20.1/nios2eds/bin/gnu/h-x86_64-mingw32/bin/../lib/gcc/nios2-elf/9.2.1/../../../../../H-x86_64-mingw32/nios2-elf/lib\libc.a(lib_a-openr.o)
 .debug_aranges
                0x00000000000002d0       0x28 c:/intelfpga_lite/20.1/nios2eds/bin/gnu/h-x86_64-mingw32/bin/../lib/gcc/nios2-elf/9.2.1/../../../../../H-x86_64-mingw32/nios2-elf/lib\libc.a(lib_a-printf.o)
 .debug_aranges
                0x00000000000002f8       0x28 c:/intelfpga_lite/20.1/nios2eds/bin/gnu/h-x86_64-mingw32/bin/../lib/gcc/nios2-elf/9.2.1/../../../../../H-x86_64-mingw32/nios2-elf/lib\libc.a(lib_a-putchar.o)
 .debug_aranges
                0x0000000000000320       0x28 c:/intelfpga_lite/20.1/nios2eds/bin/gnu/h-x86_64-mingw32/bin/../lib/gcc/nios2-elf/9.2.1/../../../../../H-x86_64-mingw32/nios2-elf/lib\libc.a(lib_a-puts.o)
 .debug_aranges
                0x0000000000000348       0x28 c:/intelfpga_lite/20.1/nios2eds/bin/gnu/h-x86_64-mingw32/bin/../lib/gcc/nios2-elf/9.2.1/../../../../../H-x86_64-mingw32/nios2-elf/lib\libc.a(lib_a-refill.o)
 .debug_aranges
                0x0000000000000370       0x20 c:/intelfpga_lite/20.1/nios2eds/bin/gnu/h-x86_64-mingw32/bin/../lib/gcc/nios2-elf/9.2.1/../../../../../H-x86_64-mingw32/nios2-elf/lib\libc.a(lib_a-sbrkr.o)
 .debug_aranges
                0x0000000000000390       0x40 c:/intelfpga_lite/20.1/nios2eds/bin/gnu/h-x86_64-mingw32/bin/../lib/gcc/nios2-elf/9.2.1/../../../../../H-x86_64-mingw32/nios2-elf/lib\libc.a(lib_a-stdio.o)
 .debug_aranges
                0x00000000000003d0       0x20 c:/intelfpga_lite/20.1/nios2eds/bin/gnu/h-x86_64-mingw32/bin/../lib/gcc/nios2-elf/9.2.1/../../../../../H-x86_64-mingw32/nios2-elf/lib\libc.a(lib_a-strlen.o)
 .debug_aranges
                0x00000000000003f0       0x30 c:/intelfpga_lite/20.1/nios2eds/bin/gnu/h-x86_64-mingw32/bin/../lib/gcc/nios2-elf/9.2.1/../../../../../H-x86_64-mingw32/nios2-elf/lib\libc.a(lib_a-vfprintf.o)
 .debug_aranges
                0x0000000000000420       0x20 c:/intelfpga_lite/20.1/nios2eds/bin/gnu/h-x86_64-mingw32/bin/../lib/gcc/nios2-elf/9.2.1/../../../../../H-x86_64-mingw32/nios2-elf/lib\libc.a(lib_a-writer.o)
 .debug_aranges
                0x0000000000000440       0x20 c:/intelfpga_lite/20.1/nios2eds/bin/gnu/h-x86_64-mingw32/bin/../lib/gcc/nios2-elf/9.2.1/../../../../../H-x86_64-mingw32/nios2-elf/lib\libc.a(lib_a-wsetup.o)
 .debug_aranges
                0x0000000000000460       0x20 c:/intelfpga_lite/20.1/nios2eds/bin/gnu/h-x86_64-mingw32/bin/../lib/gcc/nios2-elf/9.2.1/../../../../../H-x86_64-mingw32/nios2-elf/lib\libc.a(closer.o)
 .debug_aranges
                0x0000000000000480       0x28 c:/intelfpga_lite/20.1/nios2eds/bin/gnu/h-x86_64-mingw32/bin/../lib/gcc/nios2-elf/9.2.1/../../../../../H-x86_64-mingw32/nios2-elf/lib\libc.a(lib_a-dtoa.o)
 .debug_aranges
                0x00000000000004a8       0x30 c:/intelfpga_lite/20.1/nios2eds/bin/gnu/h-x86_64-mingw32/bin/../lib/gcc/nios2-elf/9.2.1/../../../../../H-x86_64-mingw32/nios2-elf/lib\libc.a(lib_a-fflush.o)
 .debug_aranges
                0x00000000000004d8       0x68 c:/intelfpga_lite/20.1/nios2eds/bin/gnu/h-x86_64-mingw32/bin/../lib/gcc/nios2-elf/9.2.1/../../../../../H-x86_64-mingw32/nios2-elf/lib\libc.a(lib_a-findfp.o)
 .debug_aranges
                0x0000000000000540       0x20 c:/intelfpga_lite/20.1/nios2eds/bin/gnu/h-x86_64-mingw32/bin/../lib/gcc/nios2-elf/9.2.1/../../../../../H-x86_64-mingw32/nios2-elf/lib\libc.a(lib_a-flags.o)
 .debug_aranges
                0x0000000000000560       0x28 c:/intelfpga_lite/20.1/nios2eds/bin/gnu/h-x86_64-mingw32/bin/../lib/gcc/nios2-elf/9.2.1/../../../../../H-x86_64-mingw32/nios2-elf/lib\libc.a(lib_a-freer.o)
 .debug_aranges
                0x0000000000000588       0x20 c:/intelfpga_lite/20.1/nios2eds/bin/gnu/h-x86_64-mingw32/bin/../lib/gcc/nios2-elf/9.2.1/../../../../../H-x86_64-mingw32/nios2-elf/lib\libc.a(lib_a-fvwrite.o)
 .debug_aranges
                0x00000000000005a8       0x28 c:/intelfpga_lite/20.1/nios2eds/bin/gnu/h-x86_64-mingw32/bin/../lib/gcc/nios2-elf/9.2.1/../../../../../H-x86_64-mingw32/nios2-elf/lib\libc.a(lib_a-fwalk.o)
 .debug_aranges
                0x00000000000005d0       0x28 c:/intelfpga_lite/20.1/nios2eds/bin/gnu/h-x86_64-mingw32/bin/../lib/gcc/nios2-elf/9.2.1/../../../../../H-x86_64-mingw32/nios2-elf/lib\libc.a(lib_a-getc.o)
 .debug_aranges
                0x00000000000005f8       0x20 c:/intelfpga_lite/20.1/nios2eds/bin/gnu/h-x86_64-mingw32/bin/../lib/gcc/nios2-elf/9.2.1/../../../../../H-x86_64-mingw32/nios2-elf/lib\libc.a(lib_a-isattyr.o)
 .debug_aranges
                0x0000000000000618       0x30 c:/intelfpga_lite/20.1/nios2eds/bin/gnu/h-x86_64-mingw32/bin/../lib/gcc/nios2-elf/9.2.1/../../../../../H-x86_64-mingw32/nios2-elf/lib\libc.a(lib_a-localeconv.o)
 .debug_aranges
                0x0000000000000648       0x20 c:/intelfpga_lite/20.1/nios2eds/bin/gnu/h-x86_64-mingw32/bin/../lib/gcc/nios2-elf/9.2.1/../../../../../H-x86_64-mingw32/nios2-elf/lib\libc.a(lib_a-lseekr.o)
 .debug_aranges
                0x0000000000000668       0x20 c:/intelfpga_lite/20.1/nios2eds/bin/gnu/h-x86_64-mingw32/bin/../lib/gcc/nios2-elf/9.2.1/../../../../../H-x86_64-mingw32/nios2-elf/lib\libc.a(lib_a-memchr.o)
 .debug_aranges
                0x0000000000000688       0x20 c:/intelfpga_lite/20.1/nios2eds/bin/gnu/h-x86_64-mingw32/bin/../lib/gcc/nios2-elf/9.2.1/../../../../../H-x86_64-mingw32/nios2-elf/lib\libc.a(lib_a-memcpy.o)
 .debug_aranges
                0x00000000000006a8       0x20 c:/intelfpga_lite/20.1/nios2eds/bin/gnu/h-x86_64-mingw32/bin/../lib/gcc/nios2-elf/9.2.1/../../../../../H-x86_64-mingw32/nios2-elf/lib\libc.a(lib_a-memmove.o)
 .debug_aranges
                0x00000000000006c8       0xb0 c:/intelfpga_lite/20.1/nios2eds/bin/gnu/h-x86_64-mingw32/bin/../lib/gcc/nios2-elf/9.2.1/../../../../../H-x86_64-mingw32/nios2-elf/lib\libc.a(lib_a-mprec.o)
 .debug_aranges
                0x0000000000000778       0x28 c:/intelfpga_lite/20.1/nios2eds/bin/gnu/h-x86_64-mingw32/bin/../lib/gcc/nios2-elf/9.2.1/../../../../../H-x86_64-mingw32/nios2-elf/lib\libc.a(lib_a-putc.o)
 .debug_aranges
                0x00000000000007a0       0x20 c:/intelfpga_lite/20.1/nios2eds/bin/gnu/h-x86_64-mingw32/bin/../lib/gcc/nios2-elf/9.2.1/../../../../../H-x86_64-mingw32/nios2-elf/lib\libc.a(lib_a-readr.o)
 .debug_aranges
                0x00000000000007c0       0x20 c:/intelfpga_lite/20.1/nios2eds/bin/gnu/h-x86_64-mingw32/bin/../lib/gcc/nios2-elf/9.2.1/../../../../../H-x86_64-mingw32/nios2-elf/lib\libc.a(lib_a-reallocr.o)
 .debug_aranges
                0x00000000000007e0       0x28 c:/intelfpga_lite/20.1/nios2eds/bin/gnu/h-x86_64-mingw32/bin/../lib/gcc/nios2-elf/9.2.1/../../../../../H-x86_64-mingw32/nios2-elf/lib\libc.a(lib_a-rget.o)
 .debug_aranges
                0x0000000000000808       0x40 c:/intelfpga_lite/20.1/nios2eds/bin/gnu/h-x86_64-mingw32/bin/../lib/gcc/nios2-elf/9.2.1/../../../../../H-x86_64-mingw32/nios2-elf/lib\libc.a(lib_a-vfiprintf.o)
 .debug_aranges
                0x0000000000000848       0x28 c:/intelfpga_lite/20.1/nios2eds/bin/gnu/h-x86_64-mingw32/bin/../lib/gcc/nios2-elf/9.2.1/../../../../../H-x86_64-mingw32/nios2-elf/lib\libc.a(lib_a-wbuf.o)
 .debug_aranges
                0x0000000000000870       0x28 c:/intelfpga_lite/20.1/nios2eds/bin/gnu/h-x86_64-mingw32/bin/../lib/gcc/nios2-elf/9.2.1/../../../../../H-x86_64-mingw32/nios2-elf/lib\libc.a(lib_a-assert.o)
 .debug_aranges
                0x0000000000000898       0x20 c:/intelfpga_lite/20.1/nios2eds/bin/gnu/h-x86_64-mingw32/bin/../lib/gcc/nios2-elf/9.2.1/../../../../../H-x86_64-mingw32/nios2-elf/lib\libc.a(lib_a-callocr.o)
 .debug_aranges
                0x00000000000008b8       0x28 c:/intelfpga_lite/20.1/nios2eds/bin/gnu/h-x86_64-mingw32/bin/../lib/gcc/nios2-elf/9.2.1/../../../../../H-x86_64-mingw32/nios2-elf/lib\libc.a(lib_a-fclose.o)
 .debug_aranges
                0x00000000000008e0       0x28 c:/intelfpga_lite/20.1/nios2eds/bin/gnu/h-x86_64-mingw32/bin/../lib/gcc/nios2-elf/9.2.1/../../../../../H-x86_64-mingw32/nios2-elf/lib\libc.a(lib_a-fiprintf.o)
 .debug_aranges
                0x0000000000000908       0x30 c:/intelfpga_lite/20.1/nios2eds/bin/gnu/h-x86_64-mingw32/bin/../lib/gcc/nios2-elf/9.2.1/../../../../../H-x86_64-mingw32/nios2-elf/lib\libc.a(lib_a-fputwc.o)
 .debug_aranges
                0x0000000000000938       0x30 c:/intelfpga_lite/20.1/nios2eds/bin/gnu/h-x86_64-mingw32/bin/../lib/gcc/nios2-elf/9.2.1/../../../../../H-x86_64-mingw32/nios2-elf/lib\libc.a(lib_a-locale.o)
 .debug_aranges
                0x0000000000000968       0x28 c:/intelfpga_lite/20.1/nios2eds/bin/gnu/h-x86_64-mingw32/bin/../lib/gcc/nios2-elf/9.2.1/../../../../../H-x86_64-mingw32/nios2-elf/lib\libc.a(lib_a-mbtowc_r.o)
 .debug_aranges
                0x0000000000000990       0x20 c:/intelfpga_lite/20.1/nios2eds/bin/gnu/h-x86_64-mingw32/bin/../lib/gcc/nios2-elf/9.2.1/../../../../../H-x86_64-mingw32/nios2-elf/lib\libc.a(lib_a-strcmp.o)
 .debug_aranges
                0x00000000000009b0       0x20 c:/intelfpga_lite/20.1/nios2eds/bin/gnu/h-x86_64-mingw32/bin/../lib/gcc/nios2-elf/9.2.1/../../../../../H-x86_64-mingw32/nios2-elf/lib\libc.a(lib_a-vfiprintfr_1.o)
 .debug_aranges
                0x00000000000009d0       0x28 c:/intelfpga_lite/20.1/nios2eds/bin/gnu/h-x86_64-mingw32/bin/../lib/gcc/nios2-elf/9.2.1/../../../../../H-x86_64-mingw32/nios2-elf/lib\libc.a(lib_a-wcrtomb.o)
 .debug_aranges
                0x00000000000009f8       0x28 c:/intelfpga_lite/20.1/nios2eds/bin/gnu/h-x86_64-mingw32/bin/../lib/gcc/nios2-elf/9.2.1/../../../../../H-x86_64-mingw32/nios2-elf/lib\libc.a(lib_a-wctomb_r.o)
 .debug_aranges
                0x0000000000000a20       0x20 c:/intelfpga_lite/20.1/nios2eds/bin/gnu/h-x86_64-mingw32/bin/../lib/gcc/nios2-elf/9.2.1/../../../../../H-x86_64-mingw32/nios2-elf/lib\libc.a(lib_a-abort.o)
 .debug_aranges
                0x0000000000000a40       0x18 c:/intelfpga_lite/20.1/nios2eds/bin/gnu/h-x86_64-mingw32/bin/../lib/gcc/nios2-elf/9.2.1/../../../../../H-x86_64-mingw32/nios2-elf/lib\libc.a(lib_a-ctype_.o)
 .debug_aranges
                0x0000000000000a58       0x60 c:/intelfpga_lite/20.1/nios2eds/bin/gnu/h-x86_64-mingw32/bin/../lib/gcc/nios2-elf/9.2.1/../../../../../H-x86_64-mingw32/nios2-elf/lib\libc.a(lib_a-signal.o)
 .debug_aranges
                0x0000000000000ab8       0x28 c:/intelfpga_lite/20.1/nios2eds/bin/gnu/h-x86_64-mingw32/bin/../lib/gcc/nios2-elf/9.2.1/../../../../../H-x86_64-mingw32/nios2-elf/lib\libc.a(lib_a-signalr.o)
 .debug_aranges
                0x0000000000000ae0       0x20 c:/intelfpga_lite/20.1/nios2eds/bin/gnu/h-x86_64-mingw32/bin/../lib/gcc/nios2-elf/9.2.1\libgcc.a(_udivdi3.o)
 .debug_aranges
                0x0000000000000b00       0x20 c:/intelfpga_lite/20.1/nios2eds/bin/gnu/h-x86_64-mingw32/bin/../lib/gcc/nios2-elf/9.2.1\libgcc.a(_umoddi3.o)
 .debug_aranges
                0x0000000000000b20       0x20 c:/intelfpga_lite/20.1/nios2eds/bin/gnu/h-x86_64-mingw32/bin/../lib/gcc/nios2-elf/9.2.1\libgcc.a(adddf3.o)
 .debug_aranges
                0x0000000000000b40       0x20 c:/intelfpga_lite/20.1/nios2eds/bin/gnu/h-x86_64-mingw32/bin/../lib/gcc/nios2-elf/9.2.1\libgcc.a(divdf3.o)
 .debug_aranges
                0x0000000000000b60       0x20 c:/intelfpga_lite/20.1/nios2eds/bin/gnu/h-x86_64-mingw32/bin/../lib/gcc/nios2-elf/9.2.1\libgcc.a(eqdf2.o)
 .debug_aranges
                0x0000000000000b80       0x20 c:/intelfpga_lite/20.1/nios2eds/bin/gnu/h-x86_64-mingw32/bin/../lib/gcc/nios2-elf/9.2.1\libgcc.a(gedf2.o)
 .debug_aranges
                0x0000000000000ba0       0x20 c:/intelfpga_lite/20.1/nios2eds/bin/gnu/h-x86_64-mingw32/bin/../lib/gcc/nios2-elf/9.2.1\libgcc.a(ledf2.o)
 .debug_aranges
                0x0000000000000bc0       0x20 c:/intelfpga_lite/20.1/nios2eds/bin/gnu/h-x86_64-mingw32/bin/../lib/gcc/nios2-elf/9.2.1\libgcc.a(muldf3.o)
 .debug_aranges
                0x0000000000000be0       0x20 c:/intelfpga_lite/20.1/nios2eds/bin/gnu/h-x86_64-mingw32/bin/../lib/gcc/nios2-elf/9.2.1\libgcc.a(subdf3.o)
 .debug_aranges
                0x0000000000000c00       0x20 c:/intelfpga_lite/20.1/nios2eds/bin/gnu/h-x86_64-mingw32/bin/../lib/gcc/nios2-elf/9.2.1\libgcc.a(unorddf2.o)
 .debug_aranges
                0x0000000000000c20       0x20 c:/intelfpga_lite/20.1/nios2eds/bin/gnu/h-x86_64-mingw32/bin/../lib/gcc/nios2-elf/9.2.1\libgcc.a(fixdfsi.o)
 .debug_aranges
                0x0000000000000c40       0x20 c:/intelfpga_lite/20.1/nios2eds/bin/gnu/h-x86_64-mingw32/bin/../lib/gcc/nios2-elf/9.2.1\libgcc.a(floatsidf.o)
 .debug_aranges
                0x0000000000000c60       0x20 c:/intelfpga_lite/20.1/nios2eds/bin/gnu/h-x86_64-mingw32/bin/../lib/gcc/nios2-elf/9.2.1\libgcc.a(floatunsidf.o)
 .debug_aranges
                0x0000000000000c80       0x18 c:/intelfpga_lite/20.1/nios2eds/bin/gnu/h-x86_64-mingw32/bin/../lib/gcc/nios2-elf/9.2.1\libgcc.a(_clz.o)
 .debug_aranges
                0x0000000000000c98       0x20 c:/intelfpga_lite/20.1/nios2eds/bin/gnu/h-x86_64-mingw32/bin/../lib/gcc/nios2-elf/9.2.1\libgcc.a(_clzsi2.o)
 .debug_aranges
                0x0000000000000cb8       0x20 C:/Users/Emre/Documents/projectnios2/DE10_LITE_D8M_VIP_16/software/Vision_bsp\libhal_bsp.a(alt_close.o)
 .debug_aranges
                0x0000000000000cd8       0x20 C:/Users/Emre/Documents/projectnios2/DE10_LITE_D8M_VIP_16/software/Vision_bsp\libhal_bsp.a(alt_dev.o)
 .debug_aranges
                0x0000000000000cf8       0x18 C:/Users/Emre/Documents/projectnios2/DE10_LITE_D8M_VIP_16/software/Vision_bsp\libhal_bsp.a(alt_errno.o)
 .debug_aranges
                0x0000000000000d10       0x20 C:/Users/Emre/Documents/projectnios2/DE10_LITE_D8M_VIP_16/software/Vision_bsp\libhal_bsp.a(alt_exit.o)
 .debug_aranges
                0x0000000000000d30       0x20 C:/Users/Emre/Documents/projectnios2/DE10_LITE_D8M_VIP_16/software/Vision_bsp\libhal_bsp.a(alt_fcntl.o)
 .debug_aranges
                0x0000000000000d50       0x20 C:/Users/Emre/Documents/projectnios2/DE10_LITE_D8M_VIP_16/software/Vision_bsp\libhal_bsp.a(alt_fstat.o)
 .debug_aranges
                0x0000000000000d70       0x20 C:/Users/Emre/Documents/projectnios2/DE10_LITE_D8M_VIP_16/software/Vision_bsp\libhal_bsp.a(alt_getpid.o)
 .debug_aranges
                0x0000000000000d90       0x20 C:/Users/Emre/Documents/projectnios2/DE10_LITE_D8M_VIP_16/software/Vision_bsp\libhal_bsp.a(alt_isatty.o)
 .debug_aranges
                0x0000000000000db0       0x20 C:/Users/Emre/Documents/projectnios2/DE10_LITE_D8M_VIP_16/software/Vision_bsp\libhal_bsp.a(alt_kill.o)
 .debug_aranges
                0x0000000000000dd0       0x20 C:/Users/Emre/Documents/projectnios2/DE10_LITE_D8M_VIP_16/software/Vision_bsp\libhal_bsp.a(alt_load.o)
 .debug_aranges
                0x0000000000000df0       0x20 C:/Users/Emre/Documents/projectnios2/DE10_LITE_D8M_VIP_16/software/Vision_bsp\libhal_bsp.a(alt_lseek.o)
 .debug_aranges
                0x0000000000000e10       0x20 C:/Users/Emre/Documents/projectnios2/DE10_LITE_D8M_VIP_16/software/Vision_bsp\libhal_bsp.a(alt_main.o)
 .debug_aranges
                0x0000000000000e30       0x20 C:/Users/Emre/Documents/projectnios2/DE10_LITE_D8M_VIP_16/software/Vision_bsp\libhal_bsp.a(alt_malloc_lock.o)
 .debug_aranges
                0x0000000000000e50       0x20 C:/Users/Emre/Documents/projectnios2/DE10_LITE_D8M_VIP_16/software/Vision_bsp\libhal_bsp.a(alt_open.o)
 .debug_aranges
                0x0000000000000e70       0x20 C:/Users/Emre/Documents/projectnios2/DE10_LITE_D8M_VIP_16/software/Vision_bsp\libhal_bsp.a(alt_read.o)
 .debug_aranges
                0x0000000000000e90       0x20 C:/Users/Emre/Documents/projectnios2/DE10_LITE_D8M_VIP_16/software/Vision_bsp\libhal_bsp.a(alt_release_fd.o)
 .debug_aranges
                0x0000000000000eb0       0x20 C:/Users/Emre/Documents/projectnios2/DE10_LITE_D8M_VIP_16/software/Vision_bsp\libhal_bsp.a(alt_sbrk.o)
 .debug_aranges
                0x0000000000000ed0       0x20 C:/Users/Emre/Documents/projectnios2/DE10_LITE_D8M_VIP_16/software/Vision_bsp\libhal_bsp.a(alt_tick.o)
 .debug_aranges
                0x0000000000000ef0       0x20 C:/Users/Emre/Documents/projectnios2/DE10_LITE_D8M_VIP_16/software/Vision_bsp\libhal_bsp.a(alt_usleep.o)
 .debug_aranges
                0x0000000000000f10       0x20 C:/Users/Emre/Documents/projectnios2/DE10_LITE_D8M_VIP_16/software/Vision_bsp\libhal_bsp.a(alt_write.o)
 .debug_aranges
                0x0000000000000f30       0x20 C:/Users/Emre/Documents/projectnios2/DE10_LITE_D8M_VIP_16/software/Vision_bsp\libhal_bsp.a(alt_sys_init.o)
 .debug_aranges
                0x0000000000000f50       0x20 C:/Users/Emre/Documents/projectnios2/DE10_LITE_D8M_VIP_16/software/Vision_bsp\libhal_bsp.a(altera_avalon_jtag_uart_fd.o)
 .debug_aranges
                0x0000000000000f70       0x20 C:/Users/Emre/Documents/projectnios2/DE10_LITE_D8M_VIP_16/software/Vision_bsp\libhal_bsp.a(altera_avalon_jtag_uart_init.o)
 .debug_aranges
                0x0000000000000f90       0x20 C:/Users/Emre/Documents/projectnios2/DE10_LITE_D8M_VIP_16/software/Vision_bsp\libhal_bsp.a(altera_avalon_jtag_uart_ioctl.o)
 .debug_aranges
                0x0000000000000fb0       0x20 C:/Users/Emre/Documents/projectnios2/DE10_LITE_D8M_VIP_16/software/Vision_bsp\libhal_bsp.a(altera_avalon_jtag_uart_read.o)
 .debug_aranges
                0x0000000000000fd0       0x20 C:/Users/Emre/Documents/projectnios2/DE10_LITE_D8M_VIP_16/software/Vision_bsp\libhal_bsp.a(altera_avalon_jtag_uart_write.o)
 .debug_aranges
                0x0000000000000ff0       0x20 C:/Users/Emre/Documents/projectnios2/DE10_LITE_D8M_VIP_16/software/Vision_bsp\libhal_bsp.a(altera_avalon_timer_sc.o)
 .debug_aranges
                0x0000000000001010       0x20 C:/Users/Emre/Documents/projectnios2/DE10_LITE_D8M_VIP_16/software/Vision_bsp\libhal_bsp.a(altera_avalon_uart_fd.o)
 .debug_aranges
                0x0000000000001030       0x20 C:/Users/Emre/Documents/projectnios2/DE10_LITE_D8M_VIP_16/software/Vision_bsp\libhal_bsp.a(altera_avalon_uart_init.o)
 .debug_aranges
                0x0000000000001050       0x20 C:/Users/Emre/Documents/projectnios2/DE10_LITE_D8M_VIP_16/software/Vision_bsp\libhal_bsp.a(altera_avalon_uart_read.o)
 .debug_aranges
                0x0000000000001070       0x20 C:/Users/Emre/Documents/projectnios2/DE10_LITE_D8M_VIP_16/software/Vision_bsp\libhal_bsp.a(altera_avalon_uart_write.o)
 .debug_aranges
                0x0000000000001090       0x20 C:/Users/Emre/Documents/projectnios2/DE10_LITE_D8M_VIP_16/software/Vision_bsp\libhal_bsp.a(alt_alarm_start.o)
 .debug_aranges
                0x00000000000010b0       0x20 C:/Users/Emre/Documents/projectnios2/DE10_LITE_D8M_VIP_16/software/Vision_bsp\libhal_bsp.a(alt_busy_sleep.o)
 .debug_aranges
                0x00000000000010d0       0x20 C:/Users/Emre/Documents/projectnios2/DE10_LITE_D8M_VIP_16/software/Vision_bsp\libhal_bsp.a(alt_dcache_flush_all.o)
 .debug_aranges
                0x00000000000010f0       0x20 C:/Users/Emre/Documents/projectnios2/DE10_LITE_D8M_VIP_16/software/Vision_bsp\libhal_bsp.a(alt_dev_llist_insert.o)
 .debug_aranges
                0x0000000000001110       0x20 C:/Users/Emre/Documents/projectnios2/DE10_LITE_D8M_VIP_16/software/Vision_bsp\libhal_bsp.a(alt_do_ctors.o)
 .debug_aranges
                0x0000000000001130       0x20 C:/Users/Emre/Documents/projectnios2/DE10_LITE_D8M_VIP_16/software/Vision_bsp\libhal_bsp.a(alt_do_dtors.o)
 .debug_aranges
                0x0000000000001150       0x20 C:/Users/Emre/Documents/projectnios2/DE10_LITE_D8M_VIP_16/software/Vision_bsp\libhal_bsp.a(alt_find_dev.o)
 .debug_aranges
                0x0000000000001170       0x20 C:/Users/Emre/Documents/projectnios2/DE10_LITE_D8M_VIP_16/software/Vision_bsp\libhal_bsp.a(alt_find_file.o)
 .debug_aranges
                0x0000000000001190       0x20 C:/Users/Emre/Documents/projectnios2/DE10_LITE_D8M_VIP_16/software/Vision_bsp\libhal_bsp.a(alt_get_fd.o)
 .debug_aranges
                0x00000000000011b0       0x20 C:/Users/Emre/Documents/projectnios2/DE10_LITE_D8M_VIP_16/software/Vision_bsp\libhal_bsp.a(alt_icache_flush_all.o)
 .debug_aranges
                0x00000000000011d0       0x20 C:/Users/Emre/Documents/projectnios2/DE10_LITE_D8M_VIP_16/software/Vision_bsp\libhal_bsp.a(alt_iic.o)
 .debug_aranges
                0x00000000000011f0       0x20 C:/Users/Emre/Documents/projectnios2/DE10_LITE_D8M_VIP_16/software/Vision_bsp\libhal_bsp.a(alt_iic_isr_register.o)
 .debug_aranges
                0x0000000000001210       0x20 C:/Users/Emre/Documents/projectnios2/DE10_LITE_D8M_VIP_16/software/Vision_bsp\libhal_bsp.a(alt_io_redirect.o)
 .debug_aranges
                0x0000000000001230       0x30 C:/Users/Emre/Documents/projectnios2/DE10_LITE_D8M_VIP_16/software/Vision_bsp\libhal_bsp.a(alt_irq_entry.o)
 .debug_aranges
                0x0000000000001260       0x20 C:/Users/Emre/Documents/projectnios2/DE10_LITE_D8M_VIP_16/software/Vision_bsp\libhal_bsp.a(alt_irq_handler.o)
 .debug_aranges
                0x0000000000001280       0x18 C:/Users/Emre/Documents/projectnios2/DE10_LITE_D8M_VIP_16/software/Vision_bsp\libhal_bsp.a(alt_irq_vars.o)
 .debug_aranges
                0x0000000000001298       0x20 C:/Users/Emre/Documents/projectnios2/DE10_LITE_D8M_VIP_16/software/Vision_bsp\libhal_bsp.a(altera_nios2_gen2_irq.o)
 .debug_aranges
                0x00000000000012b8       0x38 C:/Users/Emre/Documents/projectnios2/DE10_LITE_D8M_VIP_16/software/Vision_bsp\libhal_bsp.a(alt_exception_entry.o)
 .debug_aranges
                0x00000000000012f0       0x20 C:/Users/Emre/Documents/projectnios2/DE10_LITE_D8M_VIP_16/software/Vision_bsp\libhal_bsp.a(alt_icache_flush.o)
 .debug_aranges
                0x0000000000001310       0x28 C:/Users/Emre/Documents/projectnios2/DE10_LITE_D8M_VIP_16/software/Vision_bsp\libhal_bsp.a(alt_instruction_exception_entry.o)
 .debug_aranges
                0x0000000000001338       0x20 c:/intelfpga_lite/20.1/nios2eds/bin/gnu/h-x86_64-mingw32/bin/../lib/gcc/nios2-elf/9.2.1/../../../../../H-x86_64-mingw32/nios2-elf/lib\libc.a(lib_a-atexit.o)
 .debug_aranges
                0x0000000000001358       0x20 c:/intelfpga_lite/20.1/nios2eds/bin/gnu/h-x86_64-mingw32/bin/../lib/gcc/nios2-elf/9.2.1/../../../../../H-x86_64-mingw32/nios2-elf/lib\libc.a(lib_a-exit.o)
 .debug_aranges
                0x0000000000001378       0x20 c:/intelfpga_lite/20.1/nios2eds/bin/gnu/h-x86_64-mingw32/bin/../lib/gcc/nios2-elf/9.2.1/../../../../../H-x86_64-mingw32/nios2-elf/lib\libc.a(lib_a-memcmp.o)
 .debug_aranges
                0x0000000000001398       0x20 c:/intelfpga_lite/20.1/nios2eds/bin/gnu/h-x86_64-mingw32/bin/../lib/gcc/nios2-elf/9.2.1/../../../../../H-x86_64-mingw32/nios2-elf/lib\libc.a(lib_a-__atexit.o)
 .debug_aranges
                0x00000000000013b8       0x20 c:/intelfpga_lite/20.1/nios2eds/bin/gnu/h-x86_64-mingw32/bin/../lib/gcc/nios2-elf/9.2.1/../../../../../H-x86_64-mingw32/nios2-elf/lib\libc.a(lib_a-__call_atexit.o)

.debug_pubnames
 *(.debug_pubnames)

.debug_info     0x0000000000000000    0x5f027
 *(.debug_info .gnu.linkonce.wi.*)
 .debug_info    0x0000000000000000       0x22 C:/Users/Emre/Documents/projectnios2/DE10_LITE_D8M_VIP_16/software/Vision_bsp/obj/HAL/src/crt0.o
 .debug_info    0x0000000000000022     0x1013 obj/default/I2C_core.o
 .debug_info    0x0000000000001035      0xbc1 obj/default/auto_focus.o
 .debug_info    0x0000000000001bf6      0xbf5 obj/default/main.o
 .debug_info    0x00000000000027eb      0xba1 obj/default/mipi_bridge_config.o
 .debug_info    0x000000000000338c      0xd5f obj/default/mipi_camera_config.o
 .debug_info    0x00000000000040eb      0xc03 obj/default/queue.o
 .debug_info    0x0000000000004cee      0x368 c:/intelfpga_lite/20.1/nios2eds/bin/gnu/h-x86_64-mingw32/bin/../lib/gcc/nios2-elf/9.2.1\libgcc.a(lib2-divmod.o)
 .debug_info    0x0000000000005056      0xd1b c:/intelfpga_lite/20.1/nios2eds/bin/gnu/h-x86_64-mingw32/bin/../lib/gcc/nios2-elf/9.2.1/../../../../../H-x86_64-mingw32/nios2-elf/lib\libc.a(lib_a-fopen.o)
 .debug_info    0x0000000000005d71      0xcb8 c:/intelfpga_lite/20.1/nios2eds/bin/gnu/h-x86_64-mingw32/bin/../lib/gcc/nios2-elf/9.2.1/../../../../../H-x86_64-mingw32/nios2-elf/lib\libc.a(lib_a-fseek.o)
 .debug_info    0x0000000000006a29     0x10c8 c:/intelfpga_lite/20.1/nios2eds/bin/gnu/h-x86_64-mingw32/bin/../lib/gcc/nios2-elf/9.2.1/../../../../../H-x86_64-mingw32/nios2-elf/lib\libc.a(lib_a-fseeko.o)
 .debug_info    0x0000000000007af1      0xc30 c:/intelfpga_lite/20.1/nios2eds/bin/gnu/h-x86_64-mingw32/bin/../lib/gcc/nios2-elf/9.2.1/../../../../../H-x86_64-mingw32/nios2-elf/lib\libc.a(lib_a-fstatr.o)
 .debug_info    0x0000000000008721      0xd30 c:/intelfpga_lite/20.1/nios2eds/bin/gnu/h-x86_64-mingw32/bin/../lib/gcc/nios2-elf/9.2.1/../../../../../H-x86_64-mingw32/nios2-elf/lib\libc.a(lib_a-fwrite.o)
 .debug_info    0x0000000000009451      0xb8e c:/intelfpga_lite/20.1/nios2eds/bin/gnu/h-x86_64-mingw32/bin/../lib/gcc/nios2-elf/9.2.1/../../../../../H-x86_64-mingw32/nios2-elf/lib\libc.a(lib_a-getchar.o)
 .debug_info    0x0000000000009fdf      0x936 c:/intelfpga_lite/20.1/nios2eds/bin/gnu/h-x86_64-mingw32/bin/../lib/gcc/nios2-elf/9.2.1/../../../../../H-x86_64-mingw32/nios2-elf/lib\libc.a(lib_a-impure.o)
 .debug_info    0x000000000000a915      0x92c c:/intelfpga_lite/20.1/nios2eds/bin/gnu/h-x86_64-mingw32/bin/../lib/gcc/nios2-elf/9.2.1/../../../../../H-x86_64-mingw32/nios2-elf/lib\libc.a(lib_a-int_errno.o)
 .debug_info    0x000000000000b241      0xf81 c:/intelfpga_lite/20.1/nios2eds/bin/gnu/h-x86_64-mingw32/bin/../lib/gcc/nios2-elf/9.2.1/../../../../../H-x86_64-mingw32/nios2-elf/lib\libc.a(lib_a-makebuf.o)
 .debug_info    0x000000000000c1c2      0x9c2 c:/intelfpga_lite/20.1/nios2eds/bin/gnu/h-x86_64-mingw32/bin/../lib/gcc/nios2-elf/9.2.1/../../../../../H-x86_64-mingw32/nios2-elf/lib\libc.a(lib_a-malloc.o)
 .debug_info    0x000000000000cb84      0xf39 c:/intelfpga_lite/20.1/nios2eds/bin/gnu/h-x86_64-mingw32/bin/../lib/gcc/nios2-elf/9.2.1/../../../../../H-x86_64-mingw32/nios2-elf/lib\libc.a(lib_a-mallocr.o)
 .debug_info    0x000000000000dabd      0xf2d c:/intelfpga_lite/20.1/nios2eds/bin/gnu/h-x86_64-mingw32/bin/../lib/gcc/nios2-elf/9.2.1/../../../../../H-x86_64-mingw32/nios2-elf/lib\libc.a(lib_a-memset.o)
 .debug_info    0x000000000000e9ea      0xa4e c:/intelfpga_lite/20.1/nios2eds/bin/gnu/h-x86_64-mingw32/bin/../lib/gcc/nios2-elf/9.2.1/../../../../../H-x86_64-mingw32/nios2-elf/lib\libc.a(lib_a-openr.o)
 .debug_info    0x000000000000f438      0xc47 c:/intelfpga_lite/20.1/nios2eds/bin/gnu/h-x86_64-mingw32/bin/../lib/gcc/nios2-elf/9.2.1/../../../../../H-x86_64-mingw32/nios2-elf/lib\libc.a(lib_a-printf.o)
 .debug_info    0x000000000001007f      0xbc2 c:/intelfpga_lite/20.1/nios2eds/bin/gnu/h-x86_64-mingw32/bin/../lib/gcc/nios2-elf/9.2.1/../../../../../H-x86_64-mingw32/nios2-elf/lib\libc.a(lib_a-putchar.o)
 .debug_info    0x0000000000010c41      0xced c:/intelfpga_lite/20.1/nios2eds/bin/gnu/h-x86_64-mingw32/bin/../lib/gcc/nios2-elf/9.2.1/../../../../../H-x86_64-mingw32/nios2-elf/lib\libc.a(lib_a-puts.o)
 .debug_info    0x000000000001192e      0xce0 c:/intelfpga_lite/20.1/nios2eds/bin/gnu/h-x86_64-mingw32/bin/../lib/gcc/nios2-elf/9.2.1/../../../../../H-x86_64-mingw32/nios2-elf/lib\libc.a(lib_a-refill.o)
 .debug_info    0x000000000001260e      0xa06 c:/intelfpga_lite/20.1/nios2eds/bin/gnu/h-x86_64-mingw32/bin/../lib/gcc/nios2-elf/9.2.1/../../../../../H-x86_64-mingw32/nios2-elf/lib\libc.a(lib_a-sbrkr.o)
 .debug_info    0x0000000000013014      0xe6d c:/intelfpga_lite/20.1/nios2eds/bin/gnu/h-x86_64-mingw32/bin/../lib/gcc/nios2-elf/9.2.1/../../../../../H-x86_64-mingw32/nios2-elf/lib\libc.a(lib_a-stdio.o)
 .debug_info    0x0000000000013e81      0x97f c:/intelfpga_lite/20.1/nios2eds/bin/gnu/h-x86_64-mingw32/bin/../lib/gcc/nios2-elf/9.2.1/../../../../../H-x86_64-mingw32/nios2-elf/lib\libc.a(lib_a-strlen.o)
 .debug_info    0x0000000000014800     0x201c c:/intelfpga_lite/20.1/nios2eds/bin/gnu/h-x86_64-mingw32/bin/../lib/gcc/nios2-elf/9.2.1/../../../../../H-x86_64-mingw32/nios2-elf/lib\libc.a(lib_a-vfprintf.o)
 .debug_info    0x000000000001681c      0xa38 c:/intelfpga_lite/20.1/nios2eds/bin/gnu/h-x86_64-mingw32/bin/../lib/gcc/nios2-elf/9.2.1/../../../../../H-x86_64-mingw32/nios2-elf/lib\libc.a(lib_a-writer.o)
 .debug_info    0x0000000000017254      0xbff c:/intelfpga_lite/20.1/nios2eds/bin/gnu/h-x86_64-mingw32/bin/../lib/gcc/nios2-elf/9.2.1/../../../../../H-x86_64-mingw32/nios2-elf/lib\libc.a(lib_a-wsetup.o)
 .debug_info    0x0000000000017e53      0x9e3 c:/intelfpga_lite/20.1/nios2eds/bin/gnu/h-x86_64-mingw32/bin/../lib/gcc/nios2-elf/9.2.1/../../../../../H-x86_64-mingw32/nios2-elf/lib\libc.a(closer.o)
 .debug_info    0x0000000000018836     0x1ac5 c:/intelfpga_lite/20.1/nios2eds/bin/gnu/h-x86_64-mingw32/bin/../lib/gcc/nios2-elf/9.2.1/../../../../../H-x86_64-mingw32/nios2-elf/lib\libc.a(lib_a-dtoa.o)
 .debug_info    0x000000000001a2fb      0xd81 c:/intelfpga_lite/20.1/nios2eds/bin/gnu/h-x86_64-mingw32/bin/../lib/gcc/nios2-elf/9.2.1/../../../../../H-x86_64-mingw32/nios2-elf/lib\libc.a(lib_a-fflush.o)
 .debug_info    0x000000000001b07c     0x10c6 c:/intelfpga_lite/20.1/nios2eds/bin/gnu/h-x86_64-mingw32/bin/../lib/gcc/nios2-elf/9.2.1/../../../../../H-x86_64-mingw32/nios2-elf/lib\libc.a(lib_a-findfp.o)
 .debug_info    0x000000000001c142      0xa06 c:/intelfpga_lite/20.1/nios2eds/bin/gnu/h-x86_64-mingw32/bin/../lib/gcc/nios2-elf/9.2.1/../../../../../H-x86_64-mingw32/nios2-elf/lib\libc.a(lib_a-flags.o)
 .debug_info    0x000000000001cb48      0xda6 c:/intelfpga_lite/20.1/nios2eds/bin/gnu/h-x86_64-mingw32/bin/../lib/gcc/nios2-elf/9.2.1/../../../../../H-x86_64-mingw32/nios2-elf/lib\libc.a(lib_a-freer.o)
 .debug_info    0x000000000001d8ee      0xed1 c:/intelfpga_lite/20.1/nios2eds/bin/gnu/h-x86_64-mingw32/bin/../lib/gcc/nios2-elf/9.2.1/../../../../../H-x86_64-mingw32/nios2-elf/lib\libc.a(lib_a-fvwrite.o)
 .debug_info    0x000000000001e7bf      0xcb0 c:/intelfpga_lite/20.1/nios2eds/bin/gnu/h-x86_64-mingw32/bin/../lib/gcc/nios2-elf/9.2.1/../../../../../H-x86_64-mingw32/nios2-elf/lib\libc.a(lib_a-fwalk.o)
 .debug_info    0x000000000001f46f      0xc57 c:/intelfpga_lite/20.1/nios2eds/bin/gnu/h-x86_64-mingw32/bin/../lib/gcc/nios2-elf/9.2.1/../../../../../H-x86_64-mingw32/nios2-elf/lib\libc.a(lib_a-getc.o)
 .debug_info    0x00000000000200c6      0x9e3 c:/intelfpga_lite/20.1/nios2eds/bin/gnu/h-x86_64-mingw32/bin/../lib/gcc/nios2-elf/9.2.1/../../../../../H-x86_64-mingw32/nios2-elf/lib\libc.a(lib_a-isattyr.o)
 .debug_info    0x0000000000020aa9      0xf49 c:/intelfpga_lite/20.1/nios2eds/bin/gnu/h-x86_64-mingw32/bin/../lib/gcc/nios2-elf/9.2.1/../../../../../H-x86_64-mingw32/nios2-elf/lib\libc.a(lib_a-localeconv.o)
 .debug_info    0x00000000000219f2      0xa19 c:/intelfpga_lite/20.1/nios2eds/bin/gnu/h-x86_64-mingw32/bin/../lib/gcc/nios2-elf/9.2.1/../../../../../H-x86_64-mingw32/nios2-elf/lib\libc.a(lib_a-lseekr.o)
 .debug_info    0x000000000002240b      0x9ef c:/intelfpga_lite/20.1/nios2eds/bin/gnu/h-x86_64-mingw32/bin/../lib/gcc/nios2-elf/9.2.1/../../../../../H-x86_64-mingw32/nios2-elf/lib\libc.a(lib_a-memchr.o)
 .debug_info    0x0000000000022dfa      0xf47 c:/intelfpga_lite/20.1/nios2eds/bin/gnu/h-x86_64-mingw32/bin/../lib/gcc/nios2-elf/9.2.1/../../../../../H-x86_64-mingw32/nios2-elf/lib\libc.a(lib_a-memcpy.o)
 .debug_info    0x0000000000023d41      0xf3d c:/intelfpga_lite/20.1/nios2eds/bin/gnu/h-x86_64-mingw32/bin/../lib/gcc/nios2-elf/9.2.1/../../../../../H-x86_64-mingw32/nios2-elf/lib\libc.a(lib_a-memmove.o)
 .debug_info    0x0000000000024c7e     0x22a2 c:/intelfpga_lite/20.1/nios2eds/bin/gnu/h-x86_64-mingw32/bin/../lib/gcc/nios2-elf/9.2.1/../../../../../H-x86_64-mingw32/nios2-elf/lib\libc.a(lib_a-mprec.o)
 .debug_info    0x0000000000026f20      0xc74 c:/intelfpga_lite/20.1/nios2eds/bin/gnu/h-x86_64-mingw32/bin/../lib/gcc/nios2-elf/9.2.1/../../../../../H-x86_64-mingw32/nios2-elf/lib\libc.a(lib_a-putc.o)
 .debug_info    0x0000000000027b94      0xa31 c:/intelfpga_lite/20.1/nios2eds/bin/gnu/h-x86_64-mingw32/bin/../lib/gcc/nios2-elf/9.2.1/../../../../../H-x86_64-mingw32/nios2-elf/lib\libc.a(lib_a-readr.o)
 .debug_info    0x00000000000285c5      0xf15 c:/intelfpga_lite/20.1/nios2eds/bin/gnu/h-x86_64-mingw32/bin/../lib/gcc/nios2-elf/9.2.1/../../../../../H-x86_64-mingw32/nios2-elf/lib\libc.a(lib_a-reallocr.o)
 .debug_info    0x00000000000294da      0xc1e c:/intelfpga_lite/20.1/nios2eds/bin/gnu/h-x86_64-mingw32/bin/../lib/gcc/nios2-elf/9.2.1/../../../../../H-x86_64-mingw32/nios2-elf/lib\libc.a(lib_a-rget.o)
 .debug_info    0x000000000002a0f8     0x1f60 c:/intelfpga_lite/20.1/nios2eds/bin/gnu/h-x86_64-mingw32/bin/../lib/gcc/nios2-elf/9.2.1/../../../../../H-x86_64-mingw32/nios2-elf/lib\libc.a(lib_a-vfiprintf.o)
 .debug_info    0x000000000002c058      0xc9c c:/intelfpga_lite/20.1/nios2eds/bin/gnu/h-x86_64-mingw32/bin/../lib/gcc/nios2-elf/9.2.1/../../../../../H-x86_64-mingw32/nios2-elf/lib\libc.a(lib_a-wbuf.o)
 .debug_info    0x000000000002ccf4      0xa41 c:/intelfpga_lite/20.1/nios2eds/bin/gnu/h-x86_64-mingw32/bin/../lib/gcc/nios2-elf/9.2.1/../../../../../H-x86_64-mingw32/nios2-elf/lib\libc.a(lib_a-assert.o)
 .debug_info    0x000000000002d735      0xc39 c:/intelfpga_lite/20.1/nios2eds/bin/gnu/h-x86_64-mingw32/bin/../lib/gcc/nios2-elf/9.2.1/../../../../../H-x86_64-mingw32/nios2-elf/lib\libc.a(lib_a-callocr.o)
 .debug_info    0x000000000002e36e      0xce5 c:/intelfpga_lite/20.1/nios2eds/bin/gnu/h-x86_64-mingw32/bin/../lib/gcc/nios2-elf/9.2.1/../../../../../H-x86_64-mingw32/nios2-elf/lib\libc.a(lib_a-fclose.o)
 .debug_info    0x000000000002f053      0xa80 c:/intelfpga_lite/20.1/nios2eds/bin/gnu/h-x86_64-mingw32/bin/../lib/gcc/nios2-elf/9.2.1/../../../../../H-x86_64-mingw32/nios2-elf/lib\libc.a(lib_a-fiprintf.o)
 .debug_info    0x000000000002fad3      0xde7 c:/intelfpga_lite/20.1/nios2eds/bin/gnu/h-x86_64-mingw32/bin/../lib/gcc/nios2-elf/9.2.1/../../../../../H-x86_64-mingw32/nios2-elf/lib\libc.a(lib_a-fputwc.o)
 .debug_info    0x00000000000308ba     0x10aa c:/intelfpga_lite/20.1/nios2eds/bin/gnu/h-x86_64-mingw32/bin/../lib/gcc/nios2-elf/9.2.1/../../../../../H-x86_64-mingw32/nios2-elf/lib\libc.a(lib_a-locale.o)
 .debug_info    0x0000000000031964     0x1041 c:/intelfpga_lite/20.1/nios2eds/bin/gnu/h-x86_64-mingw32/bin/../lib/gcc/nios2-elf/9.2.1/../../../../../H-x86_64-mingw32/nios2-elf/lib\libc.a(lib_a-mbtowc_r.o)
 .debug_info    0x00000000000329a5      0x983 c:/intelfpga_lite/20.1/nios2eds/bin/gnu/h-x86_64-mingw32/bin/../lib/gcc/nios2-elf/9.2.1/../../../../../H-x86_64-mingw32/nios2-elf/lib\libc.a(lib_a-strcmp.o)
 .debug_info    0x0000000000033328      0xbf2 c:/intelfpga_lite/20.1/nios2eds/bin/gnu/h-x86_64-mingw32/bin/../lib/gcc/nios2-elf/9.2.1/../../../../../H-x86_64-mingw32/nios2-elf/lib\libc.a(lib_a-vfiprintfr_1.o)
 .debug_info    0x0000000000033f1a     0x10b5 c:/intelfpga_lite/20.1/nios2eds/bin/gnu/h-x86_64-mingw32/bin/../lib/gcc/nios2-elf/9.2.1/../../../../../H-x86_64-mingw32/nios2-elf/lib\libc.a(lib_a-wcrtomb.o)
 .debug_info    0x0000000000034fcf      0xffd c:/intelfpga_lite/20.1/nios2eds/bin/gnu/h-x86_64-mingw32/bin/../lib/gcc/nios2-elf/9.2.1/../../../../../H-x86_64-mingw32/nios2-elf/lib\libc.a(lib_a-wctomb_r.o)
 .debug_info    0x0000000000035fcc      0x9c1 c:/intelfpga_lite/20.1/nios2eds/bin/gnu/h-x86_64-mingw32/bin/../lib/gcc/nios2-elf/9.2.1/../../../../../H-x86_64-mingw32/nios2-elf/lib\libc.a(lib_a-abort.o)
 .debug_info    0x000000000003698d      0xeb7 c:/intelfpga_lite/20.1/nios2eds/bin/gnu/h-x86_64-mingw32/bin/../lib/gcc/nios2-elf/9.2.1/../../../../../H-x86_64-mingw32/nios2-elf/lib\libc.a(lib_a-ctype_.o)
 .debug_info    0x0000000000037844      0xd45 c:/intelfpga_lite/20.1/nios2eds/bin/gnu/h-x86_64-mingw32/bin/../lib/gcc/nios2-elf/9.2.1/../../../../../H-x86_64-mingw32/nios2-elf/lib\libc.a(lib_a-signal.o)
 .debug_info    0x0000000000038589      0xa4f c:/intelfpga_lite/20.1/nios2eds/bin/gnu/h-x86_64-mingw32/bin/../lib/gcc/nios2-elf/9.2.1/../../../../../H-x86_64-mingw32/nios2-elf/lib\libc.a(lib_a-signalr.o)
 .debug_info    0x0000000000038fd8      0x91e c:/intelfpga_lite/20.1/nios2eds/bin/gnu/h-x86_64-mingw32/bin/../lib/gcc/nios2-elf/9.2.1\libgcc.a(_udivdi3.o)
 .debug_info    0x00000000000398f6      0x996 c:/intelfpga_lite/20.1/nios2eds/bin/gnu/h-x86_64-mingw32/bin/../lib/gcc/nios2-elf/9.2.1\libgcc.a(_umoddi3.o)
 .debug_info    0x000000000003a28c      0x640 c:/intelfpga_lite/20.1/nios2eds/bin/gnu/h-x86_64-mingw32/bin/../lib/gcc/nios2-elf/9.2.1\libgcc.a(adddf3.o)
 .debug_info    0x000000000003a8cc      0x82f c:/intelfpga_lite/20.1/nios2eds/bin/gnu/h-x86_64-mingw32/bin/../lib/gcc/nios2-elf/9.2.1\libgcc.a(divdf3.o)
 .debug_info    0x000000000003b0fb      0x2a6 c:/intelfpga_lite/20.1/nios2eds/bin/gnu/h-x86_64-mingw32/bin/../lib/gcc/nios2-elf/9.2.1\libgcc.a(eqdf2.o)
 .debug_info    0x000000000003b3a1      0x2a7 c:/intelfpga_lite/20.1/nios2eds/bin/gnu/h-x86_64-mingw32/bin/../lib/gcc/nios2-elf/9.2.1\libgcc.a(gedf2.o)
 .debug_info    0x000000000003b648      0x2a7 c:/intelfpga_lite/20.1/nios2eds/bin/gnu/h-x86_64-mingw32/bin/../lib/gcc/nios2-elf/9.2.1\libgcc.a(ledf2.o)
 .debug_info    0x000000000003b8ef      0x847 c:/intelfpga_lite/20.1/nios2eds/bin/gnu/h-x86_64-mingw32/bin/../lib/gcc/nios2-elf/9.2.1\libgcc.a(muldf3.o)
 .debug_info    0x000000000003c136      0x640 c:/intelfpga_lite/20.1/nios2eds/bin/gnu/h-x86_64-mingw32/bin/../lib/gcc/nios2-elf/9.2.1\libgcc.a(subdf3.o)
 .debug_info    0x000000000003c776      0x27e c:/intelfpga_lite/20.1/nios2eds/bin/gnu/h-x86_64-mingw32/bin/../lib/gcc/nios2-elf/9.2.1\libgcc.a(unorddf2.o)
 .debug_info    0x000000000003c9f4      0x22a c:/intelfpga_lite/20.1/nios2eds/bin/gnu/h-x86_64-mingw32/bin/../lib/gcc/nios2-elf/9.2.1\libgcc.a(fixdfsi.o)
 .debug_info    0x000000000003cc1e      0x2e4 c:/intelfpga_lite/20.1/nios2eds/bin/gnu/h-x86_64-mingw32/bin/../lib/gcc/nios2-elf/9.2.1\libgcc.a(floatsidf.o)
 .debug_info    0x000000000003cf02      0x2d7 c:/intelfpga_lite/20.1/nios2eds/bin/gnu/h-x86_64-mingw32/bin/../lib/gcc/nios2-elf/9.2.1\libgcc.a(floatunsidf.o)
 .debug_info    0x000000000003d1d9      0x179 c:/intelfpga_lite/20.1/nios2eds/bin/gnu/h-x86_64-mingw32/bin/../lib/gcc/nios2-elf/9.2.1\libgcc.a(_clz.o)
 .debug_info    0x000000000003d352      0x1ea c:/intelfpga_lite/20.1/nios2eds/bin/gnu/h-x86_64-mingw32/bin/../lib/gcc/nios2-elf/9.2.1\libgcc.a(_clzsi2.o)
 .debug_info    0x000000000003d53c      0xc60 C:/Users/Emre/Documents/projectnios2/DE10_LITE_D8M_VIP_16/software/Vision_bsp\libhal_bsp.a(alt_close.o)
 .debug_info    0x000000000003e19c      0xe95 C:/Users/Emre/Documents/projectnios2/DE10_LITE_D8M_VIP_16/software/Vision_bsp\libhal_bsp.a(alt_dev.o)
 .debug_info    0x000000000003f031      0x972 C:/Users/Emre/Documents/projectnios2/DE10_LITE_D8M_VIP_16/software/Vision_bsp\libhal_bsp.a(alt_errno.o)
 .debug_info    0x000000000003f9a3      0x9aa C:/Users/Emre/Documents/projectnios2/DE10_LITE_D8M_VIP_16/software/Vision_bsp\libhal_bsp.a(alt_exit.o)
 .debug_info    0x000000000004034d      0xed0 C:/Users/Emre/Documents/projectnios2/DE10_LITE_D8M_VIP_16/software/Vision_bsp\libhal_bsp.a(alt_fcntl.o)
 .debug_info    0x000000000004121d      0xe38 C:/Users/Emre/Documents/projectnios2/DE10_LITE_D8M_VIP_16/software/Vision_bsp\libhal_bsp.a(alt_fstat.o)
 .debug_info    0x0000000000042055       0x43 C:/Users/Emre/Documents/projectnios2/DE10_LITE_D8M_VIP_16/software/Vision_bsp\libhal_bsp.a(alt_getpid.o)
 .debug_info    0x0000000000042098      0xe3b C:/Users/Emre/Documents/projectnios2/DE10_LITE_D8M_VIP_16/software/Vision_bsp\libhal_bsp.a(alt_isatty.o)
 .debug_info    0x0000000000042ed3      0xa18 C:/Users/Emre/Documents/projectnios2/DE10_LITE_D8M_VIP_16/software/Vision_bsp\libhal_bsp.a(alt_kill.o)
 .debug_info    0x00000000000438eb      0x9f5 C:/Users/Emre/Documents/projectnios2/DE10_LITE_D8M_VIP_16/software/Vision_bsp\libhal_bsp.a(alt_load.o)
 .debug_info    0x00000000000442e0      0xc95 C:/Users/Emre/Documents/projectnios2/DE10_LITE_D8M_VIP_16/software/Vision_bsp\libhal_bsp.a(alt_lseek.o)
 .debug_info    0x0000000000044f75      0xe76 C:/Users/Emre/Documents/projectnios2/DE10_LITE_D8M_VIP_16/software/Vision_bsp\libhal_bsp.a(alt_main.o)
 .debug_info    0x0000000000045deb      0x95c C:/Users/Emre/Documents/projectnios2/DE10_LITE_D8M_VIP_16/software/Vision_bsp\libhal_bsp.a(alt_malloc_lock.o)
 .debug_info    0x0000000000046747      0xc9f C:/Users/Emre/Documents/projectnios2/DE10_LITE_D8M_VIP_16/software/Vision_bsp\libhal_bsp.a(alt_open.o)
 .debug_info    0x00000000000473e6      0xeb1 C:/Users/Emre/Documents/projectnios2/DE10_LITE_D8M_VIP_16/software/Vision_bsp\libhal_bsp.a(alt_read.o)
 .debug_info    0x0000000000048297      0x2e9 C:/Users/Emre/Documents/projectnios2/DE10_LITE_D8M_VIP_16/software/Vision_bsp\libhal_bsp.a(alt_release_fd.o)
 .debug_info    0x0000000000048580      0xa6b C:/Users/Emre/Documents/projectnios2/DE10_LITE_D8M_VIP_16/software/Vision_bsp\libhal_bsp.a(alt_sbrk.o)
 .debug_info    0x0000000000048feb      0xb84 C:/Users/Emre/Documents/projectnios2/DE10_LITE_D8M_VIP_16/software/Vision_bsp\libhal_bsp.a(alt_tick.o)
 .debug_info    0x0000000000049b6f      0x10b C:/Users/Emre/Documents/projectnios2/DE10_LITE_D8M_VIP_16/software/Vision_bsp\libhal_bsp.a(alt_usleep.o)
 .debug_info    0x0000000000049c7a      0xeb8 C:/Users/Emre/Documents/projectnios2/DE10_LITE_D8M_VIP_16/software/Vision_bsp\libhal_bsp.a(alt_write.o)
 .debug_info    0x000000000004ab32      0xec3 C:/Users/Emre/Documents/projectnios2/DE10_LITE_D8M_VIP_16/software/Vision_bsp\libhal_bsp.a(alt_sys_init.o)
 .debug_info    0x000000000004b9f5      0x566 C:/Users/Emre/Documents/projectnios2/DE10_LITE_D8M_VIP_16/software/Vision_bsp\libhal_bsp.a(altera_avalon_jtag_uart_fd.o)
 .debug_info    0x000000000004bf5b      0xce8 C:/Users/Emre/Documents/projectnios2/DE10_LITE_D8M_VIP_16/software/Vision_bsp\libhal_bsp.a(altera_avalon_jtag_uart_init.o)
 .debug_info    0x000000000004cc43      0xb97 C:/Users/Emre/Documents/projectnios2/DE10_LITE_D8M_VIP_16/software/Vision_bsp\libhal_bsp.a(altera_avalon_jtag_uart_ioctl.o)
 .debug_info    0x000000000004d7da      0xc54 C:/Users/Emre/Documents/projectnios2/DE10_LITE_D8M_VIP_16/software/Vision_bsp\libhal_bsp.a(altera_avalon_jtag_uart_read.o)
 .debug_info    0x000000000004e42e      0xc4a C:/Users/Emre/Documents/projectnios2/DE10_LITE_D8M_VIP_16/software/Vision_bsp\libhal_bsp.a(altera_avalon_jtag_uart_write.o)
 .debug_info    0x000000000004f078      0xb0b C:/Users/Emre/Documents/projectnios2/DE10_LITE_D8M_VIP_16/software/Vision_bsp\libhal_bsp.a(altera_avalon_timer_sc.o)
 .debug_info    0x000000000004fb83      0x463 C:/Users/Emre/Documents/projectnios2/DE10_LITE_D8M_VIP_16/software/Vision_bsp\libhal_bsp.a(altera_avalon_uart_fd.o)
 .debug_info    0x000000000004ffe6      0xc0e C:/Users/Emre/Documents/projectnios2/DE10_LITE_D8M_VIP_16/software/Vision_bsp\libhal_bsp.a(altera_avalon_uart_init.o)
 .debug_info    0x0000000000050bf4      0xbe1 C:/Users/Emre/Documents/projectnios2/DE10_LITE_D8M_VIP_16/software/Vision_bsp\libhal_bsp.a(altera_avalon_uart_read.o)
 .debug_info    0x00000000000517d5      0xbe1 C:/Users/Emre/Documents/projectnios2/DE10_LITE_D8M_VIP_16/software/Vision_bsp\libhal_bsp.a(altera_avalon_uart_write.o)
 .debug_info    0x00000000000523b6      0xba4 C:/Users/Emre/Documents/projectnios2/DE10_LITE_D8M_VIP_16/software/Vision_bsp\libhal_bsp.a(alt_alarm_start.o)
 .debug_info    0x0000000000052f5a      0x972 C:/Users/Emre/Documents/projectnios2/DE10_LITE_D8M_VIP_16/software/Vision_bsp\libhal_bsp.a(alt_busy_sleep.o)
 .debug_info    0x00000000000538cc      0x942 C:/Users/Emre/Documents/projectnios2/DE10_LITE_D8M_VIP_16/software/Vision_bsp\libhal_bsp.a(alt_dcache_flush_all.o)
 .debug_info    0x000000000005420e      0xa6e C:/Users/Emre/Documents/projectnios2/DE10_LITE_D8M_VIP_16/software/Vision_bsp\libhal_bsp.a(alt_dev_llist_insert.o)
 .debug_info    0x0000000000054c7c       0x88 C:/Users/Emre/Documents/projectnios2/DE10_LITE_D8M_VIP_16/software/Vision_bsp\libhal_bsp.a(alt_do_ctors.o)
 .debug_info    0x0000000000054d04       0x88 C:/Users/Emre/Documents/projectnios2/DE10_LITE_D8M_VIP_16/software/Vision_bsp\libhal_bsp.a(alt_do_dtors.o)
 .debug_info    0x0000000000054d8c      0xbb2 C:/Users/Emre/Documents/projectnios2/DE10_LITE_D8M_VIP_16/software/Vision_bsp\libhal_bsp.a(alt_find_dev.o)
 .debug_info    0x000000000005593e      0xba3 C:/Users/Emre/Documents/projectnios2/DE10_LITE_D8M_VIP_16/software/Vision_bsp\libhal_bsp.a(alt_find_file.o)
 .debug_info    0x00000000000564e1      0xbea C:/Users/Emre/Documents/projectnios2/DE10_LITE_D8M_VIP_16/software/Vision_bsp\libhal_bsp.a(alt_get_fd.o)
 .debug_info    0x00000000000570cb      0x934 C:/Users/Emre/Documents/projectnios2/DE10_LITE_D8M_VIP_16/software/Vision_bsp\libhal_bsp.a(alt_icache_flush_all.o)
 .debug_info    0x00000000000579ff      0xbf3 C:/Users/Emre/Documents/projectnios2/DE10_LITE_D8M_VIP_16/software/Vision_bsp\libhal_bsp.a(alt_iic.o)
 .debug_info    0x00000000000585f2      0xab7 C:/Users/Emre/Documents/projectnios2/DE10_LITE_D8M_VIP_16/software/Vision_bsp\libhal_bsp.a(alt_iic_isr_register.o)
 .debug_info    0x00000000000590a9      0xe75 C:/Users/Emre/Documents/projectnios2/DE10_LITE_D8M_VIP_16/software/Vision_bsp\libhal_bsp.a(alt_io_redirect.o)
 .debug_info    0x0000000000059f1e       0x22 C:/Users/Emre/Documents/projectnios2/DE10_LITE_D8M_VIP_16/software/Vision_bsp\libhal_bsp.a(alt_irq_entry.o)
 .debug_info    0x0000000000059f40      0xa3c C:/Users/Emre/Documents/projectnios2/DE10_LITE_D8M_VIP_16/software/Vision_bsp\libhal_bsp.a(alt_irq_handler.o)
 .debug_info    0x000000000005a97c       0x8b C:/Users/Emre/Documents/projectnios2/DE10_LITE_D8M_VIP_16/software/Vision_bsp\libhal_bsp.a(alt_irq_vars.o)
 .debug_info    0x000000000005aa07      0x955 C:/Users/Emre/Documents/projectnios2/DE10_LITE_D8M_VIP_16/software/Vision_bsp\libhal_bsp.a(altera_nios2_gen2_irq.o)
 .debug_info    0x000000000005b35c       0x22 C:/Users/Emre/Documents/projectnios2/DE10_LITE_D8M_VIP_16/software/Vision_bsp\libhal_bsp.a(alt_exception_entry.o)
 .debug_info    0x000000000005b37e      0x97b C:/Users/Emre/Documents/projectnios2/DE10_LITE_D8M_VIP_16/software/Vision_bsp\libhal_bsp.a(alt_icache_flush.o)
 .debug_info    0x000000000005bcf9      0x1f1 C:/Users/Emre/Documents/projectnios2/DE10_LITE_D8M_VIP_16/software/Vision_bsp\libhal_bsp.a(alt_instruction_exception_entry.o)
 .debug_info    0x000000000005beea      0x9a1 c:/intelfpga_lite/20.1/nios2eds/bin/gnu/h-x86_64-mingw32/bin/../lib/gcc/nios2-elf/9.2.1/../../../../../H-x86_64-mingw32/nios2-elf/lib\libc.a(lib_a-atexit.o)
 .debug_info    0x000000000005c88b      0x9dc c:/intelfpga_lite/20.1/nios2eds/bin/gnu/h-x86_64-mingw32/bin/../lib/gcc/nios2-elf/9.2.1/../../../../../H-x86_64-mingw32/nios2-elf/lib\libc.a(lib_a-exit.o)
 .debug_info    0x000000000005d267      0x9ce c:/intelfpga_lite/20.1/nios2eds/bin/gnu/h-x86_64-mingw32/bin/../lib/gcc/nios2-elf/9.2.1/../../../../../H-x86_64-mingw32/nios2-elf/lib\libc.a(lib_a-memcmp.o)
 .debug_info    0x000000000005dc35      0x9db c:/intelfpga_lite/20.1/nios2eds/bin/gnu/h-x86_64-mingw32/bin/../lib/gcc/nios2-elf/9.2.1/../../../../../H-x86_64-mingw32/nios2-elf/lib\libc.a(lib_a-__atexit.o)
 .debug_info    0x000000000005e610      0xa17 c:/intelfpga_lite/20.1/nios2eds/bin/gnu/h-x86_64-mingw32/bin/../lib/gcc/nios2-elf/9.2.1/../../../../../H-x86_64-mingw32/nios2-elf/lib\libc.a(lib_a-__call_atexit.o)

.debug_abbrev   0x0000000000000000    0x13664
 *(.debug_abbrev)
 .debug_abbrev  0x0000000000000000       0x12 C:/Users/Emre/Documents/projectnios2/DE10_LITE_D8M_VIP_16/software/Vision_bsp/obj/HAL/src/crt0.o
 .debug_abbrev  0x0000000000000012      0x2bd obj/default/I2C_core.o
 .debug_abbrev  0x00000000000002cf      0x263 obj/default/auto_focus.o
 .debug_abbrev  0x0000000000000532      0x28f obj/default/main.o
 .debug_abbrev  0x00000000000007c1      0x26c obj/default/mipi_bridge_config.o
 .debug_abbrev  0x0000000000000a2d      0x284 obj/default/mipi_camera_config.o
 .debug_abbrev  0x0000000000000cb1      0x28d obj/default/queue.o
 .debug_abbrev  0x0000000000000f3e      0x103 c:/intelfpga_lite/20.1/nios2eds/bin/gnu/h-x86_64-mingw32/bin/../lib/gcc/nios2-elf/9.2.1\libgcc.a(lib2-divmod.o)
 .debug_abbrev  0x0000000000001041      0x2d9 c:/intelfpga_lite/20.1/nios2eds/bin/gnu/h-x86_64-mingw32/bin/../lib/gcc/nios2-elf/9.2.1/../../../../../H-x86_64-mingw32/nios2-elf/lib\libc.a(lib_a-fopen.o)
 .debug_abbrev  0x000000000000131a      0x2d1 c:/intelfpga_lite/20.1/nios2eds/bin/gnu/h-x86_64-mingw32/bin/../lib/gcc/nios2-elf/9.2.1/../../../../../H-x86_64-mingw32/nios2-elf/lib\libc.a(lib_a-fseek.o)
 .debug_abbrev  0x00000000000015eb      0x345 c:/intelfpga_lite/20.1/nios2eds/bin/gnu/h-x86_64-mingw32/bin/../lib/gcc/nios2-elf/9.2.1/../../../../../H-x86_64-mingw32/nios2-elf/lib\libc.a(lib_a-fseeko.o)
 .debug_abbrev  0x0000000000001930      0x24a c:/intelfpga_lite/20.1/nios2eds/bin/gnu/h-x86_64-mingw32/bin/../lib/gcc/nios2-elf/9.2.1/../../../../../H-x86_64-mingw32/nios2-elf/lib\libc.a(lib_a-fstatr.o)
 .debug_abbrev  0x0000000000001b7a      0x2d2 c:/intelfpga_lite/20.1/nios2eds/bin/gnu/h-x86_64-mingw32/bin/../lib/gcc/nios2-elf/9.2.1/../../../../../H-x86_64-mingw32/nios2-elf/lib\libc.a(lib_a-fwrite.o)
 .debug_abbrev  0x0000000000001e4c      0x28a c:/intelfpga_lite/20.1/nios2eds/bin/gnu/h-x86_64-mingw32/bin/../lib/gcc/nios2-elf/9.2.1/../../../../../H-x86_64-mingw32/nios2-elf/lib\libc.a(lib_a-getchar.o)
 .debug_abbrev  0x00000000000020d6      0x1c9 c:/intelfpga_lite/20.1/nios2eds/bin/gnu/h-x86_64-mingw32/bin/../lib/gcc/nios2-elf/9.2.1/../../../../../H-x86_64-mingw32/nios2-elf/lib\libc.a(lib_a-impure.o)
 .debug_abbrev  0x000000000000229f      0x1d5 c:/intelfpga_lite/20.1/nios2eds/bin/gnu/h-x86_64-mingw32/bin/../lib/gcc/nios2-elf/9.2.1/../../../../../H-x86_64-mingw32/nios2-elf/lib\libc.a(lib_a-int_errno.o)
 .debug_abbrev  0x0000000000002474      0x340 c:/intelfpga_lite/20.1/nios2eds/bin/gnu/h-x86_64-mingw32/bin/../lib/gcc/nios2-elf/9.2.1/../../../../../H-x86_64-mingw32/nios2-elf/lib\libc.a(lib_a-makebuf.o)
 .debug_abbrev  0x00000000000027b4      0x241 c:/intelfpga_lite/20.1/nios2eds/bin/gnu/h-x86_64-mingw32/bin/../lib/gcc/nios2-elf/9.2.1/../../../../../H-x86_64-mingw32/nios2-elf/lib\libc.a(lib_a-malloc.o)
 .debug_abbrev  0x00000000000029f5      0x321 c:/intelfpga_lite/20.1/nios2eds/bin/gnu/h-x86_64-mingw32/bin/../lib/gcc/nios2-elf/9.2.1/../../../../../H-x86_64-mingw32/nios2-elf/lib\libc.a(lib_a-mallocr.o)
 .debug_abbrev  0x0000000000002d16      0x228 c:/intelfpga_lite/20.1/nios2eds/bin/gnu/h-x86_64-mingw32/bin/../lib/gcc/nios2-elf/9.2.1/../../../../../H-x86_64-mingw32/nios2-elf/lib\libc.a(lib_a-memset.o)
 .debug_abbrev  0x0000000000002f3e      0x24a c:/intelfpga_lite/20.1/nios2eds/bin/gnu/h-x86_64-mingw32/bin/../lib/gcc/nios2-elf/9.2.1/../../../../../H-x86_64-mingw32/nios2-elf/lib\libc.a(lib_a-openr.o)
 .debug_abbrev  0x0000000000003188      0x29d c:/intelfpga_lite/20.1/nios2eds/bin/gnu/h-x86_64-mingw32/bin/../lib/gcc/nios2-elf/9.2.1/../../../../../H-x86_64-mingw32/nios2-elf/lib\libc.a(lib_a-printf.o)
 .debug_abbrev  0x0000000000003425      0x25e c:/intelfpga_lite/20.1/nios2eds/bin/gnu/h-x86_64-mingw32/bin/../lib/gcc/nios2-elf/9.2.1/../../../../../H-x86_64-mingw32/nios2-elf/lib\libc.a(lib_a-putchar.o)
 .debug_abbrev  0x0000000000003683      0x2ba c:/intelfpga_lite/20.1/nios2eds/bin/gnu/h-x86_64-mingw32/bin/../lib/gcc/nios2-elf/9.2.1/../../../../../H-x86_64-mingw32/nios2-elf/lib\libc.a(lib_a-puts.o)
 .debug_abbrev  0x000000000000393d      0x2d4 c:/intelfpga_lite/20.1/nios2eds/bin/gnu/h-x86_64-mingw32/bin/../lib/gcc/nios2-elf/9.2.1/../../../../../H-x86_64-mingw32/nios2-elf/lib\libc.a(lib_a-refill.o)
 .debug_abbrev  0x0000000000003c11      0x261 c:/intelfpga_lite/20.1/nios2eds/bin/gnu/h-x86_64-mingw32/bin/../lib/gcc/nios2-elf/9.2.1/../../../../../H-x86_64-mingw32/nios2-elf/lib\libc.a(lib_a-sbrkr.o)
 .debug_abbrev  0x0000000000003e72      0x2be c:/intelfpga_lite/20.1/nios2eds/bin/gnu/h-x86_64-mingw32/bin/../lib/gcc/nios2-elf/9.2.1/../../../../../H-x86_64-mingw32/nios2-elf/lib\libc.a(lib_a-stdio.o)
 .debug_abbrev  0x0000000000004130      0x1f9 c:/intelfpga_lite/20.1/nios2eds/bin/gnu/h-x86_64-mingw32/bin/../lib/gcc/nios2-elf/9.2.1/../../../../../H-x86_64-mingw32/nios2-elf/lib\libc.a(lib_a-strlen.o)
 .debug_abbrev  0x0000000000004329      0x464 c:/intelfpga_lite/20.1/nios2eds/bin/gnu/h-x86_64-mingw32/bin/../lib/gcc/nios2-elf/9.2.1/../../../../../H-x86_64-mingw32/nios2-elf/lib\libc.a(lib_a-vfprintf.o)
 .debug_abbrev  0x000000000000478d      0x23b c:/intelfpga_lite/20.1/nios2eds/bin/gnu/h-x86_64-mingw32/bin/../lib/gcc/nios2-elf/9.2.1/../../../../../H-x86_64-mingw32/nios2-elf/lib\libc.a(lib_a-writer.o)
 .debug_abbrev  0x00000000000049c8      0x294 c:/intelfpga_lite/20.1/nios2eds/bin/gnu/h-x86_64-mingw32/bin/../lib/gcc/nios2-elf/9.2.1/../../../../../H-x86_64-mingw32/nios2-elf/lib\libc.a(lib_a-wsetup.o)
 .debug_abbrev  0x0000000000004c5c      0x236 c:/intelfpga_lite/20.1/nios2eds/bin/gnu/h-x86_64-mingw32/bin/../lib/gcc/nios2-elf/9.2.1/../../../../../H-x86_64-mingw32/nios2-elf/lib\libc.a(closer.o)
 .debug_abbrev  0x0000000000004e92      0x372 c:/intelfpga_lite/20.1/nios2eds/bin/gnu/h-x86_64-mingw32/bin/../lib/gcc/nios2-elf/9.2.1/../../../../../H-x86_64-mingw32/nios2-elf/lib\libc.a(lib_a-dtoa.o)
 .debug_abbrev  0x0000000000005204      0x322 c:/intelfpga_lite/20.1/nios2eds/bin/gnu/h-x86_64-mingw32/bin/../lib/gcc/nios2-elf/9.2.1/../../../../../H-x86_64-mingw32/nios2-elf/lib\libc.a(lib_a-fflush.o)
 .debug_abbrev  0x0000000000005526      0x457 c:/intelfpga_lite/20.1/nios2eds/bin/gnu/h-x86_64-mingw32/bin/../lib/gcc/nios2-elf/9.2.1/../../../../../H-x86_64-mingw32/nios2-elf/lib\libc.a(lib_a-findfp.o)
 .debug_abbrev  0x000000000000597d      0x236 c:/intelfpga_lite/20.1/nios2eds/bin/gnu/h-x86_64-mingw32/bin/../lib/gcc/nios2-elf/9.2.1/../../../../../H-x86_64-mingw32/nios2-elf/lib\libc.a(lib_a-flags.o)
 .debug_abbrev  0x0000000000005bb3      0x2c9 c:/intelfpga_lite/20.1/nios2eds/bin/gnu/h-x86_64-mingw32/bin/../lib/gcc/nios2-elf/9.2.1/../../../../../H-x86_64-mingw32/nios2-elf/lib\libc.a(lib_a-freer.o)
 .debug_abbrev  0x0000000000005e7c      0x2cd c:/intelfpga_lite/20.1/nios2eds/bin/gnu/h-x86_64-mingw32/bin/../lib/gcc/nios2-elf/9.2.1/../../../../../H-x86_64-mingw32/nios2-elf/lib\libc.a(lib_a-fvwrite.o)
 .debug_abbrev  0x0000000000006149      0x25f c:/intelfpga_lite/20.1/nios2eds/bin/gnu/h-x86_64-mingw32/bin/../lib/gcc/nios2-elf/9.2.1/../../../../../H-x86_64-mingw32/nios2-elf/lib\libc.a(lib_a-fwalk.o)
 .debug_abbrev  0x00000000000063a8      0x2ae c:/intelfpga_lite/20.1/nios2eds/bin/gnu/h-x86_64-mingw32/bin/../lib/gcc/nios2-elf/9.2.1/../../../../../H-x86_64-mingw32/nios2-elf/lib\libc.a(lib_a-getc.o)
 .debug_abbrev  0x0000000000006656      0x236 c:/intelfpga_lite/20.1/nios2eds/bin/gnu/h-x86_64-mingw32/bin/../lib/gcc/nios2-elf/9.2.1/../../../../../H-x86_64-mingw32/nios2-elf/lib\libc.a(lib_a-isattyr.o)
 .debug_abbrev  0x000000000000688c      0x288 c:/intelfpga_lite/20.1/nios2eds/bin/gnu/h-x86_64-mingw32/bin/../lib/gcc/nios2-elf/9.2.1/../../../../../H-x86_64-mingw32/nios2-elf/lib\libc.a(lib_a-localeconv.o)
 .debug_abbrev  0x0000000000006b14      0x24a c:/intelfpga_lite/20.1/nios2eds/bin/gnu/h-x86_64-mingw32/bin/../lib/gcc/nios2-elf/9.2.1/../../../../../H-x86_64-mingw32/nios2-elf/lib\libc.a(lib_a-lseekr.o)
 .debug_abbrev  0x0000000000006d5e      0x226 c:/intelfpga_lite/20.1/nios2eds/bin/gnu/h-x86_64-mingw32/bin/../lib/gcc/nios2-elf/9.2.1/../../../../../H-x86_64-mingw32/nios2-elf/lib\libc.a(lib_a-memchr.o)
 .debug_abbrev  0x0000000000006f84      0x223 c:/intelfpga_lite/20.1/nios2eds/bin/gnu/h-x86_64-mingw32/bin/../lib/gcc/nios2-elf/9.2.1/../../../../../H-x86_64-mingw32/nios2-elf/lib\libc.a(lib_a-memcpy.o)
 .debug_abbrev  0x00000000000071a7      0x21c c:/intelfpga_lite/20.1/nios2eds/bin/gnu/h-x86_64-mingw32/bin/../lib/gcc/nios2-elf/9.2.1/../../../../../H-x86_64-mingw32/nios2-elf/lib\libc.a(lib_a-memmove.o)
 .debug_abbrev  0x00000000000073c3      0x4f4 c:/intelfpga_lite/20.1/nios2eds/bin/gnu/h-x86_64-mingw32/bin/../lib/gcc/nios2-elf/9.2.1/../../../../../H-x86_64-mingw32/nios2-elf/lib\libc.a(lib_a-mprec.o)
 .debug_abbrev  0x00000000000078b7      0x29e c:/intelfpga_lite/20.1/nios2eds/bin/gnu/h-x86_64-mingw32/bin/../lib/gcc/nios2-elf/9.2.1/../../../../../H-x86_64-mingw32/nios2-elf/lib\libc.a(lib_a-putc.o)
 .debug_abbrev  0x0000000000007b55      0x236 c:/intelfpga_lite/20.1/nios2eds/bin/gnu/h-x86_64-mingw32/bin/../lib/gcc/nios2-elf/9.2.1/../../../../../H-x86_64-mingw32/nios2-elf/lib\libc.a(lib_a-readr.o)
 .debug_abbrev  0x0000000000007d8b      0x2a1 c:/intelfpga_lite/20.1/nios2eds/bin/gnu/h-x86_64-mingw32/bin/../lib/gcc/nios2-elf/9.2.1/../../../../../H-x86_64-mingw32/nios2-elf/lib\libc.a(lib_a-reallocr.o)
 .debug_abbrev  0x000000000000802c      0x2a0 c:/intelfpga_lite/20.1/nios2eds/bin/gnu/h-x86_64-mingw32/bin/../lib/gcc/nios2-elf/9.2.1/../../../../../H-x86_64-mingw32/nios2-elf/lib\libc.a(lib_a-rget.o)
 .debug_abbrev  0x00000000000082cc      0x481 c:/intelfpga_lite/20.1/nios2eds/bin/gnu/h-x86_64-mingw32/bin/../lib/gcc/nios2-elf/9.2.1/../../../../../H-x86_64-mingw32/nios2-elf/lib\libc.a(lib_a-vfiprintf.o)
 .debug_abbrev  0x000000000000874d      0x2d4 c:/intelfpga_lite/20.1/nios2eds/bin/gnu/h-x86_64-mingw32/bin/../lib/gcc/nios2-elf/9.2.1/../../../../../H-x86_64-mingw32/nios2-elf/lib\libc.a(lib_a-wbuf.o)
 .debug_abbrev  0x0000000000008a21      0x24e c:/intelfpga_lite/20.1/nios2eds/bin/gnu/h-x86_64-mingw32/bin/../lib/gcc/nios2-elf/9.2.1/../../../../../H-x86_64-mingw32/nios2-elf/lib\libc.a(lib_a-assert.o)
 .debug_abbrev  0x0000000000008c6f      0x286 c:/intelfpga_lite/20.1/nios2eds/bin/gnu/h-x86_64-mingw32/bin/../lib/gcc/nios2-elf/9.2.1/../../../../../H-x86_64-mingw32/nios2-elf/lib\libc.a(lib_a-callocr.o)
 .debug_abbrev  0x0000000000008ef5      0x33a c:/intelfpga_lite/20.1/nios2eds/bin/gnu/h-x86_64-mingw32/bin/../lib/gcc/nios2-elf/9.2.1/../../../../../H-x86_64-mingw32/nios2-elf/lib\libc.a(lib_a-fclose.o)
 .debug_abbrev  0x000000000000922f      0x231 c:/intelfpga_lite/20.1/nios2eds/bin/gnu/h-x86_64-mingw32/bin/../lib/gcc/nios2-elf/9.2.1/../../../../../H-x86_64-mingw32/nios2-elf/lib\libc.a(lib_a-fiprintf.o)
 .debug_abbrev  0x0000000000009460      0x33c c:/intelfpga_lite/20.1/nios2eds/bin/gnu/h-x86_64-mingw32/bin/../lib/gcc/nios2-elf/9.2.1/../../../../../H-x86_64-mingw32/nios2-elf/lib\libc.a(lib_a-fputwc.o)
 .debug_abbrev  0x000000000000979c      0x2ea c:/intelfpga_lite/20.1/nios2eds/bin/gnu/h-x86_64-mingw32/bin/../lib/gcc/nios2-elf/9.2.1/../../../../../H-x86_64-mingw32/nios2-elf/lib\libc.a(lib_a-locale.o)
 .debug_abbrev  0x0000000000009a86      0x292 c:/intelfpga_lite/20.1/nios2eds/bin/gnu/h-x86_64-mingw32/bin/../lib/gcc/nios2-elf/9.2.1/../../../../../H-x86_64-mingw32/nios2-elf/lib\libc.a(lib_a-mbtowc_r.o)
 .debug_abbrev  0x0000000000009d18      0x1f9 c:/intelfpga_lite/20.1/nios2eds/bin/gnu/h-x86_64-mingw32/bin/../lib/gcc/nios2-elf/9.2.1/../../../../../H-x86_64-mingw32/nios2-elf/lib\libc.a(lib_a-strcmp.o)
 .debug_abbrev  0x0000000000009f11      0x290 c:/intelfpga_lite/20.1/nios2eds/bin/gnu/h-x86_64-mingw32/bin/../lib/gcc/nios2-elf/9.2.1/../../../../../H-x86_64-mingw32/nios2-elf/lib\libc.a(lib_a-vfiprintfr_1.o)
 .debug_abbrev  0x000000000000a1a1      0x264 c:/intelfpga_lite/20.1/nios2eds/bin/gnu/h-x86_64-mingw32/bin/../lib/gcc/nios2-elf/9.2.1/../../../../../H-x86_64-mingw32/nios2-elf/lib\libc.a(lib_a-wcrtomb.o)
 .debug_abbrev  0x000000000000a405      0x27a c:/intelfpga_lite/20.1/nios2eds/bin/gnu/h-x86_64-mingw32/bin/../lib/gcc/nios2-elf/9.2.1/../../../../../H-x86_64-mingw32/nios2-elf/lib\libc.a(lib_a-wctomb_r.o)
 .debug_abbrev  0x000000000000a67f      0x21c c:/intelfpga_lite/20.1/nios2eds/bin/gnu/h-x86_64-mingw32/bin/../lib/gcc/nios2-elf/9.2.1/../../../../../H-x86_64-mingw32/nios2-elf/lib\libc.a(lib_a-abort.o)
 .debug_abbrev  0x000000000000a89b      0x1d6 c:/intelfpga_lite/20.1/nios2eds/bin/gnu/h-x86_64-mingw32/bin/../lib/gcc/nios2-elf/9.2.1/../../../../../H-x86_64-mingw32/nios2-elf/lib\libc.a(lib_a-ctype_.o)
 .debug_abbrev  0x000000000000aa71      0x379 c:/intelfpga_lite/20.1/nios2eds/bin/gnu/h-x86_64-mingw32/bin/../lib/gcc/nios2-elf/9.2.1/../../../../../H-x86_64-mingw32/nios2-elf/lib\libc.a(lib_a-signal.o)
 .debug_abbrev  0x000000000000adea      0x253 c:/intelfpga_lite/20.1/nios2eds/bin/gnu/h-x86_64-mingw32/bin/../lib/gcc/nios2-elf/9.2.1/../../../../../H-x86_64-mingw32/nios2-elf/lib\libc.a(lib_a-signalr.o)
 .debug_abbrev  0x000000000000b03d      0x1cb c:/intelfpga_lite/20.1/nios2eds/bin/gnu/h-x86_64-mingw32/bin/../lib/gcc/nios2-elf/9.2.1\libgcc.a(_udivdi3.o)
 .debug_abbrev  0x000000000000b208      0x1f7 c:/intelfpga_lite/20.1/nios2eds/bin/gnu/h-x86_64-mingw32/bin/../lib/gcc/nios2-elf/9.2.1\libgcc.a(_umoddi3.o)
 .debug_abbrev  0x000000000000b3ff      0x197 c:/intelfpga_lite/20.1/nios2eds/bin/gnu/h-x86_64-mingw32/bin/../lib/gcc/nios2-elf/9.2.1\libgcc.a(adddf3.o)
 .debug_abbrev  0x000000000000b596      0x188 c:/intelfpga_lite/20.1/nios2eds/bin/gnu/h-x86_64-mingw32/bin/../lib/gcc/nios2-elf/9.2.1\libgcc.a(divdf3.o)
 .debug_abbrev  0x000000000000b71e      0x16a c:/intelfpga_lite/20.1/nios2eds/bin/gnu/h-x86_64-mingw32/bin/../lib/gcc/nios2-elf/9.2.1\libgcc.a(eqdf2.o)
 .debug_abbrev  0x000000000000b888      0x18e c:/intelfpga_lite/20.1/nios2eds/bin/gnu/h-x86_64-mingw32/bin/../lib/gcc/nios2-elf/9.2.1\libgcc.a(gedf2.o)
 .debug_abbrev  0x000000000000ba16      0x18e c:/intelfpga_lite/20.1/nios2eds/bin/gnu/h-x86_64-mingw32/bin/../lib/gcc/nios2-elf/9.2.1\libgcc.a(ledf2.o)
 .debug_abbrev  0x000000000000bba4      0x18f c:/intelfpga_lite/20.1/nios2eds/bin/gnu/h-x86_64-mingw32/bin/../lib/gcc/nios2-elf/9.2.1\libgcc.a(muldf3.o)
 .debug_abbrev  0x000000000000bd33      0x197 c:/intelfpga_lite/20.1/nios2eds/bin/gnu/h-x86_64-mingw32/bin/../lib/gcc/nios2-elf/9.2.1\libgcc.a(subdf3.o)
 .debug_abbrev  0x000000000000beca      0x16a c:/intelfpga_lite/20.1/nios2eds/bin/gnu/h-x86_64-mingw32/bin/../lib/gcc/nios2-elf/9.2.1\libgcc.a(unorddf2.o)
 .debug_abbrev  0x000000000000c034      0x171 c:/intelfpga_lite/20.1/nios2eds/bin/gnu/h-x86_64-mingw32/bin/../lib/gcc/nios2-elf/9.2.1\libgcc.a(fixdfsi.o)
 .debug_abbrev  0x000000000000c1a5      0x18a c:/intelfpga_lite/20.1/nios2eds/bin/gnu/h-x86_64-mingw32/bin/../lib/gcc/nios2-elf/9.2.1\libgcc.a(floatsidf.o)
 .debug_abbrev  0x000000000000c32f      0x18a c:/intelfpga_lite/20.1/nios2eds/bin/gnu/h-x86_64-mingw32/bin/../lib/gcc/nios2-elf/9.2.1\libgcc.a(floatunsidf.o)
 .debug_abbrev  0x000000000000c4b9       0xa8 c:/intelfpga_lite/20.1/nios2eds/bin/gnu/h-x86_64-mingw32/bin/../lib/gcc/nios2-elf/9.2.1\libgcc.a(_clz.o)
 .debug_abbrev  0x000000000000c561       0xf7 c:/intelfpga_lite/20.1/nios2eds/bin/gnu/h-x86_64-mingw32/bin/../lib/gcc/nios2-elf/9.2.1\libgcc.a(_clzsi2.o)
 .debug_abbrev  0x000000000000c658      0x23f C:/Users/Emre/Documents/projectnios2/DE10_LITE_D8M_VIP_16/software/Vision_bsp\libhal_bsp.a(alt_close.o)
 .debug_abbrev  0x000000000000c897      0x212 C:/Users/Emre/Documents/projectnios2/DE10_LITE_D8M_VIP_16/software/Vision_bsp\libhal_bsp.a(alt_dev.o)
 .debug_abbrev  0x000000000000caa9      0x1df C:/Users/Emre/Documents/projectnios2/DE10_LITE_D8M_VIP_16/software/Vision_bsp\libhal_bsp.a(alt_errno.o)
 .debug_abbrev  0x000000000000cc88      0x24d C:/Users/Emre/Documents/projectnios2/DE10_LITE_D8M_VIP_16/software/Vision_bsp\libhal_bsp.a(alt_exit.o)
 .debug_abbrev  0x000000000000ced5      0x25e C:/Users/Emre/Documents/projectnios2/DE10_LITE_D8M_VIP_16/software/Vision_bsp\libhal_bsp.a(alt_fcntl.o)
 .debug_abbrev  0x000000000000d133      0x23f C:/Users/Emre/Documents/projectnios2/DE10_LITE_D8M_VIP_16/software/Vision_bsp\libhal_bsp.a(alt_fstat.o)
 .debug_abbrev  0x000000000000d372       0x3b C:/Users/Emre/Documents/projectnios2/DE10_LITE_D8M_VIP_16/software/Vision_bsp\libhal_bsp.a(alt_getpid.o)
 .debug_abbrev  0x000000000000d3ad      0x23f C:/Users/Emre/Documents/projectnios2/DE10_LITE_D8M_VIP_16/software/Vision_bsp\libhal_bsp.a(alt_isatty.o)
 .debug_abbrev  0x000000000000d5ec      0x22e C:/Users/Emre/Documents/projectnios2/DE10_LITE_D8M_VIP_16/software/Vision_bsp\libhal_bsp.a(alt_kill.o)
 .debug_abbrev  0x000000000000d81a      0x21c C:/Users/Emre/Documents/projectnios2/DE10_LITE_D8M_VIP_16/software/Vision_bsp\libhal_bsp.a(alt_load.o)
 .debug_abbrev  0x000000000000da36      0x23f C:/Users/Emre/Documents/projectnios2/DE10_LITE_D8M_VIP_16/software/Vision_bsp\libhal_bsp.a(alt_lseek.o)
 .debug_abbrev  0x000000000000dc75      0x21e C:/Users/Emre/Documents/projectnios2/DE10_LITE_D8M_VIP_16/software/Vision_bsp\libhal_bsp.a(alt_main.o)
 .debug_abbrev  0x000000000000de93      0x1fa C:/Users/Emre/Documents/projectnios2/DE10_LITE_D8M_VIP_16/software/Vision_bsp\libhal_bsp.a(alt_malloc_lock.o)
 .debug_abbrev  0x000000000000e08d      0x26c C:/Users/Emre/Documents/projectnios2/DE10_LITE_D8M_VIP_16/software/Vision_bsp\libhal_bsp.a(alt_open.o)
 .debug_abbrev  0x000000000000e2f9      0x250 C:/Users/Emre/Documents/projectnios2/DE10_LITE_D8M_VIP_16/software/Vision_bsp\libhal_bsp.a(alt_read.o)
 .debug_abbrev  0x000000000000e549       0xea C:/Users/Emre/Documents/projectnios2/DE10_LITE_D8M_VIP_16/software/Vision_bsp\libhal_bsp.a(alt_release_fd.o)
 .debug_abbrev  0x000000000000e633      0x285 C:/Users/Emre/Documents/projectnios2/DE10_LITE_D8M_VIP_16/software/Vision_bsp\libhal_bsp.a(alt_sbrk.o)
 .debug_abbrev  0x000000000000e8b8      0x2b5 C:/Users/Emre/Documents/projectnios2/DE10_LITE_D8M_VIP_16/software/Vision_bsp\libhal_bsp.a(alt_tick.o)
 .debug_abbrev  0x000000000000eb6d       0x82 C:/Users/Emre/Documents/projectnios2/DE10_LITE_D8M_VIP_16/software/Vision_bsp\libhal_bsp.a(alt_usleep.o)
 .debug_abbrev  0x000000000000ebef      0x255 C:/Users/Emre/Documents/projectnios2/DE10_LITE_D8M_VIP_16/software/Vision_bsp\libhal_bsp.a(alt_write.o)
 .debug_abbrev  0x000000000000ee44      0x287 C:/Users/Emre/Documents/projectnios2/DE10_LITE_D8M_VIP_16/software/Vision_bsp\libhal_bsp.a(alt_sys_init.o)
 .debug_abbrev  0x000000000000f0cb      0x159 C:/Users/Emre/Documents/projectnios2/DE10_LITE_D8M_VIP_16/software/Vision_bsp\libhal_bsp.a(altera_avalon_jtag_uart_fd.o)
 .debug_abbrev  0x000000000000f224      0x2ce C:/Users/Emre/Documents/projectnios2/DE10_LITE_D8M_VIP_16/software/Vision_bsp\libhal_bsp.a(altera_avalon_jtag_uart_init.o)
 .debug_abbrev  0x000000000000f4f2      0x235 C:/Users/Emre/Documents/projectnios2/DE10_LITE_D8M_VIP_16/software/Vision_bsp\libhal_bsp.a(altera_avalon_jtag_uart_ioctl.o)
 .debug_abbrev  0x000000000000f727      0x2d3 C:/Users/Emre/Documents/projectnios2/DE10_LITE_D8M_VIP_16/software/Vision_bsp\libhal_bsp.a(altera_avalon_jtag_uart_read.o)
 .debug_abbrev  0x000000000000f9fa      0x2ca C:/Users/Emre/Documents/projectnios2/DE10_LITE_D8M_VIP_16/software/Vision_bsp\libhal_bsp.a(altera_avalon_jtag_uart_write.o)
 .debug_abbrev  0x000000000000fcc4      0x2ca C:/Users/Emre/Documents/projectnios2/DE10_LITE_D8M_VIP_16/software/Vision_bsp\libhal_bsp.a(altera_avalon_timer_sc.o)
 .debug_abbrev  0x000000000000ff8e      0x124 C:/Users/Emre/Documents/projectnios2/DE10_LITE_D8M_VIP_16/software/Vision_bsp\libhal_bsp.a(altera_avalon_uart_fd.o)
 .debug_abbrev  0x00000000000100b2      0x2d3 C:/Users/Emre/Documents/projectnios2/DE10_LITE_D8M_VIP_16/software/Vision_bsp\libhal_bsp.a(altera_avalon_uart_init.o)
 .debug_abbrev  0x0000000000010385      0x2e4 C:/Users/Emre/Documents/projectnios2/DE10_LITE_D8M_VIP_16/software/Vision_bsp\libhal_bsp.a(altera_avalon_uart_read.o)
 .debug_abbrev  0x0000000000010669      0x2e4 C:/Users/Emre/Documents/projectnios2/DE10_LITE_D8M_VIP_16/software/Vision_bsp\libhal_bsp.a(altera_avalon_uart_write.o)
 .debug_abbrev  0x000000000001094d      0x2c3 C:/Users/Emre/Documents/projectnios2/DE10_LITE_D8M_VIP_16/software/Vision_bsp\libhal_bsp.a(alt_alarm_start.o)
 .debug_abbrev  0x0000000000010c10      0x202 C:/Users/Emre/Documents/projectnios2/DE10_LITE_D8M_VIP_16/software/Vision_bsp\libhal_bsp.a(alt_busy_sleep.o)
 .debug_abbrev  0x0000000000010e12      0x1f1 C:/Users/Emre/Documents/projectnios2/DE10_LITE_D8M_VIP_16/software/Vision_bsp\libhal_bsp.a(alt_dcache_flush_all.o)
 .debug_abbrev  0x0000000000011003      0x268 C:/Users/Emre/Documents/projectnios2/DE10_LITE_D8M_VIP_16/software/Vision_bsp\libhal_bsp.a(alt_dev_llist_insert.o)
 .debug_abbrev  0x000000000001126b       0x81 C:/Users/Emre/Documents/projectnios2/DE10_LITE_D8M_VIP_16/software/Vision_bsp\libhal_bsp.a(alt_do_ctors.o)
 .debug_abbrev  0x00000000000112ec       0x81 C:/Users/Emre/Documents/projectnios2/DE10_LITE_D8M_VIP_16/software/Vision_bsp\libhal_bsp.a(alt_do_dtors.o)
 .debug_abbrev  0x000000000001136d      0x21a C:/Users/Emre/Documents/projectnios2/DE10_LITE_D8M_VIP_16/software/Vision_bsp\libhal_bsp.a(alt_find_dev.o)
 .debug_abbrev  0x0000000000011587      0x21a C:/Users/Emre/Documents/projectnios2/DE10_LITE_D8M_VIP_16/software/Vision_bsp\libhal_bsp.a(alt_find_file.o)
 .debug_abbrev  0x00000000000117a1      0x22d C:/Users/Emre/Documents/projectnios2/DE10_LITE_D8M_VIP_16/software/Vision_bsp\libhal_bsp.a(alt_get_fd.o)
 .debug_abbrev  0x00000000000119ce      0x1e0 C:/Users/Emre/Documents/projectnios2/DE10_LITE_D8M_VIP_16/software/Vision_bsp\libhal_bsp.a(alt_icache_flush_all.o)
 .debug_abbrev  0x0000000000011bae      0x2e8 C:/Users/Emre/Documents/projectnios2/DE10_LITE_D8M_VIP_16/software/Vision_bsp\libhal_bsp.a(alt_iic.o)
 .debug_abbrev  0x0000000000011e96      0x2a7 C:/Users/Emre/Documents/projectnios2/DE10_LITE_D8M_VIP_16/software/Vision_bsp\libhal_bsp.a(alt_iic_isr_register.o)
 .debug_abbrev  0x000000000001213d      0x232 C:/Users/Emre/Documents/projectnios2/DE10_LITE_D8M_VIP_16/software/Vision_bsp\libhal_bsp.a(alt_io_redirect.o)
 .debug_abbrev  0x000000000001236f       0x12 C:/Users/Emre/Documents/projectnios2/DE10_LITE_D8M_VIP_16/software/Vision_bsp\libhal_bsp.a(alt_irq_entry.o)
 .debug_abbrev  0x0000000000012381      0x26b C:/Users/Emre/Documents/projectnios2/DE10_LITE_D8M_VIP_16/software/Vision_bsp\libhal_bsp.a(alt_irq_handler.o)
 .debug_abbrev  0x00000000000125ec       0x44 C:/Users/Emre/Documents/projectnios2/DE10_LITE_D8M_VIP_16/software/Vision_bsp\libhal_bsp.a(alt_irq_vars.o)
 .debug_abbrev  0x0000000000012630      0x1e5 C:/Users/Emre/Documents/projectnios2/DE10_LITE_D8M_VIP_16/software/Vision_bsp\libhal_bsp.a(altera_nios2_gen2_irq.o)
 .debug_abbrev  0x0000000000012815       0x12 C:/Users/Emre/Documents/projectnios2/DE10_LITE_D8M_VIP_16/software/Vision_bsp\libhal_bsp.a(alt_exception_entry.o)
 .debug_abbrev  0x0000000000012827      0x213 C:/Users/Emre/Documents/projectnios2/DE10_LITE_D8M_VIP_16/software/Vision_bsp\libhal_bsp.a(alt_icache_flush.o)
 .debug_abbrev  0x0000000000012a3a       0xea C:/Users/Emre/Documents/projectnios2/DE10_LITE_D8M_VIP_16/software/Vision_bsp\libhal_bsp.a(alt_instruction_exception_entry.o)
 .debug_abbrev  0x0000000000012b24      0x243 c:/intelfpga_lite/20.1/nios2eds/bin/gnu/h-x86_64-mingw32/bin/../lib/gcc/nios2-elf/9.2.1/../../../../../H-x86_64-mingw32/nios2-elf/lib\libc.a(lib_a-atexit.o)
 .debug_abbrev  0x0000000000012d67      0x230 c:/intelfpga_lite/20.1/nios2eds/bin/gnu/h-x86_64-mingw32/bin/../lib/gcc/nios2-elf/9.2.1/../../../../../H-x86_64-mingw32/nios2-elf/lib\libc.a(lib_a-exit.o)
 .debug_abbrev  0x0000000000012f97      0x1fe c:/intelfpga_lite/20.1/nios2eds/bin/gnu/h-x86_64-mingw32/bin/../lib/gcc/nios2-elf/9.2.1/../../../../../H-x86_64-mingw32/nios2-elf/lib\libc.a(lib_a-memcmp.o)
 .debug_abbrev  0x0000000000013195      0x263 c:/intelfpga_lite/20.1/nios2eds/bin/gnu/h-x86_64-mingw32/bin/../lib/gcc/nios2-elf/9.2.1/../../../../../H-x86_64-mingw32/nios2-elf/lib\libc.a(lib_a-__atexit.o)
 .debug_abbrev  0x00000000000133f8      0x26c c:/intelfpga_lite/20.1/nios2eds/bin/gnu/h-x86_64-mingw32/bin/../lib/gcc/nios2-elf/9.2.1/../../../../../H-x86_64-mingw32/nios2-elf/lib\libc.a(lib_a-__call_atexit.o)

.debug_line     0x0000000000000000    0x1eb00
 *(.debug_line)
 .debug_line    0x0000000000000000       0x72 C:/Users/Emre/Documents/projectnios2/DE10_LITE_D8M_VIP_16/software/Vision_bsp/obj/HAL/src/crt0.o
 .debug_line    0x0000000000000072      0x7d3 obj/default/I2C_core.o
 .debug_line    0x0000000000000845      0x43e obj/default/auto_focus.o
 .debug_line    0x0000000000000c83      0x50d obj/default/main.o
 .debug_line    0x0000000000001190      0x3c2 obj/default/mipi_bridge_config.o
 .debug_line    0x0000000000001552      0x57b obj/default/mipi_camera_config.o
 .debug_line    0x0000000000001acd      0x3fe obj/default/queue.o
 .debug_line    0x0000000000001ecb      0x2f6 c:/intelfpga_lite/20.1/nios2eds/bin/gnu/h-x86_64-mingw32/bin/../lib/gcc/nios2-elf/9.2.1\libgcc.a(lib2-divmod.o)
 .debug_line    0x00000000000021c1      0x2fb c:/intelfpga_lite/20.1/nios2eds/bin/gnu/h-x86_64-mingw32/bin/../lib/gcc/nios2-elf/9.2.1/../../../../../H-x86_64-mingw32/nios2-elf/lib\libc.a(lib_a-fopen.o)
 .debug_line    0x00000000000024bc      0x263 c:/intelfpga_lite/20.1/nios2eds/bin/gnu/h-x86_64-mingw32/bin/../lib/gcc/nios2-elf/9.2.1/../../../../../H-x86_64-mingw32/nios2-elf/lib\libc.a(lib_a-fseek.o)
 .debug_line    0x000000000000271f      0x778 c:/intelfpga_lite/20.1/nios2eds/bin/gnu/h-x86_64-mingw32/bin/../lib/gcc/nios2-elf/9.2.1/../../../../../H-x86_64-mingw32/nios2-elf/lib\libc.a(lib_a-fseeko.o)
 .debug_line    0x0000000000002e97      0x2ef c:/intelfpga_lite/20.1/nios2eds/bin/gnu/h-x86_64-mingw32/bin/../lib/gcc/nios2-elf/9.2.1/../../../../../H-x86_64-mingw32/nios2-elf/lib\libc.a(lib_a-fstatr.o)
 .debug_line    0x0000000000003186      0x313 c:/intelfpga_lite/20.1/nios2eds/bin/gnu/h-x86_64-mingw32/bin/../lib/gcc/nios2-elf/9.2.1/../../../../../H-x86_64-mingw32/nios2-elf/lib\libc.a(lib_a-fwrite.o)
 .debug_line    0x0000000000003499      0x243 c:/intelfpga_lite/20.1/nios2eds/bin/gnu/h-x86_64-mingw32/bin/../lib/gcc/nios2-elf/9.2.1/../../../../../H-x86_64-mingw32/nios2-elf/lib\libc.a(lib_a-getchar.o)
 .debug_line    0x00000000000036dc      0x163 c:/intelfpga_lite/20.1/nios2eds/bin/gnu/h-x86_64-mingw32/bin/../lib/gcc/nios2-elf/9.2.1/../../../../../H-x86_64-mingw32/nios2-elf/lib\libc.a(lib_a-impure.o)
 .debug_line    0x000000000000383f      0x1d5 c:/intelfpga_lite/20.1/nios2eds/bin/gnu/h-x86_64-mingw32/bin/../lib/gcc/nios2-elf/9.2.1/../../../../../H-x86_64-mingw32/nios2-elf/lib\libc.a(lib_a-int_errno.o)
 .debug_line    0x0000000000003a14      0x47d c:/intelfpga_lite/20.1/nios2eds/bin/gnu/h-x86_64-mingw32/bin/../lib/gcc/nios2-elf/9.2.1/../../../../../H-x86_64-mingw32/nios2-elf/lib\libc.a(lib_a-makebuf.o)
 .debug_line    0x0000000000003e91      0x228 c:/intelfpga_lite/20.1/nios2eds/bin/gnu/h-x86_64-mingw32/bin/../lib/gcc/nios2-elf/9.2.1/../../../../../H-x86_64-mingw32/nios2-elf/lib\libc.a(lib_a-malloc.o)
 .debug_line    0x00000000000040b9      0x924 c:/intelfpga_lite/20.1/nios2eds/bin/gnu/h-x86_64-mingw32/bin/../lib/gcc/nios2-elf/9.2.1/../../../../../H-x86_64-mingw32/nios2-elf/lib\libc.a(lib_a-mallocr.o)
 .debug_line    0x00000000000049dd      0x34a c:/intelfpga_lite/20.1/nios2eds/bin/gnu/h-x86_64-mingw32/bin/../lib/gcc/nios2-elf/9.2.1/../../../../../H-x86_64-mingw32/nios2-elf/lib\libc.a(lib_a-memset.o)
 .debug_line    0x0000000000004d27      0x251 c:/intelfpga_lite/20.1/nios2eds/bin/gnu/h-x86_64-mingw32/bin/../lib/gcc/nios2-elf/9.2.1/../../../../../H-x86_64-mingw32/nios2-elf/lib\libc.a(lib_a-openr.o)
 .debug_line    0x0000000000004f78      0x268 c:/intelfpga_lite/20.1/nios2eds/bin/gnu/h-x86_64-mingw32/bin/../lib/gcc/nios2-elf/9.2.1/../../../../../H-x86_64-mingw32/nios2-elf/lib\libc.a(lib_a-printf.o)
 .debug_line    0x00000000000051e0      0x243 c:/intelfpga_lite/20.1/nios2eds/bin/gnu/h-x86_64-mingw32/bin/../lib/gcc/nios2-elf/9.2.1/../../../../../H-x86_64-mingw32/nios2-elf/lib\libc.a(lib_a-putchar.o)
 .debug_line    0x0000000000005423      0x32f c:/intelfpga_lite/20.1/nios2eds/bin/gnu/h-x86_64-mingw32/bin/../lib/gcc/nios2-elf/9.2.1/../../../../../H-x86_64-mingw32/nios2-elf/lib\libc.a(lib_a-puts.o)
 .debug_line    0x0000000000005752      0x40b c:/intelfpga_lite/20.1/nios2eds/bin/gnu/h-x86_64-mingw32/bin/../lib/gcc/nios2-elf/9.2.1/../../../../../H-x86_64-mingw32/nios2-elf/lib\libc.a(lib_a-refill.o)
 .debug_line    0x0000000000005b5d      0x233 c:/intelfpga_lite/20.1/nios2eds/bin/gnu/h-x86_64-mingw32/bin/../lib/gcc/nios2-elf/9.2.1/../../../../../H-x86_64-mingw32/nios2-elf/lib\libc.a(lib_a-sbrkr.o)
 .debug_line    0x0000000000005d90      0x358 c:/intelfpga_lite/20.1/nios2eds/bin/gnu/h-x86_64-mingw32/bin/../lib/gcc/nios2-elf/9.2.1/../../../../../H-x86_64-mingw32/nios2-elf/lib\libc.a(lib_a-stdio.o)
 .debug_line    0x00000000000060e8      0x25f c:/intelfpga_lite/20.1/nios2eds/bin/gnu/h-x86_64-mingw32/bin/../lib/gcc/nios2-elf/9.2.1/../../../../../H-x86_64-mingw32/nios2-elf/lib\libc.a(lib_a-strlen.o)
 .debug_line    0x0000000000006347     0x1acb c:/intelfpga_lite/20.1/nios2eds/bin/gnu/h-x86_64-mingw32/bin/../lib/gcc/nios2-elf/9.2.1/../../../../../H-x86_64-mingw32/nios2-elf/lib\libc.a(lib_a-vfprintf.o)
 .debug_line    0x0000000000007e12      0x234 c:/intelfpga_lite/20.1/nios2eds/bin/gnu/h-x86_64-mingw32/bin/../lib/gcc/nios2-elf/9.2.1/../../../../../H-x86_64-mingw32/nios2-elf/lib\libc.a(lib_a-writer.o)
 .debug_line    0x0000000000008046      0x39d c:/intelfpga_lite/20.1/nios2eds/bin/gnu/h-x86_64-mingw32/bin/../lib/gcc/nios2-elf/9.2.1/../../../../../H-x86_64-mingw32/nios2-elf/lib\libc.a(lib_a-wsetup.o)
 .debug_line    0x00000000000083e3      0x233 c:/intelfpga_lite/20.1/nios2eds/bin/gnu/h-x86_64-mingw32/bin/../lib/gcc/nios2-elf/9.2.1/../../../../../H-x86_64-mingw32/nios2-elf/lib\libc.a(closer.o)
 .debug_line    0x0000000000008616     0x1626 c:/intelfpga_lite/20.1/nios2eds/bin/gnu/h-x86_64-mingw32/bin/../lib/gcc/nios2-elf/9.2.1/../../../../../H-x86_64-mingw32/nios2-elf/lib\libc.a(lib_a-dtoa.o)
 .debug_line    0x0000000000009c3c      0x504 c:/intelfpga_lite/20.1/nios2eds/bin/gnu/h-x86_64-mingw32/bin/../lib/gcc/nios2-elf/9.2.1/../../../../../H-x86_64-mingw32/nios2-elf/lib\libc.a(lib_a-fflush.o)
 .debug_line    0x000000000000a140      0x681 c:/intelfpga_lite/20.1/nios2eds/bin/gnu/h-x86_64-mingw32/bin/../lib/gcc/nios2-elf/9.2.1/../../../../../H-x86_64-mingw32/nios2-elf/lib\libc.a(lib_a-findfp.o)
 .debug_line    0x000000000000a7c1      0x28f c:/intelfpga_lite/20.1/nios2eds/bin/gnu/h-x86_64-mingw32/bin/../lib/gcc/nios2-elf/9.2.1/../../../../../H-x86_64-mingw32/nios2-elf/lib\libc.a(lib_a-flags.o)
 .debug_line    0x000000000000aa50      0x5c2 c:/intelfpga_lite/20.1/nios2eds/bin/gnu/h-x86_64-mingw32/bin/../lib/gcc/nios2-elf/9.2.1/../../../../../H-x86_64-mingw32/nios2-elf/lib\libc.a(lib_a-freer.o)
 .debug_line    0x000000000000b012      0x6f3 c:/intelfpga_lite/20.1/nios2eds/bin/gnu/h-x86_64-mingw32/bin/../lib/gcc/nios2-elf/9.2.1/../../../../../H-x86_64-mingw32/nios2-elf/lib\libc.a(lib_a-fvwrite.o)
 .debug_line    0x000000000000b705      0x393 c:/intelfpga_lite/20.1/nios2eds/bin/gnu/h-x86_64-mingw32/bin/../lib/gcc/nios2-elf/9.2.1/../../../../../H-x86_64-mingw32/nios2-elf/lib\libc.a(lib_a-fwalk.o)
 .debug_line    0x000000000000ba98      0x38f c:/intelfpga_lite/20.1/nios2eds/bin/gnu/h-x86_64-mingw32/bin/../lib/gcc/nios2-elf/9.2.1/../../../../../H-x86_64-mingw32/nios2-elf/lib\libc.a(lib_a-getc.o)
 .debug_line    0x000000000000be27      0x234 c:/intelfpga_lite/20.1/nios2eds/bin/gnu/h-x86_64-mingw32/bin/../lib/gcc/nios2-elf/9.2.1/../../../../../H-x86_64-mingw32/nios2-elf/lib\libc.a(lib_a-isattyr.o)
 .debug_line    0x000000000000c05b      0x295 c:/intelfpga_lite/20.1/nios2eds/bin/gnu/h-x86_64-mingw32/bin/../lib/gcc/nios2-elf/9.2.1/../../../../../H-x86_64-mingw32/nios2-elf/lib\libc.a(lib_a-localeconv.o)
 .debug_line    0x000000000000c2f0      0x234 c:/intelfpga_lite/20.1/nios2eds/bin/gnu/h-x86_64-mingw32/bin/../lib/gcc/nios2-elf/9.2.1/../../../../../H-x86_64-mingw32/nios2-elf/lib\libc.a(lib_a-lseekr.o)
 .debug_line    0x000000000000c524      0x2b3 c:/intelfpga_lite/20.1/nios2eds/bin/gnu/h-x86_64-mingw32/bin/../lib/gcc/nios2-elf/9.2.1/../../../../../H-x86_64-mingw32/nios2-elf/lib\libc.a(lib_a-memchr.o)
 .debug_line    0x000000000000c7d7      0x322 c:/intelfpga_lite/20.1/nios2eds/bin/gnu/h-x86_64-mingw32/bin/../lib/gcc/nios2-elf/9.2.1/../../../../../H-x86_64-mingw32/nios2-elf/lib\libc.a(lib_a-memcpy.o)
 .debug_line    0x000000000000caf9      0x35b c:/intelfpga_lite/20.1/nios2eds/bin/gnu/h-x86_64-mingw32/bin/../lib/gcc/nios2-elf/9.2.1/../../../../../H-x86_64-mingw32/nios2-elf/lib\libc.a(lib_a-memmove.o)
 .debug_line    0x000000000000ce54     0x1798 c:/intelfpga_lite/20.1/nios2eds/bin/gnu/h-x86_64-mingw32/bin/../lib/gcc/nios2-elf/9.2.1/../../../../../H-x86_64-mingw32/nios2-elf/lib\libc.a(lib_a-mprec.o)
 .debug_line    0x000000000000e5ec      0x3bd c:/intelfpga_lite/20.1/nios2eds/bin/gnu/h-x86_64-mingw32/bin/../lib/gcc/nios2-elf/9.2.1/../../../../../H-x86_64-mingw32/nios2-elf/lib\libc.a(lib_a-putc.o)
 .debug_line    0x000000000000e9a9      0x233 c:/intelfpga_lite/20.1/nios2eds/bin/gnu/h-x86_64-mingw32/bin/../lib/gcc/nios2-elf/9.2.1/../../../../../H-x86_64-mingw32/nios2-elf/lib\libc.a(lib_a-readr.o)
 .debug_line    0x000000000000ebdc      0x756 c:/intelfpga_lite/20.1/nios2eds/bin/gnu/h-x86_64-mingw32/bin/../lib/gcc/nios2-elf/9.2.1/../../../../../H-x86_64-mingw32/nios2-elf/lib\libc.a(lib_a-reallocr.o)
 .debug_line    0x000000000000f332      0x2a4 c:/intelfpga_lite/20.1/nios2eds/bin/gnu/h-x86_64-mingw32/bin/../lib/gcc/nios2-elf/9.2.1/../../../../../H-x86_64-mingw32/nios2-elf/lib\libc.a(lib_a-rget.o)
 .debug_line    0x000000000000f5d6     0x14af c:/intelfpga_lite/20.1/nios2eds/bin/gnu/h-x86_64-mingw32/bin/../lib/gcc/nios2-elf/9.2.1/../../../../../H-x86_64-mingw32/nios2-elf/lib\libc.a(lib_a-vfiprintf.o)
 .debug_line    0x0000000000010a85      0x39e c:/intelfpga_lite/20.1/nios2eds/bin/gnu/h-x86_64-mingw32/bin/../lib/gcc/nios2-elf/9.2.1/../../../../../H-x86_64-mingw32/nios2-elf/lib\libc.a(lib_a-wbuf.o)
 .debug_line    0x0000000000010e23      0x24c c:/intelfpga_lite/20.1/nios2eds/bin/gnu/h-x86_64-mingw32/bin/../lib/gcc/nios2-elf/9.2.1/../../../../../H-x86_64-mingw32/nios2-elf/lib\libc.a(lib_a-assert.o)
 .debug_line    0x000000000001106f      0x27b c:/intelfpga_lite/20.1/nios2eds/bin/gnu/h-x86_64-mingw32/bin/../lib/gcc/nios2-elf/9.2.1/../../../../../H-x86_64-mingw32/nios2-elf/lib\libc.a(lib_a-callocr.o)
 .debug_line    0x00000000000112ea      0x31f c:/intelfpga_lite/20.1/nios2eds/bin/gnu/h-x86_64-mingw32/bin/../lib/gcc/nios2-elf/9.2.1/../../../../../H-x86_64-mingw32/nios2-elf/lib\libc.a(lib_a-fclose.o)
 .debug_line    0x0000000000011609      0x234 c:/intelfpga_lite/20.1/nios2eds/bin/gnu/h-x86_64-mingw32/bin/../lib/gcc/nios2-elf/9.2.1/../../../../../H-x86_64-mingw32/nios2-elf/lib\libc.a(lib_a-fiprintf.o)
 .debug_line    0x000000000001183d      0x41a c:/intelfpga_lite/20.1/nios2eds/bin/gnu/h-x86_64-mingw32/bin/../lib/gcc/nios2-elf/9.2.1/../../../../../H-x86_64-mingw32/nios2-elf/lib\libc.a(lib_a-fputwc.o)
 .debug_line    0x0000000000011c57      0x35d c:/intelfpga_lite/20.1/nios2eds/bin/gnu/h-x86_64-mingw32/bin/../lib/gcc/nios2-elf/9.2.1/../../../../../H-x86_64-mingw32/nios2-elf/lib\libc.a(lib_a-locale.o)
 .debug_line    0x0000000000011fb4      0x2da c:/intelfpga_lite/20.1/nios2eds/bin/gnu/h-x86_64-mingw32/bin/../lib/gcc/nios2-elf/9.2.1/../../../../../H-x86_64-mingw32/nios2-elf/lib\libc.a(lib_a-mbtowc_r.o)
 .debug_line    0x000000000001228e      0x282 c:/intelfpga_lite/20.1/nios2eds/bin/gnu/h-x86_64-mingw32/bin/../lib/gcc/nios2-elf/9.2.1/../../../../../H-x86_64-mingw32/nios2-elf/lib\libc.a(lib_a-strcmp.o)
 .debug_line    0x0000000000012510      0x22b c:/intelfpga_lite/20.1/nios2eds/bin/gnu/h-x86_64-mingw32/bin/../lib/gcc/nios2-elf/9.2.1/../../../../../H-x86_64-mingw32/nios2-elf/lib\libc.a(lib_a-vfiprintfr_1.o)
 .debug_line    0x000000000001273b      0x376 c:/intelfpga_lite/20.1/nios2eds/bin/gnu/h-x86_64-mingw32/bin/../lib/gcc/nios2-elf/9.2.1/../../../../../H-x86_64-mingw32/nios2-elf/lib\libc.a(lib_a-wcrtomb.o)
 .debug_line    0x0000000000012ab1      0x2c7 c:/intelfpga_lite/20.1/nios2eds/bin/gnu/h-x86_64-mingw32/bin/../lib/gcc/nios2-elf/9.2.1/../../../../../H-x86_64-mingw32/nios2-elf/lib\libc.a(lib_a-wctomb_r.o)
 .debug_line    0x0000000000012d78      0x214 c:/intelfpga_lite/20.1/nios2eds/bin/gnu/h-x86_64-mingw32/bin/../lib/gcc/nios2-elf/9.2.1/../../../../../H-x86_64-mingw32/nios2-elf/lib\libc.a(lib_a-abort.o)
 .debug_line    0x0000000000012f8c      0x24b c:/intelfpga_lite/20.1/nios2eds/bin/gnu/h-x86_64-mingw32/bin/../lib/gcc/nios2-elf/9.2.1/../../../../../H-x86_64-mingw32/nios2-elf/lib\libc.a(lib_a-ctype_.o)
 .debug_line    0x00000000000131d7      0x4e0 c:/intelfpga_lite/20.1/nios2eds/bin/gnu/h-x86_64-mingw32/bin/../lib/gcc/nios2-elf/9.2.1/../../../../../H-x86_64-mingw32/nios2-elf/lib\libc.a(lib_a-signal.o)
 .debug_line    0x00000000000136b7      0x25f c:/intelfpga_lite/20.1/nios2eds/bin/gnu/h-x86_64-mingw32/bin/../lib/gcc/nios2-elf/9.2.1/../../../../../H-x86_64-mingw32/nios2-elf/lib\libc.a(lib_a-signalr.o)
 .debug_line    0x0000000000013916      0x373 c:/intelfpga_lite/20.1/nios2eds/bin/gnu/h-x86_64-mingw32/bin/../lib/gcc/nios2-elf/9.2.1\libgcc.a(_udivdi3.o)
 .debug_line    0x0000000000013c89      0x3ca c:/intelfpga_lite/20.1/nios2eds/bin/gnu/h-x86_64-mingw32/bin/../lib/gcc/nios2-elf/9.2.1\libgcc.a(_umoddi3.o)
 .debug_line    0x0000000000014053      0xe4b c:/intelfpga_lite/20.1/nios2eds/bin/gnu/h-x86_64-mingw32/bin/../lib/gcc/nios2-elf/9.2.1\libgcc.a(adddf3.o)
 .debug_line    0x0000000000014e9e      0xacb c:/intelfpga_lite/20.1/nios2eds/bin/gnu/h-x86_64-mingw32/bin/../lib/gcc/nios2-elf/9.2.1\libgcc.a(divdf3.o)
 .debug_line    0x0000000000015969      0x14f c:/intelfpga_lite/20.1/nios2eds/bin/gnu/h-x86_64-mingw32/bin/../lib/gcc/nios2-elf/9.2.1\libgcc.a(eqdf2.o)
 .debug_line    0x0000000000015ab8      0x1a7 c:/intelfpga_lite/20.1/nios2eds/bin/gnu/h-x86_64-mingw32/bin/../lib/gcc/nios2-elf/9.2.1\libgcc.a(gedf2.o)
 .debug_line    0x0000000000015c5f      0x1a6 c:/intelfpga_lite/20.1/nios2eds/bin/gnu/h-x86_64-mingw32/bin/../lib/gcc/nios2-elf/9.2.1\libgcc.a(ledf2.o)
 .debug_line    0x0000000000015e05      0x999 c:/intelfpga_lite/20.1/nios2eds/bin/gnu/h-x86_64-mingw32/bin/../lib/gcc/nios2-elf/9.2.1\libgcc.a(muldf3.o)
 .debug_line    0x000000000001679e      0xe1e c:/intelfpga_lite/20.1/nios2eds/bin/gnu/h-x86_64-mingw32/bin/../lib/gcc/nios2-elf/9.2.1\libgcc.a(subdf3.o)
 .debug_line    0x00000000000175bc      0x115 c:/intelfpga_lite/20.1/nios2eds/bin/gnu/h-x86_64-mingw32/bin/../lib/gcc/nios2-elf/9.2.1\libgcc.a(unorddf2.o)
 .debug_line    0x00000000000176d1      0x164 c:/intelfpga_lite/20.1/nios2eds/bin/gnu/h-x86_64-mingw32/bin/../lib/gcc/nios2-elf/9.2.1\libgcc.a(fixdfsi.o)
 .debug_line    0x0000000000017835      0x1ec c:/intelfpga_lite/20.1/nios2eds/bin/gnu/h-x86_64-mingw32/bin/../lib/gcc/nios2-elf/9.2.1\libgcc.a(floatsidf.o)
 .debug_line    0x0000000000017a21      0x1dc c:/intelfpga_lite/20.1/nios2eds/bin/gnu/h-x86_64-mingw32/bin/../lib/gcc/nios2-elf/9.2.1\libgcc.a(floatunsidf.o)
 .debug_line    0x0000000000017bfd       0xab c:/intelfpga_lite/20.1/nios2eds/bin/gnu/h-x86_64-mingw32/bin/../lib/gcc/nios2-elf/9.2.1\libgcc.a(_clz.o)
 .debug_line    0x0000000000017ca8       0xff c:/intelfpga_lite/20.1/nios2eds/bin/gnu/h-x86_64-mingw32/bin/../lib/gcc/nios2-elf/9.2.1\libgcc.a(_clzsi2.o)
 .debug_line    0x0000000000017da7      0x23d C:/Users/Emre/Documents/projectnios2/DE10_LITE_D8M_VIP_16/software/Vision_bsp\libhal_bsp.a(alt_close.o)
 .debug_line    0x0000000000017fe4      0x285 C:/Users/Emre/Documents/projectnios2/DE10_LITE_D8M_VIP_16/software/Vision_bsp\libhal_bsp.a(alt_dev.o)
 .debug_line    0x0000000000018269      0x131 C:/Users/Emre/Documents/projectnios2/DE10_LITE_D8M_VIP_16/software/Vision_bsp\libhal_bsp.a(alt_errno.o)
 .debug_line    0x000000000001839a      0x165 C:/Users/Emre/Documents/projectnios2/DE10_LITE_D8M_VIP_16/software/Vision_bsp\libhal_bsp.a(alt_exit.o)
 .debug_line    0x00000000000184ff      0x339 C:/Users/Emre/Documents/projectnios2/DE10_LITE_D8M_VIP_16/software/Vision_bsp\libhal_bsp.a(alt_fcntl.o)
 .debug_line    0x0000000000018838      0x2ee C:/Users/Emre/Documents/projectnios2/DE10_LITE_D8M_VIP_16/software/Vision_bsp\libhal_bsp.a(alt_fstat.o)
 .debug_line    0x0000000000018b26       0x4c C:/Users/Emre/Documents/projectnios2/DE10_LITE_D8M_VIP_16/software/Vision_bsp\libhal_bsp.a(alt_getpid.o)
 .debug_line    0x0000000000018b72      0x2f0 C:/Users/Emre/Documents/projectnios2/DE10_LITE_D8M_VIP_16/software/Vision_bsp\libhal_bsp.a(alt_isatty.o)
 .debug_line    0x0000000000018e62      0x1b5 C:/Users/Emre/Documents/projectnios2/DE10_LITE_D8M_VIP_16/software/Vision_bsp\libhal_bsp.a(alt_kill.o)
 .debug_line    0x0000000000019017      0x1d2 C:/Users/Emre/Documents/projectnios2/DE10_LITE_D8M_VIP_16/software/Vision_bsp\libhal_bsp.a(alt_load.o)
 .debug_line    0x00000000000191e9      0x222 C:/Users/Emre/Documents/projectnios2/DE10_LITE_D8M_VIP_16/software/Vision_bsp\libhal_bsp.a(alt_lseek.o)
 .debug_line    0x000000000001940b      0x2bc C:/Users/Emre/Documents/projectnios2/DE10_LITE_D8M_VIP_16/software/Vision_bsp\libhal_bsp.a(alt_main.o)
 .debug_line    0x00000000000196c7      0x124 C:/Users/Emre/Documents/projectnios2/DE10_LITE_D8M_VIP_16/software/Vision_bsp\libhal_bsp.a(alt_malloc_lock.o)
 .debug_line    0x00000000000197eb      0x280 C:/Users/Emre/Documents/projectnios2/DE10_LITE_D8M_VIP_16/software/Vision_bsp\libhal_bsp.a(alt_open.o)
 .debug_line    0x0000000000019a6b      0x31f C:/Users/Emre/Documents/projectnios2/DE10_LITE_D8M_VIP_16/software/Vision_bsp\libhal_bsp.a(alt_read.o)
 .debug_line    0x0000000000019d8a       0xb6 C:/Users/Emre/Documents/projectnios2/DE10_LITE_D8M_VIP_16/software/Vision_bsp\libhal_bsp.a(alt_release_fd.o)
 .debug_line    0x0000000000019e40      0x1af C:/Users/Emre/Documents/projectnios2/DE10_LITE_D8M_VIP_16/software/Vision_bsp\libhal_bsp.a(alt_sbrk.o)
 .debug_line    0x0000000000019fef      0x240 C:/Users/Emre/Documents/projectnios2/DE10_LITE_D8M_VIP_16/software/Vision_bsp\libhal_bsp.a(alt_tick.o)
 .debug_line    0x000000000001a22f       0xbf C:/Users/Emre/Documents/projectnios2/DE10_LITE_D8M_VIP_16/software/Vision_bsp\libhal_bsp.a(alt_usleep.o)
 .debug_line    0x000000000001a2ee      0x322 C:/Users/Emre/Documents/projectnios2/DE10_LITE_D8M_VIP_16/software/Vision_bsp\libhal_bsp.a(alt_write.o)
 .debug_line    0x000000000001a610      0x276 C:/Users/Emre/Documents/projectnios2/DE10_LITE_D8M_VIP_16/software/Vision_bsp\libhal_bsp.a(alt_sys_init.o)
 .debug_line    0x000000000001a886      0x149 C:/Users/Emre/Documents/projectnios2/DE10_LITE_D8M_VIP_16/software/Vision_bsp\libhal_bsp.a(altera_avalon_jtag_uart_fd.o)
 .debug_line    0x000000000001a9cf      0x390 C:/Users/Emre/Documents/projectnios2/DE10_LITE_D8M_VIP_16/software/Vision_bsp\libhal_bsp.a(altera_avalon_jtag_uart_init.o)
 .debug_line    0x000000000001ad5f      0x289 C:/Users/Emre/Documents/projectnios2/DE10_LITE_D8M_VIP_16/software/Vision_bsp\libhal_bsp.a(altera_avalon_jtag_uart_ioctl.o)
 .debug_line    0x000000000001afe8      0x306 C:/Users/Emre/Documents/projectnios2/DE10_LITE_D8M_VIP_16/software/Vision_bsp\libhal_bsp.a(altera_avalon_jtag_uart_read.o)
 .debug_line    0x000000000001b2ee      0x30b C:/Users/Emre/Documents/projectnios2/DE10_LITE_D8M_VIP_16/software/Vision_bsp\libhal_bsp.a(altera_avalon_jtag_uart_write.o)
 .debug_line    0x000000000001b5f9      0x213 C:/Users/Emre/Documents/projectnios2/DE10_LITE_D8M_VIP_16/software/Vision_bsp\libhal_bsp.a(altera_avalon_timer_sc.o)
 .debug_line    0x000000000001b80c      0x102 C:/Users/Emre/Documents/projectnios2/DE10_LITE_D8M_VIP_16/software/Vision_bsp\libhal_bsp.a(altera_avalon_uart_fd.o)
 .debug_line    0x000000000001b90e      0x34b C:/Users/Emre/Documents/projectnios2/DE10_LITE_D8M_VIP_16/software/Vision_bsp\libhal_bsp.a(altera_avalon_uart_init.o)
 .debug_line    0x000000000001bc59      0x320 C:/Users/Emre/Documents/projectnios2/DE10_LITE_D8M_VIP_16/software/Vision_bsp\libhal_bsp.a(altera_avalon_uart_read.o)
 .debug_line    0x000000000001bf79      0x2f3 C:/Users/Emre/Documents/projectnios2/DE10_LITE_D8M_VIP_16/software/Vision_bsp\libhal_bsp.a(altera_avalon_uart_write.o)
 .debug_line    0x000000000001c26c      0x218 C:/Users/Emre/Documents/projectnios2/DE10_LITE_D8M_VIP_16/software/Vision_bsp\libhal_bsp.a(alt_alarm_start.o)
 .debug_line    0x000000000001c484      0x1b6 C:/Users/Emre/Documents/projectnios2/DE10_LITE_D8M_VIP_16/software/Vision_bsp\libhal_bsp.a(alt_busy_sleep.o)
 .debug_line    0x000000000001c63a      0x19a C:/Users/Emre/Documents/projectnios2/DE10_LITE_D8M_VIP_16/software/Vision_bsp\libhal_bsp.a(alt_dcache_flush_all.o)
 .debug_line    0x000000000001c7d4      0x1e6 C:/Users/Emre/Documents/projectnios2/DE10_LITE_D8M_VIP_16/software/Vision_bsp\libhal_bsp.a(alt_dev_llist_insert.o)
 .debug_line    0x000000000001c9ba       0x66 C:/Users/Emre/Documents/projectnios2/DE10_LITE_D8M_VIP_16/software/Vision_bsp\libhal_bsp.a(alt_do_ctors.o)
 .debug_line    0x000000000001ca20       0x66 C:/Users/Emre/Documents/projectnios2/DE10_LITE_D8M_VIP_16/software/Vision_bsp\libhal_bsp.a(alt_do_dtors.o)
 .debug_line    0x000000000001ca86      0x1aa C:/Users/Emre/Documents/projectnios2/DE10_LITE_D8M_VIP_16/software/Vision_bsp\libhal_bsp.a(alt_find_dev.o)
 .debug_line    0x000000000001cc30      0x1d8 C:/Users/Emre/Documents/projectnios2/DE10_LITE_D8M_VIP_16/software/Vision_bsp\libhal_bsp.a(alt_find_file.o)
 .debug_line    0x000000000001ce08      0x1da C:/Users/Emre/Documents/projectnios2/DE10_LITE_D8M_VIP_16/software/Vision_bsp\libhal_bsp.a(alt_get_fd.o)
 .debug_line    0x000000000001cfe2      0x182 C:/Users/Emre/Documents/projectnios2/DE10_LITE_D8M_VIP_16/software/Vision_bsp\libhal_bsp.a(alt_icache_flush_all.o)
 .debug_line    0x000000000001d164      0x203 C:/Users/Emre/Documents/projectnios2/DE10_LITE_D8M_VIP_16/software/Vision_bsp\libhal_bsp.a(alt_iic.o)
 .debug_line    0x000000000001d367      0x1dc C:/Users/Emre/Documents/projectnios2/DE10_LITE_D8M_VIP_16/software/Vision_bsp\libhal_bsp.a(alt_iic_isr_register.o)
 .debug_line    0x000000000001d543      0x2ad C:/Users/Emre/Documents/projectnios2/DE10_LITE_D8M_VIP_16/software/Vision_bsp\libhal_bsp.a(alt_io_redirect.o)
 .debug_line    0x000000000001d7f0       0x6b C:/Users/Emre/Documents/projectnios2/DE10_LITE_D8M_VIP_16/software/Vision_bsp\libhal_bsp.a(alt_irq_entry.o)
 .debug_line    0x000000000001d85b      0x1b4 C:/Users/Emre/Documents/projectnios2/DE10_LITE_D8M_VIP_16/software/Vision_bsp\libhal_bsp.a(alt_irq_handler.o)
 .debug_line    0x000000000001da0f       0x50 C:/Users/Emre/Documents/projectnios2/DE10_LITE_D8M_VIP_16/software/Vision_bsp\libhal_bsp.a(alt_irq_vars.o)
 .debug_line    0x000000000001da5f      0x137 C:/Users/Emre/Documents/projectnios2/DE10_LITE_D8M_VIP_16/software/Vision_bsp\libhal_bsp.a(altera_nios2_gen2_irq.o)
 .debug_line    0x000000000001db96       0xb3 C:/Users/Emre/Documents/projectnios2/DE10_LITE_D8M_VIP_16/software/Vision_bsp\libhal_bsp.a(alt_exception_entry.o)
 .debug_line    0x000000000001dc49      0x1cc C:/Users/Emre/Documents/projectnios2/DE10_LITE_D8M_VIP_16/software/Vision_bsp\libhal_bsp.a(alt_icache_flush.o)
 .debug_line    0x000000000001de15       0xd9 C:/Users/Emre/Documents/projectnios2/DE10_LITE_D8M_VIP_16/software/Vision_bsp\libhal_bsp.a(alt_instruction_exception_entry.o)
 .debug_line    0x000000000001deee      0x1fe c:/intelfpga_lite/20.1/nios2eds/bin/gnu/h-x86_64-mingw32/bin/../lib/gcc/nios2-elf/9.2.1/../../../../../H-x86_64-mingw32/nios2-elf/lib\libc.a(lib_a-atexit.o)
 .debug_line    0x000000000001e0ec      0x226 c:/intelfpga_lite/20.1/nios2eds/bin/gnu/h-x86_64-mingw32/bin/../lib/gcc/nios2-elf/9.2.1/../../../../../H-x86_64-mingw32/nios2-elf/lib\libc.a(lib_a-exit.o)
 .debug_line    0x000000000001e312      0x26a c:/intelfpga_lite/20.1/nios2eds/bin/gnu/h-x86_64-mingw32/bin/../lib/gcc/nios2-elf/9.2.1/../../../../../H-x86_64-mingw32/nios2-elf/lib\libc.a(lib_a-memcmp.o)
 .debug_line    0x000000000001e57c      0x286 c:/intelfpga_lite/20.1/nios2eds/bin/gnu/h-x86_64-mingw32/bin/../lib/gcc/nios2-elf/9.2.1/../../../../../H-x86_64-mingw32/nios2-elf/lib\libc.a(lib_a-__atexit.o)
 .debug_line    0x000000000001e802      0x2fe c:/intelfpga_lite/20.1/nios2eds/bin/gnu/h-x86_64-mingw32/bin/../lib/gcc/nios2-elf/9.2.1/../../../../../H-x86_64-mingw32/nios2-elf/lib\libc.a(lib_a-__call_atexit.o)

.debug_frame    0x0000000000000000     0x3020
 *(.debug_frame)
 .debug_frame   0x0000000000000000      0x210 obj/default/I2C_core.o
 .debug_frame   0x0000000000000210       0x88 obj/default/auto_focus.o
 .debug_frame   0x0000000000000298       0xcc obj/default/main.o
 .debug_frame   0x0000000000000364       0xac obj/default/mipi_bridge_config.o
 .debug_frame   0x0000000000000410      0x1a4 obj/default/mipi_camera_config.o
 .debug_frame   0x00000000000005b4      0x120 obj/default/queue.o
 .debug_frame   0x00000000000006d4       0x50 c:/intelfpga_lite/20.1/nios2eds/bin/gnu/h-x86_64-mingw32/bin/../lib/gcc/nios2-elf/9.2.1\libgcc.a(lib2-divmod.o)
 .debug_frame   0x0000000000000724       0x50 c:/intelfpga_lite/20.1/nios2eds/bin/gnu/h-x86_64-mingw32/bin/../lib/gcc/nios2-elf/9.2.1/../../../../../H-x86_64-mingw32/nios2-elf/lib\libc.a(lib_a-fopen.o)
 .debug_frame   0x0000000000000774       0x30 c:/intelfpga_lite/20.1/nios2eds/bin/gnu/h-x86_64-mingw32/bin/../lib/gcc/nios2-elf/9.2.1/../../../../../H-x86_64-mingw32/nios2-elf/lib\libc.a(lib_a-fseek.o)
 .debug_frame   0x00000000000007a4       0x60 c:/intelfpga_lite/20.1/nios2eds/bin/gnu/h-x86_64-mingw32/bin/../lib/gcc/nios2-elf/9.2.1/../../../../../H-x86_64-mingw32/nios2-elf/lib\libc.a(lib_a-fseeko.o)
 .debug_frame   0x0000000000000804       0x3c c:/intelfpga_lite/20.1/nios2eds/bin/gnu/h-x86_64-mingw32/bin/../lib/gcc/nios2-elf/9.2.1/../../../../../H-x86_64-mingw32/nios2-elf/lib\libc.a(lib_a-fstatr.o)
 .debug_frame   0x0000000000000840       0x5c c:/intelfpga_lite/20.1/nios2eds/bin/gnu/h-x86_64-mingw32/bin/../lib/gcc/nios2-elf/9.2.1/../../../../../H-x86_64-mingw32/nios2-elf/lib\libc.a(lib_a-fwrite.o)
 .debug_frame   0x000000000000089c       0x30 c:/intelfpga_lite/20.1/nios2eds/bin/gnu/h-x86_64-mingw32/bin/../lib/gcc/nios2-elf/9.2.1/../../../../../H-x86_64-mingw32/nios2-elf/lib\libc.a(lib_a-getchar.o)
 .debug_frame   0x00000000000008cc       0x68 c:/intelfpga_lite/20.1/nios2eds/bin/gnu/h-x86_64-mingw32/bin/../lib/gcc/nios2-elf/9.2.1/../../../../../H-x86_64-mingw32/nios2-elf/lib\libc.a(lib_a-makebuf.o)
 .debug_frame   0x0000000000000934       0x30 c:/intelfpga_lite/20.1/nios2eds/bin/gnu/h-x86_64-mingw32/bin/../lib/gcc/nios2-elf/9.2.1/../../../../../H-x86_64-mingw32/nios2-elf/lib\libc.a(lib_a-malloc.o)
 .debug_frame   0x0000000000000964       0x58 c:/intelfpga_lite/20.1/nios2eds/bin/gnu/h-x86_64-mingw32/bin/../lib/gcc/nios2-elf/9.2.1/../../../../../H-x86_64-mingw32/nios2-elf/lib\libc.a(lib_a-mallocr.o)
 .debug_frame   0x00000000000009bc       0x20 c:/intelfpga_lite/20.1/nios2eds/bin/gnu/h-x86_64-mingw32/bin/../lib/gcc/nios2-elf/9.2.1/../../../../../H-x86_64-mingw32/nios2-elf/lib\libc.a(lib_a-memset.o)
 .debug_frame   0x00000000000009dc       0x3c c:/intelfpga_lite/20.1/nios2eds/bin/gnu/h-x86_64-mingw32/bin/../lib/gcc/nios2-elf/9.2.1/../../../../../H-x86_64-mingw32/nios2-elf/lib\libc.a(lib_a-openr.o)
 .debug_frame   0x0000000000000a18       0x48 c:/intelfpga_lite/20.1/nios2eds/bin/gnu/h-x86_64-mingw32/bin/../lib/gcc/nios2-elf/9.2.1/../../../../../H-x86_64-mingw32/nios2-elf/lib\libc.a(lib_a-printf.o)
 .debug_frame   0x0000000000000a60       0x30 c:/intelfpga_lite/20.1/nios2eds/bin/gnu/h-x86_64-mingw32/bin/../lib/gcc/nios2-elf/9.2.1/../../../../../H-x86_64-mingw32/nios2-elf/lib\libc.a(lib_a-putchar.o)
 .debug_frame   0x0000000000000a90       0x48 c:/intelfpga_lite/20.1/nios2eds/bin/gnu/h-x86_64-mingw32/bin/../lib/gcc/nios2-elf/9.2.1/../../../../../H-x86_64-mingw32/nios2-elf/lib\libc.a(lib_a-puts.o)
 .debug_frame   0x0000000000000ad8       0x4c c:/intelfpga_lite/20.1/nios2eds/bin/gnu/h-x86_64-mingw32/bin/../lib/gcc/nios2-elf/9.2.1/../../../../../H-x86_64-mingw32/nios2-elf/lib\libc.a(lib_a-refill.o)
 .debug_frame   0x0000000000000b24       0x3c c:/intelfpga_lite/20.1/nios2eds/bin/gnu/h-x86_64-mingw32/bin/../lib/gcc/nios2-elf/9.2.1/../../../../../H-x86_64-mingw32/nios2-elf/lib\libc.a(lib_a-sbrkr.o)
 .debug_frame   0x0000000000000b60       0xb8 c:/intelfpga_lite/20.1/nios2eds/bin/gnu/h-x86_64-mingw32/bin/../lib/gcc/nios2-elf/9.2.1/../../../../../H-x86_64-mingw32/nios2-elf/lib\libc.a(lib_a-stdio.o)
 .debug_frame   0x0000000000000c18       0x20 c:/intelfpga_lite/20.1/nios2eds/bin/gnu/h-x86_64-mingw32/bin/../lib/gcc/nios2-elf/9.2.1/../../../../../H-x86_64-mingw32/nios2-elf/lib\libc.a(lib_a-strlen.o)
 .debug_frame   0x0000000000000c38       0x98 c:/intelfpga_lite/20.1/nios2eds/bin/gnu/h-x86_64-mingw32/bin/../lib/gcc/nios2-elf/9.2.1/../../../../../H-x86_64-mingw32/nios2-elf/lib\libc.a(lib_a-vfprintf.o)
 .debug_frame   0x0000000000000cd0       0x3c c:/intelfpga_lite/20.1/nios2eds/bin/gnu/h-x86_64-mingw32/bin/../lib/gcc/nios2-elf/9.2.1/../../../../../H-x86_64-mingw32/nios2-elf/lib\libc.a(lib_a-writer.o)
 .debug_frame   0x0000000000000d0c       0x38 c:/intelfpga_lite/20.1/nios2eds/bin/gnu/h-x86_64-mingw32/bin/../lib/gcc/nios2-elf/9.2.1/../../../../../H-x86_64-mingw32/nios2-elf/lib\libc.a(lib_a-wsetup.o)
 .debug_frame   0x0000000000000d44       0x3c c:/intelfpga_lite/20.1/nios2eds/bin/gnu/h-x86_64-mingw32/bin/../lib/gcc/nios2-elf/9.2.1/../../../../../H-x86_64-mingw32/nios2-elf/lib\libc.a(closer.o)
 .debug_frame   0x0000000000000d80       0x9c c:/intelfpga_lite/20.1/nios2eds/bin/gnu/h-x86_64-mingw32/bin/../lib/gcc/nios2-elf/9.2.1/../../../../../H-x86_64-mingw32/nios2-elf/lib\libc.a(lib_a-dtoa.o)
 .debug_frame   0x0000000000000e1c       0x7c c:/intelfpga_lite/20.1/nios2eds/bin/gnu/h-x86_64-mingw32/bin/../lib/gcc/nios2-elf/9.2.1/../../../../../H-x86_64-mingw32/nios2-elf/lib\libc.a(lib_a-fflush.o)
 .debug_frame   0x0000000000000e98      0x124 c:/intelfpga_lite/20.1/nios2eds/bin/gnu/h-x86_64-mingw32/bin/../lib/gcc/nios2-elf/9.2.1/../../../../../H-x86_64-mingw32/nios2-elf/lib\libc.a(lib_a-findfp.o)
 .debug_frame   0x0000000000000fbc       0x20 c:/intelfpga_lite/20.1/nios2eds/bin/gnu/h-x86_64-mingw32/bin/../lib/gcc/nios2-elf/9.2.1/../../../../../H-x86_64-mingw32/nios2-elf/lib\libc.a(lib_a-flags.o)
 .debug_frame   0x0000000000000fdc       0x78 c:/intelfpga_lite/20.1/nios2eds/bin/gnu/h-x86_64-mingw32/bin/../lib/gcc/nios2-elf/9.2.1/../../../../../H-x86_64-mingw32/nios2-elf/lib\libc.a(lib_a-freer.o)
 .debug_frame   0x0000000000001054       0x7c c:/intelfpga_lite/20.1/nios2eds/bin/gnu/h-x86_64-mingw32/bin/../lib/gcc/nios2-elf/9.2.1/../../../../../H-x86_64-mingw32/nios2-elf/lib\libc.a(lib_a-fvwrite.o)
 .debug_frame   0x00000000000010d0       0x74 c:/intelfpga_lite/20.1/nios2eds/bin/gnu/h-x86_64-mingw32/bin/../lib/gcc/nios2-elf/9.2.1/../../../../../H-x86_64-mingw32/nios2-elf/lib\libc.a(lib_a-fwalk.o)
 .debug_frame   0x0000000000001144       0x6c c:/intelfpga_lite/20.1/nios2eds/bin/gnu/h-x86_64-mingw32/bin/../lib/gcc/nios2-elf/9.2.1/../../../../../H-x86_64-mingw32/nios2-elf/lib\libc.a(lib_a-getc.o)
 .debug_frame   0x00000000000011b0       0x3c c:/intelfpga_lite/20.1/nios2eds/bin/gnu/h-x86_64-mingw32/bin/../lib/gcc/nios2-elf/9.2.1/../../../../../H-x86_64-mingw32/nios2-elf/lib\libc.a(lib_a-isattyr.o)
 .debug_frame   0x00000000000011ec       0x40 c:/intelfpga_lite/20.1/nios2eds/bin/gnu/h-x86_64-mingw32/bin/../lib/gcc/nios2-elf/9.2.1/../../../../../H-x86_64-mingw32/nios2-elf/lib\libc.a(lib_a-localeconv.o)
 .debug_frame   0x000000000000122c       0x3c c:/intelfpga_lite/20.1/nios2eds/bin/gnu/h-x86_64-mingw32/bin/../lib/gcc/nios2-elf/9.2.1/../../../../../H-x86_64-mingw32/nios2-elf/lib\libc.a(lib_a-lseekr.o)
 .debug_frame   0x0000000000001268       0x20 c:/intelfpga_lite/20.1/nios2eds/bin/gnu/h-x86_64-mingw32/bin/../lib/gcc/nios2-elf/9.2.1/../../../../../H-x86_64-mingw32/nios2-elf/lib\libc.a(lib_a-memchr.o)
 .debug_frame   0x0000000000001288       0x20 c:/intelfpga_lite/20.1/nios2eds/bin/gnu/h-x86_64-mingw32/bin/../lib/gcc/nios2-elf/9.2.1/../../../../../H-x86_64-mingw32/nios2-elf/lib\libc.a(lib_a-memcpy.o)
 .debug_frame   0x00000000000012a8       0x20 c:/intelfpga_lite/20.1/nios2eds/bin/gnu/h-x86_64-mingw32/bin/../lib/gcc/nios2-elf/9.2.1/../../../../../H-x86_64-mingw32/nios2-elf/lib\libc.a(lib_a-memmove.o)
 .debug_frame   0x00000000000012c8      0x2d0 c:/intelfpga_lite/20.1/nios2eds/bin/gnu/h-x86_64-mingw32/bin/../lib/gcc/nios2-elf/9.2.1/../../../../../H-x86_64-mingw32/nios2-elf/lib\libc.a(lib_a-mprec.o)
 .debug_frame   0x0000000000001598       0x78 c:/intelfpga_lite/20.1/nios2eds/bin/gnu/h-x86_64-mingw32/bin/../lib/gcc/nios2-elf/9.2.1/../../../../../H-x86_64-mingw32/nios2-elf/lib\libc.a(lib_a-putc.o)
 .debug_frame   0x0000000000001610       0x3c c:/intelfpga_lite/20.1/nios2eds/bin/gnu/h-x86_64-mingw32/bin/../lib/gcc/nios2-elf/9.2.1/../../../../../H-x86_64-mingw32/nios2-elf/lib\libc.a(lib_a-readr.o)
 .debug_frame   0x000000000000164c       0x70 c:/intelfpga_lite/20.1/nios2eds/bin/gnu/h-x86_64-mingw32/bin/../lib/gcc/nios2-elf/9.2.1/../../../../../H-x86_64-mingw32/nios2-elf/lib\libc.a(lib_a-reallocr.o)
 .debug_frame   0x00000000000016bc       0x48 c:/intelfpga_lite/20.1/nios2eds/bin/gnu/h-x86_64-mingw32/bin/../lib/gcc/nios2-elf/9.2.1/../../../../../H-x86_64-mingw32/nios2-elf/lib\libc.a(lib_a-rget.o)
 .debug_frame   0x0000000000001704       0xec c:/intelfpga_lite/20.1/nios2eds/bin/gnu/h-x86_64-mingw32/bin/../lib/gcc/nios2-elf/9.2.1/../../../../../H-x86_64-mingw32/nios2-elf/lib\libc.a(lib_a-vfiprintf.o)
 .debug_frame   0x00000000000017f0       0x50 c:/intelfpga_lite/20.1/nios2eds/bin/gnu/h-x86_64-mingw32/bin/../lib/gcc/nios2-elf/9.2.1/../../../../../H-x86_64-mingw32/nios2-elf/lib\libc.a(lib_a-wbuf.o)
 .debug_frame   0x0000000000001840       0x40 c:/intelfpga_lite/20.1/nios2eds/bin/gnu/h-x86_64-mingw32/bin/../lib/gcc/nios2-elf/9.2.1/../../../../../H-x86_64-mingw32/nios2-elf/lib\libc.a(lib_a-assert.o)
 .debug_frame   0x0000000000001880       0x38 c:/intelfpga_lite/20.1/nios2eds/bin/gnu/h-x86_64-mingw32/bin/../lib/gcc/nios2-elf/9.2.1/../../../../../H-x86_64-mingw32/nios2-elf/lib\libc.a(lib_a-callocr.o)
 .debug_frame   0x00000000000018b8       0x4c c:/intelfpga_lite/20.1/nios2eds/bin/gnu/h-x86_64-mingw32/bin/../lib/gcc/nios2-elf/9.2.1/../../../../../H-x86_64-mingw32/nios2-elf/lib\libc.a(lib_a-fclose.o)
 .debug_frame   0x0000000000001904       0x48 c:/intelfpga_lite/20.1/nios2eds/bin/gnu/h-x86_64-mingw32/bin/../lib/gcc/nios2-elf/9.2.1/../../../../../H-x86_64-mingw32/nios2-elf/lib\libc.a(lib_a-fiprintf.o)
 .debug_frame   0x000000000000194c       0x78 c:/intelfpga_lite/20.1/nios2eds/bin/gnu/h-x86_64-mingw32/bin/../lib/gcc/nios2-elf/9.2.1/../../../../../H-x86_64-mingw32/nios2-elf/lib\libc.a(lib_a-fputwc.o)
 .debug_frame   0x00000000000019c4       0x60 c:/intelfpga_lite/20.1/nios2eds/bin/gnu/h-x86_64-mingw32/bin/../lib/gcc/nios2-elf/9.2.1/../../../../../H-x86_64-mingw32/nios2-elf/lib\libc.a(lib_a-locale.o)
 .debug_frame   0x0000000000001a24       0x40 c:/intelfpga_lite/20.1/nios2eds/bin/gnu/h-x86_64-mingw32/bin/../lib/gcc/nios2-elf/9.2.1/../../../../../H-x86_64-mingw32/nios2-elf/lib\libc.a(lib_a-mbtowc_r.o)
 .debug_frame   0x0000000000001a64       0x20 c:/intelfpga_lite/20.1/nios2eds/bin/gnu/h-x86_64-mingw32/bin/../lib/gcc/nios2-elf/9.2.1/../../../../../H-x86_64-mingw32/nios2-elf/lib\libc.a(lib_a-strcmp.o)
 .debug_frame   0x0000000000001a84       0x20 c:/intelfpga_lite/20.1/nios2eds/bin/gnu/h-x86_64-mingw32/bin/../lib/gcc/nios2-elf/9.2.1/../../../../../H-x86_64-mingw32/nios2-elf/lib\libc.a(lib_a-vfiprintfr_1.o)
 .debug_frame   0x0000000000001aa4       0x60 c:/intelfpga_lite/20.1/nios2eds/bin/gnu/h-x86_64-mingw32/bin/../lib/gcc/nios2-elf/9.2.1/../../../../../H-x86_64-mingw32/nios2-elf/lib\libc.a(lib_a-wcrtomb.o)
 .debug_frame   0x0000000000001b04       0x30 c:/intelfpga_lite/20.1/nios2eds/bin/gnu/h-x86_64-mingw32/bin/../lib/gcc/nios2-elf/9.2.1/../../../../../H-x86_64-mingw32/nios2-elf/lib\libc.a(lib_a-wctomb_r.o)
 .debug_frame   0x0000000000001b34       0x28 c:/intelfpga_lite/20.1/nios2eds/bin/gnu/h-x86_64-mingw32/bin/../lib/gcc/nios2-elf/9.2.1/../../../../../H-x86_64-mingw32/nios2-elf/lib\libc.a(lib_a-abort.o)
 .debug_frame   0x0000000000001b5c      0x12c c:/intelfpga_lite/20.1/nios2eds/bin/gnu/h-x86_64-mingw32/bin/../lib/gcc/nios2-elf/9.2.1/../../../../../H-x86_64-mingw32/nios2-elf/lib\libc.a(lib_a-signal.o)
 .debug_frame   0x0000000000001c88       0x4c c:/intelfpga_lite/20.1/nios2eds/bin/gnu/h-x86_64-mingw32/bin/../lib/gcc/nios2-elf/9.2.1/../../../../../H-x86_64-mingw32/nios2-elf/lib\libc.a(lib_a-signalr.o)
 .debug_frame   0x0000000000001cd4       0x54 c:/intelfpga_lite/20.1/nios2eds/bin/gnu/h-x86_64-mingw32/bin/../lib/gcc/nios2-elf/9.2.1\libgcc.a(_udivdi3.o)
 .debug_frame   0x0000000000001d28       0x54 c:/intelfpga_lite/20.1/nios2eds/bin/gnu/h-x86_64-mingw32/bin/../lib/gcc/nios2-elf/9.2.1\libgcc.a(_umoddi3.o)
 .debug_frame   0x0000000000001d7c       0x40 c:/intelfpga_lite/20.1/nios2eds/bin/gnu/h-x86_64-mingw32/bin/../lib/gcc/nios2-elf/9.2.1\libgcc.a(adddf3.o)
 .debug_frame   0x0000000000001dbc       0x58 c:/intelfpga_lite/20.1/nios2eds/bin/gnu/h-x86_64-mingw32/bin/../lib/gcc/nios2-elf/9.2.1\libgcc.a(divdf3.o)
 .debug_frame   0x0000000000001e14       0x20 c:/intelfpga_lite/20.1/nios2eds/bin/gnu/h-x86_64-mingw32/bin/../lib/gcc/nios2-elf/9.2.1\libgcc.a(eqdf2.o)
 .debug_frame   0x0000000000001e34       0x20 c:/intelfpga_lite/20.1/nios2eds/bin/gnu/h-x86_64-mingw32/bin/../lib/gcc/nios2-elf/9.2.1\libgcc.a(gedf2.o)
 .debug_frame   0x0000000000001e54       0x20 c:/intelfpga_lite/20.1/nios2eds/bin/gnu/h-x86_64-mingw32/bin/../lib/gcc/nios2-elf/9.2.1\libgcc.a(ledf2.o)
 .debug_frame   0x0000000000001e74       0x54 c:/intelfpga_lite/20.1/nios2eds/bin/gnu/h-x86_64-mingw32/bin/../lib/gcc/nios2-elf/9.2.1\libgcc.a(muldf3.o)
 .debug_frame   0x0000000000001ec8       0x44 c:/intelfpga_lite/20.1/nios2eds/bin/gnu/h-x86_64-mingw32/bin/../lib/gcc/nios2-elf/9.2.1\libgcc.a(subdf3.o)
 .debug_frame   0x0000000000001f0c       0x20 c:/intelfpga_lite/20.1/nios2eds/bin/gnu/h-x86_64-mingw32/bin/../lib/gcc/nios2-elf/9.2.1\libgcc.a(unorddf2.o)
 .debug_frame   0x0000000000001f2c       0x20 c:/intelfpga_lite/20.1/nios2eds/bin/gnu/h-x86_64-mingw32/bin/../lib/gcc/nios2-elf/9.2.1\libgcc.a(fixdfsi.o)
 .debug_frame   0x0000000000001f4c       0x38 c:/intelfpga_lite/20.1/nios2eds/bin/gnu/h-x86_64-mingw32/bin/../lib/gcc/nios2-elf/9.2.1\libgcc.a(floatsidf.o)
 .debug_frame   0x0000000000001f84       0x34 c:/intelfpga_lite/20.1/nios2eds/bin/gnu/h-x86_64-mingw32/bin/../lib/gcc/nios2-elf/9.2.1\libgcc.a(floatunsidf.o)
 .debug_frame   0x0000000000001fb8       0x20 c:/intelfpga_lite/20.1/nios2eds/bin/gnu/h-x86_64-mingw32/bin/../lib/gcc/nios2-elf/9.2.1\libgcc.a(_clzsi2.o)
 .debug_frame   0x0000000000001fd8       0x60 C:/Users/Emre/Documents/projectnios2/DE10_LITE_D8M_VIP_16/software/Vision_bsp\libhal_bsp.a(alt_close.o)
 .debug_frame   0x0000000000002038       0x34 C:/Users/Emre/Documents/projectnios2/DE10_LITE_D8M_VIP_16/software/Vision_bsp\libhal_bsp.a(alt_dev.o)
 .debug_frame   0x000000000000206c       0x2c C:/Users/Emre/Documents/projectnios2/DE10_LITE_D8M_VIP_16/software/Vision_bsp\libhal_bsp.a(alt_exit.o)
 .debug_frame   0x0000000000002098       0x60 C:/Users/Emre/Documents/projectnios2/DE10_LITE_D8M_VIP_16/software/Vision_bsp\libhal_bsp.a(alt_fcntl.o)
 .debug_frame   0x00000000000020f8       0x60 C:/Users/Emre/Documents/projectnios2/DE10_LITE_D8M_VIP_16/software/Vision_bsp\libhal_bsp.a(alt_fstat.o)
 .debug_frame   0x0000000000002158       0x34 C:/Users/Emre/Documents/projectnios2/DE10_LITE_D8M_VIP_16/software/Vision_bsp\libhal_bsp.a(alt_getpid.o)
 .debug_frame   0x000000000000218c       0x60 C:/Users/Emre/Documents/projectnios2/DE10_LITE_D8M_VIP_16/software/Vision_bsp\libhal_bsp.a(alt_isatty.o)
 .debug_frame   0x00000000000021ec       0x60 C:/Users/Emre/Documents/projectnios2/DE10_LITE_D8M_VIP_16/software/Vision_bsp\libhal_bsp.a(alt_kill.o)
 .debug_frame   0x000000000000224c       0x5c C:/Users/Emre/Documents/projectnios2/DE10_LITE_D8M_VIP_16/software/Vision_bsp\libhal_bsp.a(alt_load.o)
 .debug_frame   0x00000000000022a8       0x60 C:/Users/Emre/Documents/projectnios2/DE10_LITE_D8M_VIP_16/software/Vision_bsp\libhal_bsp.a(alt_lseek.o)
 .debug_frame   0x0000000000002308       0x2c C:/Users/Emre/Documents/projectnios2/DE10_LITE_D8M_VIP_16/software/Vision_bsp\libhal_bsp.a(alt_main.o)
 .debug_frame   0x0000000000002334       0x58 C:/Users/Emre/Documents/projectnios2/DE10_LITE_D8M_VIP_16/software/Vision_bsp\libhal_bsp.a(alt_malloc_lock.o)
 .debug_frame   0x000000000000238c       0x84 C:/Users/Emre/Documents/projectnios2/DE10_LITE_D8M_VIP_16/software/Vision_bsp\libhal_bsp.a(alt_open.o)
 .debug_frame   0x0000000000002410       0x60 C:/Users/Emre/Documents/projectnios2/DE10_LITE_D8M_VIP_16/software/Vision_bsp\libhal_bsp.a(alt_read.o)
 .debug_frame   0x0000000000002470       0x34 C:/Users/Emre/Documents/projectnios2/DE10_LITE_D8M_VIP_16/software/Vision_bsp\libhal_bsp.a(alt_release_fd.o)
 .debug_frame   0x00000000000024a4       0x34 C:/Users/Emre/Documents/projectnios2/DE10_LITE_D8M_VIP_16/software/Vision_bsp\libhal_bsp.a(alt_sbrk.o)
 .debug_frame   0x00000000000024d8       0x5c C:/Users/Emre/Documents/projectnios2/DE10_LITE_D8M_VIP_16/software/Vision_bsp\libhal_bsp.a(alt_tick.o)
 .debug_frame   0x0000000000002534       0x38 C:/Users/Emre/Documents/projectnios2/DE10_LITE_D8M_VIP_16/software/Vision_bsp\libhal_bsp.a(alt_usleep.o)
 .debug_frame   0x000000000000256c       0x60 C:/Users/Emre/Documents/projectnios2/DE10_LITE_D8M_VIP_16/software/Vision_bsp\libhal_bsp.a(alt_write.o)
 .debug_frame   0x00000000000025cc       0x88 C:/Users/Emre/Documents/projectnios2/DE10_LITE_D8M_VIP_16/software/Vision_bsp\libhal_bsp.a(alt_sys_init.o)
 .debug_frame   0x0000000000002654       0xb0 C:/Users/Emre/Documents/projectnios2/DE10_LITE_D8M_VIP_16/software/Vision_bsp\libhal_bsp.a(altera_avalon_jtag_uart_fd.o)
 .debug_frame   0x0000000000002704       0xa4 C:/Users/Emre/Documents/projectnios2/DE10_LITE_D8M_VIP_16/software/Vision_bsp\libhal_bsp.a(altera_avalon_jtag_uart_init.o)
 .debug_frame   0x00000000000027a8       0x34 C:/Users/Emre/Documents/projectnios2/DE10_LITE_D8M_VIP_16/software/Vision_bsp\libhal_bsp.a(altera_avalon_jtag_uart_ioctl.o)
 .debug_frame   0x00000000000027dc       0x38 C:/Users/Emre/Documents/projectnios2/DE10_LITE_D8M_VIP_16/software/Vision_bsp\libhal_bsp.a(altera_avalon_jtag_uart_read.o)
 .debug_frame   0x0000000000002814       0x38 C:/Users/Emre/Documents/projectnios2/DE10_LITE_D8M_VIP_16/software/Vision_bsp\libhal_bsp.a(altera_avalon_jtag_uart_write.o)
 .debug_frame   0x000000000000284c       0x60 C:/Users/Emre/Documents/projectnios2/DE10_LITE_D8M_VIP_16/software/Vision_bsp\libhal_bsp.a(altera_avalon_timer_sc.o)
 .debug_frame   0x00000000000028ac       0x88 C:/Users/Emre/Documents/projectnios2/DE10_LITE_D8M_VIP_16/software/Vision_bsp\libhal_bsp.a(altera_avalon_uart_fd.o)
 .debug_frame   0x0000000000002934       0xcc C:/Users/Emre/Documents/projectnios2/DE10_LITE_D8M_VIP_16/software/Vision_bsp\libhal_bsp.a(altera_avalon_uart_init.o)
 .debug_frame   0x0000000000002a00       0x60 C:/Users/Emre/Documents/projectnios2/DE10_LITE_D8M_VIP_16/software/Vision_bsp\libhal_bsp.a(altera_avalon_uart_read.o)
 .debug_frame   0x0000000000002a60       0x60 C:/Users/Emre/Documents/projectnios2/DE10_LITE_D8M_VIP_16/software/Vision_bsp\libhal_bsp.a(altera_avalon_uart_write.o)
 .debug_frame   0x0000000000002ac0       0x34 C:/Users/Emre/Documents/projectnios2/DE10_LITE_D8M_VIP_16/software/Vision_bsp\libhal_bsp.a(alt_alarm_start.o)
 .debug_frame   0x0000000000002af4       0x38 C:/Users/Emre/Documents/projectnios2/DE10_LITE_D8M_VIP_16/software/Vision_bsp\libhal_bsp.a(alt_busy_sleep.o)
 .debug_frame   0x0000000000002b2c       0x34 C:/Users/Emre/Documents/projectnios2/DE10_LITE_D8M_VIP_16/software/Vision_bsp\libhal_bsp.a(alt_dcache_flush_all.o)
 .debug_frame   0x0000000000002b60       0x60 C:/Users/Emre/Documents/projectnios2/DE10_LITE_D8M_VIP_16/software/Vision_bsp\libhal_bsp.a(alt_dev_llist_insert.o)
 .debug_frame   0x0000000000002bc0       0x38 C:/Users/Emre/Documents/projectnios2/DE10_LITE_D8M_VIP_16/software/Vision_bsp\libhal_bsp.a(alt_do_ctors.o)
 .debug_frame   0x0000000000002bf8       0x38 C:/Users/Emre/Documents/projectnios2/DE10_LITE_D8M_VIP_16/software/Vision_bsp\libhal_bsp.a(alt_do_dtors.o)
 .debug_frame   0x0000000000002c30       0x38 C:/Users/Emre/Documents/projectnios2/DE10_LITE_D8M_VIP_16/software/Vision_bsp\libhal_bsp.a(alt_find_dev.o)
 .debug_frame   0x0000000000002c68       0x38 C:/Users/Emre/Documents/projectnios2/DE10_LITE_D8M_VIP_16/software/Vision_bsp\libhal_bsp.a(alt_find_file.o)
 .debug_frame   0x0000000000002ca0       0x34 C:/Users/Emre/Documents/projectnios2/DE10_LITE_D8M_VIP_16/software/Vision_bsp\libhal_bsp.a(alt_get_fd.o)
 .debug_frame   0x0000000000002cd4       0x38 C:/Users/Emre/Documents/projectnios2/DE10_LITE_D8M_VIP_16/software/Vision_bsp\libhal_bsp.a(alt_icache_flush_all.o)
 .debug_frame   0x0000000000002d0c       0xa4 C:/Users/Emre/Documents/projectnios2/DE10_LITE_D8M_VIP_16/software/Vision_bsp\libhal_bsp.a(alt_iic.o)
 .debug_frame   0x0000000000002db0       0x38 C:/Users/Emre/Documents/projectnios2/DE10_LITE_D8M_VIP_16/software/Vision_bsp\libhal_bsp.a(alt_iic_isr_register.o)
 .debug_frame   0x0000000000002de8       0x60 C:/Users/Emre/Documents/projectnios2/DE10_LITE_D8M_VIP_16/software/Vision_bsp\libhal_bsp.a(alt_io_redirect.o)
 .debug_frame   0x0000000000002e48       0x38 C:/Users/Emre/Documents/projectnios2/DE10_LITE_D8M_VIP_16/software/Vision_bsp\libhal_bsp.a(alt_irq_handler.o)
 .debug_frame   0x0000000000002e80       0x34 C:/Users/Emre/Documents/projectnios2/DE10_LITE_D8M_VIP_16/software/Vision_bsp\libhal_bsp.a(altera_nios2_gen2_irq.o)
 .debug_frame   0x0000000000002eb4       0x34 C:/Users/Emre/Documents/projectnios2/DE10_LITE_D8M_VIP_16/software/Vision_bsp\libhal_bsp.a(alt_icache_flush.o)
 .debug_frame   0x0000000000002ee8       0x5c C:/Users/Emre/Documents/projectnios2/DE10_LITE_D8M_VIP_16/software/Vision_bsp\libhal_bsp.a(alt_instruction_exception_entry.o)
 .debug_frame   0x0000000000002f44       0x20 c:/intelfpga_lite/20.1/nios2eds/bin/gnu/h-x86_64-mingw32/bin/../lib/gcc/nios2-elf/9.2.1/../../../../../H-x86_64-mingw32/nios2-elf/lib\libc.a(lib_a-atexit.o)
 .debug_frame   0x0000000000002f64       0x28 c:/intelfpga_lite/20.1/nios2eds/bin/gnu/h-x86_64-mingw32/bin/../lib/gcc/nios2-elf/9.2.1/../../../../../H-x86_64-mingw32/nios2-elf/lib\libc.a(lib_a-exit.o)
 .debug_frame   0x0000000000002f8c       0x20 c:/intelfpga_lite/20.1/nios2eds/bin/gnu/h-x86_64-mingw32/bin/../lib/gcc/nios2-elf/9.2.1/../../../../../H-x86_64-mingw32/nios2-elf/lib\libc.a(lib_a-memcmp.o)
 .debug_frame   0x0000000000002fac       0x20 c:/intelfpga_lite/20.1/nios2eds/bin/gnu/h-x86_64-mingw32/bin/../lib/gcc/nios2-elf/9.2.1/../../../../../H-x86_64-mingw32/nios2-elf/lib\libc.a(lib_a-__atexit.o)
 .debug_frame   0x0000000000002fcc       0x54 c:/intelfpga_lite/20.1/nios2eds/bin/gnu/h-x86_64-mingw32/bin/../lib/gcc/nios2-elf/9.2.1/../../../../../H-x86_64-mingw32/nios2-elf/lib\libc.a(lib_a-__call_atexit.o)

.debug_str      0x0000000000000000     0x4c89
 *(.debug_str)
 .debug_str     0x0000000000000000       0x6c C:/Users/Emre/Documents/projectnios2/DE10_LITE_D8M_VIP_16/software/Vision_bsp/obj/HAL/src/crt0.o
 .debug_str     0x000000000000006c      0x6f0 obj/default/I2C_core.o
                                        0x7c8 (size before relaxing)
 .debug_str     0x000000000000075c       0xad obj/default/auto_focus.o
                                        0x6c1 (size before relaxing)
 .debug_str     0x0000000000000809       0xed obj/default/main.o
                                        0x704 (size before relaxing)
 .debug_str     0x00000000000008f6       0x79 obj/default/mipi_bridge_config.o
                                        0x690 (size before relaxing)
 .debug_str     0x000000000000096f      0x110 obj/default/mipi_camera_config.o
                                        0x740 (size before relaxing)
 .debug_str     0x0000000000000a7f       0x98 obj/default/queue.o
                                        0x68b (size before relaxing)
 .debug_str     0x0000000000000b17      0x179 c:/intelfpga_lite/20.1/nios2eds/bin/gnu/h-x86_64-mingw32/bin/../lib/gcc/nios2-elf/9.2.1\libgcc.a(lib2-divmod.o)
                                        0x1c4 (size before relaxing)
 .debug_str     0x0000000000000c90      0x270 c:/intelfpga_lite/20.1/nios2eds/bin/gnu/h-x86_64-mingw32/bin/../lib/gcc/nios2-elf/9.2.1/../../../../../H-x86_64-mingw32/nios2-elf/lib\libc.a(lib_a-fopen.o)
                                        0x751 (size before relaxing)
 .debug_str     0x0000000000000f00       0x51 c:/intelfpga_lite/20.1/nios2eds/bin/gnu/h-x86_64-mingw32/bin/../lib/gcc/nios2-elf/9.2.1/../../../../../H-x86_64-mingw32/nios2-elf/lib\libc.a(lib_a-fseek.o)
                                        0x70c (size before relaxing)
 .debug_str     0x0000000000000f51      0x1b0 c:/intelfpga_lite/20.1/nios2eds/bin/gnu/h-x86_64-mingw32/bin/../lib/gcc/nios2-elf/9.2.1/../../../../../H-x86_64-mingw32/nios2-elf/lib\libc.a(lib_a-fseeko.o)
                                        0x8db (size before relaxing)
 .debug_str     0x0000000000001101       0xcb c:/intelfpga_lite/20.1/nios2eds/bin/gnu/h-x86_64-mingw32/bin/../lib/gcc/nios2-elf/9.2.1/../../../../../H-x86_64-mingw32/nios2-elf/lib\libc.a(lib_a-fstatr.o)
                                        0x738 (size before relaxing)
 .debug_str     0x00000000000011cc       0x95 c:/intelfpga_lite/20.1/nios2eds/bin/gnu/h-x86_64-mingw32/bin/../lib/gcc/nios2-elf/9.2.1/../../../../../H-x86_64-mingw32/nios2-elf/lib\libc.a(lib_a-fwrite.o)
                                        0x753 (size before relaxing)
 .debug_str     0x0000000000001261       0x57 c:/intelfpga_lite/20.1/nios2eds/bin/gnu/h-x86_64-mingw32/bin/../lib/gcc/nios2-elf/9.2.1/../../../../../H-x86_64-mingw32/nios2-elf/lib\libc.a(lib_a-getchar.o)
                                        0x6ec (size before relaxing)
 .debug_str     0x00000000000012b8       0x47 c:/intelfpga_lite/20.1/nios2eds/bin/gnu/h-x86_64-mingw32/bin/../lib/gcc/nios2-elf/9.2.1/../../../../../H-x86_64-mingw32/nios2-elf/lib\libc.a(lib_a-impure.o)
                                        0x59b (size before relaxing)
 .debug_str     0x00000000000012ff       0x3e c:/intelfpga_lite/20.1/nios2eds/bin/gnu/h-x86_64-mingw32/bin/../lib/gcc/nios2-elf/9.2.1/../../../../../H-x86_64-mingw32/nios2-elf/lib\libc.a(lib_a-int_errno.o)
                                        0x5a2 (size before relaxing)
 .debug_str     0x000000000000133d       0x75 c:/intelfpga_lite/20.1/nios2eds/bin/gnu/h-x86_64-mingw32/bin/../lib/gcc/nios2-elf/9.2.1/../../../../../H-x86_64-mingw32/nios2-elf/lib\libc.a(lib_a-makebuf.o)
                                        0x892 (size before relaxing)
 .debug_str     0x00000000000013b2       0xcd c:/intelfpga_lite/20.1/nios2eds/bin/gnu/h-x86_64-mingw32/bin/../lib/gcc/nios2-elf/9.2.1/../../../../../H-x86_64-mingw32/nios2-elf/lib\libc.a(lib_a-malloc.o)
                                        0x5cc (size before relaxing)
 .debug_str     0x000000000000147f      0x21f c:/intelfpga_lite/20.1/nios2eds/bin/gnu/h-x86_64-mingw32/bin/../lib/gcc/nios2-elf/9.2.1/../../../../../H-x86_64-mingw32/nios2-elf/lib\libc.a(lib_a-mallocr.o)
                                        0x803 (size before relaxing)
 .debug_str     0x000000000000169e      0x327 c:/intelfpga_lite/20.1/nios2eds/bin/gnu/h-x86_64-mingw32/bin/../lib/gcc/nios2-elf/9.2.1/../../../../../H-x86_64-mingw32/nios2-elf/lib\libc.a(lib_a-memset.o)
                                        0x8c8 (size before relaxing)
 .debug_str     0x00000000000019c5       0x3a c:/intelfpga_lite/20.1/nios2eds/bin/gnu/h-x86_64-mingw32/bin/../lib/gcc/nios2-elf/9.2.1/../../../../../H-x86_64-mingw32/nios2-elf/lib\libc.a(lib_a-openr.o)
                                        0x5fa (size before relaxing)
 .debug_str     0x00000000000019ff       0x91 c:/intelfpga_lite/20.1/nios2eds/bin/gnu/h-x86_64-mingw32/bin/../lib/gcc/nios2-elf/9.2.1/../../../../../H-x86_64-mingw32/nios2-elf/lib\libc.a(lib_a-printf.o)
                                        0x72f (size before relaxing)
 .debug_str     0x0000000000001a90       0x57 c:/intelfpga_lite/20.1/nios2eds/bin/gnu/h-x86_64-mingw32/bin/../lib/gcc/nios2-elf/9.2.1/../../../../../H-x86_64-mingw32/nios2-elf/lib\libc.a(lib_a-putchar.o)
                                        0x6ec (size before relaxing)
 .debug_str     0x0000000000001ae7       0x4d c:/intelfpga_lite/20.1/nios2eds/bin/gnu/h-x86_64-mingw32/bin/../lib/gcc/nios2-elf/9.2.1/../../../../../H-x86_64-mingw32/nios2-elf/lib\libc.a(lib_a-puts.o)
                                        0x750 (size before relaxing)
 .debug_str     0x0000000000001b34       0x66 c:/intelfpga_lite/20.1/nios2eds/bin/gnu/h-x86_64-mingw32/bin/../lib/gcc/nios2-elf/9.2.1/../../../../../H-x86_64-mingw32/nios2-elf/lib\libc.a(lib_a-refill.o)
                                        0x754 (size before relaxing)
 .debug_str     0x0000000000001b9a       0x4e c:/intelfpga_lite/20.1/nios2eds/bin/gnu/h-x86_64-mingw32/bin/../lib/gcc/nios2-elf/9.2.1/../../../../../H-x86_64-mingw32/nios2-elf/lib\libc.a(lib_a-sbrkr.o)
                                        0x5dd (size before relaxing)
 .debug_str     0x0000000000001be8       0x93 c:/intelfpga_lite/20.1/nios2eds/bin/gnu/h-x86_64-mingw32/bin/../lib/gcc/nios2-elf/9.2.1/../../../../../H-x86_64-mingw32/nios2-elf/lib\libc.a(lib_a-stdio.o)
                                        0x765 (size before relaxing)
 .debug_str     0x0000000000001c7b       0x3c c:/intelfpga_lite/20.1/nios2eds/bin/gnu/h-x86_64-mingw32/bin/../lib/gcc/nios2-elf/9.2.1/../../../../../H-x86_64-mingw32/nios2-elf/lib\libc.a(lib_a-strlen.o)
                                        0x5b2 (size before relaxing)
 .debug_str     0x0000000000001cb7      0x1e5 c:/intelfpga_lite/20.1/nios2eds/bin/gnu/h-x86_64-mingw32/bin/../lib/gcc/nios2-elf/9.2.1/../../../../../H-x86_64-mingw32/nios2-elf/lib\libc.a(lib_a-vfprintf.o)
                                        0xcc6 (size before relaxing)
 .debug_str     0x0000000000001e9c       0x3b c:/intelfpga_lite/20.1/nios2eds/bin/gnu/h-x86_64-mingw32/bin/../lib/gcc/nios2-elf/9.2.1/../../../../../H-x86_64-mingw32/nios2-elf/lib\libc.a(lib_a-writer.o)
                                        0x5e1 (size before relaxing)
 .debug_str     0x0000000000001ed7       0x3b c:/intelfpga_lite/20.1/nios2eds/bin/gnu/h-x86_64-mingw32/bin/../lib/gcc/nios2-elf/9.2.1/../../../../../H-x86_64-mingw32/nios2-elf/lib\libc.a(lib_a-wsetup.o)
                                        0x71f (size before relaxing)
 .debug_str     0x0000000000001f12       0x3b c:/intelfpga_lite/20.1/nios2eds/bin/gnu/h-x86_64-mingw32/bin/../lib/gcc/nios2-elf/9.2.1/../../../../../H-x86_64-mingw32/nios2-elf/lib\libc.a(closer.o)
                                        0x5d1 (size before relaxing)
 .debug_str     0x0000000000001f4d      0x197 c:/intelfpga_lite/20.1/nios2eds/bin/gnu/h-x86_64-mingw32/bin/../lib/gcc/nios2-elf/9.2.1/../../../../../H-x86_64-mingw32/nios2-elf/lib\libc.a(lib_a-dtoa.o)
                                        0xaa9 (size before relaxing)
 .debug_str     0x00000000000020e4       0x52 c:/intelfpga_lite/20.1/nios2eds/bin/gnu/h-x86_64-mingw32/bin/../lib/gcc/nios2-elf/9.2.1/../../../../../H-x86_64-mingw32/nios2-elf/lib\libc.a(lib_a-fflush.o)
                                        0x74d (size before relaxing)
 .debug_str     0x0000000000002136      0x135 c:/intelfpga_lite/20.1/nios2eds/bin/gnu/h-x86_64-mingw32/bin/../lib/gcc/nios2-elf/9.2.1/../../../../../H-x86_64-mingw32/nios2-elf/lib\libc.a(lib_a-findfp.o)
                                        0x86e (size before relaxing)
 .debug_str     0x000000000000226b       0x3f c:/intelfpga_lite/20.1/nios2eds/bin/gnu/h-x86_64-mingw32/bin/../lib/gcc/nios2-elf/9.2.1/../../../../../H-x86_64-mingw32/nios2-elf/lib\libc.a(lib_a-flags.o)
                                        0x5d4 (size before relaxing)
 .debug_str     0x00000000000022aa       0x34 c:/intelfpga_lite/20.1/nios2eds/bin/gnu/h-x86_64-mingw32/bin/../lib/gcc/nios2-elf/9.2.1/../../../../../H-x86_64-mingw32/nios2-elf/lib\libc.a(lib_a-freer.o)
                                        0x77c (size before relaxing)
 .debug_str     0x00000000000022de       0x6d c:/intelfpga_lite/20.1/nios2eds/bin/gnu/h-x86_64-mingw32/bin/../lib/gcc/nios2-elf/9.2.1/../../../../../H-x86_64-mingw32/nios2-elf/lib\libc.a(lib_a-fvwrite.o)
                                        0x7af (size before relaxing)
 .debug_str     0x000000000000234b       0x49 c:/intelfpga_lite/20.1/nios2eds/bin/gnu/h-x86_64-mingw32/bin/../lib/gcc/nios2-elf/9.2.1/../../../../../H-x86_64-mingw32/nios2-elf/lib\libc.a(lib_a-fwalk.o)
                                        0x711 (size before relaxing)
 .debug_str     0x0000000000002394       0x48 c:/intelfpga_lite/20.1/nios2eds/bin/gnu/h-x86_64-mingw32/bin/../lib/gcc/nios2-elf/9.2.1/../../../../../H-x86_64-mingw32/nios2-elf/lib\libc.a(lib_a-getc.o)
                                        0x709 (size before relaxing)
 .debug_str     0x00000000000023dc       0x43 c:/intelfpga_lite/20.1/nios2eds/bin/gnu/h-x86_64-mingw32/bin/../lib/gcc/nios2-elf/9.2.1/../../../../../H-x86_64-mingw32/nios2-elf/lib\libc.a(lib_a-isattyr.o)
                                        0x5d4 (size before relaxing)
 .debug_str     0x000000000000241f      0x127 c:/intelfpga_lite/20.1/nios2eds/bin/gnu/h-x86_64-mingw32/bin/../lib/gcc/nios2-elf/9.2.1/../../../../../H-x86_64-mingw32/nios2-elf/lib\libc.a(lib_a-localeconv.o)
                                        0x92d (size before relaxing)
 .debug_str     0x0000000000002546       0x41 c:/intelfpga_lite/20.1/nios2eds/bin/gnu/h-x86_64-mingw32/bin/../lib/gcc/nios2-elf/9.2.1/../../../../../H-x86_64-mingw32/nios2-elf/lib\libc.a(lib_a-lseekr.o)
                                        0x5d8 (size before relaxing)
 .debug_str     0x0000000000002587       0x4a c:/intelfpga_lite/20.1/nios2eds/bin/gnu/h-x86_64-mingw32/bin/../lib/gcc/nios2-elf/9.2.1/../../../../../H-x86_64-mingw32/nios2-elf/lib\libc.a(lib_a-memchr.o)
                                        0x5b9 (size before relaxing)
 .debug_str     0x00000000000025d1       0x63 c:/intelfpga_lite/20.1/nios2eds/bin/gnu/h-x86_64-mingw32/bin/../lib/gcc/nios2-elf/9.2.1/../../../../../H-x86_64-mingw32/nios2-elf/lib\libc.a(lib_a-memcpy.o)
                                        0x8db (size before relaxing)
 .debug_str     0x0000000000002634       0x46 c:/intelfpga_lite/20.1/nios2eds/bin/gnu/h-x86_64-mingw32/bin/../lib/gcc/nios2-elf/9.2.1/../../../../../H-x86_64-mingw32/nios2-elf/lib\libc.a(lib_a-memmove.o)
                                        0x8e7 (size before relaxing)
 .debug_str     0x000000000000267a       0x95 c:/intelfpga_lite/20.1/nios2eds/bin/gnu/h-x86_64-mingw32/bin/../lib/gcc/nios2-elf/9.2.1/../../../../../H-x86_64-mingw32/nios2-elf/lib\libc.a(lib_a-mprec.o)
                                        0xa52 (size before relaxing)
 .debug_str     0x000000000000270f       0x48 c:/intelfpga_lite/20.1/nios2eds/bin/gnu/h-x86_64-mingw32/bin/../lib/gcc/nios2-elf/9.2.1/../../../../../H-x86_64-mingw32/nios2-elf/lib\libc.a(lib_a-putc.o)
                                        0x709 (size before relaxing)
 .debug_str     0x0000000000002757       0x3a c:/intelfpga_lite/20.1/nios2eds/bin/gnu/h-x86_64-mingw32/bin/../lib/gcc/nios2-elf/9.2.1/../../../../../H-x86_64-mingw32/nios2-elf/lib\libc.a(lib_a-readr.o)
                                        0x5de (size before relaxing)
 .debug_str     0x0000000000002791       0x4e c:/intelfpga_lite/20.1/nios2eds/bin/gnu/h-x86_64-mingw32/bin/../lib/gcc/nios2-elf/9.2.1/../../../../../H-x86_64-mingw32/nios2-elf/lib\libc.a(lib_a-reallocr.o)
                                        0x7ba (size before relaxing)
 .debug_str     0x00000000000027df       0x41 c:/intelfpga_lite/20.1/nios2eds/bin/gnu/h-x86_64-mingw32/bin/../lib/gcc/nios2-elf/9.2.1/../../../../../H-x86_64-mingw32/nios2-elf/lib\libc.a(lib_a-rget.o)
                                        0x71a (size before relaxing)
 .debug_str     0x0000000000002820       0x37 c:/intelfpga_lite/20.1/nios2eds/bin/gnu/h-x86_64-mingw32/bin/../lib/gcc/nios2-elf/9.2.1/../../../../../H-x86_64-mingw32/nios2-elf/lib\libc.a(lib_a-vfiprintf.o)
                                        0xc2e (size before relaxing)
 .debug_str     0x0000000000002857       0x41 c:/intelfpga_lite/20.1/nios2eds/bin/gnu/h-x86_64-mingw32/bin/../lib/gcc/nios2-elf/9.2.1/../../../../../H-x86_64-mingw32/nios2-elf/lib\libc.a(lib_a-wbuf.o)
                                        0x724 (size before relaxing)
 .debug_str     0x0000000000002898       0x64 c:/intelfpga_lite/20.1/nios2eds/bin/gnu/h-x86_64-mingw32/bin/../lib/gcc/nios2-elf/9.2.1/../../../../../H-x86_64-mingw32/nios2-elf/lib\libc.a(lib_a-assert.o)
                                        0x5db (size before relaxing)
 .debug_str     0x00000000000028fc        0xf c:/intelfpga_lite/20.1/nios2eds/bin/gnu/h-x86_64-mingw32/bin/../lib/gcc/nios2-elf/9.2.1/../../../../../H-x86_64-mingw32/nios2-elf/lib\libc.a(lib_a-callocr.o)
                                        0x738 (size before relaxing)
 .debug_str     0x000000000000290b       0x4c c:/intelfpga_lite/20.1/nios2eds/bin/gnu/h-x86_64-mingw32/bin/../lib/gcc/nios2-elf/9.2.1/../../../../../H-x86_64-mingw32/nios2-elf/lib\libc.a(lib_a-fclose.o)
                                        0x736 (size before relaxing)
 .debug_str     0x0000000000002957       0x56 c:/intelfpga_lite/20.1/nios2eds/bin/gnu/h-x86_64-mingw32/bin/../lib/gcc/nios2-elf/9.2.1/../../../../../H-x86_64-mingw32/nios2-elf/lib\libc.a(lib_a-fiprintf.o)
                                        0x5e1 (size before relaxing)
 .debug_str     0x00000000000029ad       0x63 c:/intelfpga_lite/20.1/nios2eds/bin/gnu/h-x86_64-mingw32/bin/../lib/gcc/nios2-elf/9.2.1/../../../../../H-x86_64-mingw32/nios2-elf/lib\libc.a(lib_a-fputwc.o)
                                        0x756 (size before relaxing)
 .debug_str     0x0000000000002a10       0x80 c:/intelfpga_lite/20.1/nios2eds/bin/gnu/h-x86_64-mingw32/bin/../lib/gcc/nios2-elf/9.2.1/../../../../../H-x86_64-mingw32/nios2-elf/lib\libc.a(lib_a-locale.o)
                                        0x976 (size before relaxing)
 .debug_str     0x0000000000002a90       0x5d c:/intelfpga_lite/20.1/nios2eds/bin/gnu/h-x86_64-mingw32/bin/../lib/gcc/nios2-elf/9.2.1/../../../../../H-x86_64-mingw32/nios2-elf/lib\libc.a(lib_a-mbtowc_r.o)
                                        0x93e (size before relaxing)
 .debug_str     0x0000000000002aed       0x3c c:/intelfpga_lite/20.1/nios2eds/bin/gnu/h-x86_64-mingw32/bin/../lib/gcc/nios2-elf/9.2.1/../../../../../H-x86_64-mingw32/nios2-elf/lib\libc.a(lib_a-strcmp.o)
                                        0x598 (size before relaxing)
 .debug_str     0x0000000000002b29       0x41 c:/intelfpga_lite/20.1/nios2eds/bin/gnu/h-x86_64-mingw32/bin/../lib/gcc/nios2-elf/9.2.1/../../../../../H-x86_64-mingw32/nios2-elf/lib\libc.a(lib_a-vfiprintfr_1.o)
                                        0x728 (size before relaxing)
 .debug_str     0x0000000000002b6a       0x4c c:/intelfpga_lite/20.1/nios2eds/bin/gnu/h-x86_64-mingw32/bin/../lib/gcc/nios2-elf/9.2.1/../../../../../H-x86_64-mingw32/nios2-elf/lib\libc.a(lib_a-wcrtomb.o)
                                        0x938 (size before relaxing)
 .debug_str     0x0000000000002bb6       0x5e c:/intelfpga_lite/20.1/nios2eds/bin/gnu/h-x86_64-mingw32/bin/../lib/gcc/nios2-elf/9.2.1/../../../../../H-x86_64-mingw32/nios2-elf/lib\libc.a(lib_a-wctomb_r.o)
                                        0x945 (size before relaxing)
 .debug_str     0x0000000000002c14       0x41 c:/intelfpga_lite/20.1/nios2eds/bin/gnu/h-x86_64-mingw32/bin/../lib/gcc/nios2-elf/9.2.1/../../../../../H-x86_64-mingw32/nios2-elf/lib\libc.a(lib_a-abort.o)
                                        0x5d9 (size before relaxing)
 .debug_str     0x0000000000002c55       0xbf c:/intelfpga_lite/20.1/nios2eds/bin/gnu/h-x86_64-mingw32/bin/../lib/gcc/nios2-elf/9.2.1/../../../../../H-x86_64-mingw32/nios2-elf/lib\libc.a(lib_a-ctype_.o)
                                        0x8bc (size before relaxing)
 .debug_str     0x0000000000002d14      0x127 c:/intelfpga_lite/20.1/nios2eds/bin/gnu/h-x86_64-mingw32/bin/../lib/gcc/nios2-elf/9.2.1/../../../../../H-x86_64-mingw32/nios2-elf/lib\libc.a(lib_a-signal.o)
                                        0x63e (size before relaxing)
 .debug_str     0x0000000000002e3b       0x48 c:/intelfpga_lite/20.1/nios2eds/bin/gnu/h-x86_64-mingw32/bin/../lib/gcc/nios2-elf/9.2.1/../../../../../H-x86_64-mingw32/nios2-elf/lib\libc.a(lib_a-signalr.o)
                                        0x5e1 (size before relaxing)
 .debug_str     0x0000000000002e83      0x1de c:/intelfpga_lite/20.1/nios2eds/bin/gnu/h-x86_64-mingw32/bin/../lib/gcc/nios2-elf/9.2.1\libgcc.a(_udivdi3.o)
                                        0x2f6 (size before relaxing)
 .debug_str     0x0000000000003061        0xa c:/intelfpga_lite/20.1/nios2eds/bin/gnu/h-x86_64-mingw32/bin/../lib/gcc/nios2-elf/9.2.1\libgcc.a(_umoddi3.o)
                                        0x2f6 (size before relaxing)
 .debug_str     0x000000000000306b      0x183 c:/intelfpga_lite/20.1/nios2eds/bin/gnu/h-x86_64-mingw32/bin/../lib/gcc/nios2-elf/9.2.1\libgcc.a(adddf3.o)
                                        0x318 (size before relaxing)
 .debug_str     0x00000000000031ee      0x19a c:/intelfpga_lite/20.1/nios2eds/bin/gnu/h-x86_64-mingw32/bin/../lib/gcc/nios2-elf/9.2.1\libgcc.a(divdf3.o)
                                        0x3da (size before relaxing)
 .debug_str     0x0000000000003388       0x47 c:/intelfpga_lite/20.1/nios2eds/bin/gnu/h-x86_64-mingw32/bin/../lib/gcc/nios2-elf/9.2.1\libgcc.a(eqdf2.o)
                                        0x224 (size before relaxing)
 .debug_str     0x00000000000033cf       0x5a c:/intelfpga_lite/20.1/nios2eds/bin/gnu/h-x86_64-mingw32/bin/../lib/gcc/nios2-elf/9.2.1\libgcc.a(gedf2.o)
                                        0x248 (size before relaxing)
 .debug_str     0x0000000000003429       0x36 c:/intelfpga_lite/20.1/nios2eds/bin/gnu/h-x86_64-mingw32/bin/../lib/gcc/nios2-elf/9.2.1\libgcc.a(ledf2.o)
                                        0x248 (size before relaxing)
 .debug_str     0x000000000000345f      0x15d c:/intelfpga_lite/20.1/nios2eds/bin/gnu/h-x86_64-mingw32/bin/../lib/gcc/nios2-elf/9.2.1\libgcc.a(muldf3.o)
                                        0x432 (size before relaxing)
 .debug_str     0x00000000000035bc       0x38 c:/intelfpga_lite/20.1/nios2eds/bin/gnu/h-x86_64-mingw32/bin/../lib/gcc/nios2-elf/9.2.1\libgcc.a(subdf3.o)
                                        0x318 (size before relaxing)
 .debug_str     0x00000000000035f4       0x3c c:/intelfpga_lite/20.1/nios2eds/bin/gnu/h-x86_64-mingw32/bin/../lib/gcc/nios2-elf/9.2.1\libgcc.a(unorddf2.o)
                                        0x22a (size before relaxing)
 .debug_str     0x0000000000003630       0x4d c:/intelfpga_lite/20.1/nios2eds/bin/gnu/h-x86_64-mingw32/bin/../lib/gcc/nios2-elf/9.2.1\libgcc.a(fixdfsi.o)
                                        0x22f (size before relaxing)
 .debug_str     0x000000000000367d       0x6b c:/intelfpga_lite/20.1/nios2eds/bin/gnu/h-x86_64-mingw32/bin/../lib/gcc/nios2-elf/9.2.1\libgcc.a(floatsidf.o)
                                        0x2ca (size before relaxing)
 .debug_str     0x00000000000036e8       0x42 c:/intelfpga_lite/20.1/nios2eds/bin/gnu/h-x86_64-mingw32/bin/../lib/gcc/nios2-elf/9.2.1\libgcc.a(floatunsidf.o)
                                        0x2c7 (size before relaxing)
 .debug_str     0x000000000000372a      0x23d c:/intelfpga_lite/20.1/nios2eds/bin/gnu/h-x86_64-mingw32/bin/../lib/gcc/nios2-elf/9.2.1\libgcc.a(_clz.o)
 .debug_str     0x000000000000372a        0x9 c:/intelfpga_lite/20.1/nios2eds/bin/gnu/h-x86_64-mingw32/bin/../lib/gcc/nios2-elf/9.2.1\libgcc.a(_clzsi2.o)
                                        0x25a (size before relaxing)
 .debug_str     0x0000000000003733       0x98 C:/Users/Emre/Documents/projectnios2/DE10_LITE_D8M_VIP_16/software/Vision_bsp\libhal_bsp.a(alt_close.o)
                                        0x65d (size before relaxing)
 .debug_str     0x00000000000037cb       0x32 C:/Users/Emre/Documents/projectnios2/DE10_LITE_D8M_VIP_16/software/Vision_bsp\libhal_bsp.a(alt_dev.o)
                                        0x7ad (size before relaxing)
 .debug_str     0x00000000000037fd       0x14 C:/Users/Emre/Documents/projectnios2/DE10_LITE_D8M_VIP_16/software/Vision_bsp\libhal_bsp.a(alt_errno.o)
                                        0x54c (size before relaxing)
 .debug_str     0x0000000000003811       0x2a C:/Users/Emre/Documents/projectnios2/DE10_LITE_D8M_VIP_16/software/Vision_bsp\libhal_bsp.a(alt_exit.o)
                                        0x558 (size before relaxing)
 .debug_str     0x000000000000383b       0x1f C:/Users/Emre/Documents/projectnios2/DE10_LITE_D8M_VIP_16/software/Vision_bsp\libhal_bsp.a(alt_fcntl.o)
                                        0x7f4 (size before relaxing)
 .debug_str     0x000000000000385a       0x14 C:/Users/Emre/Documents/projectnios2/DE10_LITE_D8M_VIP_16/software/Vision_bsp\libhal_bsp.a(alt_fstat.o)
                                        0x785 (size before relaxing)
 .debug_str     0x000000000000386e       0x15 C:/Users/Emre/Documents/projectnios2/DE10_LITE_D8M_VIP_16/software/Vision_bsp\libhal_bsp.a(alt_getpid.o)
                                         0xb9 (size before relaxing)
 .debug_str     0x0000000000003883       0x15 C:/Users/Emre/Documents/projectnios2/DE10_LITE_D8M_VIP_16/software/Vision_bsp\libhal_bsp.a(alt_isatty.o)
                                        0x78d (size before relaxing)
 .debug_str     0x0000000000003898       0x13 C:/Users/Emre/Documents/projectnios2/DE10_LITE_D8M_VIP_16/software/Vision_bsp\libhal_bsp.a(alt_kill.o)
                                        0x592 (size before relaxing)
 .debug_str     0x00000000000038ab       0xe9 C:/Users/Emre/Documents/projectnios2/DE10_LITE_D8M_VIP_16/software/Vision_bsp\libhal_bsp.a(alt_load.o)
                                        0x60c (size before relaxing)
 .debug_str     0x0000000000003994       0x14 C:/Users/Emre/Documents/projectnios2/DE10_LITE_D8M_VIP_16/software/Vision_bsp\libhal_bsp.a(alt_lseek.o)
                                        0x664 (size before relaxing)
 .debug_str     0x00000000000039a8       0x44 C:/Users/Emre/Documents/projectnios2/DE10_LITE_D8M_VIP_16/software/Vision_bsp\libhal_bsp.a(alt_main.o)
                                        0x7d0 (size before relaxing)
 .debug_str     0x00000000000039ec       0x1a C:/Users/Emre/Documents/projectnios2/DE10_LITE_D8M_VIP_16/software/Vision_bsp\libhal_bsp.a(alt_malloc_lock.o)
                                        0x549 (size before relaxing)
 .debug_str     0x0000000000003a06       0x29 C:/Users/Emre/Documents/projectnios2/DE10_LITE_D8M_VIP_16/software/Vision_bsp\libhal_bsp.a(alt_open.o)
                                        0x65e (size before relaxing)
 .debug_str     0x0000000000003a2f       0x13 C:/Users/Emre/Documents/projectnios2/DE10_LITE_D8M_VIP_16/software/Vision_bsp\libhal_bsp.a(alt_read.o)
                                        0x7bd (size before relaxing)
 .debug_str     0x0000000000003a42       0x28 C:/Users/Emre/Documents/projectnios2/DE10_LITE_D8M_VIP_16/software/Vision_bsp\libhal_bsp.a(alt_release_fd.o)
                                        0x20b (size before relaxing)
 .debug_str     0x0000000000003a6a       0x98 C:/Users/Emre/Documents/projectnios2/DE10_LITE_D8M_VIP_16/software/Vision_bsp\libhal_bsp.a(alt_sbrk.o)
                                        0x5db (size before relaxing)
 .debug_str     0x0000000000003b02       0x6e C:/Users/Emre/Documents/projectnios2/DE10_LITE_D8M_VIP_16/software/Vision_bsp\libhal_bsp.a(alt_tick.o)
                                        0x659 (size before relaxing)
 .debug_str     0x0000000000003b70       0x29 C:/Users/Emre/Documents/projectnios2/DE10_LITE_D8M_VIP_16/software/Vision_bsp\libhal_bsp.a(alt_usleep.o)
                                        0x193 (size before relaxing)
 .debug_str     0x0000000000003b99       0x14 C:/Users/Emre/Documents/projectnios2/DE10_LITE_D8M_VIP_16/software/Vision_bsp\libhal_bsp.a(alt_write.o)
                                        0x7be (size before relaxing)
 .debug_str     0x0000000000003bad      0x1b8 C:/Users/Emre/Documents/projectnios2/DE10_LITE_D8M_VIP_16/software/Vision_bsp\libhal_bsp.a(alt_sys_init.o)
                                        0x849 (size before relaxing)
 .debug_str     0x0000000000003d65       0xac C:/Users/Emre/Documents/projectnios2/DE10_LITE_D8M_VIP_16/software/Vision_bsp\libhal_bsp.a(altera_avalon_jtag_uart_fd.o)
                                        0x3b7 (size before relaxing)
 .debug_str     0x0000000000003e11       0xbc C:/Users/Emre/Documents/projectnios2/DE10_LITE_D8M_VIP_16/software/Vision_bsp\libhal_bsp.a(altera_avalon_jtag_uart_init.o)
                                        0x75d (size before relaxing)
 .debug_str     0x0000000000003ecd       0x4a C:/Users/Emre/Documents/projectnios2/DE10_LITE_D8M_VIP_16/software/Vision_bsp\libhal_bsp.a(altera_avalon_jtag_uart_ioctl.o)
                                        0x6b8 (size before relaxing)
 .debug_str     0x0000000000003f17       0x48 C:/Users/Emre/Documents/projectnios2/DE10_LITE_D8M_VIP_16/software/Vision_bsp\libhal_bsp.a(altera_avalon_jtag_uart_read.o)
                                        0x70d (size before relaxing)
 .debug_str     0x0000000000003f5f       0x4a C:/Users/Emre/Documents/projectnios2/DE10_LITE_D8M_VIP_16/software/Vision_bsp\libhal_bsp.a(altera_avalon_jtag_uart_write.o)
                                        0x70e (size before relaxing)
 .debug_str     0x0000000000003fa9       0x6d C:/Users/Emre/Documents/projectnios2/DE10_LITE_D8M_VIP_16/software/Vision_bsp\libhal_bsp.a(altera_avalon_timer_sc.o)
                                        0x68c (size before relaxing)
 .debug_str     0x0000000000004016       0x77 C:/Users/Emre/Documents/projectnios2/DE10_LITE_D8M_VIP_16/software/Vision_bsp\libhal_bsp.a(altera_avalon_uart_fd.o)
                                        0x2f9 (size before relaxing)
 .debug_str     0x000000000000408d       0xa0 C:/Users/Emre/Documents/projectnios2/DE10_LITE_D8M_VIP_16/software/Vision_bsp\libhal_bsp.a(altera_avalon_uart_init.o)
                                        0x6ae (size before relaxing)
 .debug_str     0x000000000000412d       0x4f C:/Users/Emre/Documents/projectnios2/DE10_LITE_D8M_VIP_16/software/Vision_bsp\libhal_bsp.a(altera_avalon_uart_read.o)
                                        0x68a (size before relaxing)
 .debug_str     0x000000000000417c       0x49 C:/Users/Emre/Documents/projectnios2/DE10_LITE_D8M_VIP_16/software/Vision_bsp\libhal_bsp.a(altera_avalon_uart_write.o)
                                        0x683 (size before relaxing)
 .debug_str     0x00000000000041c5       0x4a C:/Users/Emre/Documents/projectnios2/DE10_LITE_D8M_VIP_16/software/Vision_bsp\libhal_bsp.a(alt_alarm_start.o)
                                        0x685 (size before relaxing)
 .debug_str     0x000000000000420f       0x42 C:/Users/Emre/Documents/projectnios2/DE10_LITE_D8M_VIP_16/software/Vision_bsp\libhal_bsp.a(alt_busy_sleep.o)
                                        0x55b (size before relaxing)
 .debug_str     0x0000000000004251       0x34 C:/Users/Emre/Documents/projectnios2/DE10_LITE_D8M_VIP_16/software/Vision_bsp\libhal_bsp.a(alt_dcache_flush_all.o)
                                        0x54f (size before relaxing)
 .debug_str     0x0000000000004285       0x34 C:/Users/Emre/Documents/projectnios2/DE10_LITE_D8M_VIP_16/software/Vision_bsp\libhal_bsp.a(alt_dev_llist_insert.o)
                                        0x5d3 (size before relaxing)
 .debug_str     0x00000000000042b9       0x48 C:/Users/Emre/Documents/projectnios2/DE10_LITE_D8M_VIP_16/software/Vision_bsp\libhal_bsp.a(alt_do_ctors.o)
                                         0xea (size before relaxing)
 .debug_str     0x0000000000004301       0x4c C:/Users/Emre/Documents/projectnios2/DE10_LITE_D8M_VIP_16/software/Vision_bsp\libhal_bsp.a(alt_do_dtors.o)
                                         0xe9 (size before relaxing)
 .debug_str     0x000000000000434d       0x24 C:/Users/Emre/Documents/projectnios2/DE10_LITE_D8M_VIP_16/software/Vision_bsp\libhal_bsp.a(alt_find_dev.o)
                                        0x5ff (size before relaxing)
 .debug_str     0x0000000000004371       0x26 C:/Users/Emre/Documents/projectnios2/DE10_LITE_D8M_VIP_16/software/Vision_bsp\libhal_bsp.a(alt_find_file.o)
                                        0x601 (size before relaxing)
 .debug_str     0x0000000000004397       0x30 C:/Users/Emre/Documents/projectnios2/DE10_LITE_D8M_VIP_16/software/Vision_bsp\libhal_bsp.a(alt_get_fd.o)
                                        0x62f (size before relaxing)
 .debug_str     0x00000000000043c7       0x34 C:/Users/Emre/Documents/projectnios2/DE10_LITE_D8M_VIP_16/software/Vision_bsp\libhal_bsp.a(alt_icache_flush_all.o)
                                        0x54f (size before relaxing)
 .debug_str     0x00000000000043fb       0xab C:/Users/Emre/Documents/projectnios2/DE10_LITE_D8M_VIP_16/software/Vision_bsp\libhal_bsp.a(alt_iic.o)
                                        0x633 (size before relaxing)
 .debug_str     0x00000000000044a6       0x4c C:/Users/Emre/Documents/projectnios2/DE10_LITE_D8M_VIP_16/software/Vision_bsp\libhal_bsp.a(alt_iic_isr_register.o)
                                        0x5ef (size before relaxing)
 .debug_str     0x00000000000044f2       0x56 C:/Users/Emre/Documents/projectnios2/DE10_LITE_D8M_VIP_16/software/Vision_bsp\libhal_bsp.a(alt_io_redirect.o)
                                        0x7c5 (size before relaxing)
 .debug_str     0x0000000000004548       0x18 C:/Users/Emre/Documents/projectnios2/DE10_LITE_D8M_VIP_16/software/Vision_bsp\libhal_bsp.a(alt_irq_entry.o)
                                         0x75 (size before relaxing)
 .debug_str     0x0000000000004560       0x3a C:/Users/Emre/Documents/projectnios2/DE10_LITE_D8M_VIP_16/software/Vision_bsp\libhal_bsp.a(alt_irq_handler.o)
                                        0x59e (size before relaxing)
 .debug_str     0x000000000000459a       0x29 C:/Users/Emre/Documents/projectnios2/DE10_LITE_D8M_VIP_16/software/Vision_bsp\libhal_bsp.a(alt_irq_vars.o)
                                        0x154 (size before relaxing)
 .debug_str     0x00000000000045c3       0x3b C:/Users/Emre/Documents/projectnios2/DE10_LITE_D8M_VIP_16/software/Vision_bsp\libhal_bsp.a(altera_nios2_gen2_irq.o)
                                        0x563 (size before relaxing)
 .debug_str     0x00000000000045fe       0x1e C:/Users/Emre/Documents/projectnios2/DE10_LITE_D8M_VIP_16/software/Vision_bsp\libhal_bsp.a(alt_exception_entry.o)
                                         0x7b (size before relaxing)
 .debug_str     0x000000000000461c       0x2c C:/Users/Emre/Documents/projectnios2/DE10_LITE_D8M_VIP_16/software/Vision_bsp\libhal_bsp.a(alt_icache_flush.o)
                                        0x555 (size before relaxing)
 .debug_str     0x0000000000004648      0x48b C:/Users/Emre/Documents/projectnios2/DE10_LITE_D8M_VIP_16/software/Vision_bsp\libhal_bsp.a(alt_instruction_exception_entry.o)
                                        0x5ba (size before relaxing)
 .debug_str     0x0000000000004ad3       0x80 c:/intelfpga_lite/20.1/nios2eds/bin/gnu/h-x86_64-mingw32/bin/../lib/gcc/nios2-elf/9.2.1/../../../../../H-x86_64-mingw32/nios2-elf/lib\libc.a(lib_a-atexit.o)
                                        0x5e6 (size before relaxing)
 .debug_str     0x0000000000004b53       0x4b c:/intelfpga_lite/20.1/nios2eds/bin/gnu/h-x86_64-mingw32/bin/../lib/gcc/nios2-elf/9.2.1/../../../../../H-x86_64-mingw32/nios2-elf/lib\libc.a(lib_a-exit.o)
                                        0x5e7 (size before relaxing)
 .debug_str     0x0000000000004b9e       0x43 c:/intelfpga_lite/20.1/nios2eds/bin/gnu/h-x86_64-mingw32/bin/../lib/gcc/nios2-elf/9.2.1/../../../../../H-x86_64-mingw32/nios2-elf/lib\libc.a(lib_a-memcmp.o)
                                        0x59f (size before relaxing)
 .debug_str     0x0000000000004be1       0x57 c:/intelfpga_lite/20.1/nios2eds/bin/gnu/h-x86_64-mingw32/bin/../lib/gcc/nios2-elf/9.2.1/../../../../../H-x86_64-mingw32/nios2-elf/lib\libc.a(lib_a-__atexit.o)
                                        0x604 (size before relaxing)
 .debug_str     0x0000000000004c38       0x51 c:/intelfpga_lite/20.1/nios2eds/bin/gnu/h-x86_64-mingw32/bin/../lib/gcc/nios2-elf/9.2.1/../../../../../H-x86_64-mingw32/nios2-elf/lib\libc.a(lib_a-__call_atexit.o)
                                        0x5e4 (size before relaxing)

.debug_loc      0x0000000000000000    0x1e8e2
 *(.debug_loc)
 .debug_loc     0x0000000000000000      0x5d0 c:/intelfpga_lite/20.1/nios2eds/bin/gnu/h-x86_64-mingw32/bin/../lib/gcc/nios2-elf/9.2.1\libgcc.a(lib2-divmod.o)
 .debug_loc     0x00000000000005d0      0x1ae c:/intelfpga_lite/20.1/nios2eds/bin/gnu/h-x86_64-mingw32/bin/../lib/gcc/nios2-elf/9.2.1/../../../../../H-x86_64-mingw32/nios2-elf/lib\libc.a(lib_a-fopen.o)
 .debug_loc     0x000000000000077e      0x1c0 c:/intelfpga_lite/20.1/nios2eds/bin/gnu/h-x86_64-mingw32/bin/../lib/gcc/nios2-elf/9.2.1/../../../../../H-x86_64-mingw32/nios2-elf/lib\libc.a(lib_a-fseek.o)
 .debug_loc     0x000000000000093e      0x3f3 c:/intelfpga_lite/20.1/nios2eds/bin/gnu/h-x86_64-mingw32/bin/../lib/gcc/nios2-elf/9.2.1/../../../../../H-x86_64-mingw32/nios2-elf/lib\libc.a(lib_a-fseeko.o)
 .debug_loc     0x0000000000000d31       0xbb c:/intelfpga_lite/20.1/nios2eds/bin/gnu/h-x86_64-mingw32/bin/../lib/gcc/nios2-elf/9.2.1/../../../../../H-x86_64-mingw32/nios2-elf/lib\libc.a(lib_a-fstatr.o)
 .debug_loc     0x0000000000000dec      0x2e4 c:/intelfpga_lite/20.1/nios2eds/bin/gnu/h-x86_64-mingw32/bin/../lib/gcc/nios2-elf/9.2.1/../../../../../H-x86_64-mingw32/nios2-elf/lib\libc.a(lib_a-fwrite.o)
 .debug_loc     0x00000000000010d0       0x3a c:/intelfpga_lite/20.1/nios2eds/bin/gnu/h-x86_64-mingw32/bin/../lib/gcc/nios2-elf/9.2.1/../../../../../H-x86_64-mingw32/nios2-elf/lib\libc.a(lib_a-getchar.o)
 .debug_loc     0x000000000000110a      0x23e c:/intelfpga_lite/20.1/nios2eds/bin/gnu/h-x86_64-mingw32/bin/../lib/gcc/nios2-elf/9.2.1/../../../../../H-x86_64-mingw32/nios2-elf/lib\libc.a(lib_a-makebuf.o)
 .debug_loc     0x0000000000001348       0x64 c:/intelfpga_lite/20.1/nios2eds/bin/gnu/h-x86_64-mingw32/bin/../lib/gcc/nios2-elf/9.2.1/../../../../../H-x86_64-mingw32/nios2-elf/lib\libc.a(lib_a-malloc.o)
 .debug_loc     0x00000000000013ac      0xd34 c:/intelfpga_lite/20.1/nios2eds/bin/gnu/h-x86_64-mingw32/bin/../lib/gcc/nios2-elf/9.2.1/../../../../../H-x86_64-mingw32/nios2-elf/lib\libc.a(lib_a-mallocr.o)
 .debug_loc     0x00000000000020e0      0x1b5 c:/intelfpga_lite/20.1/nios2eds/bin/gnu/h-x86_64-mingw32/bin/../lib/gcc/nios2-elf/9.2.1/../../../../../H-x86_64-mingw32/nios2-elf/lib\libc.a(lib_a-memset.o)
 .debug_loc     0x0000000000002295       0xed c:/intelfpga_lite/20.1/nios2eds/bin/gnu/h-x86_64-mingw32/bin/../lib/gcc/nios2-elf/9.2.1/../../../../../H-x86_64-mingw32/nios2-elf/lib\libc.a(lib_a-openr.o)
 .debug_loc     0x0000000000002382      0x119 c:/intelfpga_lite/20.1/nios2eds/bin/gnu/h-x86_64-mingw32/bin/../lib/gcc/nios2-elf/9.2.1/../../../../../H-x86_64-mingw32/nios2-elf/lib\libc.a(lib_a-printf.o)
 .debug_loc     0x000000000000249b       0x91 c:/intelfpga_lite/20.1/nios2eds/bin/gnu/h-x86_64-mingw32/bin/../lib/gcc/nios2-elf/9.2.1/../../../../../H-x86_64-mingw32/nios2-elf/lib\libc.a(lib_a-putchar.o)
 .debug_loc     0x000000000000252c      0x143 c:/intelfpga_lite/20.1/nios2eds/bin/gnu/h-x86_64-mingw32/bin/../lib/gcc/nios2-elf/9.2.1/../../../../../H-x86_64-mingw32/nios2-elf/lib\libc.a(lib_a-puts.o)
 .debug_loc     0x000000000000266f      0x145 c:/intelfpga_lite/20.1/nios2eds/bin/gnu/h-x86_64-mingw32/bin/../lib/gcc/nios2-elf/9.2.1/../../../../../H-x86_64-mingw32/nios2-elf/lib\libc.a(lib_a-refill.o)
 .debug_loc     0x00000000000027b4       0x89 c:/intelfpga_lite/20.1/nios2eds/bin/gnu/h-x86_64-mingw32/bin/../lib/gcc/nios2-elf/9.2.1/../../../../../H-x86_64-mingw32/nios2-elf/lib\libc.a(lib_a-sbrkr.o)
 .debug_loc     0x000000000000283d      0x43c c:/intelfpga_lite/20.1/nios2eds/bin/gnu/h-x86_64-mingw32/bin/../lib/gcc/nios2-elf/9.2.1/../../../../../H-x86_64-mingw32/nios2-elf/lib\libc.a(lib_a-stdio.o)
 .debug_loc     0x0000000000002c79       0x73 c:/intelfpga_lite/20.1/nios2eds/bin/gnu/h-x86_64-mingw32/bin/../lib/gcc/nios2-elf/9.2.1/../../../../../H-x86_64-mingw32/nios2-elf/lib\libc.a(lib_a-strlen.o)
 .debug_loc     0x0000000000002cec     0x3b1e c:/intelfpga_lite/20.1/nios2eds/bin/gnu/h-x86_64-mingw32/bin/../lib/gcc/nios2-elf/9.2.1/../../../../../H-x86_64-mingw32/nios2-elf/lib\libc.a(lib_a-vfprintf.o)
 .debug_loc     0x000000000000680a       0xed c:/intelfpga_lite/20.1/nios2eds/bin/gnu/h-x86_64-mingw32/bin/../lib/gcc/nios2-elf/9.2.1/../../../../../H-x86_64-mingw32/nios2-elf/lib\libc.a(lib_a-writer.o)
 .debug_loc     0x00000000000068f7       0xd4 c:/intelfpga_lite/20.1/nios2eds/bin/gnu/h-x86_64-mingw32/bin/../lib/gcc/nios2-elf/9.2.1/../../../../../H-x86_64-mingw32/nios2-elf/lib\libc.a(lib_a-wsetup.o)
 .debug_loc     0x00000000000069cb       0x89 c:/intelfpga_lite/20.1/nios2eds/bin/gnu/h-x86_64-mingw32/bin/../lib/gcc/nios2-elf/9.2.1/../../../../../H-x86_64-mingw32/nios2-elf/lib\libc.a(closer.o)
 .debug_loc     0x0000000000006a54     0x32b1 c:/intelfpga_lite/20.1/nios2eds/bin/gnu/h-x86_64-mingw32/bin/../lib/gcc/nios2-elf/9.2.1/../../../../../H-x86_64-mingw32/nios2-elf/lib\libc.a(lib_a-dtoa.o)
 .debug_loc     0x0000000000009d05      0x38e c:/intelfpga_lite/20.1/nios2eds/bin/gnu/h-x86_64-mingw32/bin/../lib/gcc/nios2-elf/9.2.1/../../../../../H-x86_64-mingw32/nios2-elf/lib\libc.a(lib_a-fflush.o)
 .debug_loc     0x000000000000a093      0x307 c:/intelfpga_lite/20.1/nios2eds/bin/gnu/h-x86_64-mingw32/bin/../lib/gcc/nios2-elf/9.2.1/../../../../../H-x86_64-mingw32/nios2-elf/lib\libc.a(lib_a-findfp.o)
 .debug_loc     0x000000000000a39a       0xda c:/intelfpga_lite/20.1/nios2eds/bin/gnu/h-x86_64-mingw32/bin/../lib/gcc/nios2-elf/9.2.1/../../../../../H-x86_64-mingw32/nios2-elf/lib\libc.a(lib_a-flags.o)
 .debug_loc     0x000000000000a474      0x614 c:/intelfpga_lite/20.1/nios2eds/bin/gnu/h-x86_64-mingw32/bin/../lib/gcc/nios2-elf/9.2.1/../../../../../H-x86_64-mingw32/nios2-elf/lib\libc.a(lib_a-freer.o)
 .debug_loc     0x000000000000aa88      0x6ca c:/intelfpga_lite/20.1/nios2eds/bin/gnu/h-x86_64-mingw32/bin/../lib/gcc/nios2-elf/9.2.1/../../../../../H-x86_64-mingw32/nios2-elf/lib\libc.a(lib_a-fvwrite.o)
 .debug_loc     0x000000000000b152      0x1eb c:/intelfpga_lite/20.1/nios2eds/bin/gnu/h-x86_64-mingw32/bin/../lib/gcc/nios2-elf/9.2.1/../../../../../H-x86_64-mingw32/nios2-elf/lib\libc.a(lib_a-fwalk.o)
 .debug_loc     0x000000000000b33d      0x21b c:/intelfpga_lite/20.1/nios2eds/bin/gnu/h-x86_64-mingw32/bin/../lib/gcc/nios2-elf/9.2.1/../../../../../H-x86_64-mingw32/nios2-elf/lib\libc.a(lib_a-getc.o)
 .debug_loc     0x000000000000b558       0x89 c:/intelfpga_lite/20.1/nios2eds/bin/gnu/h-x86_64-mingw32/bin/../lib/gcc/nios2-elf/9.2.1/../../../../../H-x86_64-mingw32/nios2-elf/lib\libc.a(lib_a-isattyr.o)
 .debug_loc     0x000000000000b5e1       0x25 c:/intelfpga_lite/20.1/nios2eds/bin/gnu/h-x86_64-mingw32/bin/../lib/gcc/nios2-elf/9.2.1/../../../../../H-x86_64-mingw32/nios2-elf/lib\libc.a(lib_a-localeconv.o)
 .debug_loc     0x000000000000b606       0xed c:/intelfpga_lite/20.1/nios2eds/bin/gnu/h-x86_64-mingw32/bin/../lib/gcc/nios2-elf/9.2.1/../../../../../H-x86_64-mingw32/nios2-elf/lib\libc.a(lib_a-lseekr.o)
 .debug_loc     0x000000000000b6f3      0x240 c:/intelfpga_lite/20.1/nios2eds/bin/gnu/h-x86_64-mingw32/bin/../lib/gcc/nios2-elf/9.2.1/../../../../../H-x86_64-mingw32/nios2-elf/lib\libc.a(lib_a-memchr.o)
 .debug_loc     0x000000000000b933      0x347 c:/intelfpga_lite/20.1/nios2eds/bin/gnu/h-x86_64-mingw32/bin/../lib/gcc/nios2-elf/9.2.1/../../../../../H-x86_64-mingw32/nios2-elf/lib\libc.a(lib_a-memcpy.o)
 .debug_loc     0x000000000000bc7a      0x3ff c:/intelfpga_lite/20.1/nios2eds/bin/gnu/h-x86_64-mingw32/bin/../lib/gcc/nios2-elf/9.2.1/../../../../../H-x86_64-mingw32/nios2-elf/lib\libc.a(lib_a-memmove.o)
 .debug_loc     0x000000000000c079     0x21ff c:/intelfpga_lite/20.1/nios2eds/bin/gnu/h-x86_64-mingw32/bin/../lib/gcc/nios2-elf/9.2.1/../../../../../H-x86_64-mingw32/nios2-elf/lib\libc.a(lib_a-mprec.o)
 .debug_loc     0x000000000000e278      0x307 c:/intelfpga_lite/20.1/nios2eds/bin/gnu/h-x86_64-mingw32/bin/../lib/gcc/nios2-elf/9.2.1/../../../../../H-x86_64-mingw32/nios2-elf/lib\libc.a(lib_a-putc.o)
 .debug_loc     0x000000000000e57f       0xed c:/intelfpga_lite/20.1/nios2eds/bin/gnu/h-x86_64-mingw32/bin/../lib/gcc/nios2-elf/9.2.1/../../../../../H-x86_64-mingw32/nios2-elf/lib\libc.a(lib_a-readr.o)
 .debug_loc     0x000000000000e66c     0x11ff c:/intelfpga_lite/20.1/nios2eds/bin/gnu/h-x86_64-mingw32/bin/../lib/gcc/nios2-elf/9.2.1/../../../../../H-x86_64-mingw32/nios2-elf/lib\libc.a(lib_a-reallocr.o)
 .debug_loc     0x000000000000f86b      0x116 c:/intelfpga_lite/20.1/nios2eds/bin/gnu/h-x86_64-mingw32/bin/../lib/gcc/nios2-elf/9.2.1/../../../../../H-x86_64-mingw32/nios2-elf/lib\libc.a(lib_a-rget.o)
 .debug_loc     0x000000000000f981     0x29c2 c:/intelfpga_lite/20.1/nios2eds/bin/gnu/h-x86_64-mingw32/bin/../lib/gcc/nios2-elf/9.2.1/../../../../../H-x86_64-mingw32/nios2-elf/lib\libc.a(lib_a-vfiprintf.o)
 .debug_loc     0x0000000000012343      0x201 c:/intelfpga_lite/20.1/nios2eds/bin/gnu/h-x86_64-mingw32/bin/../lib/gcc/nios2-elf/9.2.1/../../../../../H-x86_64-mingw32/nios2-elf/lib\libc.a(lib_a-wbuf.o)
 .debug_loc     0x0000000000012544      0x1a2 c:/intelfpga_lite/20.1/nios2eds/bin/gnu/h-x86_64-mingw32/bin/../lib/gcc/nios2-elf/9.2.1/../../../../../H-x86_64-mingw32/nios2-elf/lib\libc.a(lib_a-assert.o)
 .debug_loc     0x00000000000126e6      0x317 c:/intelfpga_lite/20.1/nios2eds/bin/gnu/h-x86_64-mingw32/bin/../lib/gcc/nios2-elf/9.2.1/../../../../../H-x86_64-mingw32/nios2-elf/lib\libc.a(lib_a-callocr.o)
 .debug_loc     0x00000000000129fd      0x179 c:/intelfpga_lite/20.1/nios2eds/bin/gnu/h-x86_64-mingw32/bin/../lib/gcc/nios2-elf/9.2.1/../../../../../H-x86_64-mingw32/nios2-elf/lib\libc.a(lib_a-fclose.o)
 .debug_loc     0x0000000000012b76      0x163 c:/intelfpga_lite/20.1/nios2eds/bin/gnu/h-x86_64-mingw32/bin/../lib/gcc/nios2-elf/9.2.1/../../../../../H-x86_64-mingw32/nios2-elf/lib\libc.a(lib_a-fiprintf.o)
 .debug_loc     0x0000000000012cd9      0x2eb c:/intelfpga_lite/20.1/nios2eds/bin/gnu/h-x86_64-mingw32/bin/../lib/gcc/nios2-elf/9.2.1/../../../../../H-x86_64-mingw32/nios2-elf/lib\libc.a(lib_a-fputwc.o)
 .debug_loc     0x0000000000012fc4      0x1b3 c:/intelfpga_lite/20.1/nios2eds/bin/gnu/h-x86_64-mingw32/bin/../lib/gcc/nios2-elf/9.2.1/../../../../../H-x86_64-mingw32/nios2-elf/lib\libc.a(lib_a-locale.o)
 .debug_loc     0x0000000000013177      0x119 c:/intelfpga_lite/20.1/nios2eds/bin/gnu/h-x86_64-mingw32/bin/../lib/gcc/nios2-elf/9.2.1/../../../../../H-x86_64-mingw32/nios2-elf/lib\libc.a(lib_a-mbtowc_r.o)
 .debug_loc     0x0000000000013290       0x8e c:/intelfpga_lite/20.1/nios2eds/bin/gnu/h-x86_64-mingw32/bin/../lib/gcc/nios2-elf/9.2.1/../../../../../H-x86_64-mingw32/nios2-elf/lib\libc.a(lib_a-strcmp.o)
 .debug_loc     0x000000000001331e       0x94 c:/intelfpga_lite/20.1/nios2eds/bin/gnu/h-x86_64-mingw32/bin/../lib/gcc/nios2-elf/9.2.1/../../../../../H-x86_64-mingw32/nios2-elf/lib\libc.a(lib_a-vfiprintfr_1.o)
 .debug_loc     0x00000000000133b2      0x2a4 c:/intelfpga_lite/20.1/nios2eds/bin/gnu/h-x86_64-mingw32/bin/../lib/gcc/nios2-elf/9.2.1/../../../../../H-x86_64-mingw32/nios2-elf/lib\libc.a(lib_a-wcrtomb.o)
 .debug_loc     0x0000000000013656       0xa9 c:/intelfpga_lite/20.1/nios2eds/bin/gnu/h-x86_64-mingw32/bin/../lib/gcc/nios2-elf/9.2.1/../../../../../H-x86_64-mingw32/nios2-elf/lib\libc.a(lib_a-wctomb_r.o)
 .debug_loc     0x00000000000136ff      0x53d c:/intelfpga_lite/20.1/nios2eds/bin/gnu/h-x86_64-mingw32/bin/../lib/gcc/nios2-elf/9.2.1/../../../../../H-x86_64-mingw32/nios2-elf/lib\libc.a(lib_a-signal.o)
 .debug_loc     0x0000000000013c3c       0xe0 c:/intelfpga_lite/20.1/nios2eds/bin/gnu/h-x86_64-mingw32/bin/../lib/gcc/nios2-elf/9.2.1/../../../../../H-x86_64-mingw32/nios2-elf/lib\libc.a(lib_a-signalr.o)
 .debug_loc     0x0000000000013d1c     0x14a5 c:/intelfpga_lite/20.1/nios2eds/bin/gnu/h-x86_64-mingw32/bin/../lib/gcc/nios2-elf/9.2.1\libgcc.a(_udivdi3.o)
 .debug_loc     0x00000000000151c1     0x1185 c:/intelfpga_lite/20.1/nios2eds/bin/gnu/h-x86_64-mingw32/bin/../lib/gcc/nios2-elf/9.2.1\libgcc.a(_umoddi3.o)
 .debug_loc     0x0000000000016346     0x1f6e c:/intelfpga_lite/20.1/nios2eds/bin/gnu/h-x86_64-mingw32/bin/../lib/gcc/nios2-elf/9.2.1\libgcc.a(adddf3.o)
 .debug_loc     0x00000000000182b4     0x235c c:/intelfpga_lite/20.1/nios2eds/bin/gnu/h-x86_64-mingw32/bin/../lib/gcc/nios2-elf/9.2.1\libgcc.a(divdf3.o)
 .debug_loc     0x000000000001a610      0x113 c:/intelfpga_lite/20.1/nios2eds/bin/gnu/h-x86_64-mingw32/bin/../lib/gcc/nios2-elf/9.2.1\libgcc.a(eqdf2.o)
 .debug_loc     0x000000000001a723      0x174 c:/intelfpga_lite/20.1/nios2eds/bin/gnu/h-x86_64-mingw32/bin/../lib/gcc/nios2-elf/9.2.1\libgcc.a(gedf2.o)
 .debug_loc     0x000000000001a897      0x166 c:/intelfpga_lite/20.1/nios2eds/bin/gnu/h-x86_64-mingw32/bin/../lib/gcc/nios2-elf/9.2.1\libgcc.a(ledf2.o)
 .debug_loc     0x000000000001a9fd     0x1275 c:/intelfpga_lite/20.1/nios2eds/bin/gnu/h-x86_64-mingw32/bin/../lib/gcc/nios2-elf/9.2.1\libgcc.a(muldf3.o)
 .debug_loc     0x000000000001bc72     0x203d c:/intelfpga_lite/20.1/nios2eds/bin/gnu/h-x86_64-mingw32/bin/../lib/gcc/nios2-elf/9.2.1\libgcc.a(subdf3.o)
 .debug_loc     0x000000000001dcaf       0x9e c:/intelfpga_lite/20.1/nios2eds/bin/gnu/h-x86_64-mingw32/bin/../lib/gcc/nios2-elf/9.2.1\libgcc.a(unorddf2.o)
 .debug_loc     0x000000000001dd4d      0x1bf c:/intelfpga_lite/20.1/nios2eds/bin/gnu/h-x86_64-mingw32/bin/../lib/gcc/nios2-elf/9.2.1\libgcc.a(fixdfsi.o)
 .debug_loc     0x000000000001df0c      0x252 c:/intelfpga_lite/20.1/nios2eds/bin/gnu/h-x86_64-mingw32/bin/../lib/gcc/nios2-elf/9.2.1\libgcc.a(floatsidf.o)
 .debug_loc     0x000000000001e15e      0x281 c:/intelfpga_lite/20.1/nios2eds/bin/gnu/h-x86_64-mingw32/bin/../lib/gcc/nios2-elf/9.2.1\libgcc.a(floatunsidf.o)
 .debug_loc     0x000000000001e3df       0xbe c:/intelfpga_lite/20.1/nios2eds/bin/gnu/h-x86_64-mingw32/bin/../lib/gcc/nios2-elf/9.2.1\libgcc.a(_clzsi2.o)
 .debug_loc     0x000000000001e49d       0x32 c:/intelfpga_lite/20.1/nios2eds/bin/gnu/h-x86_64-mingw32/bin/../lib/gcc/nios2-elf/9.2.1/../../../../../H-x86_64-mingw32/nios2-elf/lib\libc.a(lib_a-atexit.o)
 .debug_loc     0x000000000001e4cf       0x22 c:/intelfpga_lite/20.1/nios2eds/bin/gnu/h-x86_64-mingw32/bin/../lib/gcc/nios2-elf/9.2.1/../../../../../H-x86_64-mingw32/nios2-elf/lib\libc.a(lib_a-exit.o)
 .debug_loc     0x000000000001e4f1      0x130 c:/intelfpga_lite/20.1/nios2eds/bin/gnu/h-x86_64-mingw32/bin/../lib/gcc/nios2-elf/9.2.1/../../../../../H-x86_64-mingw32/nios2-elf/lib\libc.a(lib_a-memcmp.o)
 .debug_loc     0x000000000001e621       0xf7 c:/intelfpga_lite/20.1/nios2eds/bin/gnu/h-x86_64-mingw32/bin/../lib/gcc/nios2-elf/9.2.1/../../../../../H-x86_64-mingw32/nios2-elf/lib\libc.a(lib_a-__atexit.o)
 .debug_loc     0x000000000001e718      0x1ca c:/intelfpga_lite/20.1/nios2eds/bin/gnu/h-x86_64-mingw32/bin/../lib/gcc/nios2-elf/9.2.1/../../../../../H-x86_64-mingw32/nios2-elf/lib\libc.a(lib_a-__call_atexit.o)

.debug_macinfo
 *(.debug_macinfo)

.debug_weaknames
 *(.debug_weaknames)

.debug_funcnames
 *(.debug_funcnames)

.debug_typenames
 *(.debug_typenames)

.debug_varnames
 *(.debug_varnames)

.debug_alt_sim_info
                0x0000000000000000       0x60
 *(.debug_alt_sim_info)
 .debug_alt_sim_info
                0x0000000000000000       0x30 C:/Users/Emre/Documents/projectnios2/DE10_LITE_D8M_VIP_16/software/Vision_bsp/obj/HAL/src/crt0.o
 .debug_alt_sim_info
                0x0000000000000030       0x30 C:/Users/Emre/Documents/projectnios2/DE10_LITE_D8M_VIP_16/software/Vision_bsp\libhal_bsp.a(alt_busy_sleep.o)
                0x0000000000040000                __alt_data_end = 0x40000
                0x0000000000040000                PROVIDE (__alt_stack_pointer = __alt_data_end)
                [!provide]                        PROVIDE (__alt_stack_limit = __alt_stack_base)
                0x0000000000038a0c                PROVIDE (__alt_heap_start = end)
                0x0000000000040000                PROVIDE (__alt_heap_limit = 0x40000)
OUTPUT(Vision.elf elf32-littlenios2)

.debug_ranges   0x0000000000000000     0x1f98
 .debug_ranges  0x0000000000000000       0x20 C:/Users/Emre/Documents/projectnios2/DE10_LITE_D8M_VIP_16/software/Vision_bsp/obj/HAL/src/crt0.o
 .debug_ranges  0x0000000000000020       0x70 c:/intelfpga_lite/20.1/nios2eds/bin/gnu/h-x86_64-mingw32/bin/../lib/gcc/nios2-elf/9.2.1\libgcc.a(lib2-divmod.o)
 .debug_ranges  0x0000000000000090       0x18 c:/intelfpga_lite/20.1/nios2eds/bin/gnu/h-x86_64-mingw32/bin/../lib/gcc/nios2-elf/9.2.1/../../../../../H-x86_64-mingw32/nios2-elf/lib\libc.a(lib_a-fopen.o)
 .debug_ranges  0x00000000000000a8       0x38 c:/intelfpga_lite/20.1/nios2eds/bin/gnu/h-x86_64-mingw32/bin/../lib/gcc/nios2-elf/9.2.1/../../../../../H-x86_64-mingw32/nios2-elf/lib\libc.a(lib_a-fseek.o)
 .debug_ranges  0x00000000000000e0       0x40 c:/intelfpga_lite/20.1/nios2eds/bin/gnu/h-x86_64-mingw32/bin/../lib/gcc/nios2-elf/9.2.1/../../../../../H-x86_64-mingw32/nios2-elf/lib\libc.a(lib_a-fseeko.o)
 .debug_ranges  0x0000000000000120       0x10 c:/intelfpga_lite/20.1/nios2eds/bin/gnu/h-x86_64-mingw32/bin/../lib/gcc/nios2-elf/9.2.1/../../../../../H-x86_64-mingw32/nios2-elf/lib\libc.a(lib_a-fstatr.o)
 .debug_ranges  0x0000000000000130       0x38 c:/intelfpga_lite/20.1/nios2eds/bin/gnu/h-x86_64-mingw32/bin/../lib/gcc/nios2-elf/9.2.1/../../../../../H-x86_64-mingw32/nios2-elf/lib\libc.a(lib_a-fwrite.o)
 .debug_ranges  0x0000000000000168       0x18 c:/intelfpga_lite/20.1/nios2eds/bin/gnu/h-x86_64-mingw32/bin/../lib/gcc/nios2-elf/9.2.1/../../../../../H-x86_64-mingw32/nios2-elf/lib\libc.a(lib_a-getchar.o)
 .debug_ranges  0x0000000000000180       0x18 c:/intelfpga_lite/20.1/nios2eds/bin/gnu/h-x86_64-mingw32/bin/../lib/gcc/nios2-elf/9.2.1/../../../../../H-x86_64-mingw32/nios2-elf/lib\libc.a(lib_a-makebuf.o)
 .debug_ranges  0x0000000000000198       0x18 c:/intelfpga_lite/20.1/nios2eds/bin/gnu/h-x86_64-mingw32/bin/../lib/gcc/nios2-elf/9.2.1/../../../../../H-x86_64-mingw32/nios2-elf/lib\libc.a(lib_a-malloc.o)
 .debug_ranges  0x00000000000001b0       0x48 c:/intelfpga_lite/20.1/nios2eds/bin/gnu/h-x86_64-mingw32/bin/../lib/gcc/nios2-elf/9.2.1/../../../../../H-x86_64-mingw32/nios2-elf/lib\libc.a(lib_a-mallocr.o)
 .debug_ranges  0x00000000000001f8       0x10 c:/intelfpga_lite/20.1/nios2eds/bin/gnu/h-x86_64-mingw32/bin/../lib/gcc/nios2-elf/9.2.1/../../../../../H-x86_64-mingw32/nios2-elf/lib\libc.a(lib_a-memset.o)
 .debug_ranges  0x0000000000000208       0x10 c:/intelfpga_lite/20.1/nios2eds/bin/gnu/h-x86_64-mingw32/bin/../lib/gcc/nios2-elf/9.2.1/../../../../../H-x86_64-mingw32/nios2-elf/lib\libc.a(lib_a-openr.o)
 .debug_ranges  0x0000000000000218       0x18 c:/intelfpga_lite/20.1/nios2eds/bin/gnu/h-x86_64-mingw32/bin/../lib/gcc/nios2-elf/9.2.1/../../../../../H-x86_64-mingw32/nios2-elf/lib\libc.a(lib_a-printf.o)
 .debug_ranges  0x0000000000000230       0x18 c:/intelfpga_lite/20.1/nios2eds/bin/gnu/h-x86_64-mingw32/bin/../lib/gcc/nios2-elf/9.2.1/../../../../../H-x86_64-mingw32/nios2-elf/lib\libc.a(lib_a-putchar.o)
 .debug_ranges  0x0000000000000248       0x30 c:/intelfpga_lite/20.1/nios2eds/bin/gnu/h-x86_64-mingw32/bin/../lib/gcc/nios2-elf/9.2.1/../../../../../H-x86_64-mingw32/nios2-elf/lib\libc.a(lib_a-puts.o)
 .debug_ranges  0x0000000000000278       0x40 c:/intelfpga_lite/20.1/nios2eds/bin/gnu/h-x86_64-mingw32/bin/../lib/gcc/nios2-elf/9.2.1/../../../../../H-x86_64-mingw32/nios2-elf/lib\libc.a(lib_a-refill.o)
 .debug_ranges  0x00000000000002b8       0x10 c:/intelfpga_lite/20.1/nios2eds/bin/gnu/h-x86_64-mingw32/bin/../lib/gcc/nios2-elf/9.2.1/../../../../../H-x86_64-mingw32/nios2-elf/lib\libc.a(lib_a-sbrkr.o)
 .debug_ranges  0x00000000000002c8       0x30 c:/intelfpga_lite/20.1/nios2eds/bin/gnu/h-x86_64-mingw32/bin/../lib/gcc/nios2-elf/9.2.1/../../../../../H-x86_64-mingw32/nios2-elf/lib\libc.a(lib_a-stdio.o)
 .debug_ranges  0x00000000000002f8       0x10 c:/intelfpga_lite/20.1/nios2eds/bin/gnu/h-x86_64-mingw32/bin/../lib/gcc/nios2-elf/9.2.1/../../../../../H-x86_64-mingw32/nios2-elf/lib\libc.a(lib_a-strlen.o)
 .debug_ranges  0x0000000000000308      0x1a8 c:/intelfpga_lite/20.1/nios2eds/bin/gnu/h-x86_64-mingw32/bin/../lib/gcc/nios2-elf/9.2.1/../../../../../H-x86_64-mingw32/nios2-elf/lib\libc.a(lib_a-vfprintf.o)
 .debug_ranges  0x00000000000004b0       0x10 c:/intelfpga_lite/20.1/nios2eds/bin/gnu/h-x86_64-mingw32/bin/../lib/gcc/nios2-elf/9.2.1/../../../../../H-x86_64-mingw32/nios2-elf/lib\libc.a(lib_a-writer.o)
 .debug_ranges  0x00000000000004c0       0x30 c:/intelfpga_lite/20.1/nios2eds/bin/gnu/h-x86_64-mingw32/bin/../lib/gcc/nios2-elf/9.2.1/../../../../../H-x86_64-mingw32/nios2-elf/lib\libc.a(lib_a-wsetup.o)
 .debug_ranges  0x00000000000004f0       0x10 c:/intelfpga_lite/20.1/nios2eds/bin/gnu/h-x86_64-mingw32/bin/../lib/gcc/nios2-elf/9.2.1/../../../../../H-x86_64-mingw32/nios2-elf/lib\libc.a(closer.o)
 .debug_ranges  0x0000000000000500       0x50 c:/intelfpga_lite/20.1/nios2eds/bin/gnu/h-x86_64-mingw32/bin/../lib/gcc/nios2-elf/9.2.1/../../../../../H-x86_64-mingw32/nios2-elf/lib\libc.a(lib_a-dtoa.o)
 .debug_ranges  0x0000000000000550       0x78 c:/intelfpga_lite/20.1/nios2eds/bin/gnu/h-x86_64-mingw32/bin/../lib/gcc/nios2-elf/9.2.1/../../../../../H-x86_64-mingw32/nios2-elf/lib\libc.a(lib_a-fflush.o)
 .debug_ranges  0x00000000000005c8      0x130 c:/intelfpga_lite/20.1/nios2eds/bin/gnu/h-x86_64-mingw32/bin/../lib/gcc/nios2-elf/9.2.1/../../../../../H-x86_64-mingw32/nios2-elf/lib\libc.a(lib_a-findfp.o)
 .debug_ranges  0x00000000000006f8       0x10 c:/intelfpga_lite/20.1/nios2eds/bin/gnu/h-x86_64-mingw32/bin/../lib/gcc/nios2-elf/9.2.1/../../../../../H-x86_64-mingw32/nios2-elf/lib\libc.a(lib_a-flags.o)
 .debug_ranges  0x0000000000000708       0x18 c:/intelfpga_lite/20.1/nios2eds/bin/gnu/h-x86_64-mingw32/bin/../lib/gcc/nios2-elf/9.2.1/../../../../../H-x86_64-mingw32/nios2-elf/lib\libc.a(lib_a-freer.o)
 .debug_ranges  0x0000000000000720       0x28 c:/intelfpga_lite/20.1/nios2eds/bin/gnu/h-x86_64-mingw32/bin/../lib/gcc/nios2-elf/9.2.1/../../../../../H-x86_64-mingw32/nios2-elf/lib\libc.a(lib_a-fvwrite.o)
 .debug_ranges  0x0000000000000748       0x18 c:/intelfpga_lite/20.1/nios2eds/bin/gnu/h-x86_64-mingw32/bin/../lib/gcc/nios2-elf/9.2.1/../../../../../H-x86_64-mingw32/nios2-elf/lib\libc.a(lib_a-fwalk.o)
 .debug_ranges  0x0000000000000760       0x58 c:/intelfpga_lite/20.1/nios2eds/bin/gnu/h-x86_64-mingw32/bin/../lib/gcc/nios2-elf/9.2.1/../../../../../H-x86_64-mingw32/nios2-elf/lib\libc.a(lib_a-getc.o)
 .debug_ranges  0x00000000000007b8       0x10 c:/intelfpga_lite/20.1/nios2eds/bin/gnu/h-x86_64-mingw32/bin/../lib/gcc/nios2-elf/9.2.1/../../../../../H-x86_64-mingw32/nios2-elf/lib\libc.a(lib_a-isattyr.o)
 .debug_ranges  0x00000000000007c8       0x20 c:/intelfpga_lite/20.1/nios2eds/bin/gnu/h-x86_64-mingw32/bin/../lib/gcc/nios2-elf/9.2.1/../../../../../H-x86_64-mingw32/nios2-elf/lib\libc.a(lib_a-localeconv.o)
 .debug_ranges  0x00000000000007e8       0x10 c:/intelfpga_lite/20.1/nios2eds/bin/gnu/h-x86_64-mingw32/bin/../lib/gcc/nios2-elf/9.2.1/../../../../../H-x86_64-mingw32/nios2-elf/lib\libc.a(lib_a-lseekr.o)
 .debug_ranges  0x00000000000007f8       0x10 c:/intelfpga_lite/20.1/nios2eds/bin/gnu/h-x86_64-mingw32/bin/../lib/gcc/nios2-elf/9.2.1/../../../../../H-x86_64-mingw32/nios2-elf/lib\libc.a(lib_a-memchr.o)
 .debug_ranges  0x0000000000000808       0x10 c:/intelfpga_lite/20.1/nios2eds/bin/gnu/h-x86_64-mingw32/bin/../lib/gcc/nios2-elf/9.2.1/../../../../../H-x86_64-mingw32/nios2-elf/lib\libc.a(lib_a-memcpy.o)
 .debug_ranges  0x0000000000000818       0x10 c:/intelfpga_lite/20.1/nios2eds/bin/gnu/h-x86_64-mingw32/bin/../lib/gcc/nios2-elf/9.2.1/../../../../../H-x86_64-mingw32/nios2-elf/lib\libc.a(lib_a-memmove.o)
 .debug_ranges  0x0000000000000828      0x1b8 c:/intelfpga_lite/20.1/nios2eds/bin/gnu/h-x86_64-mingw32/bin/../lib/gcc/nios2-elf/9.2.1/../../../../../H-x86_64-mingw32/nios2-elf/lib\libc.a(lib_a-mprec.o)
 .debug_ranges  0x00000000000009e0       0x58 c:/intelfpga_lite/20.1/nios2eds/bin/gnu/h-x86_64-mingw32/bin/../lib/gcc/nios2-elf/9.2.1/../../../../../H-x86_64-mingw32/nios2-elf/lib\libc.a(lib_a-putc.o)
 .debug_ranges  0x0000000000000a38       0x10 c:/intelfpga_lite/20.1/nios2eds/bin/gnu/h-x86_64-mingw32/bin/../lib/gcc/nios2-elf/9.2.1/../../../../../H-x86_64-mingw32/nios2-elf/lib\libc.a(lib_a-readr.o)
 .debug_ranges  0x0000000000000a48      0x138 c:/intelfpga_lite/20.1/nios2eds/bin/gnu/h-x86_64-mingw32/bin/../lib/gcc/nios2-elf/9.2.1/../../../../../H-x86_64-mingw32/nios2-elf/lib\libc.a(lib_a-reallocr.o)
 .debug_ranges  0x0000000000000b80       0x40 c:/intelfpga_lite/20.1/nios2eds/bin/gnu/h-x86_64-mingw32/bin/../lib/gcc/nios2-elf/9.2.1/../../../../../H-x86_64-mingw32/nios2-elf/lib\libc.a(lib_a-rget.o)
 .debug_ranges  0x0000000000000bc0      0x1b8 c:/intelfpga_lite/20.1/nios2eds/bin/gnu/h-x86_64-mingw32/bin/../lib/gcc/nios2-elf/9.2.1/../../../../../H-x86_64-mingw32/nios2-elf/lib\libc.a(lib_a-vfiprintf.o)
 .debug_ranges  0x0000000000000d78       0x40 c:/intelfpga_lite/20.1/nios2eds/bin/gnu/h-x86_64-mingw32/bin/../lib/gcc/nios2-elf/9.2.1/../../../../../H-x86_64-mingw32/nios2-elf/lib\libc.a(lib_a-wbuf.o)
 .debug_ranges  0x0000000000000db8       0x18 c:/intelfpga_lite/20.1/nios2eds/bin/gnu/h-x86_64-mingw32/bin/../lib/gcc/nios2-elf/9.2.1/../../../../../H-x86_64-mingw32/nios2-elf/lib\libc.a(lib_a-assert.o)
 .debug_ranges  0x0000000000000dd0       0x58 c:/intelfpga_lite/20.1/nios2eds/bin/gnu/h-x86_64-mingw32/bin/../lib/gcc/nios2-elf/9.2.1/../../../../../H-x86_64-mingw32/nios2-elf/lib\libc.a(lib_a-callocr.o)
 .debug_ranges  0x0000000000000e28       0x48 c:/intelfpga_lite/20.1/nios2eds/bin/gnu/h-x86_64-mingw32/bin/../lib/gcc/nios2-elf/9.2.1/../../../../../H-x86_64-mingw32/nios2-elf/lib\libc.a(lib_a-fclose.o)
 .debug_ranges  0x0000000000000e70       0x18 c:/intelfpga_lite/20.1/nios2eds/bin/gnu/h-x86_64-mingw32/bin/../lib/gcc/nios2-elf/9.2.1/../../../../../H-x86_64-mingw32/nios2-elf/lib\libc.a(lib_a-fiprintf.o)
 .debug_ranges  0x0000000000000e88       0x58 c:/intelfpga_lite/20.1/nios2eds/bin/gnu/h-x86_64-mingw32/bin/../lib/gcc/nios2-elf/9.2.1/../../../../../H-x86_64-mingw32/nios2-elf/lib\libc.a(lib_a-fputwc.o)
 .debug_ranges  0x0000000000000ee0       0x38 c:/intelfpga_lite/20.1/nios2eds/bin/gnu/h-x86_64-mingw32/bin/../lib/gcc/nios2-elf/9.2.1/../../../../../H-x86_64-mingw32/nios2-elf/lib\libc.a(lib_a-locale.o)
 .debug_ranges  0x0000000000000f18       0x18 c:/intelfpga_lite/20.1/nios2eds/bin/gnu/h-x86_64-mingw32/bin/../lib/gcc/nios2-elf/9.2.1/../../../../../H-x86_64-mingw32/nios2-elf/lib\libc.a(lib_a-mbtowc_r.o)
 .debug_ranges  0x0000000000000f30       0x10 c:/intelfpga_lite/20.1/nios2eds/bin/gnu/h-x86_64-mingw32/bin/../lib/gcc/nios2-elf/9.2.1/../../../../../H-x86_64-mingw32/nios2-elf/lib\libc.a(lib_a-strcmp.o)
 .debug_ranges  0x0000000000000f40       0x10 c:/intelfpga_lite/20.1/nios2eds/bin/gnu/h-x86_64-mingw32/bin/../lib/gcc/nios2-elf/9.2.1/../../../../../H-x86_64-mingw32/nios2-elf/lib\libc.a(lib_a-vfiprintfr_1.o)
 .debug_ranges  0x0000000000000f50       0x18 c:/intelfpga_lite/20.1/nios2eds/bin/gnu/h-x86_64-mingw32/bin/../lib/gcc/nios2-elf/9.2.1/../../../../../H-x86_64-mingw32/nios2-elf/lib\libc.a(lib_a-wcrtomb.o)
 .debug_ranges  0x0000000000000f68       0x18 c:/intelfpga_lite/20.1/nios2eds/bin/gnu/h-x86_64-mingw32/bin/../lib/gcc/nios2-elf/9.2.1/../../../../../H-x86_64-mingw32/nios2-elf/lib\libc.a(lib_a-wctomb_r.o)
 .debug_ranges  0x0000000000000f80       0x10 c:/intelfpga_lite/20.1/nios2eds/bin/gnu/h-x86_64-mingw32/bin/../lib/gcc/nios2-elf/9.2.1/../../../../../H-x86_64-mingw32/nios2-elf/lib\libc.a(lib_a-abort.o)
 .debug_ranges  0x0000000000000f90       0x80 c:/intelfpga_lite/20.1/nios2eds/bin/gnu/h-x86_64-mingw32/bin/../lib/gcc/nios2-elf/9.2.1/../../../../../H-x86_64-mingw32/nios2-elf/lib\libc.a(lib_a-signal.o)
 .debug_ranges  0x0000000000001010       0x18 c:/intelfpga_lite/20.1/nios2eds/bin/gnu/h-x86_64-mingw32/bin/../lib/gcc/nios2-elf/9.2.1/../../../../../H-x86_64-mingw32/nios2-elf/lib\libc.a(lib_a-signalr.o)
 .debug_ranges  0x0000000000001028      0x1b8 c:/intelfpga_lite/20.1/nios2eds/bin/gnu/h-x86_64-mingw32/bin/../lib/gcc/nios2-elf/9.2.1\libgcc.a(_udivdi3.o)
 .debug_ranges  0x00000000000011e0      0x168 c:/intelfpga_lite/20.1/nios2eds/bin/gnu/h-x86_64-mingw32/bin/../lib/gcc/nios2-elf/9.2.1\libgcc.a(_umoddi3.o)
 .debug_ranges  0x0000000000001348      0x250 c:/intelfpga_lite/20.1/nios2eds/bin/gnu/h-x86_64-mingw32/bin/../lib/gcc/nios2-elf/9.2.1\libgcc.a(adddf3.o)
 .debug_ranges  0x0000000000001598      0x1c8 c:/intelfpga_lite/20.1/nios2eds/bin/gnu/h-x86_64-mingw32/bin/../lib/gcc/nios2-elf/9.2.1\libgcc.a(divdf3.o)
 .debug_ranges  0x0000000000001760       0x48 c:/intelfpga_lite/20.1/nios2eds/bin/gnu/h-x86_64-mingw32/bin/../lib/gcc/nios2-elf/9.2.1\libgcc.a(eqdf2.o)
 .debug_ranges  0x00000000000017a8       0x70 c:/intelfpga_lite/20.1/nios2eds/bin/gnu/h-x86_64-mingw32/bin/../lib/gcc/nios2-elf/9.2.1\libgcc.a(gedf2.o)
 .debug_ranges  0x0000000000001818       0x70 c:/intelfpga_lite/20.1/nios2eds/bin/gnu/h-x86_64-mingw32/bin/../lib/gcc/nios2-elf/9.2.1\libgcc.a(ledf2.o)
 .debug_ranges  0x0000000000001888      0x270 c:/intelfpga_lite/20.1/nios2eds/bin/gnu/h-x86_64-mingw32/bin/../lib/gcc/nios2-elf/9.2.1\libgcc.a(muldf3.o)
 .debug_ranges  0x0000000000001af8      0x248 c:/intelfpga_lite/20.1/nios2eds/bin/gnu/h-x86_64-mingw32/bin/../lib/gcc/nios2-elf/9.2.1\libgcc.a(subdf3.o)
 .debug_ranges  0x0000000000001d40       0x48 c:/intelfpga_lite/20.1/nios2eds/bin/gnu/h-x86_64-mingw32/bin/../lib/gcc/nios2-elf/9.2.1\libgcc.a(unorddf2.o)
 .debug_ranges  0x0000000000001d88       0x18 c:/intelfpga_lite/20.1/nios2eds/bin/gnu/h-x86_64-mingw32/bin/../lib/gcc/nios2-elf/9.2.1\libgcc.a(fixdfsi.o)
 .debug_ranges  0x0000000000001da0       0x50 c:/intelfpga_lite/20.1/nios2eds/bin/gnu/h-x86_64-mingw32/bin/../lib/gcc/nios2-elf/9.2.1\libgcc.a(floatsidf.o)
 .debug_ranges  0x0000000000001df0       0x50 c:/intelfpga_lite/20.1/nios2eds/bin/gnu/h-x86_64-mingw32/bin/../lib/gcc/nios2-elf/9.2.1\libgcc.a(floatunsidf.o)
 .debug_ranges  0x0000000000001e40       0x20 c:/intelfpga_lite/20.1/nios2eds/bin/gnu/h-x86_64-mingw32/bin/../lib/gcc/nios2-elf/9.2.1\libgcc.a(_clzsi2.o)
 .debug_ranges  0x0000000000001e60       0x30 C:/Users/Emre/Documents/projectnios2/DE10_LITE_D8M_VIP_16/software/Vision_bsp\libhal_bsp.a(altera_avalon_jtag_uart_init.o)
 .debug_ranges  0x0000000000001e90       0x18 C:/Users/Emre/Documents/projectnios2/DE10_LITE_D8M_VIP_16/software/Vision_bsp\libhal_bsp.a(altera_avalon_jtag_uart_read.o)
 .debug_ranges  0x0000000000001ea8       0x28 C:/Users/Emre/Documents/projectnios2/DE10_LITE_D8M_VIP_16/software/Vision_bsp\libhal_bsp.a(alt_irq_entry.o)
 .debug_ranges  0x0000000000001ed0       0x10 C:/Users/Emre/Documents/projectnios2/DE10_LITE_D8M_VIP_16/software/Vision_bsp\libhal_bsp.a(alt_irq_handler.o)
 .debug_ranges  0x0000000000001ee0       0x30 C:/Users/Emre/Documents/projectnios2/DE10_LITE_D8M_VIP_16/software/Vision_bsp\libhal_bsp.a(alt_exception_entry.o)
 .debug_ranges  0x0000000000001f10       0x18 C:/Users/Emre/Documents/projectnios2/DE10_LITE_D8M_VIP_16/software/Vision_bsp\libhal_bsp.a(alt_instruction_exception_entry.o)
 .debug_ranges  0x0000000000001f28       0x10 c:/intelfpga_lite/20.1/nios2eds/bin/gnu/h-x86_64-mingw32/bin/../lib/gcc/nios2-elf/9.2.1/../../../../../H-x86_64-mingw32/nios2-elf/lib\libc.a(lib_a-atexit.o)
 .debug_ranges  0x0000000000001f38       0x10 c:/intelfpga_lite/20.1/nios2eds/bin/gnu/h-x86_64-mingw32/bin/../lib/gcc/nios2-elf/9.2.1/../../../../../H-x86_64-mingw32/nios2-elf/lib\libc.a(lib_a-exit.o)
 .debug_ranges  0x0000000000001f48       0x10 c:/intelfpga_lite/20.1/nios2eds/bin/gnu/h-x86_64-mingw32/bin/../lib/gcc/nios2-elf/9.2.1/../../../../../H-x86_64-mingw32/nios2-elf/lib\libc.a(lib_a-memcmp.o)
 .debug_ranges  0x0000000000001f58       0x10 c:/intelfpga_lite/20.1/nios2eds/bin/gnu/h-x86_64-mingw32/bin/../lib/gcc/nios2-elf/9.2.1/../../../../../H-x86_64-mingw32/nios2-elf/lib\libc.a(lib_a-__atexit.o)
 .debug_ranges  0x0000000000001f68       0x30 c:/intelfpga_lite/20.1/nios2eds/bin/gnu/h-x86_64-mingw32/bin/../lib/gcc/nios2-elf/9.2.1/../../../../../H-x86_64-mingw32/nios2-elf/lib\libc.a(lib_a-__call_atexit.o)
